(dp1
S'output'
p2
S''
sS'layer'
p3
S'C:\\Users\\AKSHAY\\Desktop\\web2py\\applications\\201056161\\views\\default/index.html'
p4
sS'code'
p5
S'response.write(\'<!DOCTYPE html>\\n<html lang="\', escape=False)\nresponse.write(T.accepted_language or \'en\')\nresponse.write(\'" class="no-js"><!-- no-js need it for modernzr -->\\n  <head>\\n    \\n    <meta charset="utf-8" />\\t  \\t\\n    <!-- www.phpied.com/conditional-comments-block-downloads/ -->\\n    <!--[if IE]><![endif]-->    \\n    <!-- Always force latest IE rendering engine \\n\\t (even in intranet) & Chrome Frame \\n\\t Remove this if you use the .htaccess -->\\n    <meta http-equiv="X-UA-Compatible" content="IE=edge,chrome=1">\\n    \\n    <title>\', escape=False)\nresponse.write(response.title or request.application)\nresponse.write(\'</title>\\n    \\n    <!-- http://dev.w3.org/html5/markup/meta.name.html -->\\n    <meta name="application-name" content="\', escape=False)\nresponse.write(request.application)\nresponse.write(\'" />\\t\\n    \\n    <!-- Speaking of Google, don\\\'t forget to set your site up: \\n\\t http://google.com/webmasters -->\\n    <meta name="google-site-verification" content="" />\\n    \\n    <!--  Mobile Viewport Fix\\n\\t  j.mp/mobileviewport & davidbcalhoun.com/2010/viewport-metatag \\n\\t  device-width: Occupy full width of the screen in its current orientation\\n\\t  initial-scale = 1.0 retains dimensions instead of zooming out if page height > device height\\n\\t  maximum-scale = 1.0 retains dimensions instead of zooming in if page width < device width\\n      -->\\n    <meta name="viewport" content="width=device-width, initial-scale=1.0, maximum-scale=1.0">\\n    \\n    <!-- Place favicon.ico and apple-touch-icon.png in the root of your domain and delete these references -->\\n    <link rel="shortcut icon" href="\', escape=False)\nresponse.write(URL(\'static\',\'favicon.ico\'))\nresponse.write(\'" type="image/x-icon">\\n    <link rel="apple-touch-icon" href="\', escape=False)\nresponse.write(URL(\'static\',\'favicon.png\'))\nresponse.write(\'">\\n\\n    <!-- For the less-enabled mobile browsers like Opera Mini -->\\n    <link rel="stylesheet" media="handheld" href="\', escape=False)\nresponse.write(URL(\'static\',\'css/handheld.css\'))\nresponse.write(\'">\\n    \\n    <!-- All JavaScript at the bottom, except for Modernizr which enables HTML5 elements & feature detects -->\\n    <script src="\', escape=False)\nresponse.write(URL(\'static\',\'js/modernizr-1.7.min.js\'))\nresponse.write(\'"></script>\\n    \\n    \', escape=False)\n#------  require CSS and JS files for this page (read info in base.css) ------\nresponse.write(\'\\n    \', escape=False)\nresponse.files.append(URL(\'static\',\'css/base.css\'))\nresponse.write(\'\\n    \', escape=False)\nresponse.files.append(URL(\'static\',\'css/superfish.css\'))\nresponse.write(\'\\n    \', escape=False)\nresponse.files.append(URL(\'static\',\'js/superfish.js\'))\nresponse.write(\'\\n    \', escape=False)\n#------ include web2py specific js code (jquery, calendar, form stuff) ------\nresponse.write(\'\\n    \', escape=False)\nresponse.files.insert(0,URL(\'static\',\'js/jquery.js\'))\nresponse.files.insert(1,URL(\'static\',\'css/calendar.css\'))\nresponse.files.insert(2,URL(\'static\',\'js/calendar.js\'))\nfor _item in response.meta or []:\n    response.write(\'\\n     <meta name="\', escape=False)\n    response.write(_item)\n    response.write(\'" content="\', escape=False)\n    response.write(response.meta[_item])\n    response.write(\'" />\', escape=False)\n    pass\nfor _k,_file in enumerate(response.files or []):\n    if _file in response.files[:_k]:\n        continue\n    _file0=_file.lower().split(\'?\')[0]\n    if _file0.endswith(\'.css\'):\n        response.write(\'\\n     <link href="\', escape=False)\n        response.write(_file)\n        response.write(\'" rel="stylesheet" type="text/css" />\', escape=False)\n    elif _file0.endswith(\'.js\'):\n        response.write(\'\\n     <script src="\', escape=False)\n        response.write(_file)\n        response.write(\'" type="text/javascript"></script>\', escape=False)\n        pass\n    pass\nresponse.write(\'\\n    <script type="text/javascript"><!--\\n    // These variables are used by the web2py_ajax_init function in web2py_ajax.js (which is loaded below).\\n    var w2p_ajax_confirm_message = "\', escape=False)\nresponse.write(T(\'Are you sure you want to delete this object?\'))\nresponse.write(\'";\\n    var w2p_ajax_date_format = "\', escape=False)\nresponse.write(T(\'%Y-%m-%d\'))\nresponse.write(\'";\\n    var w2p_ajax_datetime_format = "\', escape=False)\nresponse.write(T(\'%Y-%m-%d %H:%M:%S\'))\nresponse.write(\'";\\n    //--></script>\\n    <script src="\', escape=False)\nresponse.write(URL(\'static\',\'js/web2py_ajax.js\'))\nresponse.write(\'" type="text/javascript"></script>\\n\', escape=False)\nresponse.write(\'\\n\\n    \', escape=False)\n#using sidebars need to know what sidebar you want to use\n#prior of using it, because of static width size of content, you can use\n#left_sidebar, right_sidebar, both or none (False left and right)\nleft_sidebar_enabled = globals().get(\'left_sidebar_enabled\',False)\nright_sidebar_enabled = globals().get(\'right_sidebar_enabled\',False)\nif left_sidebar_enabled and right_sidebar_enabled: width_content=\'63%\'\nelif left_sidebar_enabled != right_sidebar_enabled: width_content=\'740px\'\nelse: width_content=\'100%\'\nif left_sidebar_enabled: left_sidebar_style = \'style="display: block;"\'\nelse: left_sidebar_style = \'style="display: none;"\'\nif right_sidebar_enabled: right_sidebar_style = \'style="display: block;"\'\nelse: right_sidebar_style = \'style="display: none;"\'\nstyle_content = \'style="width: %s"\' % width_content\nresponse.write(\'\\n  </head>\\n  \\n  <!-- paulirish.com/2008/conditional-stylesheets-vs-css-hacks-answer-neither/ -->\\t\\n  <!--[if lt IE 7 ]> <body class="ie6"> <![endif]-->\\n  <!--[if IE 7 ]>    <body class="ie7"> <![endif]-->\\n  <!--[if IE 8 ]>    <body class="ie8"> <![endif]-->\\n  <!--[if IE 9 ]>    <body class="ie9"> <![endif]-->\\n  <!--[if (gt IE 9)|!(IE)]><!--> <body> <!--<![endif]-->\\n    \\n    <div class="flash">\', escape=False)\nresponse.write(response.flash or \'\')\nresponse.write(\'</div> <!-- notification div -->\\n    \\n    <div id="container">\\t      \\t\\t      \\t\\n      \\n      <div id="wrapper">\\t\\t\\n\\t\\n\\t<div id="header"> <!-- header and login nav -->\\n\\t  \', escape=False)\nresponse.write(\' <!-- this is default header -->\\n\\t  \', escape=False)\ntry:\n    response.write(auth.navbar(action=URL(\'default\',\'user\')))\nexcept:pass\nresponse.write(\'\\t\\t          \\n\\t  <h1><span id="appname">\', escape=False)\nresponse.write(request.application.capitalize())\nresponse.write(\'</span>App</h1>\\n\\t  <div style="clear: both;"></div><!-- Clear the divs -->\\n\\t  \', escape=False)\nresponse.write(\'\\t\\t\\t\\t  \\t\\t\\t\\t\\t  \\n\\t</div><!-- header  -->\\n\\t\\n\\t<div id="statusbar"><!-- statusbar is menu zone -->\\n\\t  \', escape=False)\nresponse.write(\' <!-- this is default statusbar -->\\n\\t  \', escape=False)\n#------ superfish menu ------\nresponse.write(\'\\n\\t  \', escape=False)\nresponse.write(MENU(response.menu,_class=\'sf-menu\'))\nresponse.write(\'\\n\\t  <script type="text/javascript">\\n\\t    jQuery(document).ready(function(){\\n\\t    jQuery(\\\'ul.sf-menu\\\').superfish();});\\n\\t  </script>\\n\\t  <div style="clear: both;"></div><!-- Clear the divs -->\\t\\n\\t  \', escape=False)\nresponse.write(\'\\t\\t\\t\\t\\n\\t</div><!-- statusbar -->\\n\\t\\n\\t<div id="page"> <!-- Here my central body -->\\t  \\n\\n\\t  \', escape=False)\nif left_sidebar_enabled:\n    response.write(\'\\n          <div id="left_sidebar" \', escape=False)\n    response.write(XML(left_sidebar_style))\n    response.write(\' >\\n            <div style="padding: 4px;">\\n\\t      \', escape=False)\n    response.write(\'Content Left Sidebar\', escape=False)\n    response.write(\'\\t\\t  \\n            </div>\\n          </div><!-- left_sidebar -->\\n\\t  \', escape=False)\n    pass\nresponse.write(\'\\n\\n\\t  <!-- content -->\\n\\t  <div id="content" \', escape=False)\nresponse.write(XML(style_content))\nresponse.write(\' >\\n\\t    \', escape=False)\nresponse.write(\'\\r\\n<h2> Assignment 2</h2>\\r\\nAkshay Minocha \\r\\n201056161 UG2   \\r\\n\', escape=False)\nresponse.write(LI(A(\'1st question\',_href=URL(r=request,f=\'q1f\')))\nresponse.write(\'\\r\\n\', escape=False)\nresponse.write(LI(A(\'2nd question\',_href=URL(r=request,f=\'q2f\')))\nresponse.write(\'\\r\\n\', escape=False)\nresponse.write(LI(A(\'3rd question\',_href=URL(r=request,f=\'q3f\')))\nresponse.write(\'\\r\\n\', escape=False)\nresponse.write(LI(A(\'4th question\',_href=URL(r=request,f=\'q4f\')))\nresponse.write(\'\\r\\n\', escape=False)\nresponse.write(LI(A(\'5th question\',_href=URL(r=request,f=\'q5f\')))\nresponse.write(\'\\r\\n\', escape=False)\nresponse.write(\'\\t\\n\\t  </div>\\n\\t  <!-- content -->\\n\\n\\t  \', escape=False)\nif right_sidebar_enabled:\n    response.write(\'\\n          <div id="right_sidebar" \', escape=False)\n    response.write(XML(right_sidebar_style))\n    response.write(\' >\\n            <div style="padding: 4px;">\\n              \', escape=False)\n    response.write(\'Content Right Sidebar\', escape=False)\n    response.write(\'\\n            </div>\\n\\t  </div><!-- right_sidebar -->\\n          \', escape=False)\n    pass\nresponse.write(\'\\n\\n\\n\\t  <div style="clear: both;"></div><!-- Clear the divs -->\\n\\t  \\n\\t</div><!-- page -->\\t\\t\\t\\t\\t\\t\\t\\n\\t\\n\\t<div id="footer">\\n\\t  \', escape=False)\nresponse.write(\' <!-- this is default footer -->\\n\\t  <a href="http://www.web2py.com/" style="float: left; padding-right: 6px;">\\n\\t    <img src="\', escape=False)\nresponse.write(URL(\'static\',\'images/poweredby.png\'))\nresponse.write(\'"/>\\n\\t  </a>\\n\\t  \', escape=False)\nresponse.write(T(\'Copyright\'))\nresponse.write(\' &#169; 2010\\t\\t\\t\\t\\n\\t  <div style="clear: both;"></div><!-- Clear the divs -->\\n\\t  \', escape=False)\nresponse.write(\'\\n\\n\\t</div><!-- footer -->\\t\\t\\t\\n      </div><!-- wrapper -->\\n    </div><!-- container -->\\t\\t\\n    \\n    <!--[if lt IE 7 ]>\\n\\t<script src="\', escape=False)\nresponse.write(URL(\'static\',\'js/dd_belatedpng.js\'))\nresponse.write(\'"></script>\\n\\t<script> DD_belatedPNG.fix(\\\'img, .png_bg\\\'); //fix any <img> or .png_bg background-images </script>\\n\\t<![endif]-->\\n    \\n    <!-- asynchronous google analytics: mathiasbynens.be/notes/async-analytics-snippet \\n\\t change the UA-XXXXX-X to be your site\\\'s ID -->\\n    <!--   \\n\\t   <script>\\n\\t     var _gaq = [[\\\'_setAccount\\\', \\\'UA-XXXXX-X\\\'], [\\\'_trackPageview\\\']];\\n\\t     (function(d, t) {\\n\\t     var g = d.createElement(t),\\n\\t     s = d.getElementsByTagName(t)[0];\\n\\t     g.async = true;\\n\\t     g.src = \\\'//www.google-analytics.com/ga.js\\\';\\n\\t     s.parentNode.insertBefore(g, s);\\n\\t     })(document, \\\'script\\\');\\n\\t   </script>\\n\\t   -->    \\n  </body>\\n</html>\\n\', escape=False)'
p6
sS'snapshot'
p7
(dp8
S'exception'
p9
(dp10
S'__getslice__'
p11
S"<method-wrapper '__getslice__' of exceptions.SyntaxError object at 0x031E7570>"
p12
sS'text'
p13
S'"response.write(\'\\\\r\\\\n\', escape=False)\\n"'
p14
sS'__str__'
p15
S"<method-wrapper '__str__' of exceptions.SyntaxError object at 0x031E7570>"
p16
sS'__reduce__'
p17
S'<built-in method __reduce__ of exceptions.SyntaxError object at 0x031E7570>'
p18
sS'__dict__'
p19
S'{}'
p20
sS'__init__'
p21
S"<method-wrapper '__init__' of exceptions.SyntaxError object at 0x031E7570>"
p22
sS'__setattr__'
p23
S"<method-wrapper '__setattr__' of exceptions.SyntaxError object at 0x031E7570>"
p24
sS'__reduce_ex__'
p25
S'<built-in method __reduce_ex__ of exceptions.SyntaxError object at 0x031E7570>'
p26
sS'__new__'
p27
S'<built-in method __new__ of type object at 0x1E1CDBD0>'
p28
sS'__class__'
p29
S"<type 'exceptions.SyntaxError'>"
p30
sS'filename'
p31
S"r'C:\\Users\\AKSHAY\\Desktop\\web2py\\applications\\201056161\\views\\default/index.html'"
p32
sS'lineno'
p33
S'102'
p34
sS'msg'
p35
S"'invalid syntax'"
p36
sS'__doc__'
p37
S"'Invalid syntax.'"
p38
sS'__getitem__'
p39
S"<method-wrapper '__getitem__' of exceptions.SyntaxError object at 0x031E7570>"
p40
sS'__setstate__'
p41
S'<built-in method __setstate__ of exceptions.SyntaxError object at 0x031E7570>'
p42
sS'__getattribute__'
p43
S"<method-wrapper '__getattribute__' of exceptions.SyntaxError object at 0x031E7570>"
p44
sS'print_file_and_line'
p45
S'None'
p46
sS'args'
p47
S'(\'invalid syntax\', (r\'C:\\Users\\AKSHAY\\Desktop\\web2py\\applications\\201056161\\views\\default/index.html\', 102, 8, "response.write(\'\\\\r\\\\n\', escape=False)\\n"))'
p48
sS'offset'
p49
S'8'
sS'__delattr__'
p50
S"<method-wrapper '__delattr__' of exceptions.SyntaxError object at 0x031E7570>"
p51
sS'__repr__'
p52
S"<method-wrapper '__repr__' of exceptions.SyntaxError object at 0x031E7570>"
p53
sS'__hash__'
p54
S"<method-wrapper '__hash__' of exceptions.SyntaxError object at 0x031E7570>"
p55
ssS'evalue'
p56
S'invalid syntax (default/index.html, line 102)'
p57
sS'request'
p58
ccopy_reg
_reconstructor
p59
(cgluon.html
BEAUTIFY
p60
c__builtin__
object
p61
NtRp62
(dp63
S'attributes'
p64
(dp65
sS'components'
p66
(lp67
g59
(cgluon.html
TABLE
p68
g61
NtRp69
(dp70
g64
(dp71
S'level'
p72
I5
ssS'parent'
p73
Nsg66
(lp74
g59
(cgluon.html
TR
p75
g61
NtRp76
(dp77
g64
(dp78
sg73
g69
sg66
(lp79
g59
(cgluon.html
TD
p80
g61
NtRp81
(dp82
g64
(dp83
S'_style'
p84
S'font-weight:bold;'
p85
ssg73
g76
sg66
(lp86
S'ajax'
p87
asbag59
(g80
g61
NtRp88
(dp89
g64
(dp90
S'_valign'
p91
S'top'
p92
ssg73
g76
sg66
(lp93
S':'
asbag59
(g80
g61
NtRp94
(dp95
g64
(dp96
sg73
g76
sg66
(lp97
g59
(g60
g61
NtRp98
(dp99
g64
(dp100
g72
I5
ssg73
g94
sg66
(lp101
S'False'
p102
asbasbasbag59
(g75
g61
NtRp103
(dp104
g64
(dp105
sg73
g69
sg66
(lp106
g59
(g80
g61
NtRp107
(dp108
g64
(dp109
g84
g85
ssg73
g103
sg66
(lp110
S'application'
p111
asbag59
(g80
g61
NtRp112
(dp113
g64
(dp114
g91
g92
ssg73
g103
sg66
(lp115
S':'
asbag59
(g80
g61
NtRp116
(dp117
g64
(dp118
sg73
g103
sg66
(lp119
g59
(g60
g61
NtRp120
(dp121
g64
(dp122
g72
I5
ssg73
g116
sg66
(lp123
S'201056161'
p124
asbasbasbag59
(g75
g61
NtRp125
(dp126
g64
(dp127
sg73
g69
sg66
(lp128
g59
(g80
g61
NtRp129
(dp130
g64
(dp131
g84
g85
ssg73
g125
sg66
(lp132
g47
asbag59
(g80
g61
NtRp133
(dp134
g64
(dp135
g91
g92
ssg73
g125
sg66
(lp136
S':'
asbag59
(g80
g61
NtRp137
(dp138
g64
(dp139
sg73
g125
sg66
(lp140
g59
(g60
g61
NtRp141
(dp142
g64
(dp143
g72
I5
ssg73
g137
sg66
(lp144
g59
(g68
g61
NtRp145
(dp146
g64
(dp147
g72
I4
ssg73
Nsg66
(lp148
sbasbasbasbag59
(g75
g61
NtRp149
(dp150
g64
(dp151
sg73
g69
sg66
(lp152
g59
(g80
g61
NtRp153
(dp154
g64
(dp155
g84
g85
ssg73
g149
sg66
(lp156
S'body'
p157
asbag59
(g80
g61
NtRp158
(dp159
g64
(dp160
g91
g92
ssg73
g149
sg66
(lp161
S':'
asbag59
(g80
g61
NtRp162
(dp163
g64
(dp164
sg73
g149
sg66
(lp165
g59
(g60
g61
NtRp166
(dp167
g64
(dp168
g72
I5
ssg73
g162
sg66
(lp169
S'<cStringIO.StringO object at 0x070B1480>'
p170
asbasbasbag59
(g75
g61
NtRp171
(dp172
g64
(dp173
sg73
g69
sg66
(lp174
g59
(g80
g61
NtRp175
(dp176
g64
(dp177
g84
g85
ssg73
g171
sg66
(lp178
S'client'
p179
asbag59
(g80
g61
NtRp180
(dp181
g64
(dp182
g91
g92
ssg73
g171
sg66
(lp183
S':'
asbag59
(g80
g61
NtRp184
(dp185
g64
(dp186
sg73
g171
sg66
(lp187
g59
(g60
g61
NtRp188
(dp189
g64
(dp190
g72
I5
ssg73
g184
sg66
(lp191
S'127.0.0.1'
p192
asbasbasbag59
(g75
g61
NtRp193
(dp194
g64
(dp195
sg73
g69
sg66
(lp196
g59
(g80
g61
NtRp197
(dp198
g64
(dp199
g84
g85
ssg73
g193
sg66
(lp200
S'controller'
p201
asbag59
(g80
g61
NtRp202
(dp203
g64
(dp204
g91
g92
ssg73
g193
sg66
(lp205
S':'
asbag59
(g80
g61
NtRp206
(dp207
g64
(dp208
sg73
g193
sg66
(lp209
g59
(g60
g61
NtRp210
(dp211
g64
(dp212
g72
I5
ssg73
g206
sg66
(lp213
S'default'
p214
asbasbasbag59
(g75
g61
NtRp215
(dp216
g64
(dp217
sg73
g69
sg66
(lp218
g59
(g80
g61
NtRp219
(dp220
g64
(dp221
g84
g85
ssg73
g215
sg66
(lp222
S'cookies'
p223
asbag59
(g80
g61
NtRp224
(dp225
g64
(dp226
g91
g92
ssg73
g215
sg66
(lp227
S':'
asbag59
(g80
g61
NtRp228
(dp229
g64
(dp230
sg73
g215
sg66
(lp231
g59
(g60
g61
NtRp232
(dp233
g64
(dp234
g72
I5
ssg73
g228
sg66
(lp235
g59
(g68
g61
NtRp236
(dp237
g64
(dp238
g72
I4
ssg73
Nsg66
(lp239
g59
(g75
g61
NtRp240
(dp241
g64
(dp242
sg73
g236
sg66
(lp243
g59
(g80
g61
NtRp244
(dp245
g64
(dp246
g84
g85
ssg73
g240
sg66
(lp247
S'session_id_201056161'
p248
asbag59
(g80
g61
NtRp249
(dp250
g64
(dp251
g91
g92
ssg73
g240
sg66
(lp252
S':'
asbag59
(g80
g61
NtRp253
(dp254
g64
(dp255
sg73
g240
sg66
(lp256
g59
(g60
g61
NtRp257
(dp258
g64
(dp259
g72
I4
ssg73
g253
sg66
(lp260
g59
(g68
g61
NtRp261
(dp262
g64
(dp263
g72
I3
ssg73
Nsg66
(lp264
g59
(g75
g61
NtRp265
(dp266
g64
(dp267
sg73
g261
sg66
(lp268
g59
(g80
g61
NtRp269
(dp270
g64
(dp271
g84
g85
ssg73
g265
sg66
(lp272
S'comment'
p273
asbag59
(g80
g61
NtRp274
(dp275
g64
(dp276
g91
g92
ssg73
g265
sg66
(lp277
S':'
asbag59
(g80
g61
NtRp278
(dp279
g64
(dp280
sg73
g265
sg66
(lp281
g59
(g60
g61
NtRp282
(dp283
g64
(dp284
g72
I3
ssg73
g278
sg66
(lp285
S''
asbasbasbag59
(g75
g61
NtRp286
(dp287
g64
(dp288
sg73
g261
sg66
(lp289
g59
(g80
g61
NtRp290
(dp291
g64
(dp292
g84
g85
ssg73
g286
sg66
(lp293
S'domain'
p294
asbag59
(g80
g61
NtRp295
(dp296
g64
(dp297
g91
g92
ssg73
g286
sg66
(lp298
S':'
asbag59
(g80
g61
NtRp299
(dp300
g64
(dp301
sg73
g286
sg66
(lp302
g59
(g60
g61
NtRp303
(dp304
g64
(dp305
g72
I3
ssg73
g299
sg66
(lp306
S''
asbasbasbag59
(g75
g61
NtRp307
(dp308
g64
(dp309
sg73
g261
sg66
(lp310
g59
(g80
g61
NtRp311
(dp312
g64
(dp313
g84
g85
ssg73
g307
sg66
(lp314
S'expires'
p315
asbag59
(g80
g61
NtRp316
(dp317
g64
(dp318
g91
g92
ssg73
g307
sg66
(lp319
S':'
asbag59
(g80
g61
NtRp320
(dp321
g64
(dp322
sg73
g307
sg66
(lp323
g59
(g60
g61
NtRp324
(dp325
g64
(dp326
g72
I3
ssg73
g320
sg66
(lp327
S''
asbasbasbag59
(g75
g61
NtRp328
(dp329
g64
(dp330
sg73
g261
sg66
(lp331
g59
(g80
g61
NtRp332
(dp333
g64
(dp334
g84
g85
ssg73
g328
sg66
(lp335
S'max-age'
p336
asbag59
(g80
g61
NtRp337
(dp338
g64
(dp339
g91
g92
ssg73
g328
sg66
(lp340
S':'
asbag59
(g80
g61
NtRp341
(dp342
g64
(dp343
sg73
g328
sg66
(lp344
g59
(g60
g61
NtRp345
(dp346
g64
(dp347
g72
I3
ssg73
g341
sg66
(lp348
S''
asbasbasbag59
(g75
g61
NtRp349
(dp350
g64
(dp351
sg73
g261
sg66
(lp352
g59
(g80
g61
NtRp353
(dp354
g64
(dp355
g84
g85
ssg73
g349
sg66
(lp356
S'path'
p357
asbag59
(g80
g61
NtRp358
(dp359
g64
(dp360
g91
g92
ssg73
g349
sg66
(lp361
S':'
asbag59
(g80
g61
NtRp362
(dp363
g64
(dp364
sg73
g349
sg66
(lp365
g59
(g60
g61
NtRp366
(dp367
g64
(dp368
g72
I3
ssg73
g362
sg66
(lp369
S''
asbasbasbag59
(g75
g61
NtRp370
(dp371
g64
(dp372
sg73
g261
sg66
(lp373
g59
(g80
g61
NtRp374
(dp375
g64
(dp376
g84
g85
ssg73
g370
sg66
(lp377
S'secure'
p378
asbag59
(g80
g61
NtRp379
(dp380
g64
(dp381
g91
g92
ssg73
g370
sg66
(lp382
S':'
asbag59
(g80
g61
NtRp383
(dp384
g64
(dp385
sg73
g370
sg66
(lp386
g59
(g60
g61
NtRp387
(dp388
g64
(dp389
g72
I3
ssg73
g383
sg66
(lp390
S''
asbasbasbag59
(g75
g61
NtRp391
(dp392
g64
(dp393
sg73
g261
sg66
(lp394
g59
(g80
g61
NtRp395
(dp396
g64
(dp397
g84
g85
ssg73
g391
sg66
(lp398
S'version'
p399
asbag59
(g80
g61
NtRp400
(dp401
g64
(dp402
g91
g92
ssg73
g391
sg66
(lp403
S':'
asbag59
(g80
g61
NtRp404
(dp405
g64
(dp406
sg73
g391
sg66
(lp407
g59
(g60
g61
NtRp408
(dp409
g64
(dp410
g72
I3
ssg73
g404
sg66
(lp411
S''
asbasbasbasbasbasbasbag59
(g75
g61
NtRp412
(dp413
g64
(dp414
sg73
g236
sg66
(lp415
g59
(g80
g61
NtRp416
(dp417
g64
(dp418
g84
g85
ssg73
g412
sg66
(lp419
S'session_id_admin'
p420
asbag59
(g80
g61
NtRp421
(dp422
g64
(dp423
g91
g92
ssg73
g412
sg66
(lp424
S':'
asbag59
(g80
g61
NtRp425
(dp426
g64
(dp427
sg73
g412
sg66
(lp428
g59
(g60
g61
NtRp429
(dp430
g64
(dp431
g72
I4
ssg73
g425
sg66
(lp432
g59
(g68
g61
NtRp433
(dp434
g64
(dp435
g72
I3
ssg73
Nsg66
(lp436
g59
(g75
g61
NtRp437
(dp438
g64
(dp439
sg73
g433
sg66
(lp440
g59
(g80
g61
NtRp441
(dp442
g64
(dp443
g84
g85
ssg73
g437
sg66
(lp444
g273
asbag59
(g80
g61
NtRp445
(dp446
g64
(dp447
g91
g92
ssg73
g437
sg66
(lp448
S':'
asbag59
(g80
g61
NtRp449
(dp450
g64
(dp451
sg73
g437
sg66
(lp452
g59
(g60
g61
NtRp453
(dp454
g64
(dp455
g72
I3
ssg73
g449
sg66
(lp456
S''
asbasbasbag59
(g75
g61
NtRp457
(dp458
g64
(dp459
sg73
g433
sg66
(lp460
g59
(g80
g61
NtRp461
(dp462
g64
(dp463
g84
g85
ssg73
g457
sg66
(lp464
g294
asbag59
(g80
g61
NtRp465
(dp466
g64
(dp467
g91
g92
ssg73
g457
sg66
(lp468
S':'
asbag59
(g80
g61
NtRp469
(dp470
g64
(dp471
sg73
g457
sg66
(lp472
g59
(g60
g61
NtRp473
(dp474
g64
(dp475
g72
I3
ssg73
g469
sg66
(lp476
S''
asbasbasbag59
(g75
g61
NtRp477
(dp478
g64
(dp479
sg73
g433
sg66
(lp480
g59
(g80
g61
NtRp481
(dp482
g64
(dp483
g84
g85
ssg73
g477
sg66
(lp484
g315
asbag59
(g80
g61
NtRp485
(dp486
g64
(dp487
g91
g92
ssg73
g477
sg66
(lp488
S':'
asbag59
(g80
g61
NtRp489
(dp490
g64
(dp491
sg73
g477
sg66
(lp492
g59
(g60
g61
NtRp493
(dp494
g64
(dp495
g72
I3
ssg73
g489
sg66
(lp496
S''
asbasbasbag59
(g75
g61
NtRp497
(dp498
g64
(dp499
sg73
g433
sg66
(lp500
g59
(g80
g61
NtRp501
(dp502
g64
(dp503
g84
g85
ssg73
g497
sg66
(lp504
g336
asbag59
(g80
g61
NtRp505
(dp506
g64
(dp507
g91
g92
ssg73
g497
sg66
(lp508
S':'
asbag59
(g80
g61
NtRp509
(dp510
g64
(dp511
sg73
g497
sg66
(lp512
g59
(g60
g61
NtRp513
(dp514
g64
(dp515
g72
I3
ssg73
g509
sg66
(lp516
S''
asbasbasbag59
(g75
g61
NtRp517
(dp518
g64
(dp519
sg73
g433
sg66
(lp520
g59
(g80
g61
NtRp521
(dp522
g64
(dp523
g84
g85
ssg73
g517
sg66
(lp524
g357
asbag59
(g80
g61
NtRp525
(dp526
g64
(dp527
g91
g92
ssg73
g517
sg66
(lp528
S':'
asbag59
(g80
g61
NtRp529
(dp530
g64
(dp531
sg73
g517
sg66
(lp532
g59
(g60
g61
NtRp533
(dp534
g64
(dp535
g72
I3
ssg73
g529
sg66
(lp536
S''
asbasbasbag59
(g75
g61
NtRp537
(dp538
g64
(dp539
sg73
g433
sg66
(lp540
g59
(g80
g61
NtRp541
(dp542
g64
(dp543
g84
g85
ssg73
g537
sg66
(lp544
g378
asbag59
(g80
g61
NtRp545
(dp546
g64
(dp547
g91
g92
ssg73
g537
sg66
(lp548
S':'
asbag59
(g80
g61
NtRp549
(dp550
g64
(dp551
sg73
g537
sg66
(lp552
g59
(g60
g61
NtRp553
(dp554
g64
(dp555
g72
I3
ssg73
g549
sg66
(lp556
S''
asbasbasbag59
(g75
g61
NtRp557
(dp558
g64
(dp559
sg73
g433
sg66
(lp560
g59
(g80
g61
NtRp561
(dp562
g64
(dp563
g84
g85
ssg73
g557
sg66
(lp564
g399
asbag59
(g80
g61
NtRp565
(dp566
g64
(dp567
g91
g92
ssg73
g557
sg66
(lp568
S':'
asbag59
(g80
g61
NtRp569
(dp570
g64
(dp571
sg73
g557
sg66
(lp572
g59
(g60
g61
NtRp573
(dp574
g64
(dp575
g72
I3
ssg73
g569
sg66
(lp576
S''
asbasbasbasbasbasbasbag59
(g75
g61
NtRp577
(dp578
g64
(dp579
sg73
g236
sg66
(lp580
g59
(g80
g61
NtRp581
(dp582
g64
(dp583
g84
g85
ssg73
g577
sg66
(lp584
S'session_id_musicrepo'
p585
asbag59
(g80
g61
NtRp586
(dp587
g64
(dp588
g91
g92
ssg73
g577
sg66
(lp589
S':'
asbag59
(g80
g61
NtRp590
(dp591
g64
(dp592
sg73
g577
sg66
(lp593
g59
(g60
g61
NtRp594
(dp595
g64
(dp596
g72
I4
ssg73
g590
sg66
(lp597
g59
(g68
g61
NtRp598
(dp599
g64
(dp600
g72
I3
ssg73
Nsg66
(lp601
g59
(g75
g61
NtRp602
(dp603
g64
(dp604
sg73
g598
sg66
(lp605
g59
(g80
g61
NtRp606
(dp607
g64
(dp608
g84
g85
ssg73
g602
sg66
(lp609
g273
asbag59
(g80
g61
NtRp610
(dp611
g64
(dp612
g91
g92
ssg73
g602
sg66
(lp613
S':'
asbag59
(g80
g61
NtRp614
(dp615
g64
(dp616
sg73
g602
sg66
(lp617
g59
(g60
g61
NtRp618
(dp619
g64
(dp620
g72
I3
ssg73
g614
sg66
(lp621
S''
asbasbasbag59
(g75
g61
NtRp622
(dp623
g64
(dp624
sg73
g598
sg66
(lp625
g59
(g80
g61
NtRp626
(dp627
g64
(dp628
g84
g85
ssg73
g622
sg66
(lp629
g294
asbag59
(g80
g61
NtRp630
(dp631
g64
(dp632
g91
g92
ssg73
g622
sg66
(lp633
S':'
asbag59
(g80
g61
NtRp634
(dp635
g64
(dp636
sg73
g622
sg66
(lp637
g59
(g60
g61
NtRp638
(dp639
g64
(dp640
g72
I3
ssg73
g634
sg66
(lp641
S''
asbasbasbag59
(g75
g61
NtRp642
(dp643
g64
(dp644
sg73
g598
sg66
(lp645
g59
(g80
g61
NtRp646
(dp647
g64
(dp648
g84
g85
ssg73
g642
sg66
(lp649
g315
asbag59
(g80
g61
NtRp650
(dp651
g64
(dp652
g91
g92
ssg73
g642
sg66
(lp653
S':'
asbag59
(g80
g61
NtRp654
(dp655
g64
(dp656
sg73
g642
sg66
(lp657
g59
(g60
g61
NtRp658
(dp659
g64
(dp660
g72
I3
ssg73
g654
sg66
(lp661
S''
asbasbasbag59
(g75
g61
NtRp662
(dp663
g64
(dp664
sg73
g598
sg66
(lp665
g59
(g80
g61
NtRp666
(dp667
g64
(dp668
g84
g85
ssg73
g662
sg66
(lp669
g336
asbag59
(g80
g61
NtRp670
(dp671
g64
(dp672
g91
g92
ssg73
g662
sg66
(lp673
S':'
asbag59
(g80
g61
NtRp674
(dp675
g64
(dp676
sg73
g662
sg66
(lp677
g59
(g60
g61
NtRp678
(dp679
g64
(dp680
g72
I3
ssg73
g674
sg66
(lp681
S''
asbasbasbag59
(g75
g61
NtRp682
(dp683
g64
(dp684
sg73
g598
sg66
(lp685
g59
(g80
g61
NtRp686
(dp687
g64
(dp688
g84
g85
ssg73
g682
sg66
(lp689
g357
asbag59
(g80
g61
NtRp690
(dp691
g64
(dp692
g91
g92
ssg73
g682
sg66
(lp693
S':'
asbag59
(g80
g61
NtRp694
(dp695
g64
(dp696
sg73
g682
sg66
(lp697
g59
(g60
g61
NtRp698
(dp699
g64
(dp700
g72
I3
ssg73
g694
sg66
(lp701
S''
asbasbasbag59
(g75
g61
NtRp702
(dp703
g64
(dp704
sg73
g598
sg66
(lp705
g59
(g80
g61
NtRp706
(dp707
g64
(dp708
g84
g85
ssg73
g702
sg66
(lp709
g378
asbag59
(g80
g61
NtRp710
(dp711
g64
(dp712
g91
g92
ssg73
g702
sg66
(lp713
S':'
asbag59
(g80
g61
NtRp714
(dp715
g64
(dp716
sg73
g702
sg66
(lp717
g59
(g60
g61
NtRp718
(dp719
g64
(dp720
g72
I3
ssg73
g714
sg66
(lp721
S''
asbasbasbag59
(g75
g61
NtRp722
(dp723
g64
(dp724
sg73
g598
sg66
(lp725
g59
(g80
g61
NtRp726
(dp727
g64
(dp728
g84
g85
ssg73
g722
sg66
(lp729
g399
asbag59
(g80
g61
NtRp730
(dp731
g64
(dp732
g91
g92
ssg73
g722
sg66
(lp733
S':'
asbag59
(g80
g61
NtRp734
(dp735
g64
(dp736
sg73
g722
sg66
(lp737
g59
(g60
g61
NtRp738
(dp739
g64
(dp740
g72
I3
ssg73
g734
sg66
(lp741
S''
asbasbasbasbasbasbasbag59
(g75
g61
NtRp742
(dp743
g64
(dp744
sg73
g236
sg66
(lp745
g59
(g80
g61
NtRp746
(dp747
g64
(dp748
g84
g85
ssg73
g742
sg66
(lp749
S'session_id_welcome'
p750
asbag59
(g80
g61
NtRp751
(dp752
g64
(dp753
g91
g92
ssg73
g742
sg66
(lp754
S':'
asbag59
(g80
g61
NtRp755
(dp756
g64
(dp757
sg73
g742
sg66
(lp758
g59
(g60
g61
NtRp759
(dp760
g64
(dp761
g72
I4
ssg73
g755
sg66
(lp762
g59
(g68
g61
NtRp763
(dp764
g64
(dp765
g72
I3
ssg73
Nsg66
(lp766
g59
(g75
g61
NtRp767
(dp768
g64
(dp769
sg73
g763
sg66
(lp770
g59
(g80
g61
NtRp771
(dp772
g64
(dp773
g84
g85
ssg73
g767
sg66
(lp774
g273
asbag59
(g80
g61
NtRp775
(dp776
g64
(dp777
g91
g92
ssg73
g767
sg66
(lp778
S':'
asbag59
(g80
g61
NtRp779
(dp780
g64
(dp781
sg73
g767
sg66
(lp782
g59
(g60
g61
NtRp783
(dp784
g64
(dp785
g72
I3
ssg73
g779
sg66
(lp786
S''
asbasbasbag59
(g75
g61
NtRp787
(dp788
g64
(dp789
sg73
g763
sg66
(lp790
g59
(g80
g61
NtRp791
(dp792
g64
(dp793
g84
g85
ssg73
g787
sg66
(lp794
g294
asbag59
(g80
g61
NtRp795
(dp796
g64
(dp797
g91
g92
ssg73
g787
sg66
(lp798
S':'
asbag59
(g80
g61
NtRp799
(dp800
g64
(dp801
sg73
g787
sg66
(lp802
g59
(g60
g61
NtRp803
(dp804
g64
(dp805
g72
I3
ssg73
g799
sg66
(lp806
S''
asbasbasbag59
(g75
g61
NtRp807
(dp808
g64
(dp809
sg73
g763
sg66
(lp810
g59
(g80
g61
NtRp811
(dp812
g64
(dp813
g84
g85
ssg73
g807
sg66
(lp814
g315
asbag59
(g80
g61
NtRp815
(dp816
g64
(dp817
g91
g92
ssg73
g807
sg66
(lp818
S':'
asbag59
(g80
g61
NtRp819
(dp820
g64
(dp821
sg73
g807
sg66
(lp822
g59
(g60
g61
NtRp823
(dp824
g64
(dp825
g72
I3
ssg73
g819
sg66
(lp826
S''
asbasbasbag59
(g75
g61
NtRp827
(dp828
g64
(dp829
sg73
g763
sg66
(lp830
g59
(g80
g61
NtRp831
(dp832
g64
(dp833
g84
g85
ssg73
g827
sg66
(lp834
g336
asbag59
(g80
g61
NtRp835
(dp836
g64
(dp837
g91
g92
ssg73
g827
sg66
(lp838
S':'
asbag59
(g80
g61
NtRp839
(dp840
g64
(dp841
sg73
g827
sg66
(lp842
g59
(g60
g61
NtRp843
(dp844
g64
(dp845
g72
I3
ssg73
g839
sg66
(lp846
S''
asbasbasbag59
(g75
g61
NtRp847
(dp848
g64
(dp849
sg73
g763
sg66
(lp850
g59
(g80
g61
NtRp851
(dp852
g64
(dp853
g84
g85
ssg73
g847
sg66
(lp854
g357
asbag59
(g80
g61
NtRp855
(dp856
g64
(dp857
g91
g92
ssg73
g847
sg66
(lp858
S':'
asbag59
(g80
g61
NtRp859
(dp860
g64
(dp861
sg73
g847
sg66
(lp862
g59
(g60
g61
NtRp863
(dp864
g64
(dp865
g72
I3
ssg73
g859
sg66
(lp866
S''
asbasbasbag59
(g75
g61
NtRp867
(dp868
g64
(dp869
sg73
g763
sg66
(lp870
g59
(g80
g61
NtRp871
(dp872
g64
(dp873
g84
g85
ssg73
g867
sg66
(lp874
g378
asbag59
(g80
g61
NtRp875
(dp876
g64
(dp877
g91
g92
ssg73
g867
sg66
(lp878
S':'
asbag59
(g80
g61
NtRp879
(dp880
g64
(dp881
sg73
g867
sg66
(lp882
g59
(g60
g61
NtRp883
(dp884
g64
(dp885
g72
I3
ssg73
g879
sg66
(lp886
S''
asbasbasbag59
(g75
g61
NtRp887
(dp888
g64
(dp889
sg73
g763
sg66
(lp890
g59
(g80
g61
NtRp891
(dp892
g64
(dp893
g84
g85
ssg73
g887
sg66
(lp894
g399
asbag59
(g80
g61
NtRp895
(dp896
g64
(dp897
g91
g92
ssg73
g887
sg66
(lp898
S':'
asbag59
(g80
g61
NtRp899
(dp900
g64
(dp901
sg73
g887
sg66
(lp902
g59
(g60
g61
NtRp903
(dp904
g64
(dp905
g72
I3
ssg73
g899
sg66
(lp906
S''
asbasbasbasbasbasbasbasbasbasbasbag59
(g75
g61
NtRp907
(dp908
g64
(dp909
sg73
g69
sg66
(lp910
g59
(g80
g61
NtRp911
(dp912
g64
(dp913
g84
g85
ssg73
g907
sg66
(lp914
S'env'
p915
asbag59
(g80
g61
NtRp916
(dp917
g64
(dp918
g91
g92
ssg73
g907
sg66
(lp919
S':'
asbag59
(g80
g61
NtRp920
(dp921
g64
(dp922
sg73
g907
sg66
(lp923
g59
(g60
g61
NtRp924
(dp925
g64
(dp926
g72
I5
ssg73
g920
sg66
(lp927
g59
(g68
g61
NtRp928
(dp929
g64
(dp930
g72
I4
ssg73
Nsg66
(lp931
g59
(g75
g61
NtRp932
(dp933
g64
(dp934
sg73
g928
sg66
(lp935
g59
(g80
g61
NtRp936
(dp937
g64
(dp938
g84
g85
ssg73
g932
sg66
(lp939
S'app_folders'
p940
asbag59
(g80
g61
NtRp941
(dp942
g64
(dp943
g91
g92
ssg73
g932
sg66
(lp944
S':'
asbag59
(g80
g61
NtRp945
(dp946
g64
(dp947
sg73
g932
sg66
(lp948
g59
(g60
g61
NtRp949
(dp950
g64
(dp951
g72
I4
ssg73
g945
sg66
(lp952
S"set(['C:\\\\Users\\\\AKSHAY\\\\Desktop\\\\web2py\\\\applications\\\\welcome\\\\', 'C:\\\\Users\\\\AKSHAY\\\\Desktop\\\\web2py\\\\applications\\\\201056161\\\\', 'C:\\\\Users\\\\AKSHAY\\\\Desktop\\\\web2py\\\\applications\\\\examples\\\\', 'C:\\\\Users\\\\AKSHAY\\\\Desktop\\\\web2py\\\\applications\\\\admin\\\\', 'C:\\\\Users\\\\AKSHAY\\\\Desktop\\\\web2py\\\\applications\\\\MusicRepo\\\\'])"
p953
asbasbasbag59
(g75
g61
NtRp954
(dp955
g64
(dp956
sg73
g928
sg66
(lp957
g59
(g80
g61
NtRp958
(dp959
g64
(dp960
g84
g85
ssg73
g954
sg66
(lp961
S'applications_parent'
p962
asbag59
(g80
g61
NtRp963
(dp964
g64
(dp965
g91
g92
ssg73
g954
sg66
(lp966
S':'
asbag59
(g80
g61
NtRp967
(dp968
g64
(dp969
sg73
g954
sg66
(lp970
g59
(g60
g61
NtRp971
(dp972
g64
(dp973
g72
I4
ssg73
g967
sg66
(lp974
S'C:\\Users\\AKSHAY\\Desktop\\web2py'
p975
asbasbasbag59
(g75
g61
NtRp976
(dp977
g64
(dp978
sg73
g928
sg66
(lp979
g59
(g80
g61
NtRp980
(dp981
g64
(dp982
g84
g85
ssg73
g976
sg66
(lp983
S'cmd_args'
p984
asbag59
(g80
g61
NtRp985
(dp986
g64
(dp987
g91
g92
ssg73
g976
sg66
(lp988
S':'
asbag59
(g80
g61
NtRp989
(dp990
g64
(dp991
sg73
g976
sg66
(lp992
g59
(g60
g61
NtRp993
(dp994
g64
(dp995
g72
I4
ssg73
g989
sg66
(lp996
g59
(g68
g61
NtRp997
(dp998
g64
(dp999
g72
I3
ssg73
Nsg66
(lp1000
sbasbasbasbag59
(g75
g61
NtRp1001
(dp1002
g64
(dp1003
sg73
g928
sg66
(lp1004
g59
(g80
g61
NtRp1005
(dp1006
g64
(dp1007
g84
g85
ssg73
g1001
sg66
(lp1008
S'cmd_options'
p1009
asbag59
(g80
g61
NtRp1010
(dp1011
g64
(dp1012
g91
g92
ssg73
g1001
sg66
(lp1013
S':'
asbag59
(g80
g61
NtRp1014
(dp1015
g64
(dp1016
sg73
g1001
sg66
(lp1017
g59
(g60
g61
NtRp1018
(dp1019
g64
(dp1020
g72
I4
ssg73
g1014
sg66
(lp1021
S"<Values at 0x2fcdfd0: {'verbose': False, 'ip': '127.0.0.1', 'shutdown_timeout': 5, 'taskbar': False, 'port': 8000, 'maxthreads': None, 'softcron': False, 'server_name': 'AKSHAY-PC', 'bpython': False, 'nogui': False, 'nocron': False, 'extcron': False, 'debuglevel': 30, 'test': None, 'folder': 'C:\\\\Users\\\\AKSHAY\\\\Desktop\\\\web2py', 'config': '', 'import_models': False, 'winservice': '', 'shell': None, 'run': '', 'log_filename': 'httpserver.log', 'args': [''], 'profiler_filename': None, 'ssl_private_key': '', 'password': '<ask>', 'request_queue_size': 5, 'ssl_certificate': '', 'cronjob': False, 'plain': False, 'quiet': False, 'interfaces': None, 'minthreads': None, 'timeout': 10, 'numthreads': None, 'nobanner': False, 'pid_filename': 'httpserver.pid'}>"
p1022
asbasbasbag59
(g75
g61
NtRp1023
(dp1024
g64
(dp1025
sg73
g928
sg66
(lp1026
g59
(g80
g61
NtRp1027
(dp1028
g64
(dp1029
g84
g85
ssg73
g1023
sg66
(lp1030
S'db_sessions'
p1031
asbag59
(g80
g61
NtRp1032
(dp1033
g64
(dp1034
g91
g92
ssg73
g1023
sg66
(lp1035
S':'
asbag59
(g80
g61
NtRp1036
(dp1037
g64
(dp1038
sg73
g1023
sg66
(lp1039
g59
(g60
g61
NtRp1040
(dp1041
g64
(dp1042
g72
I4
ssg73
g1036
sg66
(lp1043
S'set([])'
p1044
asbasbasbag59
(g75
g61
NtRp1045
(dp1046
g64
(dp1047
sg73
g928
sg66
(lp1048
g59
(g80
g61
NtRp1049
(dp1050
g64
(dp1051
g84
g85
ssg73
g1045
sg66
(lp1052
S'debugging'
p1053
asbag59
(g80
g61
NtRp1054
(dp1055
g64
(dp1056
g91
g92
ssg73
g1045
sg66
(lp1057
S':'
asbag59
(g80
g61
NtRp1058
(dp1059
g64
(dp1060
sg73
g1045
sg66
(lp1061
g59
(g60
g61
NtRp1062
(dp1063
g64
(dp1064
g72
I4
ssg73
g1058
sg66
(lp1065
g102
asbasbasbag59
(g75
g61
NtRp1066
(dp1067
g64
(dp1068
sg73
g928
sg66
(lp1069
g59
(g80
g61
NtRp1070
(dp1071
g64
(dp1072
g84
g85
ssg73
g1066
sg66
(lp1073
S'gluon_parent'
p1074
asbag59
(g80
g61
NtRp1075
(dp1076
g64
(dp1077
g91
g92
ssg73
g1066
sg66
(lp1078
S':'
asbag59
(g80
g61
NtRp1079
(dp1080
g64
(dp1081
sg73
g1066
sg66
(lp1082
g59
(g60
g61
NtRp1083
(dp1084
g64
(dp1085
g72
I4
ssg73
g1079
sg66
(lp1086
S'C:\\Users\\AKSHAY\\Desktop\\web2py'
p1087
asbasbasbag59
(g75
g61
NtRp1088
(dp1089
g64
(dp1090
sg73
g928
sg66
(lp1091
g59
(g80
g61
NtRp1092
(dp1093
g64
(dp1094
g84
g85
ssg73
g1088
sg66
(lp1095
S'http_accept'
p1096
asbag59
(g80
g61
NtRp1097
(dp1098
g64
(dp1099
g91
g92
ssg73
g1088
sg66
(lp1100
S':'
asbag59
(g80
g61
NtRp1101
(dp1102
g64
(dp1103
sg73
g1088
sg66
(lp1104
g59
(g60
g61
NtRp1105
(dp1106
g64
(dp1107
g72
I4
ssg73
g1101
sg66
(lp1108
S'text/html,application/xhtml+xml,application/xml;q=0.9,*/*;q=0.8'
p1109
asbasbasbag59
(g75
g61
NtRp1110
(dp1111
g64
(dp1112
sg73
g928
sg66
(lp1113
g59
(g80
g61
NtRp1114
(dp1115
g64
(dp1116
g84
g85
ssg73
g1110
sg66
(lp1117
S'http_accept_charset'
p1118
asbag59
(g80
g61
NtRp1119
(dp1120
g64
(dp1121
g91
g92
ssg73
g1110
sg66
(lp1122
S':'
asbag59
(g80
g61
NtRp1123
(dp1124
g64
(dp1125
sg73
g1110
sg66
(lp1126
g59
(g60
g61
NtRp1127
(dp1128
g64
(dp1129
g72
I4
ssg73
g1123
sg66
(lp1130
S'ISO-8859-1,utf-8;q=0.7,*;q=0.3'
p1131
asbasbasbag59
(g75
g61
NtRp1132
(dp1133
g64
(dp1134
sg73
g928
sg66
(lp1135
g59
(g80
g61
NtRp1136
(dp1137
g64
(dp1138
g84
g85
ssg73
g1132
sg66
(lp1139
S'http_accept_encoding'
p1140
asbag59
(g80
g61
NtRp1141
(dp1142
g64
(dp1143
g91
g92
ssg73
g1132
sg66
(lp1144
S':'
asbag59
(g80
g61
NtRp1145
(dp1146
g64
(dp1147
sg73
g1132
sg66
(lp1148
g59
(g60
g61
NtRp1149
(dp1150
g64
(dp1151
g72
I4
ssg73
g1145
sg66
(lp1152
S'gzip,deflate,sdch'
p1153
asbasbasbag59
(g75
g61
NtRp1154
(dp1155
g64
(dp1156
sg73
g928
sg66
(lp1157
g59
(g80
g61
NtRp1158
(dp1159
g64
(dp1160
g84
g85
ssg73
g1154
sg66
(lp1161
S'http_accept_language'
p1162
asbag59
(g80
g61
NtRp1163
(dp1164
g64
(dp1165
g91
g92
ssg73
g1154
sg66
(lp1166
S':'
asbag59
(g80
g61
NtRp1167
(dp1168
g64
(dp1169
sg73
g1154
sg66
(lp1170
g59
(g60
g61
NtRp1171
(dp1172
g64
(dp1173
g72
I4
ssg73
g1167
sg66
(lp1174
S'en-US,en;q=0.8'
p1175
asbasbasbag59
(g75
g61
NtRp1176
(dp1177
g64
(dp1178
sg73
g928
sg66
(lp1179
g59
(g80
g61
NtRp1180
(dp1181
g64
(dp1182
g84
g85
ssg73
g1176
sg66
(lp1183
S'http_cache_control'
p1184
asbag59
(g80
g61
NtRp1185
(dp1186
g64
(dp1187
g91
g92
ssg73
g1176
sg66
(lp1188
S':'
asbag59
(g80
g61
NtRp1189
(dp1190
g64
(dp1191
sg73
g1176
sg66
(lp1192
g59
(g60
g61
NtRp1193
(dp1194
g64
(dp1195
g72
I4
ssg73
g1189
sg66
(lp1196
S'max-age=0'
p1197
asbasbasbag59
(g75
g61
NtRp1198
(dp1199
g64
(dp1200
sg73
g928
sg66
(lp1201
g59
(g80
g61
NtRp1202
(dp1203
g64
(dp1204
g84
g85
ssg73
g1198
sg66
(lp1205
S'http_connection'
p1206
asbag59
(g80
g61
NtRp1207
(dp1208
g64
(dp1209
g91
g92
ssg73
g1198
sg66
(lp1210
S':'
asbag59
(g80
g61
NtRp1211
(dp1212
g64
(dp1213
sg73
g1198
sg66
(lp1214
g59
(g60
g61
NtRp1215
(dp1216
g64
(dp1217
g72
I4
ssg73
g1211
sg66
(lp1218
S'keep-alive'
p1219
asbasbasbag59
(g75
g61
NtRp1220
(dp1221
g64
(dp1222
sg73
g928
sg66
(lp1223
g59
(g80
g61
NtRp1224
(dp1225
g64
(dp1226
g84
g85
ssg73
g1220
sg66
(lp1227
S'http_cookie'
p1228
asbag59
(g80
g61
NtRp1229
(dp1230
g64
(dp1231
g91
g92
ssg73
g1220
sg66
(lp1232
S':'
asbag59
(g80
g61
NtRp1233
(dp1234
g64
(dp1235
sg73
g1220
sg66
(lp1236
g59
(g60
g61
NtRp1237
(dp1238
g64
(dp1239
g72
I4
ssg73
g1233
sg66
(lp1240
S'session_id_musicrepo=127.0.0.1-e029772f-a7db-4b81-ba69-8dddec4e619a; session_id_welcome=127.0.0.1-418cc45f-3159-4c3f-89b5-0ae0f0182eba; session_id_201056161=127.0.0.1-241b03ee-7604-47b3-91ae-e28314356df9; session_id_admin=127.0.0.1-0c8b9219-dcb7-4d55-a944-116f9d004722'
p1241
asbasbasbag59
(g75
g61
NtRp1242
(dp1243
g64
(dp1244
sg73
g928
sg66
(lp1245
g59
(g80
g61
NtRp1246
(dp1247
g64
(dp1248
g84
g85
ssg73
g1242
sg66
(lp1249
S'http_host'
p1250
asbag59
(g80
g61
NtRp1251
(dp1252
g64
(dp1253
g91
g92
ssg73
g1242
sg66
(lp1254
S':'
asbag59
(g80
g61
NtRp1255
(dp1256
g64
(dp1257
sg73
g1242
sg66
(lp1258
g59
(g60
g61
NtRp1259
(dp1260
g64
(dp1261
g72
I4
ssg73
g1255
sg66
(lp1262
S'127.0.0.1:8000'
p1263
asbasbasbag59
(g75
g61
NtRp1264
(dp1265
g64
(dp1266
sg73
g928
sg66
(lp1267
g59
(g80
g61
NtRp1268
(dp1269
g64
(dp1270
g84
g85
ssg73
g1264
sg66
(lp1271
S'http_user_agent'
p1272
asbag59
(g80
g61
NtRp1273
(dp1274
g64
(dp1275
g91
g92
ssg73
g1264
sg66
(lp1276
S':'
asbag59
(g80
g61
NtRp1277
(dp1278
g64
(dp1279
sg73
g1264
sg66
(lp1280
g59
(g60
g61
NtRp1281
(dp1282
g64
(dp1283
g72
I4
ssg73
g1277
sg66
(lp1284
S'Mozilla/5.0 (Windows NT 6.1; WOW64) AppleWebKit/535.1 (KHTML, like Gecko) Chrome/13.0.782.112 Safari/535.1'
p1285
asbasbasbag59
(g75
g61
NtRp1286
(dp1287
g64
(dp1288
sg73
g928
sg66
(lp1289
g59
(g80
g61
NtRp1290
(dp1291
g64
(dp1292
g84
g85
ssg73
g1286
sg66
(lp1293
S'path_info'
p1294
asbag59
(g80
g61
NtRp1295
(dp1296
g64
(dp1297
g91
g92
ssg73
g1286
sg66
(lp1298
S':'
asbag59
(g80
g61
NtRp1299
(dp1300
g64
(dp1301
sg73
g1286
sg66
(lp1302
g59
(g60
g61
NtRp1303
(dp1304
g64
(dp1305
g72
I4
ssg73
g1299
sg66
(lp1306
S'/201056161/default'
p1307
asbasbasbag59
(g75
g61
NtRp1308
(dp1309
g64
(dp1310
sg73
g928
sg66
(lp1311
g59
(g80
g61
NtRp1312
(dp1313
g64
(dp1314
g84
g85
ssg73
g1308
sg66
(lp1315
S'query_string'
p1316
asbag59
(g80
g61
NtRp1317
(dp1318
g64
(dp1319
g91
g92
ssg73
g1308
sg66
(lp1320
S':'
asbag59
(g80
g61
NtRp1321
(dp1322
g64
(dp1323
sg73
g1308
sg66
(lp1324
g59
(g60
g61
NtRp1325
(dp1326
g64
(dp1327
g72
I4
ssg73
g1321
sg66
(lp1328
S''
asbasbasbag59
(g75
g61
NtRp1329
(dp1330
g64
(dp1331
sg73
g928
sg66
(lp1332
g59
(g80
g61
NtRp1333
(dp1334
g64
(dp1335
g84
g85
ssg73
g1329
sg66
(lp1336
S'remote_addr'
p1337
asbag59
(g80
g61
NtRp1338
(dp1339
g64
(dp1340
g91
g92
ssg73
g1329
sg66
(lp1341
S':'
asbag59
(g80
g61
NtRp1342
(dp1343
g64
(dp1344
sg73
g1329
sg66
(lp1345
g59
(g60
g61
NtRp1346
(dp1347
g64
(dp1348
g72
I4
ssg73
g1342
sg66
(lp1349
g192
asbasbasbag59
(g75
g61
NtRp1350
(dp1351
g64
(dp1352
sg73
g928
sg66
(lp1353
g59
(g80
g61
NtRp1354
(dp1355
g64
(dp1356
g84
g85
ssg73
g1350
sg66
(lp1357
S'remote_port'
p1358
asbag59
(g80
g61
NtRp1359
(dp1360
g64
(dp1361
g91
g92
ssg73
g1350
sg66
(lp1362
S':'
asbag59
(g80
g61
NtRp1363
(dp1364
g64
(dp1365
sg73
g1350
sg66
(lp1366
g59
(g60
g61
NtRp1367
(dp1368
g64
(dp1369
g72
I4
ssg73
g1363
sg66
(lp1370
S'54850'
p1371
asbasbasbag59
(g75
g61
NtRp1372
(dp1373
g64
(dp1374
sg73
g928
sg66
(lp1375
g59
(g80
g61
NtRp1376
(dp1377
g64
(dp1378
g84
g85
ssg73
g1372
sg66
(lp1379
S'request_method'
p1380
asbag59
(g80
g61
NtRp1381
(dp1382
g64
(dp1383
g91
g92
ssg73
g1372
sg66
(lp1384
S':'
asbag59
(g80
g61
NtRp1385
(dp1386
g64
(dp1387
sg73
g1372
sg66
(lp1388
g59
(g60
g61
NtRp1389
(dp1390
g64
(dp1391
g72
I4
ssg73
g1385
sg66
(lp1392
S'GET'
p1393
asbasbasbag59
(g75
g61
NtRp1394
(dp1395
g64
(dp1396
sg73
g928
sg66
(lp1397
g59
(g80
g61
NtRp1398
(dp1399
g64
(dp1400
g84
g85
ssg73
g1394
sg66
(lp1401
S'script_name'
p1402
asbag59
(g80
g61
NtRp1403
(dp1404
g64
(dp1405
g91
g92
ssg73
g1394
sg66
(lp1406
S':'
asbag59
(g80
g61
NtRp1407
(dp1408
g64
(dp1409
sg73
g1394
sg66
(lp1410
g59
(g60
g61
NtRp1411
(dp1412
g64
(dp1413
g72
I4
ssg73
g1407
sg66
(lp1414
S''
asbasbasbag59
(g75
g61
NtRp1415
(dp1416
g64
(dp1417
sg73
g928
sg66
(lp1418
g59
(g80
g61
NtRp1419
(dp1420
g64
(dp1421
g84
g85
ssg73
g1415
sg66
(lp1422
S'server_name'
p1423
asbag59
(g80
g61
NtRp1424
(dp1425
g64
(dp1426
g91
g92
ssg73
g1415
sg66
(lp1427
S':'
asbag59
(g80
g61
NtRp1428
(dp1429
g64
(dp1430
sg73
g1415
sg66
(lp1431
g59
(g60
g61
NtRp1432
(dp1433
g64
(dp1434
g72
I4
ssg73
g1428
sg66
(lp1435
S'AKSHAY-PC'
p1436
asbasbasbag59
(g75
g61
NtRp1437
(dp1438
g64
(dp1439
sg73
g928
sg66
(lp1440
g59
(g80
g61
NtRp1441
(dp1442
g64
(dp1443
g84
g85
ssg73
g1437
sg66
(lp1444
S'server_port'
p1445
asbag59
(g80
g61
NtRp1446
(dp1447
g64
(dp1448
g91
g92
ssg73
g1437
sg66
(lp1449
S':'
asbag59
(g80
g61
NtRp1450
(dp1451
g64
(dp1452
sg73
g1437
sg66
(lp1453
g59
(g60
g61
NtRp1454
(dp1455
g64
(dp1456
g72
I4
ssg73
g1450
sg66
(lp1457
S'8000'
p1458
asbasbasbag59
(g75
g61
NtRp1459
(dp1460
g64
(dp1461
sg73
g928
sg66
(lp1462
g59
(g80
g61
NtRp1463
(dp1464
g64
(dp1465
g84
g85
ssg73
g1459
sg66
(lp1466
S'server_protocol'
p1467
asbag59
(g80
g61
NtRp1468
(dp1469
g64
(dp1470
g91
g92
ssg73
g1459
sg66
(lp1471
S':'
asbag59
(g80
g61
NtRp1472
(dp1473
g64
(dp1474
sg73
g1459
sg66
(lp1475
g59
(g60
g61
NtRp1476
(dp1477
g64
(dp1478
g72
I4
ssg73
g1472
sg66
(lp1479
S'HTTP/1.1'
p1480
asbasbasbag59
(g75
g61
NtRp1481
(dp1482
g64
(dp1483
sg73
g928
sg66
(lp1484
g59
(g80
g61
NtRp1485
(dp1486
g64
(dp1487
g84
g85
ssg73
g1481
sg66
(lp1488
S'server_software'
p1489
asbag59
(g80
g61
NtRp1490
(dp1491
g64
(dp1492
g91
g92
ssg73
g1481
sg66
(lp1493
S':'
asbag59
(g80
g61
NtRp1494
(dp1495
g64
(dp1496
sg73
g1481
sg66
(lp1497
g59
(g60
g61
NtRp1498
(dp1499
g64
(dp1500
g72
I4
ssg73
g1494
sg66
(lp1501
S'Rocket 1.2.2'
p1502
asbasbasbag59
(g75
g61
NtRp1503
(dp1504
g64
(dp1505
sg73
g928
sg66
(lp1506
g59
(g80
g61
NtRp1507
(dp1508
g64
(dp1509
g84
g85
ssg73
g1503
sg66
(lp1510
S'web2py_crontype'
p1511
asbag59
(g80
g61
NtRp1512
(dp1513
g64
(dp1514
g91
g92
ssg73
g1503
sg66
(lp1515
S':'
asbag59
(g80
g61
NtRp1516
(dp1517
g64
(dp1518
sg73
g1503
sg66
(lp1519
g59
(g60
g61
NtRp1520
(dp1521
g64
(dp1522
g72
I4
ssg73
g1516
sg66
(lp1523
S'hard'
p1524
asbasbasbag59
(g75
g61
NtRp1525
(dp1526
g64
(dp1527
sg73
g928
sg66
(lp1528
g59
(g80
g61
NtRp1529
(dp1530
g64
(dp1531
g84
g85
ssg73
g1525
sg66
(lp1532
S'web2py_path'
p1533
asbag59
(g80
g61
NtRp1534
(dp1535
g64
(dp1536
g91
g92
ssg73
g1525
sg66
(lp1537
S':'
asbag59
(g80
g61
NtRp1538
(dp1539
g64
(dp1540
sg73
g1525
sg66
(lp1541
g59
(g60
g61
NtRp1542
(dp1543
g64
(dp1544
g72
I4
ssg73
g1538
sg66
(lp1545
g975
asbasbasbag59
(g75
g61
NtRp1546
(dp1547
g64
(dp1548
sg73
g928
sg66
(lp1549
g59
(g80
g61
NtRp1550
(dp1551
g64
(dp1552
g84
g85
ssg73
g1546
sg66
(lp1553
S'web2py_version'
p1554
asbag59
(g80
g61
NtRp1555
(dp1556
g64
(dp1557
g91
g92
ssg73
g1546
sg66
(lp1558
S':'
asbag59
(g80
g61
NtRp1559
(dp1560
g64
(dp1561
sg73
g1546
sg66
(lp1562
g59
(g60
g61
NtRp1563
(dp1564
g64
(dp1565
g72
I4
ssg73
g1559
sg66
(lp1566
S'Version 1.97.1 (2011-06-26 19:25:44)\n'
p1567
asbasbasbag59
(g75
g61
NtRp1568
(dp1569
g64
(dp1570
sg73
g928
sg66
(lp1571
g59
(g80
g61
NtRp1572
(dp1573
g64
(dp1574
g84
g85
ssg73
g1568
sg66
(lp1575
S'wsgi_errors'
p1576
asbag59
(g80
g61
NtRp1577
(dp1578
g64
(dp1579
g91
g92
ssg73
g1568
sg66
(lp1580
S':'
asbag59
(g80
g61
NtRp1581
(dp1582
g64
(dp1583
sg73
g1568
sg66
(lp1584
g59
(g60
g61
NtRp1585
(dp1586
g64
(dp1587
g72
I4
ssg73
g1581
sg66
(lp1588
S"<open file '<stderr>', mode 'w' at 0x002F00B0>"
p1589
asbasbasbag59
(g75
g61
NtRp1590
(dp1591
g64
(dp1592
sg73
g928
sg66
(lp1593
g59
(g80
g61
NtRp1594
(dp1595
g64
(dp1596
g84
g85
ssg73
g1590
sg66
(lp1597
S'wsgi_file_wrapper'
p1598
asbag59
(g80
g61
NtRp1599
(dp1600
g64
(dp1601
g91
g92
ssg73
g1590
sg66
(lp1602
S':'
asbag59
(g80
g61
NtRp1603
(dp1604
g64
(dp1605
sg73
g1590
sg66
(lp1606
g59
(g60
g61
NtRp1607
(dp1608
g64
(dp1609
g72
I4
ssg73
g1603
sg66
(lp1610
S'<class gluon.rocket.FileWrapper at 0x02F82BA0>'
p1611
asbasbasbag59
(g75
g61
NtRp1612
(dp1613
g64
(dp1614
sg73
g928
sg66
(lp1615
g59
(g80
g61
NtRp1616
(dp1617
g64
(dp1618
g84
g85
ssg73
g1612
sg66
(lp1619
S'wsgi_input'
p1620
asbag59
(g80
g61
NtRp1621
(dp1622
g64
(dp1623
g91
g92
ssg73
g1612
sg66
(lp1624
S':'
asbag59
(g80
g61
NtRp1625
(dp1626
g64
(dp1627
sg73
g1612
sg66
(lp1628
g59
(g60
g61
NtRp1629
(dp1630
g64
(dp1631
g72
I4
ssg73
g1625
sg66
(lp1632
S'<socket._fileobject object at 0x072218B0>'
p1633
asbasbasbag59
(g75
g61
NtRp1634
(dp1635
g64
(dp1636
sg73
g928
sg66
(lp1637
g59
(g80
g61
NtRp1638
(dp1639
g64
(dp1640
g84
g85
ssg73
g1634
sg66
(lp1641
S'wsgi_multiprocess'
p1642
asbag59
(g80
g61
NtRp1643
(dp1644
g64
(dp1645
g91
g92
ssg73
g1634
sg66
(lp1646
S':'
asbag59
(g80
g61
NtRp1647
(dp1648
g64
(dp1649
sg73
g1634
sg66
(lp1650
g59
(g60
g61
NtRp1651
(dp1652
g64
(dp1653
g72
I4
ssg73
g1647
sg66
(lp1654
g102
asbasbasbag59
(g75
g61
NtRp1655
(dp1656
g64
(dp1657
sg73
g928
sg66
(lp1658
g59
(g80
g61
NtRp1659
(dp1660
g64
(dp1661
g84
g85
ssg73
g1655
sg66
(lp1662
S'wsgi_multithread'
p1663
asbag59
(g80
g61
NtRp1664
(dp1665
g64
(dp1666
g91
g92
ssg73
g1655
sg66
(lp1667
S':'
asbag59
(g80
g61
NtRp1668
(dp1669
g64
(dp1670
sg73
g1655
sg66
(lp1671
g59
(g60
g61
NtRp1672
(dp1673
g64
(dp1674
g72
I4
ssg73
g1668
sg66
(lp1675
S'True'
p1676
asbasbasbag59
(g75
g61
NtRp1677
(dp1678
g64
(dp1679
sg73
g928
sg66
(lp1680
g59
(g80
g61
NtRp1681
(dp1682
g64
(dp1683
g84
g85
ssg73
g1677
sg66
(lp1684
S'wsgi_run_once'
p1685
asbag59
(g80
g61
NtRp1686
(dp1687
g64
(dp1688
g91
g92
ssg73
g1677
sg66
(lp1689
S':'
asbag59
(g80
g61
NtRp1690
(dp1691
g64
(dp1692
sg73
g1677
sg66
(lp1693
g59
(g60
g61
NtRp1694
(dp1695
g64
(dp1696
g72
I4
ssg73
g1690
sg66
(lp1697
g102
asbasbasbag59
(g75
g61
NtRp1698
(dp1699
g64
(dp1700
sg73
g928
sg66
(lp1701
g59
(g80
g61
NtRp1702
(dp1703
g64
(dp1704
g84
g85
ssg73
g1698
sg66
(lp1705
S'wsgi_url_scheme'
p1706
asbag59
(g80
g61
NtRp1707
(dp1708
g64
(dp1709
g91
g92
ssg73
g1698
sg66
(lp1710
S':'
asbag59
(g80
g61
NtRp1711
(dp1712
g64
(dp1713
sg73
g1698
sg66
(lp1714
g59
(g60
g61
NtRp1715
(dp1716
g64
(dp1717
g72
I4
ssg73
g1711
sg66
(lp1718
S'http'
p1719
asbasbasbag59
(g75
g61
NtRp1720
(dp1721
g64
(dp1722
sg73
g928
sg66
(lp1723
g59
(g80
g61
NtRp1724
(dp1725
g64
(dp1726
g84
g85
ssg73
g1720
sg66
(lp1727
S'wsgi_version'
p1728
asbag59
(g80
g61
NtRp1729
(dp1730
g64
(dp1731
g91
g92
ssg73
g1720
sg66
(lp1732
S':'
asbag59
(g80
g61
NtRp1733
(dp1734
g64
(dp1735
sg73
g1720
sg66
(lp1736
g59
(g60
g61
NtRp1737
(dp1738
g64
(dp1739
g72
I4
ssg73
g1733
sg66
(lp1740
g59
(g68
g61
NtRp1741
(dp1742
g64
(dp1743
g72
I3
ssg73
Nsg66
(lp1744
g59
(g75
g61
NtRp1745
(dp1746
g64
(dp1747
sg73
g1741
sg66
(lp1748
g59
(g80
g61
NtRp1749
(dp1750
g64
(dp1751
sg73
g1745
sg66
(lp1752
g59
(g60
g61
NtRp1753
(dp1754
g64
(dp1755
g72
I3
ssg73
g1749
sg66
(lp1756
S'1'
asbasbasbag59
(g75
g61
NtRp1757
(dp1758
g64
(dp1759
sg73
g1741
sg66
(lp1760
g59
(g80
g61
NtRp1761
(dp1762
g64
(dp1763
sg73
g1757
sg66
(lp1764
g59
(g60
g61
NtRp1765
(dp1766
g64
(dp1767
g72
I3
ssg73
g1761
sg66
(lp1768
S'0'
asbasbasbasbasbasbasbasbasbasbasbag59
(g75
g61
NtRp1769
(dp1770
g64
(dp1771
sg73
g69
sg66
(lp1772
g59
(g80
g61
NtRp1773
(dp1774
g64
(dp1775
g84
g85
ssg73
g1769
sg66
(lp1776
S'extension'
p1777
asbag59
(g80
g61
NtRp1778
(dp1779
g64
(dp1780
g91
g92
ssg73
g1769
sg66
(lp1781
S':'
asbag59
(g80
g61
NtRp1782
(dp1783
g64
(dp1784
sg73
g1769
sg66
(lp1785
g59
(g60
g61
NtRp1786
(dp1787
g64
(dp1788
g72
I5
ssg73
g1782
sg66
(lp1789
S'html'
p1790
asbasbasbag59
(g75
g61
NtRp1791
(dp1792
g64
(dp1793
sg73
g69
sg66
(lp1794
g59
(g80
g61
NtRp1795
(dp1796
g64
(dp1797
g84
g85
ssg73
g1791
sg66
(lp1798
S'folder'
p1799
asbag59
(g80
g61
NtRp1800
(dp1801
g64
(dp1802
g91
g92
ssg73
g1791
sg66
(lp1803
S':'
asbag59
(g80
g61
NtRp1804
(dp1805
g64
(dp1806
sg73
g1791
sg66
(lp1807
g59
(g60
g61
NtRp1808
(dp1809
g64
(dp1810
g72
I5
ssg73
g1804
sg66
(lp1811
S'C:\\Users\\AKSHAY\\Desktop\\web2py\\applications\\201056161\\'
p1812
asbasbasbag59
(g75
g61
NtRp1813
(dp1814
g64
(dp1815
sg73
g69
sg66
(lp1816
g59
(g80
g61
NtRp1817
(dp1818
g64
(dp1819
g84
g85
ssg73
g1813
sg66
(lp1820
S'function'
p1821
asbag59
(g80
g61
NtRp1822
(dp1823
g64
(dp1824
g91
g92
ssg73
g1813
sg66
(lp1825
S':'
asbag59
(g80
g61
NtRp1826
(dp1827
g64
(dp1828
sg73
g1813
sg66
(lp1829
g59
(g60
g61
NtRp1830
(dp1831
g64
(dp1832
g72
I5
ssg73
g1826
sg66
(lp1833
S'index'
p1834
asbasbasbag59
(g75
g61
NtRp1835
(dp1836
g64
(dp1837
sg73
g69
sg66
(lp1838
g59
(g80
g61
NtRp1839
(dp1840
g64
(dp1841
g84
g85
ssg73
g1835
sg66
(lp1842
S'get_vars'
p1843
asbag59
(g80
g61
NtRp1844
(dp1845
g64
(dp1846
g91
g92
ssg73
g1835
sg66
(lp1847
S':'
asbag59
(g80
g61
NtRp1848
(dp1849
g64
(dp1850
sg73
g1835
sg66
(lp1851
g59
(g60
g61
NtRp1852
(dp1853
g64
(dp1854
g72
I5
ssg73
g1848
sg66
(lp1855
g59
(g68
g61
NtRp1856
(dp1857
g64
(dp1858
g72
I4
ssg73
Nsg66
(lp1859
sbasbasbasbag59
(g75
g61
NtRp1860
(dp1861
g64
(dp1862
sg73
g69
sg66
(lp1863
g59
(g80
g61
NtRp1864
(dp1865
g64
(dp1866
g84
g85
ssg73
g1860
sg66
(lp1867
S'is_https'
p1868
asbag59
(g80
g61
NtRp1869
(dp1870
g64
(dp1871
g91
g92
ssg73
g1860
sg66
(lp1872
S':'
asbag59
(g80
g61
NtRp1873
(dp1874
g64
(dp1875
sg73
g1860
sg66
(lp1876
g59
(g60
g61
NtRp1877
(dp1878
g64
(dp1879
g72
I5
ssg73
g1873
sg66
(lp1880
g102
asbasbasbag59
(g75
g61
NtRp1881
(dp1882
g64
(dp1883
sg73
g69
sg66
(lp1884
g59
(g80
g61
NtRp1885
(dp1886
g64
(dp1887
g84
g85
ssg73
g1881
sg66
(lp1888
S'is_local'
p1889
asbag59
(g80
g61
NtRp1890
(dp1891
g64
(dp1892
g91
g92
ssg73
g1881
sg66
(lp1893
S':'
asbag59
(g80
g61
NtRp1894
(dp1895
g64
(dp1896
sg73
g1881
sg66
(lp1897
g59
(g60
g61
NtRp1898
(dp1899
g64
(dp1900
g72
I5
ssg73
g1894
sg66
(lp1901
g1676
asbasbasbag59
(g75
g61
NtRp1902
(dp1903
g64
(dp1904
sg73
g69
sg66
(lp1905
g59
(g80
g61
NtRp1906
(dp1907
g64
(dp1908
g84
g85
ssg73
g1902
sg66
(lp1909
S'is_restful'
p1910
asbag59
(g80
g61
NtRp1911
(dp1912
g64
(dp1913
g91
g92
ssg73
g1902
sg66
(lp1914
S':'
asbag59
(g80
g61
NtRp1915
(dp1916
g64
(dp1917
sg73
g1902
sg66
(lp1918
g59
(g60
g61
NtRp1919
(dp1920
g64
(dp1921
g72
I5
ssg73
g1915
sg66
(lp1922
g102
asbasbasbag59
(g75
g61
NtRp1923
(dp1924
g64
(dp1925
sg73
g69
sg66
(lp1926
g59
(g80
g61
NtRp1927
(dp1928
g64
(dp1929
g84
g85
ssg73
g1923
sg66
(lp1930
S'now'
p1931
asbag59
(g80
g61
NtRp1932
(dp1933
g64
(dp1934
g91
g92
ssg73
g1923
sg66
(lp1935
S':'
asbag59
(g80
g61
NtRp1936
(dp1937
g64
(dp1938
sg73
g1923
sg66
(lp1939
g59
(g60
g61
NtRp1940
(dp1941
g64
(dp1942
g72
I5
ssg73
g1936
sg66
(lp1943
S'datetime.datetime(2011, 8, 24, 15, 8, 40, 751000)'
p1944
asbasbasbag59
(g75
g61
NtRp1945
(dp1946
g64
(dp1947
sg73
g69
sg66
(lp1948
g59
(g80
g61
NtRp1949
(dp1950
g64
(dp1951
g84
g85
ssg73
g1945
sg66
(lp1952
S'post_vars'
p1953
asbag59
(g80
g61
NtRp1954
(dp1955
g64
(dp1956
g91
g92
ssg73
g1945
sg66
(lp1957
S':'
asbag59
(g80
g61
NtRp1958
(dp1959
g64
(dp1960
sg73
g1945
sg66
(lp1961
g59
(g60
g61
NtRp1962
(dp1963
g64
(dp1964
g72
I5
ssg73
g1958
sg66
(lp1965
g59
(g68
g61
NtRp1966
(dp1967
g64
(dp1968
g72
I4
ssg73
Nsg66
(lp1969
sbasbasbasbag59
(g75
g61
NtRp1970
(dp1971
g64
(dp1972
sg73
g69
sg66
(lp1973
g59
(g80
g61
NtRp1974
(dp1975
g64
(dp1976
g84
g85
ssg73
g1970
sg66
(lp1977
S'url'
p1978
asbag59
(g80
g61
NtRp1979
(dp1980
g64
(dp1981
g91
g92
ssg73
g1970
sg66
(lp1982
S':'
asbag59
(g80
g61
NtRp1983
(dp1984
g64
(dp1985
sg73
g1970
sg66
(lp1986
g59
(g60
g61
NtRp1987
(dp1988
g64
(dp1989
g72
I5
ssg73
g1983
sg66
(lp1990
S'/201056161/default/index'
p1991
asbasbasbag59
(g75
g61
NtRp1992
(dp1993
g64
(dp1994
sg73
g69
sg66
(lp1995
g59
(g80
g61
NtRp1996
(dp1997
g64
(dp1998
g84
g85
ssg73
g1992
sg66
(lp1999
S'uuid'
p2000
asbag59
(g80
g61
NtRp2001
(dp2002
g64
(dp2003
g91
g92
ssg73
g1992
sg66
(lp2004
S':'
asbag59
(g80
g61
NtRp2005
(dp2006
g64
(dp2007
sg73
g1992
sg66
(lp2008
g59
(g60
g61
NtRp2009
(dp2010
g64
(dp2011
g72
I5
ssg73
g2005
sg66
(lp2012
S'201056161/127.0.0.1.2011-08-24.15-08-40.8d4cb381-16f6-45db-a7fb-42e62c84b4df'
p2013
asbasbasbag59
(g75
g61
NtRp2014
(dp2015
g64
(dp2016
sg73
g69
sg66
(lp2017
g59
(g80
g61
NtRp2018
(dp2019
g64
(dp2020
g84
g85
ssg73
g2014
sg66
(lp2021
S'vars'
p2022
asbag59
(g80
g61
NtRp2023
(dp2024
g64
(dp2025
g91
g92
ssg73
g2014
sg66
(lp2026
S':'
asbag59
(g80
g61
NtRp2027
(dp2028
g64
(dp2029
sg73
g2014
sg66
(lp2030
g59
(g60
g61
NtRp2031
(dp2032
g64
(dp2033
g72
I5
ssg73
g2027
sg66
(lp2034
g59
(g68
g61
NtRp2035
(dp2036
g64
(dp2037
g72
I4
ssg73
Nsg66
(lp2038
sbasbasbasbag59
(g75
g61
NtRp2039
(dp2040
g64
(dp2041
sg73
g69
sg66
(lp2042
g59
(g80
g61
NtRp2043
(dp2044
g64
(dp2045
g84
g85
ssg73
g2039
sg66
(lp2046
S'wsgi'
p2047
asbag59
(g80
g61
NtRp2048
(dp2049
g64
(dp2050
g91
g92
ssg73
g2039
sg66
(lp2051
S':'
asbag59
(g80
g61
NtRp2052
(dp2053
g64
(dp2054
sg73
g2039
sg66
(lp2055
g59
(g60
g61
NtRp2056
(dp2057
g64
(dp2058
g72
I5
ssg73
g2052
sg66
(lp2059
g59
(g68
g61
NtRp2060
(dp2061
g64
(dp2062
g72
I4
ssg73
Nsg66
(lp2063
g59
(g75
g61
NtRp2064
(dp2065
g64
(dp2066
sg73
g2060
sg66
(lp2067
g59
(g80
g61
NtRp2068
(dp2069
g64
(dp2070
g84
g85
ssg73
g2064
sg66
(lp2071
S'environ'
p2072
asbag59
(g80
g61
NtRp2073
(dp2074
g64
(dp2075
g91
g92
ssg73
g2064
sg66
(lp2076
S':'
asbag59
(g80
g61
NtRp2077
(dp2078
g64
(dp2079
sg73
g2064
sg66
(lp2080
g59
(g60
g61
NtRp2081
(dp2082
g64
(dp2083
g72
I4
ssg73
g2077
sg66
(lp2084
g59
(g68
g61
NtRp2085
(dp2086
g64
(dp2087
g72
I3
ssg73
Nsg66
(lp2088
g59
(g75
g61
NtRp2089
(dp2090
g64
(dp2091
sg73
g2085
sg66
(lp2092
g59
(g80
g61
NtRp2093
(dp2094
g64
(dp2095
g84
g85
ssg73
g2089
sg66
(lp2096
S'HTTP_ACCEPT'
p2097
asbag59
(g80
g61
NtRp2098
(dp2099
g64
(dp2100
g91
g92
ssg73
g2089
sg66
(lp2101
S':'
asbag59
(g80
g61
NtRp2102
(dp2103
g64
(dp2104
sg73
g2089
sg66
(lp2105
g59
(g60
g61
NtRp2106
(dp2107
g64
(dp2108
g72
I3
ssg73
g2102
sg66
(lp2109
g1109
asbasbasbag59
(g75
g61
NtRp2110
(dp2111
g64
(dp2112
sg73
g2085
sg66
(lp2113
g59
(g80
g61
NtRp2114
(dp2115
g64
(dp2116
g84
g85
ssg73
g2110
sg66
(lp2117
S'HTTP_ACCEPT_CHARSET'
p2118
asbag59
(g80
g61
NtRp2119
(dp2120
g64
(dp2121
g91
g92
ssg73
g2110
sg66
(lp2122
S':'
asbag59
(g80
g61
NtRp2123
(dp2124
g64
(dp2125
sg73
g2110
sg66
(lp2126
g59
(g60
g61
NtRp2127
(dp2128
g64
(dp2129
g72
I3
ssg73
g2123
sg66
(lp2130
g1131
asbasbasbag59
(g75
g61
NtRp2131
(dp2132
g64
(dp2133
sg73
g2085
sg66
(lp2134
g59
(g80
g61
NtRp2135
(dp2136
g64
(dp2137
g84
g85
ssg73
g2131
sg66
(lp2138
S'HTTP_ACCEPT_ENCODING'
p2139
asbag59
(g80
g61
NtRp2140
(dp2141
g64
(dp2142
g91
g92
ssg73
g2131
sg66
(lp2143
S':'
asbag59
(g80
g61
NtRp2144
(dp2145
g64
(dp2146
sg73
g2131
sg66
(lp2147
g59
(g60
g61
NtRp2148
(dp2149
g64
(dp2150
g72
I3
ssg73
g2144
sg66
(lp2151
g1153
asbasbasbag59
(g75
g61
NtRp2152
(dp2153
g64
(dp2154
sg73
g2085
sg66
(lp2155
g59
(g80
g61
NtRp2156
(dp2157
g64
(dp2158
g84
g85
ssg73
g2152
sg66
(lp2159
S'HTTP_ACCEPT_LANGUAGE'
p2160
asbag59
(g80
g61
NtRp2161
(dp2162
g64
(dp2163
g91
g92
ssg73
g2152
sg66
(lp2164
S':'
asbag59
(g80
g61
NtRp2165
(dp2166
g64
(dp2167
sg73
g2152
sg66
(lp2168
g59
(g60
g61
NtRp2169
(dp2170
g64
(dp2171
g72
I3
ssg73
g2165
sg66
(lp2172
g1175
asbasbasbag59
(g75
g61
NtRp2173
(dp2174
g64
(dp2175
sg73
g2085
sg66
(lp2176
g59
(g80
g61
NtRp2177
(dp2178
g64
(dp2179
g84
g85
ssg73
g2173
sg66
(lp2180
S'HTTP_CACHE_CONTROL'
p2181
asbag59
(g80
g61
NtRp2182
(dp2183
g64
(dp2184
g91
g92
ssg73
g2173
sg66
(lp2185
S':'
asbag59
(g80
g61
NtRp2186
(dp2187
g64
(dp2188
sg73
g2173
sg66
(lp2189
g59
(g60
g61
NtRp2190
(dp2191
g64
(dp2192
g72
I3
ssg73
g2186
sg66
(lp2193
g1197
asbasbasbag59
(g75
g61
NtRp2194
(dp2195
g64
(dp2196
sg73
g2085
sg66
(lp2197
g59
(g80
g61
NtRp2198
(dp2199
g64
(dp2200
g84
g85
ssg73
g2194
sg66
(lp2201
S'HTTP_CONNECTION'
p2202
asbag59
(g80
g61
NtRp2203
(dp2204
g64
(dp2205
g91
g92
ssg73
g2194
sg66
(lp2206
S':'
asbag59
(g80
g61
NtRp2207
(dp2208
g64
(dp2209
sg73
g2194
sg66
(lp2210
g59
(g60
g61
NtRp2211
(dp2212
g64
(dp2213
g72
I3
ssg73
g2207
sg66
(lp2214
g1219
asbasbasbag59
(g75
g61
NtRp2215
(dp2216
g64
(dp2217
sg73
g2085
sg66
(lp2218
g59
(g80
g61
NtRp2219
(dp2220
g64
(dp2221
g84
g85
ssg73
g2215
sg66
(lp2222
S'HTTP_COOKIE'
p2223
asbag59
(g80
g61
NtRp2224
(dp2225
g64
(dp2226
g91
g92
ssg73
g2215
sg66
(lp2227
S':'
asbag59
(g80
g61
NtRp2228
(dp2229
g64
(dp2230
sg73
g2215
sg66
(lp2231
g59
(g60
g61
NtRp2232
(dp2233
g64
(dp2234
g72
I3
ssg73
g2228
sg66
(lp2235
g1241
asbasbasbag59
(g75
g61
NtRp2236
(dp2237
g64
(dp2238
sg73
g2085
sg66
(lp2239
g59
(g80
g61
NtRp2240
(dp2241
g64
(dp2242
g84
g85
ssg73
g2236
sg66
(lp2243
S'HTTP_HOST'
p2244
asbag59
(g80
g61
NtRp2245
(dp2246
g64
(dp2247
g91
g92
ssg73
g2236
sg66
(lp2248
S':'
asbag59
(g80
g61
NtRp2249
(dp2250
g64
(dp2251
sg73
g2236
sg66
(lp2252
g59
(g60
g61
NtRp2253
(dp2254
g64
(dp2255
g72
I3
ssg73
g2249
sg66
(lp2256
g1263
asbasbasbag59
(g75
g61
NtRp2257
(dp2258
g64
(dp2259
sg73
g2085
sg66
(lp2260
g59
(g80
g61
NtRp2261
(dp2262
g64
(dp2263
g84
g85
ssg73
g2257
sg66
(lp2264
S'HTTP_USER_AGENT'
p2265
asbag59
(g80
g61
NtRp2266
(dp2267
g64
(dp2268
g91
g92
ssg73
g2257
sg66
(lp2269
S':'
asbag59
(g80
g61
NtRp2270
(dp2271
g64
(dp2272
sg73
g2257
sg66
(lp2273
g59
(g60
g61
NtRp2274
(dp2275
g64
(dp2276
g72
I3
ssg73
g2270
sg66
(lp2277
g1285
asbasbasbag59
(g75
g61
NtRp2278
(dp2279
g64
(dp2280
sg73
g2085
sg66
(lp2281
g59
(g80
g61
NtRp2282
(dp2283
g64
(dp2284
g84
g85
ssg73
g2278
sg66
(lp2285
S'PATH_INFO'
p2286
asbag59
(g80
g61
NtRp2287
(dp2288
g64
(dp2289
g91
g92
ssg73
g2278
sg66
(lp2290
S':'
asbag59
(g80
g61
NtRp2291
(dp2292
g64
(dp2293
sg73
g2278
sg66
(lp2294
g59
(g60
g61
NtRp2295
(dp2296
g64
(dp2297
g72
I3
ssg73
g2291
sg66
(lp2298
g1307
asbasbasbag59
(g75
g61
NtRp2299
(dp2300
g64
(dp2301
sg73
g2085
sg66
(lp2302
g59
(g80
g61
NtRp2303
(dp2304
g64
(dp2305
g84
g85
ssg73
g2299
sg66
(lp2306
S'QUERY_STRING'
p2307
asbag59
(g80
g61
NtRp2308
(dp2309
g64
(dp2310
g91
g92
ssg73
g2299
sg66
(lp2311
S':'
asbag59
(g80
g61
NtRp2312
(dp2313
g64
(dp2314
sg73
g2299
sg66
(lp2315
g59
(g60
g61
NtRp2316
(dp2317
g64
(dp2318
g72
I3
ssg73
g2312
sg66
(lp2319
S''
asbasbasbag59
(g75
g61
NtRp2320
(dp2321
g64
(dp2322
sg73
g2085
sg66
(lp2323
g59
(g80
g61
NtRp2324
(dp2325
g64
(dp2326
g84
g85
ssg73
g2320
sg66
(lp2327
S'REMOTE_ADDR'
p2328
asbag59
(g80
g61
NtRp2329
(dp2330
g64
(dp2331
g91
g92
ssg73
g2320
sg66
(lp2332
S':'
asbag59
(g80
g61
NtRp2333
(dp2334
g64
(dp2335
sg73
g2320
sg66
(lp2336
g59
(g60
g61
NtRp2337
(dp2338
g64
(dp2339
g72
I3
ssg73
g2333
sg66
(lp2340
g192
asbasbasbag59
(g75
g61
NtRp2341
(dp2342
g64
(dp2343
sg73
g2085
sg66
(lp2344
g59
(g80
g61
NtRp2345
(dp2346
g64
(dp2347
g84
g85
ssg73
g2341
sg66
(lp2348
S'REMOTE_PORT'
p2349
asbag59
(g80
g61
NtRp2350
(dp2351
g64
(dp2352
g91
g92
ssg73
g2341
sg66
(lp2353
S':'
asbag59
(g80
g61
NtRp2354
(dp2355
g64
(dp2356
sg73
g2341
sg66
(lp2357
g59
(g60
g61
NtRp2358
(dp2359
g64
(dp2360
g72
I3
ssg73
g2354
sg66
(lp2361
g1371
asbasbasbag59
(g75
g61
NtRp2362
(dp2363
g64
(dp2364
sg73
g2085
sg66
(lp2365
g59
(g80
g61
NtRp2366
(dp2367
g64
(dp2368
g84
g85
ssg73
g2362
sg66
(lp2369
S'REQUEST_METHOD'
p2370
asbag59
(g80
g61
NtRp2371
(dp2372
g64
(dp2373
g91
g92
ssg73
g2362
sg66
(lp2374
S':'
asbag59
(g80
g61
NtRp2375
(dp2376
g64
(dp2377
sg73
g2362
sg66
(lp2378
g59
(g60
g61
NtRp2379
(dp2380
g64
(dp2381
g72
I3
ssg73
g2375
sg66
(lp2382
g1393
asbasbasbag59
(g75
g61
NtRp2383
(dp2384
g64
(dp2385
sg73
g2085
sg66
(lp2386
g59
(g80
g61
NtRp2387
(dp2388
g64
(dp2389
g84
g85
ssg73
g2383
sg66
(lp2390
S'SCRIPT_NAME'
p2391
asbag59
(g80
g61
NtRp2392
(dp2393
g64
(dp2394
g91
g92
ssg73
g2383
sg66
(lp2395
S':'
asbag59
(g80
g61
NtRp2396
(dp2397
g64
(dp2398
sg73
g2383
sg66
(lp2399
g59
(g60
g61
NtRp2400
(dp2401
g64
(dp2402
g72
I3
ssg73
g2396
sg66
(lp2403
S''
asbasbasbag59
(g75
g61
NtRp2404
(dp2405
g64
(dp2406
sg73
g2085
sg66
(lp2407
g59
(g80
g61
NtRp2408
(dp2409
g64
(dp2410
g84
g85
ssg73
g2404
sg66
(lp2411
S'SERVER_NAME'
p2412
asbag59
(g80
g61
NtRp2413
(dp2414
g64
(dp2415
g91
g92
ssg73
g2404
sg66
(lp2416
S':'
asbag59
(g80
g61
NtRp2417
(dp2418
g64
(dp2419
sg73
g2404
sg66
(lp2420
g59
(g60
g61
NtRp2421
(dp2422
g64
(dp2423
g72
I3
ssg73
g2417
sg66
(lp2424
g1436
asbasbasbag59
(g75
g61
NtRp2425
(dp2426
g64
(dp2427
sg73
g2085
sg66
(lp2428
g59
(g80
g61
NtRp2429
(dp2430
g64
(dp2431
g84
g85
ssg73
g2425
sg66
(lp2432
S'SERVER_PORT'
p2433
asbag59
(g80
g61
NtRp2434
(dp2435
g64
(dp2436
g91
g92
ssg73
g2425
sg66
(lp2437
S':'
asbag59
(g80
g61
NtRp2438
(dp2439
g64
(dp2440
sg73
g2425
sg66
(lp2441
g59
(g60
g61
NtRp2442
(dp2443
g64
(dp2444
g72
I3
ssg73
g2438
sg66
(lp2445
g1458
asbasbasbag59
(g75
g61
NtRp2446
(dp2447
g64
(dp2448
sg73
g2085
sg66
(lp2449
g59
(g80
g61
NtRp2450
(dp2451
g64
(dp2452
g84
g85
ssg73
g2446
sg66
(lp2453
S'SERVER_PROTOCOL'
p2454
asbag59
(g80
g61
NtRp2455
(dp2456
g64
(dp2457
g91
g92
ssg73
g2446
sg66
(lp2458
S':'
asbag59
(g80
g61
NtRp2459
(dp2460
g64
(dp2461
sg73
g2446
sg66
(lp2462
g59
(g60
g61
NtRp2463
(dp2464
g64
(dp2465
g72
I3
ssg73
g2459
sg66
(lp2466
g1480
asbasbasbag59
(g75
g61
NtRp2467
(dp2468
g64
(dp2469
sg73
g2085
sg66
(lp2470
g59
(g80
g61
NtRp2471
(dp2472
g64
(dp2473
g84
g85
ssg73
g2467
sg66
(lp2474
S'SERVER_SOFTWARE'
p2475
asbag59
(g80
g61
NtRp2476
(dp2477
g64
(dp2478
g91
g92
ssg73
g2467
sg66
(lp2479
S':'
asbag59
(g80
g61
NtRp2480
(dp2481
g64
(dp2482
sg73
g2467
sg66
(lp2483
g59
(g60
g61
NtRp2484
(dp2485
g64
(dp2486
g72
I3
ssg73
g2480
sg66
(lp2487
g1502
asbasbasbag59
(g75
g61
NtRp2488
(dp2489
g64
(dp2490
sg73
g2085
sg66
(lp2491
g59
(g80
g61
NtRp2492
(dp2493
g64
(dp2494
g84
g85
ssg73
g2488
sg66
(lp2495
S'wsgi.errors'
p2496
asbag59
(g80
g61
NtRp2497
(dp2498
g64
(dp2499
g91
g92
ssg73
g2488
sg66
(lp2500
S':'
asbag59
(g80
g61
NtRp2501
(dp2502
g64
(dp2503
sg73
g2488
sg66
(lp2504
g59
(g60
g61
NtRp2505
(dp2506
g64
(dp2507
g72
I3
ssg73
g2501
sg66
(lp2508
S"<open file '<stderr>', mode 'w' at 0x002F00B0>"
p2509
asbasbasbag59
(g75
g61
NtRp2510
(dp2511
g64
(dp2512
sg73
g2085
sg66
(lp2513
g59
(g80
g61
NtRp2514
(dp2515
g64
(dp2516
g84
g85
ssg73
g2510
sg66
(lp2517
S'wsgi.file_wrapper'
p2518
asbag59
(g80
g61
NtRp2519
(dp2520
g64
(dp2521
g91
g92
ssg73
g2510
sg66
(lp2522
S':'
asbag59
(g80
g61
NtRp2523
(dp2524
g64
(dp2525
sg73
g2510
sg66
(lp2526
g59
(g60
g61
NtRp2527
(dp2528
g64
(dp2529
g72
I3
ssg73
g2523
sg66
(lp2530
S'<class gluon.rocket.FileWrapper at 0x02F82BA0>'
p2531
asbasbasbag59
(g75
g61
NtRp2532
(dp2533
g64
(dp2534
sg73
g2085
sg66
(lp2535
g59
(g80
g61
NtRp2536
(dp2537
g64
(dp2538
g84
g85
ssg73
g2532
sg66
(lp2539
S'wsgi.input'
p2540
asbag59
(g80
g61
NtRp2541
(dp2542
g64
(dp2543
g91
g92
ssg73
g2532
sg66
(lp2544
S':'
asbag59
(g80
g61
NtRp2545
(dp2546
g64
(dp2547
sg73
g2532
sg66
(lp2548
g59
(g60
g61
NtRp2549
(dp2550
g64
(dp2551
g72
I3
ssg73
g2545
sg66
(lp2552
S'<cStringIO.StringO object at 0x070B1480>'
p2553
asbasbasbag59
(g75
g61
NtRp2554
(dp2555
g64
(dp2556
sg73
g2085
sg66
(lp2557
g59
(g80
g61
NtRp2558
(dp2559
g64
(dp2560
g84
g85
ssg73
g2554
sg66
(lp2561
S'wsgi.multiprocess'
p2562
asbag59
(g80
g61
NtRp2563
(dp2564
g64
(dp2565
g91
g92
ssg73
g2554
sg66
(lp2566
S':'
asbag59
(g80
g61
NtRp2567
(dp2568
g64
(dp2569
sg73
g2554
sg66
(lp2570
g59
(g60
g61
NtRp2571
(dp2572
g64
(dp2573
g72
I3
ssg73
g2567
sg66
(lp2574
g102
asbasbasbag59
(g75
g61
NtRp2575
(dp2576
g64
(dp2577
sg73
g2085
sg66
(lp2578
g59
(g80
g61
NtRp2579
(dp2580
g64
(dp2581
g84
g85
ssg73
g2575
sg66
(lp2582
S'wsgi.multithread'
p2583
asbag59
(g80
g61
NtRp2584
(dp2585
g64
(dp2586
g91
g92
ssg73
g2575
sg66
(lp2587
S':'
asbag59
(g80
g61
NtRp2588
(dp2589
g64
(dp2590
sg73
g2575
sg66
(lp2591
g59
(g60
g61
NtRp2592
(dp2593
g64
(dp2594
g72
I3
ssg73
g2588
sg66
(lp2595
g1676
asbasbasbag59
(g75
g61
NtRp2596
(dp2597
g64
(dp2598
sg73
g2085
sg66
(lp2599
g59
(g80
g61
NtRp2600
(dp2601
g64
(dp2602
g84
g85
ssg73
g2596
sg66
(lp2603
S'wsgi.run_once'
p2604
asbag59
(g80
g61
NtRp2605
(dp2606
g64
(dp2607
g91
g92
ssg73
g2596
sg66
(lp2608
S':'
asbag59
(g80
g61
NtRp2609
(dp2610
g64
(dp2611
sg73
g2596
sg66
(lp2612
g59
(g60
g61
NtRp2613
(dp2614
g64
(dp2615
g72
I3
ssg73
g2609
sg66
(lp2616
g102
asbasbasbag59
(g75
g61
NtRp2617
(dp2618
g64
(dp2619
sg73
g2085
sg66
(lp2620
g59
(g80
g61
NtRp2621
(dp2622
g64
(dp2623
g84
g85
ssg73
g2617
sg66
(lp2624
S'wsgi.url_scheme'
p2625
asbag59
(g80
g61
NtRp2626
(dp2627
g64
(dp2628
g91
g92
ssg73
g2617
sg66
(lp2629
S':'
asbag59
(g80
g61
NtRp2630
(dp2631
g64
(dp2632
sg73
g2617
sg66
(lp2633
g59
(g60
g61
NtRp2634
(dp2635
g64
(dp2636
g72
I3
ssg73
g2630
sg66
(lp2637
g1719
asbasbasbag59
(g75
g61
NtRp2638
(dp2639
g64
(dp2640
sg73
g2085
sg66
(lp2641
g59
(g80
g61
NtRp2642
(dp2643
g64
(dp2644
g84
g85
ssg73
g2638
sg66
(lp2645
S'wsgi.version'
p2646
asbag59
(g80
g61
NtRp2647
(dp2648
g64
(dp2649
g91
g92
ssg73
g2638
sg66
(lp2650
S':'
asbag59
(g80
g61
NtRp2651
(dp2652
g64
(dp2653
sg73
g2638
sg66
(lp2654
g59
(g60
g61
NtRp2655
(dp2656
g64
(dp2657
g72
I3
ssg73
g2651
sg66
(lp2658
S'1'
asbasbasbasbasbasbasbasbasbasbasbasbasbsS'frames'
p2659
(lp2660
(dp2661
S'file'
p2662
S'C:\\Users\\AKSHAY\\Desktop\\web2py\\gluon\\restricted.py'
p2663
sS'dump'
p2664
(dp2665
sS'lnum'
p2666
I191
sS'lines'
p2667
(dp2668
sS'call'
p2669
S'(code=\'response.write(\\\'<!DOCTYPE html>\\\\n<html lang="\\\', ...t   -->    \\\\n  </body>\\\\n</html>\\\\n\\\', escape=False)\', environment={\'A\': <class \'gluon.html.A\'>, \'Auth\': <class \'gluon.tools.Auth\'>, \'B\': <class \'gluon.html.B\'>, \'BEAUTIFY\': <class \'gluon.html.BEAUTIFY\'>, \'BODY\': <class \'gluon.html.BODY\'>, \'BR\': <class \'gluon.html.BR\'>, \'BUTTON\': <class \'gluon.html.BUTTON\'>, \'CENTER\': <class \'gluon.html.CENTER\'>, \'CLEANUP\': <class \'gluon.validators.CLEANUP\'>, \'CODE\': <class \'gluon.html.CODE\'>, ...}, layer=r\'C:\\Users\\AKSHAY\\Desktop\\web2py\\applications\\201056161\\views\\default/index.html\')'
p2670
sS'func'
p2671
S'restricted'
p2672
sa(dp2673
g2662
S'C:\\Users\\AKSHAY\\Desktop\\web2py\\gluon\\restricted.py'
p2674
sg2664
(dp2675
sg2666
I178
sg2667
(dp2676
sg2669
S'(code=\'response.write(\\\'<!DOCTYPE html>\\\\n<html lang="\\\', ...t   -->    \\\\n  </body>\\\\n</html>\\\\n\\\', escape=False)\', layer=r\'C:\\Users\\AKSHAY\\Desktop\\web2py\\applications\\201056161\\views\\default/index.html\')'
p2677
sg2671
S'compile2'
p2678
sasS'pyver'
p2679
S'Python 2.5.4: C:\\Users\\AKSHAY\\Desktop\\web2py\\web2py.exe'
p2680
sS'session'
p2681
g59
(g60
g61
NtRp2682
(dp2683
g64
(dp2684
sg66
(lp2685
g59
(g68
g61
NtRp2686
(dp2687
g64
(dp2688
g72
I5
ssg73
Nsg66
(lp2689
sbasbsS'etype'
p2690
S"<type 'exceptions.SyntaxError'>"
p2691
sS'date'
p2692
S'Wed Aug 24 15:08:40 2011'
p2693
sS'response'
p2694
g59
(g60
g61
NtRp2695
(dp2696
g64
(dp2697
sg66
(lp2698
g59
(g68
g61
NtRp2699
(dp2700
g64
(dp2701
g72
I5
ssg73
Nsg66
(lp2702
g59
(g75
g61
NtRp2703
(dp2704
g64
(dp2705
sg73
g2699
sg66
(lp2706
g59
(g80
g61
NtRp2707
(dp2708
g64
(dp2709
g84
g85
ssg73
g2703
sg66
(lp2710
g157
asbag59
(g80
g61
NtRp2711
(dp2712
g64
(dp2713
g91
g92
ssg73
g2703
sg66
(lp2714
S':'
asbag59
(g80
g61
NtRp2715
(dp2716
g64
(dp2717
sg73
g2703
sg66
(lp2718
g59
(g60
g61
NtRp2719
(dp2720
g64
(dp2721
g72
I5
ssg73
g2715
sg66
(lp2722
S'<cStringIO.StringO object at 0x07219BA0>'
p2723
asbasbasbag59
(g75
g61
NtRp2724
(dp2725
g64
(dp2726
sg73
g2699
sg66
(lp2727
g59
(g80
g61
NtRp2728
(dp2729
g64
(dp2730
g84
g85
ssg73
g2724
sg66
(lp2731
g223
asbag59
(g80
g61
NtRp2732
(dp2733
g64
(dp2734
g91
g92
ssg73
g2724
sg66
(lp2735
S':'
asbag59
(g80
g61
NtRp2736
(dp2737
g64
(dp2738
sg73
g2724
sg66
(lp2739
g59
(g60
g61
NtRp2740
(dp2741
g64
(dp2742
g72
I5
ssg73
g2736
sg66
(lp2743
g59
(g68
g61
NtRp2744
(dp2745
g64
(dp2746
g72
I4
ssg73
Nsg66
(lp2747
g59
(g75
g61
NtRp2748
(dp2749
g64
(dp2750
sg73
g2744
sg66
(lp2751
g59
(g80
g61
NtRp2752
(dp2753
g64
(dp2754
g84
g85
ssg73
g2748
sg66
(lp2755
S'session_id_201056161'
p2756
asbag59
(g80
g61
NtRp2757
(dp2758
g64
(dp2759
g91
g92
ssg73
g2748
sg66
(lp2760
S':'
asbag59
(g80
g61
NtRp2761
(dp2762
g64
(dp2763
sg73
g2748
sg66
(lp2764
g59
(g60
g61
NtRp2765
(dp2766
g64
(dp2767
g72
I4
ssg73
g2761
sg66
(lp2768
g59
(g68
g61
NtRp2769
(dp2770
g64
(dp2771
g72
I3
ssg73
Nsg66
(lp2772
g59
(g75
g61
NtRp2773
(dp2774
g64
(dp2775
sg73
g2769
sg66
(lp2776
g59
(g80
g61
NtRp2777
(dp2778
g64
(dp2779
g84
g85
ssg73
g2773
sg66
(lp2780
g273
asbag59
(g80
g61
NtRp2781
(dp2782
g64
(dp2783
g91
g92
ssg73
g2773
sg66
(lp2784
S':'
asbag59
(g80
g61
NtRp2785
(dp2786
g64
(dp2787
sg73
g2773
sg66
(lp2788
g59
(g60
g61
NtRp2789
(dp2790
g64
(dp2791
g72
I3
ssg73
g2785
sg66
(lp2792
S''
asbasbasbag59
(g75
g61
NtRp2793
(dp2794
g64
(dp2795
sg73
g2769
sg66
(lp2796
g59
(g80
g61
NtRp2797
(dp2798
g64
(dp2799
g84
g85
ssg73
g2793
sg66
(lp2800
g294
asbag59
(g80
g61
NtRp2801
(dp2802
g64
(dp2803
g91
g92
ssg73
g2793
sg66
(lp2804
S':'
asbag59
(g80
g61
NtRp2805
(dp2806
g64
(dp2807
sg73
g2793
sg66
(lp2808
g59
(g60
g61
NtRp2809
(dp2810
g64
(dp2811
g72
I3
ssg73
g2805
sg66
(lp2812
S''
asbasbasbag59
(g75
g61
NtRp2813
(dp2814
g64
(dp2815
sg73
g2769
sg66
(lp2816
g59
(g80
g61
NtRp2817
(dp2818
g64
(dp2819
g84
g85
ssg73
g2813
sg66
(lp2820
g315
asbag59
(g80
g61
NtRp2821
(dp2822
g64
(dp2823
g91
g92
ssg73
g2813
sg66
(lp2824
S':'
asbag59
(g80
g61
NtRp2825
(dp2826
g64
(dp2827
sg73
g2813
sg66
(lp2828
g59
(g60
g61
NtRp2829
(dp2830
g64
(dp2831
g72
I3
ssg73
g2825
sg66
(lp2832
S''
asbasbasbag59
(g75
g61
NtRp2833
(dp2834
g64
(dp2835
sg73
g2769
sg66
(lp2836
g59
(g80
g61
NtRp2837
(dp2838
g64
(dp2839
g84
g85
ssg73
g2833
sg66
(lp2840
g336
asbag59
(g80
g61
NtRp2841
(dp2842
g64
(dp2843
g91
g92
ssg73
g2833
sg66
(lp2844
S':'
asbag59
(g80
g61
NtRp2845
(dp2846
g64
(dp2847
sg73
g2833
sg66
(lp2848
g59
(g60
g61
NtRp2849
(dp2850
g64
(dp2851
g72
I3
ssg73
g2845
sg66
(lp2852
S''
asbasbasbag59
(g75
g61
NtRp2853
(dp2854
g64
(dp2855
sg73
g2769
sg66
(lp2856
g59
(g80
g61
NtRp2857
(dp2858
g64
(dp2859
g84
g85
ssg73
g2853
sg66
(lp2860
g357
asbag59
(g80
g61
NtRp2861
(dp2862
g64
(dp2863
g91
g92
ssg73
g2853
sg66
(lp2864
S':'
asbag59
(g80
g61
NtRp2865
(dp2866
g64
(dp2867
sg73
g2853
sg66
(lp2868
g59
(g60
g61
NtRp2869
(dp2870
g64
(dp2871
g72
I3
ssg73
g2865
sg66
(lp2872
S'/'
asbasbasbag59
(g75
g61
NtRp2873
(dp2874
g64
(dp2875
sg73
g2769
sg66
(lp2876
g59
(g80
g61
NtRp2877
(dp2878
g64
(dp2879
g84
g85
ssg73
g2873
sg66
(lp2880
g378
asbag59
(g80
g61
NtRp2881
(dp2882
g64
(dp2883
g91
g92
ssg73
g2873
sg66
(lp2884
S':'
asbag59
(g80
g61
NtRp2885
(dp2886
g64
(dp2887
sg73
g2873
sg66
(lp2888
g59
(g60
g61
NtRp2889
(dp2890
g64
(dp2891
g72
I3
ssg73
g2885
sg66
(lp2892
S''
asbasbasbag59
(g75
g61
NtRp2893
(dp2894
g64
(dp2895
sg73
g2769
sg66
(lp2896
g59
(g80
g61
NtRp2897
(dp2898
g64
(dp2899
g84
g85
ssg73
g2893
sg66
(lp2900
g399
asbag59
(g80
g61
NtRp2901
(dp2902
g64
(dp2903
g91
g92
ssg73
g2893
sg66
(lp2904
S':'
asbag59
(g80
g61
NtRp2905
(dp2906
g64
(dp2907
sg73
g2893
sg66
(lp2908
g59
(g60
g61
NtRp2909
(dp2910
g64
(dp2911
g72
I3
ssg73
g2905
sg66
(lp2912
S''
asbasbasbasbasbasbasbasbasbasbasbag59
(g75
g61
NtRp2913
(dp2914
g64
(dp2915
sg73
g2699
sg66
(lp2916
g59
(g80
g61
NtRp2917
(dp2918
g64
(dp2919
g84
g85
ssg73
g2913
sg66
(lp2920
S'files'
p2921
asbag59
(g80
g61
NtRp2922
(dp2923
g64
(dp2924
g91
g92
ssg73
g2913
sg66
(lp2925
S':'
asbag59
(g80
g61
NtRp2926
(dp2927
g64
(dp2928
sg73
g2913
sg66
(lp2929
g59
(g60
g61
NtRp2930
(dp2931
g64
(dp2932
g72
I5
ssg73
g2926
sg66
(lp2933
g59
(g68
g61
NtRp2934
(dp2935
g64
(dp2936
g72
I4
ssg73
Nsg66
(lp2937
sbasbasbasbag59
(g75
g61
NtRp2938
(dp2939
g64
(dp2940
sg73
g2699
sg66
(lp2941
g59
(g80
g61
NtRp2942
(dp2943
g64
(dp2944
g84
g85
ssg73
g2938
sg66
(lp2945
S'flash'
p2946
asbag59
(g80
g61
NtRp2947
(dp2948
g64
(dp2949
g91
g92
ssg73
g2938
sg66
(lp2950
S':'
asbag59
(g80
g61
NtRp2951
(dp2952
g64
(dp2953
sg73
g2938
sg66
(lp2954
g59
(g60
g61
NtRp2955
(dp2956
g64
(dp2957
g72
I5
ssg73
g2951
sg66
(lp2958
S''
asbasbasbag59
(g75
g61
NtRp2959
(dp2960
g64
(dp2961
sg73
g2699
sg66
(lp2962
g59
(g80
g61
NtRp2963
(dp2964
g64
(dp2965
g84
g85
ssg73
g2959
sg66
(lp2966
S'generic_patterns'
p2967
asbag59
(g80
g61
NtRp2968
(dp2969
g64
(dp2970
g91
g92
ssg73
g2959
sg66
(lp2971
S':'
asbag59
(g80
g61
NtRp2972
(dp2973
g64
(dp2974
sg73
g2959
sg66
(lp2975
g59
(g60
g61
NtRp2976
(dp2977
g64
(dp2978
g72
I5
ssg73
g2972
sg66
(lp2979
g59
(g68
g61
NtRp2980
(dp2981
g64
(dp2982
g72
I4
ssg73
Nsg66
(lp2983
g59
(g75
g61
NtRp2984
(dp2985
g64
(dp2986
sg73
g2980
sg66
(lp2987
g59
(g80
g61
NtRp2988
(dp2989
g64
(dp2990
sg73
g2984
sg66
(lp2991
g59
(g60
g61
NtRp2992
(dp2993
g64
(dp2994
g72
I4
ssg73
g2988
sg66
(lp2995
S'*'
asbasbasbasbasbasbasbag59
(g75
g61
NtRp2996
(dp2997
g64
(dp2998
sg73
g2699
sg66
(lp2999
g59
(g80
g61
NtRp3000
(dp3001
g64
(dp3002
g84
g85
ssg73
g2996
sg66
(lp3003
S'headers'
p3004
asbag59
(g80
g61
NtRp3005
(dp3006
g64
(dp3007
g91
g92
ssg73
g2996
sg66
(lp3008
S':'
asbag59
(g80
g61
NtRp3009
(dp3010
g64
(dp3011
sg73
g2996
sg66
(lp3012
g59
(g60
g61
NtRp3013
(dp3014
g64
(dp3015
g72
I5
ssg73
g3009
sg66
(lp3016
g59
(g68
g61
NtRp3017
(dp3018
g64
(dp3019
g72
I4
ssg73
Nsg66
(lp3020
g59
(g75
g61
NtRp3021
(dp3022
g64
(dp3023
sg73
g3017
sg66
(lp3024
g59
(g80
g61
NtRp3025
(dp3026
g64
(dp3027
g84
g85
ssg73
g3021
sg66
(lp3028
S'Cache-Control'
p3029
asbag59
(g80
g61
NtRp3030
(dp3031
g64
(dp3032
g91
g92
ssg73
g3021
sg66
(lp3033
S':'
asbag59
(g80
g61
NtRp3034
(dp3035
g64
(dp3036
sg73
g3021
sg66
(lp3037
g59
(g60
g61
NtRp3038
(dp3039
g64
(dp3040
g72
I4
ssg73
g3034
sg66
(lp3041
S'no-store, no-cache, must-revalidate, post-check=0, pre-check=0'
p3042
asbasbasbag59
(g75
g61
NtRp3043
(dp3044
g64
(dp3045
sg73
g3017
sg66
(lp3046
g59
(g80
g61
NtRp3047
(dp3048
g64
(dp3049
g84
g85
ssg73
g3043
sg66
(lp3050
S'Content-Type'
p3051
asbag59
(g80
g61
NtRp3052
(dp3053
g64
(dp3054
g91
g92
ssg73
g3043
sg66
(lp3055
S':'
asbag59
(g80
g61
NtRp3056
(dp3057
g64
(dp3058
sg73
g3043
sg66
(lp3059
g59
(g60
g61
NtRp3060
(dp3061
g64
(dp3062
g72
I4
ssg73
g3056
sg66
(lp3063
S'text/html; charset=utf-8'
p3064
asbasbasbag59
(g75
g61
NtRp3065
(dp3066
g64
(dp3067
sg73
g3017
sg66
(lp3068
g59
(g80
g61
NtRp3069
(dp3070
g64
(dp3071
g84
g85
ssg73
g3065
sg66
(lp3072
S'Expires'
p3073
asbag59
(g80
g61
NtRp3074
(dp3075
g64
(dp3076
g91
g92
ssg73
g3065
sg66
(lp3077
S':'
asbag59
(g80
g61
NtRp3078
(dp3079
g64
(dp3080
sg73
g3065
sg66
(lp3081
g59
(g60
g61
NtRp3082
(dp3083
g64
(dp3084
g72
I4
ssg73
g3078
sg66
(lp3085
S'Wed, 24 Aug 2011 09:38:40 GMT'
p3086
asbasbasbag59
(g75
g61
NtRp3087
(dp3088
g64
(dp3089
sg73
g3017
sg66
(lp3090
g59
(g80
g61
NtRp3091
(dp3092
g64
(dp3093
g84
g85
ssg73
g3087
sg66
(lp3094
S'Pragma'
p3095
asbag59
(g80
g61
NtRp3096
(dp3097
g64
(dp3098
g91
g92
ssg73
g3087
sg66
(lp3099
S':'
asbag59
(g80
g61
NtRp3100
(dp3101
g64
(dp3102
sg73
g3087
sg66
(lp3103
g59
(g60
g61
NtRp3104
(dp3105
g64
(dp3106
g72
I4
ssg73
g3100
sg66
(lp3107
S'no-cache'
p3108
asbasbasbag59
(g75
g61
NtRp3109
(dp3110
g64
(dp3111
sg73
g3017
sg66
(lp3112
g59
(g80
g61
NtRp3113
(dp3114
g64
(dp3115
g84
g85
ssg73
g3109
sg66
(lp3116
S'X-Powered-By'
p3117
asbag59
(g80
g61
NtRp3118
(dp3119
g64
(dp3120
g91
g92
ssg73
g3109
sg66
(lp3121
S':'
asbag59
(g80
g61
NtRp3122
(dp3123
g64
(dp3124
sg73
g3109
sg66
(lp3125
g59
(g60
g61
NtRp3126
(dp3127
g64
(dp3128
g72
I4
ssg73
g3122
sg66
(lp3129
S'web2py'
p3130
asbasbasbasbasbasbasbag59
(g75
g61
NtRp3131
(dp3132
g64
(dp3133
sg73
g2699
sg66
(lp3134
g59
(g80
g61
NtRp3135
(dp3136
g64
(dp3137
g84
g85
ssg73
g3131
sg66
(lp3138
S'menu'
p3139
asbag59
(g80
g61
NtRp3140
(dp3141
g64
(dp3142
g91
g92
ssg73
g3131
sg66
(lp3143
S':'
asbag59
(g80
g61
NtRp3144
(dp3145
g64
(dp3146
sg73
g3131
sg66
(lp3147
g59
(g60
g61
NtRp3148
(dp3149
g64
(dp3150
g72
I5
ssg73
g3144
sg66
(lp3151
g59
(g68
g61
NtRp3152
(dp3153
g64
(dp3154
g72
I4
ssg73
Nsg66
(lp3155
g59
(g75
g61
NtRp3156
(dp3157
g64
(dp3158
sg73
g3152
sg66
(lp3159
g59
(g80
g61
NtRp3160
(dp3161
g64
(dp3162
sg73
g3156
sg66
(lp3163
g59
(g60
g61
NtRp3164
(dp3165
g64
(dp3166
g72
I4
ssg73
g3160
sg66
(lp3167
g59
(g68
g61
NtRp3168
(dp3169
g64
(dp3170
g72
I3
ssg73
Nsg66
(lp3171
g59
(g75
g61
NtRp3172
(dp3173
g64
(dp3174
sg73
g3168
sg66
(lp3175
g59
(g80
g61
NtRp3176
(dp3177
g64
(dp3178
sg73
g3172
sg66
(lp3179
g59
(g60
g61
NtRp3180
(dp3181
g64
(dp3182
g72
I3
ssg73
g3176
sg66
(lp3183
cgluon.languages
lazyT_unpickle
p3184
(S's\x04\x00\x00\x00Home'
tRp3185
asbasbasbag59
(g75
g61
NtRp3186
(dp3187
g64
(dp3188
sg73
g3168
sg66
(lp3189
g59
(g80
g61
NtRp3190
(dp3191
g64
(dp3192
sg73
g3186
sg66
(lp3193
g59
(g60
g61
NtRp3194
(dp3195
g64
(dp3196
g72
I3
ssg73
g3190
sg66
(lp3197
g102
asbasbasbag59
(g75
g61
NtRp3198
(dp3199
g64
(dp3200
sg73
g3168
sg66
(lp3201
g59
(g80
g61
NtRp3202
(dp3203
g64
(dp3204
sg73
g3198
sg66
(lp3205
g59
(g60
g61
NtRp3206
(dp3207
g64
(dp3208
g72
I3
ssg73
g3202
sg66
(lp3209
S'/201056161/default/index'
p3210
asbasbasbag59
(g75
g61
NtRp3211
(dp3212
g64
(dp3213
sg73
g3168
sg66
(lp3214
g59
(g80
g61
NtRp3215
(dp3216
g64
(dp3217
sg73
g3211
sg66
(lp3218
g59
(g60
g61
NtRp3219
(dp3220
g64
(dp3221
g72
I3
ssg73
g3215
sg66
(lp3222
g59
(g68
g61
NtRp3223
(dp3224
g64
(dp3225
g72
I2
ssg73
Nsg66
(lp3226
sbasbasbasbasbasbasbasbag59
(g75
g61
NtRp3227
(dp3228
g64
(dp3229
sg73
g3152
sg66
(lp3230
g59
(g80
g61
NtRp3231
(dp3232
g64
(dp3233
sg73
g3227
sg66
(lp3234
g59
(g60
g61
NtRp3235
(dp3236
g64
(dp3237
g72
I4
ssg73
g3231
sg66
(lp3238
g59
(g68
g61
NtRp3239
(dp3240
g64
(dp3241
g72
I3
ssg73
Nsg66
(lp3242
g59
(g75
g61
NtRp3243
(dp3244
g64
(dp3245
sg73
g3239
sg66
(lp3246
g59
(g80
g61
NtRp3247
(dp3248
g64
(dp3249
sg73
g3243
sg66
(lp3250
g59
(g60
g61
NtRp3251
(dp3252
g64
(dp3253
g72
I3
ssg73
g3247
sg66
(lp3254
g3184
(S's\x08\x00\x00\x00This App'
tRp3255
asbasbasbag59
(g75
g61
NtRp3256
(dp3257
g64
(dp3258
sg73
g3239
sg66
(lp3259
g59
(g80
g61
NtRp3260
(dp3261
g64
(dp3262
sg73
g3256
sg66
(lp3263
g59
(g60
g61
NtRp3264
(dp3265
g64
(dp3266
g72
I3
ssg73
g3260
sg66
(lp3267
g102
asbasbasbag59
(g75
g61
NtRp3268
(dp3269
g64
(dp3270
sg73
g3239
sg66
(lp3271
g59
(g80
g61
NtRp3272
(dp3273
g64
(dp3274
sg73
g3268
sg66
(lp3275
g59
(g60
g61
NtRp3276
(dp3277
g64
(dp3278
g72
I3
ssg73
g3272
sg66
(lp3279
S'/admin/default/design/201056161'
p3280
asbasbasbag59
(g75
g61
NtRp3281
(dp3282
g64
(dp3283
sg73
g3239
sg66
(lp3284
g59
(g80
g61
NtRp3285
(dp3286
g64
(dp3287
sg73
g3281
sg66
(lp3288
g59
(g60
g61
NtRp3289
(dp3290
g64
(dp3291
g72
I3
ssg73
g3285
sg66
(lp3292
g59
(g68
g61
NtRp3293
(dp3294
g64
(dp3295
g72
I2
ssg73
Nsg66
(lp3296
g59
(g75
g61
NtRp3297
(dp3298
g64
(dp3299
sg73
g3293
sg66
(lp3300
g59
(g80
g61
NtRp3301
(dp3302
g64
(dp3303
sg73
g3297
sg66
(lp3304
g59
(g60
g61
NtRp3305
(dp3306
g64
(dp3307
g72
I2
ssg73
g3301
sg66
(lp3308
g59
(g68
g61
NtRp3309
(dp3310
g64
(dp3311
g72
I1
ssg73
Nsg66
(lp3312
g59
(g75
g61
NtRp3313
(dp3314
g64
(dp3315
sg73
g3309
sg66
(lp3316
g59
(g80
g61
NtRp3317
(dp3318
g64
(dp3319
sg73
g3313
sg66
(lp3320
g59
(g60
g61
NtRp3321
(dp3322
g64
(dp3323
g72
I1
ssg73
g3317
sg66
(lp3324
g3184
(S's\n\x00\x00\x00Controller'
tRp3325
asbasbasbag59
(g75
g61
NtRp3326
(dp3327
g64
(dp3328
sg73
g3309
sg66
(lp3329
g59
(g80
g61
NtRp3330
(dp3331
g64
(dp3332
sg73
g3326
sg66
(lp3333
g59
(g60
g61
NtRp3334
(dp3335
g64
(dp3336
g72
I1
ssg73
g3330
sg66
(lp3337
I00
asbasbasbag59
(g75
g61
NtRp3338
(dp3339
g64
(dp3340
sg73
g3309
sg66
(lp3341
g59
(g80
g61
NtRp3342
(dp3343
g64
(dp3344
sg73
g3338
sg66
(lp3345
g59
(g60
g61
NtRp3346
(dp3347
g64
(dp3348
g72
I1
ssg73
g3342
sg66
(lp3349
S'/admin/default/edit/201056161/controllers/default.py'
p3350
asbasbasbasbasbasbasbag59
(g75
g61
NtRp3351
(dp3352
g64
(dp3353
sg73
g3293
sg66
(lp3354
g59
(g80
g61
NtRp3355
(dp3356
g64
(dp3357
sg73
g3351
sg66
(lp3358
g59
(g60
g61
NtRp3359
(dp3360
g64
(dp3361
g72
I2
ssg73
g3355
sg66
(lp3362
g59
(g68
g61
NtRp3363
(dp3364
g64
(dp3365
g72
I1
ssg73
Nsg66
(lp3366
g59
(g75
g61
NtRp3367
(dp3368
g64
(dp3369
sg73
g3363
sg66
(lp3370
g59
(g80
g61
NtRp3371
(dp3372
g64
(dp3373
sg73
g3367
sg66
(lp3374
g59
(g60
g61
NtRp3375
(dp3376
g64
(dp3377
g72
I1
ssg73
g3371
sg66
(lp3378
g3184
(S's\x04\x00\x00\x00View'
tRp3379
asbasbasbag59
(g75
g61
NtRp3380
(dp3381
g64
(dp3382
sg73
g3363
sg66
(lp3383
g59
(g80
g61
NtRp3384
(dp3385
g64
(dp3386
sg73
g3380
sg66
(lp3387
g59
(g60
g61
NtRp3388
(dp3389
g64
(dp3390
g72
I1
ssg73
g3384
sg66
(lp3391
I00
asbasbasbag59
(g75
g61
NtRp3392
(dp3393
g64
(dp3394
sg73
g3363
sg66
(lp3395
g59
(g80
g61
NtRp3396
(dp3397
g64
(dp3398
sg73
g3392
sg66
(lp3399
g59
(g60
g61
NtRp3400
(dp3401
g64
(dp3402
g72
I1
ssg73
g3396
sg66
(lp3403
S'/admin/default/edit/201056161/views/default/index.html'
p3404
asbasbasbasbasbasbasbag59
(g75
g61
NtRp3405
(dp3406
g64
(dp3407
sg73
g3293
sg66
(lp3408
g59
(g80
g61
NtRp3409
(dp3410
g64
(dp3411
sg73
g3405
sg66
(lp3412
g59
(g60
g61
NtRp3413
(dp3414
g64
(dp3415
g72
I2
ssg73
g3409
sg66
(lp3416
g59
(g68
g61
NtRp3417
(dp3418
g64
(dp3419
g72
I1
ssg73
Nsg66
(lp3420
g59
(g75
g61
NtRp3421
(dp3422
g64
(dp3423
sg73
g3417
sg66
(lp3424
g59
(g80
g61
NtRp3425
(dp3426
g64
(dp3427
sg73
g3421
sg66
(lp3428
g59
(g60
g61
NtRp3429
(dp3430
g64
(dp3431
g72
I1
ssg73
g3425
sg66
(lp3432
g3184
(S's\x06\x00\x00\x00Layout'
tRp3433
asbasbasbag59
(g75
g61
NtRp3434
(dp3435
g64
(dp3436
sg73
g3417
sg66
(lp3437
g59
(g80
g61
NtRp3438
(dp3439
g64
(dp3440
sg73
g3434
sg66
(lp3441
g59
(g60
g61
NtRp3442
(dp3443
g64
(dp3444
g72
I1
ssg73
g3438
sg66
(lp3445
I00
asbasbasbag59
(g75
g61
NtRp3446
(dp3447
g64
(dp3448
sg73
g3417
sg66
(lp3449
g59
(g80
g61
NtRp3450
(dp3451
g64
(dp3452
sg73
g3446
sg66
(lp3453
g59
(g60
g61
NtRp3454
(dp3455
g64
(dp3456
g72
I1
ssg73
g3450
sg66
(lp3457
S'/admin/default/edit/201056161/views/layout.html'
p3458
asbasbasbasbasbasbasbag59
(g75
g61
NtRp3459
(dp3460
g64
(dp3461
sg73
g3293
sg66
(lp3462
g59
(g80
g61
NtRp3463
(dp3464
g64
(dp3465
sg73
g3459
sg66
(lp3466
g59
(g60
g61
NtRp3467
(dp3468
g64
(dp3469
g72
I2
ssg73
g3463
sg66
(lp3470
g59
(g68
g61
NtRp3471
(dp3472
g64
(dp3473
g72
I1
ssg73
Nsg66
(lp3474
g59
(g75
g61
NtRp3475
(dp3476
g64
(dp3477
sg73
g3471
sg66
(lp3478
g59
(g80
g61
NtRp3479
(dp3480
g64
(dp3481
sg73
g3475
sg66
(lp3482
g59
(g60
g61
NtRp3483
(dp3484
g64
(dp3485
g72
I1
ssg73
g3479
sg66
(lp3486
g3184
(S's\n\x00\x00\x00Stylesheet'
tRp3487
asbasbasbag59
(g75
g61
NtRp3488
(dp3489
g64
(dp3490
sg73
g3471
sg66
(lp3491
g59
(g80
g61
NtRp3492
(dp3493
g64
(dp3494
sg73
g3488
sg66
(lp3495
g59
(g60
g61
NtRp3496
(dp3497
g64
(dp3498
g72
I1
ssg73
g3492
sg66
(lp3499
I00
asbasbasbag59
(g75
g61
NtRp3500
(dp3501
g64
(dp3502
sg73
g3471
sg66
(lp3503
g59
(g80
g61
NtRp3504
(dp3505
g64
(dp3506
sg73
g3500
sg66
(lp3507
g59
(g60
g61
NtRp3508
(dp3509
g64
(dp3510
g72
I1
ssg73
g3504
sg66
(lp3511
S'/admin/default/edit/201056161/static/base.css'
p3512
asbasbasbasbasbasbasbag59
(g75
g61
NtRp3513
(dp3514
g64
(dp3515
sg73
g3293
sg66
(lp3516
g59
(g80
g61
NtRp3517
(dp3518
g64
(dp3519
sg73
g3513
sg66
(lp3520
g59
(g60
g61
NtRp3521
(dp3522
g64
(dp3523
g72
I2
ssg73
g3517
sg66
(lp3524
g59
(g68
g61
NtRp3525
(dp3526
g64
(dp3527
g72
I1
ssg73
Nsg66
(lp3528
g59
(g75
g61
NtRp3529
(dp3530
g64
(dp3531
sg73
g3525
sg66
(lp3532
g59
(g80
g61
NtRp3533
(dp3534
g64
(dp3535
sg73
g3529
sg66
(lp3536
g59
(g60
g61
NtRp3537
(dp3538
g64
(dp3539
g72
I1
ssg73
g3533
sg66
(lp3540
g3184
(S's\x08\x00\x00\x00DB Model'
tRp3541
asbasbasbag59
(g75
g61
NtRp3542
(dp3543
g64
(dp3544
sg73
g3525
sg66
(lp3545
g59
(g80
g61
NtRp3546
(dp3547
g64
(dp3548
sg73
g3542
sg66
(lp3549
g59
(g60
g61
NtRp3550
(dp3551
g64
(dp3552
g72
I1
ssg73
g3546
sg66
(lp3553
I00
asbasbasbag59
(g75
g61
NtRp3554
(dp3555
g64
(dp3556
sg73
g3525
sg66
(lp3557
g59
(g80
g61
NtRp3558
(dp3559
g64
(dp3560
sg73
g3554
sg66
(lp3561
g59
(g60
g61
NtRp3562
(dp3563
g64
(dp3564
g72
I1
ssg73
g3558
sg66
(lp3565
S'/admin/default/edit/201056161/models/db.py'
p3566
asbasbasbasbasbasbasbag59
(g75
g61
NtRp3567
(dp3568
g64
(dp3569
sg73
g3293
sg66
(lp3570
g59
(g80
g61
NtRp3571
(dp3572
g64
(dp3573
sg73
g3567
sg66
(lp3574
g59
(g60
g61
NtRp3575
(dp3576
g64
(dp3577
g72
I2
ssg73
g3571
sg66
(lp3578
g59
(g68
g61
NtRp3579
(dp3580
g64
(dp3581
g72
I1
ssg73
Nsg66
(lp3582
g59
(g75
g61
NtRp3583
(dp3584
g64
(dp3585
sg73
g3579
sg66
(lp3586
g59
(g80
g61
NtRp3587
(dp3588
g64
(dp3589
sg73
g3583
sg66
(lp3590
g59
(g60
g61
NtRp3591
(dp3592
g64
(dp3593
g72
I1
ssg73
g3587
sg66
(lp3594
g3184
(S's\n\x00\x00\x00Menu Model'
tRp3595
asbasbasbag59
(g75
g61
NtRp3596
(dp3597
g64
(dp3598
sg73
g3579
sg66
(lp3599
g59
(g80
g61
NtRp3600
(dp3601
g64
(dp3602
sg73
g3596
sg66
(lp3603
g59
(g60
g61
NtRp3604
(dp3605
g64
(dp3606
g72
I1
ssg73
g3600
sg66
(lp3607
I00
asbasbasbag59
(g75
g61
NtRp3608
(dp3609
g64
(dp3610
sg73
g3579
sg66
(lp3611
g59
(g80
g61
NtRp3612
(dp3613
g64
(dp3614
sg73
g3608
sg66
(lp3615
g59
(g60
g61
NtRp3616
(dp3617
g64
(dp3618
g72
I1
ssg73
g3612
sg66
(lp3619
S'/admin/default/edit/201056161/models/menu.py'
p3620
asbasbasbasbasbasbasbag59
(g75
g61
NtRp3621
(dp3622
g64
(dp3623
sg73
g3293
sg66
(lp3624
g59
(g80
g61
NtRp3625
(dp3626
g64
(dp3627
sg73
g3621
sg66
(lp3628
g59
(g60
g61
NtRp3629
(dp3630
g64
(dp3631
g72
I2
ssg73
g3625
sg66
(lp3632
g59
(g68
g61
NtRp3633
(dp3634
g64
(dp3635
g72
I1
ssg73
Nsg66
(lp3636
g59
(g75
g61
NtRp3637
(dp3638
g64
(dp3639
sg73
g3633
sg66
(lp3640
g59
(g80
g61
NtRp3641
(dp3642
g64
(dp3643
sg73
g3637
sg66
(lp3644
g59
(g60
g61
NtRp3645
(dp3646
g64
(dp3647
g72
I1
ssg73
g3641
sg66
(lp3648
g3184
(S's\x08\x00\x00\x00Database'
tRp3649
asbasbasbag59
(g75
g61
NtRp3650
(dp3651
g64
(dp3652
sg73
g3633
sg66
(lp3653
g59
(g80
g61
NtRp3654
(dp3655
g64
(dp3656
sg73
g3650
sg66
(lp3657
g59
(g60
g61
NtRp3658
(dp3659
g64
(dp3660
g72
I1
ssg73
g3654
sg66
(lp3661
I00
asbasbasbag59
(g75
g61
NtRp3662
(dp3663
g64
(dp3664
sg73
g3633
sg66
(lp3665
g59
(g80
g61
NtRp3666
(dp3667
g64
(dp3668
sg73
g3662
sg66
(lp3669
g59
(g60
g61
NtRp3670
(dp3671
g64
(dp3672
g72
I1
ssg73
g3666
sg66
(lp3673
S'/201056161/appadmin/index'
p3674
asbasbasbasbasbasbasbag59
(g75
g61
NtRp3675
(dp3676
g64
(dp3677
sg73
g3293
sg66
(lp3678
g59
(g80
g61
NtRp3679
(dp3680
g64
(dp3681
sg73
g3675
sg66
(lp3682
g59
(g60
g61
NtRp3683
(dp3684
g64
(dp3685
g72
I2
ssg73
g3679
sg66
(lp3686
g59
(g68
g61
NtRp3687
(dp3688
g64
(dp3689
g72
I1
ssg73
Nsg66
(lp3690
g59
(g75
g61
NtRp3691
(dp3692
g64
(dp3693
sg73
g3687
sg66
(lp3694
g59
(g80
g61
NtRp3695
(dp3696
g64
(dp3697
sg73
g3691
sg66
(lp3698
g59
(g60
g61
NtRp3699
(dp3700
g64
(dp3701
g72
I1
ssg73
g3695
sg66
(lp3702
g3184
(S's\x06\x00\x00\x00Errors'
tRp3703
asbasbasbag59
(g75
g61
NtRp3704
(dp3705
g64
(dp3706
sg73
g3687
sg66
(lp3707
g59
(g80
g61
NtRp3708
(dp3709
g64
(dp3710
sg73
g3704
sg66
(lp3711
g59
(g60
g61
NtRp3712
(dp3713
g64
(dp3714
g72
I1
ssg73
g3708
sg66
(lp3715
I00
asbasbasbag59
(g75
g61
NtRp3716
(dp3717
g64
(dp3718
sg73
g3687
sg66
(lp3719
g59
(g80
g61
NtRp3720
(dp3721
g64
(dp3722
sg73
g3716
sg66
(lp3723
g59
(g60
g61
NtRp3724
(dp3725
g64
(dp3726
g72
I1
ssg73
g3720
sg66
(lp3727
S'/admin/default/errors/201056161'
p3728
asbasbasbasbasbasbasbag59
(g75
g61
NtRp3729
(dp3730
g64
(dp3731
sg73
g3293
sg66
(lp3732
g59
(g80
g61
NtRp3733
(dp3734
g64
(dp3735
sg73
g3729
sg66
(lp3736
g59
(g60
g61
NtRp3737
(dp3738
g64
(dp3739
g72
I2
ssg73
g3733
sg66
(lp3740
g59
(g68
g61
NtRp3741
(dp3742
g64
(dp3743
g72
I1
ssg73
Nsg66
(lp3744
g59
(g75
g61
NtRp3745
(dp3746
g64
(dp3747
sg73
g3741
sg66
(lp3748
g59
(g80
g61
NtRp3749
(dp3750
g64
(dp3751
sg73
g3745
sg66
(lp3752
g59
(g60
g61
NtRp3753
(dp3754
g64
(dp3755
g72
I1
ssg73
g3749
sg66
(lp3756
g3184
(S's\x05\x00\x00\x00About'
tRp3757
asbasbasbag59
(g75
g61
NtRp3758
(dp3759
g64
(dp3760
sg73
g3741
sg66
(lp3761
g59
(g80
g61
NtRp3762
(dp3763
g64
(dp3764
sg73
g3758
sg66
(lp3765
g59
(g60
g61
NtRp3766
(dp3767
g64
(dp3768
g72
I1
ssg73
g3762
sg66
(lp3769
I00
asbasbasbag59
(g75
g61
NtRp3770
(dp3771
g64
(dp3772
sg73
g3741
sg66
(lp3773
g59
(g80
g61
NtRp3774
(dp3775
g64
(dp3776
sg73
g3770
sg66
(lp3777
g59
(g60
g61
NtRp3778
(dp3779
g64
(dp3780
g72
I1
ssg73
g3774
sg66
(lp3781
S'/admin/default/about/201056161'
p3782
asbasbasbasbasbasbasbasbasbasbasbasbasbasbasbag59
(g75
g61
NtRp3783
(dp3784
g64
(dp3785
sg73
g3152
sg66
(lp3786
g59
(g80
g61
NtRp3787
(dp3788
g64
(dp3789
sg73
g3783
sg66
(lp3790
g59
(g60
g61
NtRp3791
(dp3792
g64
(dp3793
g72
I4
ssg73
g3787
sg66
(lp3794
g59
(g68
g61
NtRp3795
(dp3796
g64
(dp3797
g72
I3
ssg73
Nsg66
(lp3798
g59
(g75
g61
NtRp3799
(dp3800
g64
(dp3801
sg73
g3795
sg66
(lp3802
g59
(g80
g61
NtRp3803
(dp3804
g64
(dp3805
sg73
g3799
sg66
(lp3806
g59
(g60
g61
NtRp3807
(dp3808
g64
(dp3809
g72
I3
ssg73
g3803
sg66
(lp3810
g3184
(S's\t\x00\x00\x00Resources'
tRp3811
asbasbasbag59
(g75
g61
NtRp3812
(dp3813
g64
(dp3814
sg73
g3795
sg66
(lp3815
g59
(g80
g61
NtRp3816
(dp3817
g64
(dp3818
sg73
g3812
sg66
(lp3819
g59
(g60
g61
NtRp3820
(dp3821
g64
(dp3822
g72
I3
ssg73
g3816
sg66
(lp3823
g102
asbasbasbag59
(g75
g61
NtRp3824
(dp3825
g64
(dp3826
sg73
g3795
sg66
(lp3827
g59
(g80
g61
NtRp3828
(dp3829
g64
(dp3830
sg73
g3824
sg66
(lp3831
g59
(g60
g61
NtRp3832
(dp3833
g64
(dp3834
g72
I3
ssg73
g3828
sg66
(lp3835
S'None'
p3836
asbasbasbag59
(g75
g61
NtRp3837
(dp3838
g64
(dp3839
sg73
g3795
sg66
(lp3840
g59
(g80
g61
NtRp3841
(dp3842
g64
(dp3843
sg73
g3837
sg66
(lp3844
g59
(g60
g61
NtRp3845
(dp3846
g64
(dp3847
g72
I3
ssg73
g3841
sg66
(lp3848
g59
(g68
g61
NtRp3849
(dp3850
g64
(dp3851
g72
I2
ssg73
Nsg66
(lp3852
g59
(g75
g61
NtRp3853
(dp3854
g64
(dp3855
sg73
g3849
sg66
(lp3856
g59
(g80
g61
NtRp3857
(dp3858
g64
(dp3859
sg73
g3853
sg66
(lp3860
g59
(g60
g61
NtRp3861
(dp3862
g64
(dp3863
g72
I2
ssg73
g3857
sg66
(lp3864
g59
(g68
g61
NtRp3865
(dp3866
g64
(dp3867
g72
I1
ssg73
Nsg66
(lp3868
g59
(g75
g61
NtRp3869
(dp3870
g64
(dp3871
sg73
g3865
sg66
(lp3872
g59
(g80
g61
NtRp3873
(dp3874
g64
(dp3875
sg73
g3869
sg66
(lp3876
g59
(g60
g61
NtRp3877
(dp3878
g64
(dp3879
g72
I1
ssg73
g3873
sg66
(lp3880
g3184
(S's\r\x00\x00\x00Documentation'
tRp3881
asbasbasbag59
(g75
g61
NtRp3882
(dp3883
g64
(dp3884
sg73
g3865
sg66
(lp3885
g59
(g80
g61
NtRp3886
(dp3887
g64
(dp3888
sg73
g3882
sg66
(lp3889
g59
(g60
g61
NtRp3890
(dp3891
g64
(dp3892
g72
I1
ssg73
g3886
sg66
(lp3893
I00
asbasbasbag59
(g75
g61
NtRp3894
(dp3895
g64
(dp3896
sg73
g3865
sg66
(lp3897
g59
(g80
g61
NtRp3898
(dp3899
g64
(dp3900
sg73
g3894
sg66
(lp3901
g59
(g60
g61
NtRp3902
(dp3903
g64
(dp3904
g72
I1
ssg73
g3898
sg66
(lp3905
S'http://www.web2py.com/book'
p3906
asbasbasbag59
(g75
g61
NtRp3907
(dp3908
g64
(dp3909
sg73
g3865
sg66
(lp3910
g59
(g80
g61
NtRp3911
(dp3912
g64
(dp3913
sg73
g3907
sg66
(lp3914
g59
(g60
g61
NtRp3915
(dp3916
g64
(dp3917
g72
I1
ssg73
g3911
sg66
(lp3918
(lp3919
(g3184
(S's\x07\x00\x00\x00Preface'
tRp3920
I00
S'http://www.web2py.com/book/default/chapter/00'
tp3921
a(g3184
(S's\x0c\x00\x00\x00Introduction'
tRp3922
I00
S'http://www.web2py.com/book/default/chapter/01'
tp3923
a(g3184
(S's\x06\x00\x00\x00Python'
tRp3924
I00
S'http://www.web2py.com/book/default/chapter/02'
tp3925
a(g3184
(S's\x08\x00\x00\x00Overview'
tRp3926
I00
S'http://www.web2py.com/book/default/chapter/03'
tp3927
a(g3184
(S's\x08\x00\x00\x00The Core'
tRp3928
I00
S'http://www.web2py.com/book/default/chapter/04'
tp3929
a(g3184
(S's\t\x00\x00\x00The Views'
tRp3930
I00
S'http://www.web2py.com/book/default/chapter/05'
tp3931
a(g3184
(S's\x08\x00\x00\x00Database'
tRp3932
I00
S'http://www.web2py.com/book/default/chapter/06'
tp3933
a(g3184
(S's\x14\x00\x00\x00Forms and Validators'
tRp3934
I00
S'http://www.web2py.com/book/default/chapter/07'
tp3935
a(g3184
(S's\x0e\x00\x00\x00Access Control'
tRp3936
I00
S'http://www.web2py.com/book/default/chapter/08'
tp3937
a(g3184
(S's\x08\x00\x00\x00Services'
tRp3938
I00
S'http://www.web2py.com/book/default/chapter/09'
tp3939
a(g3184
(S's\x0c\x00\x00\x00Ajax Recipes'
tRp3940
I00
S'http://www.web2py.com/book/default/chapter/10'
tp3941
a(g3184
(S's\x12\x00\x00\x00Deployment Recipes'
tRp3942
I00
S'http://www.web2py.com/book/default/chapter/11'
tp3943
a(g3184
(S's\r\x00\x00\x00Other Recipes'
tRp3944
I00
S'http://www.web2py.com/book/default/chapter/12'
tp3945
a(g3184
(S's\r\x00\x00\x00Buy this book'
tRp3946
I00
S'http://stores.lulu.com/web2py'
tp3947
aasbasbasbasbasbasbasbag59
(g75
g61
NtRp3948
(dp3949
g64
(dp3950
sg73
g3849
sg66
(lp3951
g59
(g80
g61
NtRp3952
(dp3953
g64
(dp3954
sg73
g3948
sg66
(lp3955
g59
(g60
g61
NtRp3956
(dp3957
g64
(dp3958
g72
I2
ssg73
g3952
sg66
(lp3959
g59
(g68
g61
NtRp3960
(dp3961
g64
(dp3962
g72
I1
ssg73
Nsg66
(lp3963
g59
(g75
g61
NtRp3964
(dp3965
g64
(dp3966
sg73
g3960
sg66
(lp3967
g59
(g80
g61
NtRp3968
(dp3969
g64
(dp3970
sg73
g3964
sg66
(lp3971
g59
(g60
g61
NtRp3972
(dp3973
g64
(dp3974
g72
I1
ssg73
g3968
sg66
(lp3975
g3184
(S's\t\x00\x00\x00Community'
tRp3976
asbasbasbag59
(g75
g61
NtRp3977
(dp3978
g64
(dp3979
sg73
g3960
sg66
(lp3980
g59
(g80
g61
NtRp3981
(dp3982
g64
(dp3983
sg73
g3977
sg66
(lp3984
g59
(g60
g61
NtRp3985
(dp3986
g64
(dp3987
g72
I1
ssg73
g3981
sg66
(lp3988
I00
asbasbasbag59
(g75
g61
NtRp3989
(dp3990
g64
(dp3991
sg73
g3960
sg66
(lp3992
g59
(g80
g61
NtRp3993
(dp3994
g64
(dp3995
sg73
g3989
sg66
(lp3996
g59
(g60
g61
NtRp3997
(dp3998
g64
(dp3999
g72
I1
ssg73
g3993
sg66
(lp4000
Nasbasbasbag59
(g75
g61
NtRp4001
(dp4002
g64
(dp4003
sg73
g3960
sg66
(lp4004
g59
(g80
g61
NtRp4005
(dp4006
g64
(dp4007
sg73
g4001
sg66
(lp4008
g59
(g60
g61
NtRp4009
(dp4010
g64
(dp4011
g72
I1
ssg73
g4005
sg66
(lp4012
(lp4013
(g3184
(S's\x06\x00\x00\x00Groups'
tRp4014
I00
S'http://www.web2py.com/examples/default/usergroups'
tp4015
a(g3184
(S's\x07\x00\x00\x00Twitter'
tRp4016
I00
S'http://twitter.com/web2py'
tp4017
a(g3184
(S's\t\x00\x00\x00Live chat'
tRp4018
I00
S'http://mibbit.com/?channel=%23web2py&server=irc.mibbit.net'
tp4019
a(g3184
(S's\n\x00\x00\x00User Voice'
tRp4020
I00
S'http://web2py.uservoice.com/'
tp4021
aasbasbasbasbasbasbasbag59
(g75
g61
NtRp4022
(dp4023
g64
(dp4024
sg73
g3849
sg66
(lp4025
g59
(g80
g61
NtRp4026
(dp4027
g64
(dp4028
sg73
g4022
sg66
(lp4029
g59
(g60
g61
NtRp4030
(dp4031
g64
(dp4032
g72
I2
ssg73
g4026
sg66
(lp4033
g59
(g68
g61
NtRp4034
(dp4035
g64
(dp4036
g72
I1
ssg73
Nsg66
(lp4037
g59
(g75
g61
NtRp4038
(dp4039
g64
(dp4040
sg73
g4034
sg66
(lp4041
g59
(g80
g61
NtRp4042
(dp4043
g64
(dp4044
sg73
g4038
sg66
(lp4045
g59
(g60
g61
NtRp4046
(dp4047
g64
(dp4048
g72
I1
ssg73
g4042
sg66
(lp4049
g3184
(S's\x06\x00\x00\x00Web2py'
tRp4050
asbasbasbag59
(g75
g61
NtRp4051
(dp4052
g64
(dp4053
sg73
g4034
sg66
(lp4054
g59
(g80
g61
NtRp4055
(dp4056
g64
(dp4057
sg73
g4051
sg66
(lp4058
g59
(g60
g61
NtRp4059
(dp4060
g64
(dp4061
g72
I1
ssg73
g4055
sg66
(lp4062
I00
asbasbasbag59
(g75
g61
NtRp4063
(dp4064
g64
(dp4065
sg73
g4034
sg66
(lp4066
g59
(g80
g61
NtRp4067
(dp4068
g64
(dp4069
sg73
g4063
sg66
(lp4070
g59
(g60
g61
NtRp4071
(dp4072
g64
(dp4073
g72
I1
ssg73
g4067
sg66
(lp4074
S'http://www.web2py.com'
p4075
asbasbasbag59
(g75
g61
NtRp4076
(dp4077
g64
(dp4078
sg73
g4034
sg66
(lp4079
g59
(g80
g61
NtRp4080
(dp4081
g64
(dp4082
sg73
g4076
sg66
(lp4083
g59
(g60
g61
NtRp4084
(dp4085
g64
(dp4086
g72
I1
ssg73
g4080
sg66
(lp4087
(lp4088
(g3184
(S's\x08\x00\x00\x00Download'
tRp4089
I00
S'http://www.web2py.com/examples/default/download'
tp4090
a(g3184
(S's\x07\x00\x00\x00Support'
tRp4091
I00
S'http://www.web2py.com/examples/default/support'
tp4092
a(g3184
(S's\x0e\x00\x00\x00Quick Examples'
tRp4093
I00
S'http://web2py.com/examples/default/examples'
tp4094
a(g3184
(S's\x03\x00\x00\x00FAQ'
tRp4095
I00
S'http://web2py.com/AlterEgo'
tp4096
a(g3184
(S's\x11\x00\x00\x00Free Applications'
tRp4097
I00
S'http://web2py.com/appliances'
tp4098
a(g3184
(S's\x07\x00\x00\x00Plugins'
tRp4099
I00
S'http://web2py.com/plugins'
tp4100
a(g3184
(S's\x07\x00\x00\x00Recipes'
tRp4101
I00
S'http://web2pyslices.com/'
tp4102
a(g3184
(S's\x04\x00\x00\x00Demo'
tRp4103
I00
S'http://web2py.com/demo_admin'
tp4104
a(g3184
(S's\x08\x00\x00\x00Semantic'
tRp4105
I00
S'http://web2py.com/semantic'
tp4106
a(g3184
(S's\x07\x00\x00\x00Layouts'
tRp4107
I00
S'http://web2py.com/layouts'
tp4108
a(g3184
(S's\x06\x00\x00\x00Videos'
tRp4109
I00
S'http://www.web2py.com/examples/default/videos/'
tp4110
aasbasbasbasbasbasbasbasbasbasbasbasbasbasbasbasbasbasbasbag59
(g75
g61
NtRp4111
(dp4112
g64
(dp4113
sg73
g2699
sg66
(lp4114
g59
(g80
g61
NtRp4115
(dp4116
g64
(dp4117
g84
g85
ssg73
g4111
sg66
(lp4118
S'meta'
p4119
asbag59
(g80
g61
NtRp4120
(dp4121
g64
(dp4122
g91
g92
ssg73
g4111
sg66
(lp4123
S':'
asbag59
(g80
g61
NtRp4124
(dp4125
g64
(dp4126
sg73
g4111
sg66
(lp4127
g59
(g60
g61
NtRp4128
(dp4129
g64
(dp4130
g72
I5
ssg73
g4124
sg66
(lp4131
g59
(g68
g61
NtRp4132
(dp4133
g64
(dp4134
g72
I4
ssg73
Nsg66
(lp4135
g59
(g75
g61
NtRp4136
(dp4137
g64
(dp4138
sg73
g4132
sg66
(lp4139
g59
(g80
g61
NtRp4140
(dp4141
g64
(dp4142
g84
g85
ssg73
g4136
sg66
(lp4143
S'author'
p4144
asbag59
(g80
g61
NtRp4145
(dp4146
g64
(dp4147
g91
g92
ssg73
g4136
sg66
(lp4148
S':'
asbag59
(g80
g61
NtRp4149
(dp4150
g64
(dp4151
sg73
g4136
sg66
(lp4152
g59
(g60
g61
NtRp4153
(dp4154
g64
(dp4155
g72
I4
ssg73
g4149
sg66
(lp4156
S'you'
p4157
asbasbasbag59
(g75
g61
NtRp4158
(dp4159
g64
(dp4160
sg73
g4132
sg66
(lp4161
g59
(g80
g61
NtRp4162
(dp4163
g64
(dp4164
g84
g85
ssg73
g4158
sg66
(lp4165
S'copyright'
p4166
asbag59
(g80
g61
NtRp4167
(dp4168
g64
(dp4169
g91
g92
ssg73
g4158
sg66
(lp4170
S':'
asbag59
(g80
g61
NtRp4171
(dp4172
g64
(dp4173
sg73
g4158
sg66
(lp4174
g59
(g60
g61
NtRp4175
(dp4176
g64
(dp4177
g72
I4
ssg73
g4171
sg66
(lp4178
S'Copyright 2007-2010'
p4179
asbasbasbag59
(g75
g61
NtRp4180
(dp4181
g64
(dp4182
sg73
g4132
sg66
(lp4183
g59
(g80
g61
NtRp4184
(dp4185
g64
(dp4186
g84
g85
ssg73
g4180
sg66
(lp4187
S'description'
p4188
asbag59
(g80
g61
NtRp4189
(dp4190
g64
(dp4191
g91
g92
ssg73
g4180
sg66
(lp4192
S':'
asbag59
(g80
g61
NtRp4193
(dp4194
g64
(dp4195
sg73
g4180
sg66
(lp4196
g59
(g60
g61
NtRp4197
(dp4198
g64
(dp4199
g72
I4
ssg73
g4193
sg66
(lp4200
S'Free and open source full-stack enterprise framework for agile development of fast, scalable, secure and portable database-driven web-based applications. Written and programmable in Python'
p4201
asbasbasbag59
(g75
g61
NtRp4202
(dp4203
g64
(dp4204
sg73
g4132
sg66
(lp4205
g59
(g80
g61
NtRp4206
(dp4207
g64
(dp4208
g84
g85
ssg73
g4202
sg66
(lp4209
S'generator'
p4210
asbag59
(g80
g61
NtRp4211
(dp4212
g64
(dp4213
g91
g92
ssg73
g4202
sg66
(lp4214
S':'
asbag59
(g80
g61
NtRp4215
(dp4216
g64
(dp4217
sg73
g4202
sg66
(lp4218
g59
(g60
g61
NtRp4219
(dp4220
g64
(dp4221
g72
I4
ssg73
g4215
sg66
(lp4222
S'Web2py Enterprise Framework'
p4223
asbasbasbag59
(g75
g61
NtRp4224
(dp4225
g64
(dp4226
sg73
g4132
sg66
(lp4227
g59
(g80
g61
NtRp4228
(dp4229
g64
(dp4230
g84
g85
ssg73
g4224
sg66
(lp4231
S'keywords'
p4232
asbag59
(g80
g61
NtRp4233
(dp4234
g64
(dp4235
g91
g92
ssg73
g4224
sg66
(lp4236
S':'
asbag59
(g80
g61
NtRp4237
(dp4238
g64
(dp4239
sg73
g4224
sg66
(lp4240
g59
(g60
g61
NtRp4241
(dp4242
g64
(dp4243
g72
I4
ssg73
g4237
sg66
(lp4244
S'web2py, python, framework'
p4245
asbasbasbasbasbasbasbag59
(g75
g61
NtRp4246
(dp4247
g64
(dp4248
sg73
g2699
sg66
(lp4249
g59
(g80
g61
NtRp4250
(dp4251
g64
(dp4252
g84
g85
ssg73
g4246
sg66
(lp4253
S'postprocessing'
p4254
asbag59
(g80
g61
NtRp4255
(dp4256
g64
(dp4257
g91
g92
ssg73
g4246
sg66
(lp4258
S':'
asbag59
(g80
g61
NtRp4259
(dp4260
g64
(dp4261
sg73
g4246
sg66
(lp4262
g59
(g60
g61
NtRp4263
(dp4264
g64
(dp4265
g72
I5
ssg73
g4259
sg66
(lp4266
g59
(g68
g61
NtRp4267
(dp4268
g64
(dp4269
g72
I4
ssg73
Nsg66
(lp4270
sbasbasbasbag59
(g75
g61
NtRp4271
(dp4272
g64
(dp4273
sg73
g2699
sg66
(lp4274
g59
(g80
g61
NtRp4275
(dp4276
g64
(dp4277
g84
g85
ssg73
g4271
sg66
(lp4278
S'session_filename'
p4279
asbag59
(g80
g61
NtRp4280
(dp4281
g64
(dp4282
g91
g92
ssg73
g4271
sg66
(lp4283
S':'
asbag59
(g80
g61
NtRp4284
(dp4285
g64
(dp4286
sg73
g4271
sg66
(lp4287
g59
(g60
g61
NtRp4288
(dp4289
g64
(dp4290
g72
I5
ssg73
g4284
sg66
(lp4291
S'C:\\Users\\AKSHAY\\Desktop\\web2py\\applications\\201056161\\sessions\\127.0.0.1-dc7082f7-dc80-43ef-b30f-962b4405fdf4'
p4292
asbasbasbag59
(g75
g61
NtRp4293
(dp4294
g64
(dp4295
sg73
g2699
sg66
(lp4296
g59
(g80
g61
NtRp4297
(dp4298
g64
(dp4299
g84
g85
ssg73
g4293
sg66
(lp4300
S'session_id'
p4301
asbag59
(g80
g61
NtRp4302
(dp4303
g64
(dp4304
g91
g92
ssg73
g4293
sg66
(lp4305
S':'
asbag59
(g80
g61
NtRp4306
(dp4307
g64
(dp4308
sg73
g4293
sg66
(lp4309
g59
(g60
g61
NtRp4310
(dp4311
g64
(dp4312
g72
I5
ssg73
g4306
sg66
(lp4313
S'127.0.0.1-dc7082f7-dc80-43ef-b30f-962b4405fdf4'
p4314
asbasbasbag59
(g75
g61
NtRp4315
(dp4316
g64
(dp4317
sg73
g2699
sg66
(lp4318
g59
(g80
g61
NtRp4319
(dp4320
g64
(dp4321
g84
g85
ssg73
g4315
sg66
(lp4322
S'session_id_name'
p4323
asbag59
(g80
g61
NtRp4324
(dp4325
g64
(dp4326
g91
g92
ssg73
g4315
sg66
(lp4327
S':'
asbag59
(g80
g61
NtRp4328
(dp4329
g64
(dp4330
sg73
g4315
sg66
(lp4331
g59
(g60
g61
NtRp4332
(dp4333
g64
(dp4334
g72
I5
ssg73
g4328
sg66
(lp4335
g2756
asbasbasbag59
(g75
g61
NtRp4336
(dp4337
g64
(dp4338
sg73
g2699
sg66
(lp4339
g59
(g80
g61
NtRp4340
(dp4341
g64
(dp4342
g84
g85
ssg73
g4336
sg66
(lp4343
S'session_new'
p4344
asbag59
(g80
g61
NtRp4345
(dp4346
g64
(dp4347
g91
g92
ssg73
g4336
sg66
(lp4348
S':'
asbag59
(g80
g61
NtRp4349
(dp4350
g64
(dp4351
sg73
g4336
sg66
(lp4352
g59
(g60
g61
NtRp4353
(dp4354
g64
(dp4355
g72
I5
ssg73
g4349
sg66
(lp4356
g1676
asbasbasbag59
(g75
g61
NtRp4357
(dp4358
g64
(dp4359
sg73
g2699
sg66
(lp4360
g59
(g80
g61
NtRp4361
(dp4362
g64
(dp4363
g84
g85
ssg73
g4357
sg66
(lp4364
S'status'
p4365
asbag59
(g80
g61
NtRp4366
(dp4367
g64
(dp4368
g91
g92
ssg73
g4357
sg66
(lp4369
S':'
asbag59
(g80
g61
NtRp4370
(dp4371
g64
(dp4372
sg73
g4357
sg66
(lp4373
g59
(g60
g61
NtRp4374
(dp4375
g64
(dp4376
g72
I5
ssg73
g4370
sg66
(lp4377
S'200'
p4378
asbasbasbag59
(g75
g61
NtRp4379
(dp4380
g64
(dp4381
sg73
g2699
sg66
(lp4382
g59
(g80
g61
NtRp4383
(dp4384
g64
(dp4385
g84
g85
ssg73
g4379
sg66
(lp4386
S'subtitle'
p4387
asbag59
(g80
g61
NtRp4388
(dp4389
g64
(dp4390
g91
g92
ssg73
g4379
sg66
(lp4391
S':'
asbag59
(g80
g61
NtRp4392
(dp4393
g64
(dp4394
sg73
g4379
sg66
(lp4395
g59
(g60
g61
NtRp4396
(dp4397
g64
(dp4398
g72
I5
ssg73
g4392
sg66
(lp4399
g3184
(S's\r\x00\x00\x00customize me!'
tRp4400
asbasbasbag59
(g75
g61
NtRp4401
(dp4402
g64
(dp4403
sg73
g2699
sg66
(lp4404
g59
(g80
g61
NtRp4405
(dp4406
g64
(dp4407
g84
g85
ssg73
g4401
sg66
(lp4408
S'title'
p4409
asbag59
(g80
g61
NtRp4410
(dp4411
g64
(dp4412
g91
g92
ssg73
g4401
sg66
(lp4413
S':'
asbag59
(g80
g61
NtRp4414
(dp4415
g64
(dp4416
sg73
g4401
sg66
(lp4417
g59
(g60
g61
NtRp4418
(dp4419
g64
(dp4420
g72
I5
ssg73
g4414
sg66
(lp4421
g124
asbasbasbag59
(g75
g61
NtRp4422
(dp4423
g64
(dp4424
sg73
g2699
sg66
(lp4425
g59
(g80
g61
NtRp4426
(dp4427
g64
(dp4428
g84
g85
ssg73
g4422
sg66
(lp4429
g2000
asbag59
(g80
g61
NtRp4430
(dp4431
g64
(dp4432
g91
g92
ssg73
g4422
sg66
(lp4433
S':'
asbag59
(g80
g61
NtRp4434
(dp4435
g64
(dp4436
sg73
g4422
sg66
(lp4437
g59
(g60
g61
NtRp4438
(dp4439
g64
(dp4440
g72
I5
ssg73
g4434
sg66
(lp4441
g2013
asbasbasbag59
(g75
g61
NtRp4442
(dp4443
g64
(dp4444
sg73
g2699
sg66
(lp4445
g59
(g80
g61
NtRp4446
(dp4447
g64
(dp4448
g84
g85
ssg73
g4442
sg66
(lp4449
S'view'
p4450
asbag59
(g80
g61
NtRp4451
(dp4452
g64
(dp4453
g91
g92
ssg73
g4442
sg66
(lp4454
S':'
asbag59
(g80
g61
NtRp4455
(dp4456
g64
(dp4457
sg73
g4442
sg66
(lp4458
g59
(g60
g61
NtRp4459
(dp4460
g64
(dp4461
g72
I5
ssg73
g4455
sg66
(lp4462
S'default/index.html'
p4463
asbasbasbasbasbsS'locals'
p4464
(dp4465
g3
S"r'C:\\Users\\AKSHAY\\Desktop\\web2py\\applications\\201056161\\views\\default/index.html'"
p4466
sg5
S'\'response.write(\\\'<!DOCTYPE html>\\\\n<html lang="\\\', ...t   -->    \\\\n  </body>\\\\n</html>\\\\n\\\', escape=False)\''
p4467
sssS'traceback'
p4468
S'Traceback (most recent call last):\n  File "gluon/restricted.py", line 191, in restricted\n  File "gluon/restricted.py", line 178, in compile2\n  File "C:\\Users\\AKSHAY\\Desktop\\web2py\\applications\\201056161\\views\\default/index.html", line 102\n    response.write(\'\\r\\n\', escape=False)\n           ^\nSyntaxError: invalid syntax\n'
p4469
s.