(dp1
S'output'
p2
S''
sS'layer'
p3
S'C:\\Users\\AKSHAY\\Desktop\\web2py\\applications\\201056161\\controllers/default.py'
p4
sS'code'
p5
S'# -*- coding: utf-8 -*-\n# this file is released under public domain and you can use without limitations\n\n#########################################################################\n## This is a samples controller\n## - index is the default action of any application\n## - user is required for authentication and authorization\n## - download is for downloading files uploaded in the db (does streaming)\n## - call exposes all registered services (none by default)\n#########################################################################\n\ndef index():\n    return dict()\n\ndef user():\n    """\n    exposes:\n    http://..../[app]/default/user/login\n    http://..../[app]/default/user/logout\n    http://..../[app]/default/user/register\n    http://..../[app]/default/user/profile\n    http://..../[app]/default/user/retrieve_password\n    http://..../[app]/default/user/change_password\n    use @auth.requires_login()\n        @auth.requires_membership(\'group name\')\n        @auth.requires_permission(\'read\',\'table name\',record_id)\n    to decorate functions that need access control\n    """\n    return dict(form=auth())\n\n\ndef download():\n    """\n    allows downloading of uploaded files\n    http://..../[app]/default/download/[filename]\n    """\n    return response.download(request,db)\n\n\ndef call():\n    """\n    exposes services. for example:\n    http://..../[app]/default/call/jsonrpc\n    decorate with @services.jsonrpc the functions to expose\n    supports xml, json, xmlrpc, jsonrpc, amfrpc, rss, csv\n    """\n    return service()\n\n\n@auth.requires_signature()\ndef data():\n    """\n    http://..../[app]/default/data/tables\n    http://..../[app]/default/data/create/[table]\n    http://..../[app]/default/data/read/[table]/[id]\n    http://..../[app]/default/data/update/[table]/[id]\n    http://..../[app]/default/data/delete/[table]/[id[\n    http://..../[app]/default/data/select/[table]\n    http://..../[app]/default/data/search/[table]\n    but URLs bust be signed, i.e. linked with\n      A(\'table\',_href=URL(\'data/tables\',user_signature=True))\n    or with the signed load operator\n      LOAD(\'default\',\'data.load\',args=\'tables\',ajax=True,user_signature=True)\n    """\n    return dict(form=crud())\ndef q1f():\n#  form=SQLFORM.factory(db.Field(\'id\',db.artist,requires=IS_IN_DB(db,\'artist.id\'),required=True,label=\'Select Singer id\'))#  form=SQLFORM(db.query) #form=FORM(INPUT(_name=\'singer\',requires=IS_NOT_EMPTY()),INPUT(_type=\'submit\')) #\n  form = SQLFORM.factory(db.Field(\'idn\',db.artist,requires=IS_IN_DB(db,\'artist.id\',\'artist.id\'),label=\'Select id of Artist\'))\n  if form.accepts(request.vars,session):\n    redirect(URL(r=request, f=\'q1s?idn=\'+form.vars.idn))\n  elif form.errors:\n    response.flash=\'Errors in form Please re-enter\'\n  return dict(form=form)  \ndef q1s():\n  sname = int(request.vars.idn)\n  rows=db(db.song.singer==sname).select(db.song.name)\n  """count=1\n  for row in rows:\n    count+=1\n    if count==2:\n      snames=str(row.artist_name)\n  rows1=db(db.song.singer is snames).select(db.song.name)"""\n  return dict(rows=rows)\ndef q2f():\n  form = SQLFORM.factory(db.Field(\'namen\',db.artist,requires=IS_IN_DB(db,\'artist.id\',\'artist.artist_name\'),label=\'Select artist name\'))\n  if form.accepts(request.vars,session):\n    redirect(URL(r=request, f=\'q2s?namen=\'+form.vars.namen))\n  elif form.errors:\n    response.flash=\'Errors in form Please re-enter\'\n  return dict(form=form)  \ndef q2s():\n  sname=str(request.vars.namen)\n  #here whatever be always sname will be referred by id ! \n  rows=db(db.song.singer==sname).select(db.song.name)\n  return dict(rows=rows)\ndef q3f():\n  form = SQLFORM.factory(db.Field(\'namen\',db.artist,requires=IS_IN_DB(db,\'artist.id\',\'artist.artist_name\'),label=\'Select Artist\'),\n                         db.Field(\'movien\',db.movie,requires=IS_IN_DB(db,\'movie.id\',\'movie.name\'),label=\'Select movie\'))\n  if form.accepts(request.vars,session):\n    redirect(URL(r=request, f=\'q3s?namen=\'+form.vars.namen+\'&movien=\'+form.vars.movien))\n  elif form.errors:\n    response.flash=\'Errors in form Please re-enter\'\n  return dict(form=form)                         \ndef q3s():\n  sname=str(request.vars.namen)\n  movien=str(request.vars.movien)\n  rows=db((db.song.singer==sname) & (db.song.movie==movien)).select(db.song.name)\n  return dict(rows=rows)\ndef q4f():\n  form = SQLFORM.factory(db.Field(\'namen\',db.artist,requires=IS_IN_DB(db,\'artist.id\',\'artist.artist_name\'),label=\'Select Artist\'),\n                         db.Field(\'yearbe\',db.movie,label=\'Select year before\'))\n  if form.accepts(request.vars,session):\n    redirect(URL(r=request, f=\'q4s?namen=\'+form.vars.namen+\'&yearbe=\'+form.vars.yearbe))\n  elif form.errors:\n    response.flash=\'Errors in form Please re-enter\'\n  return dict(form=form)\ndef q4s():\n  import datetime\n  sname=str(request.vars.namen)\n  yearbe=int(request.vars.yearbe)\n  rows=db((db.song.singer==sname) & (db.movie.release_date<datetime.date(yearbe,1,1))).select(db.song.name,db.song.singing_actor)\n  return dict(rows=rows)\ndef q5f():\n  form = SQLFORM.factory(db.Field(\'namen\',db.rating,requires=IS_IN_DB(db,\'song.id\',\'song.name\'),label=\'Select song name to check if rating is more than 4\'))\n  if form.accepts(request.vars,session):\n    redirect(URL(r=request, f=\'q5s?namen=\'+form.vars.namen))\n  elif form.errors:\n    response.flash=\'Errors in form Please re-enter\'\n  return dict(form=form)\ndef q5s():\n  sname=int(request.vars.namen)\n  rows=db(db.rating.song_n==sname).select(db.rating.ratingn)\n  count=0\n  sum=0\n  for row in rows:\n    count+=1\n    sum+=int(row.ratingn)\n  if count:  \n    avg=sum/count\n  return dict(avg=avg)\ndef insong():\n  form = SQLFORM(db.song)\n  if form.accepts(request.vars,session):\n      #redirect(URL(r=request, f=\'student_details?rollno=%d\' % form.vars.rollno))\n      response.flash=\'New Song Record Inserted\'\n  elif form.errors:\n      response.flash=\'Errors in form\'\n  return dict(form=form)\ndef new():\n  form = SQLFORM.factory(db.Field(\'namen\',db.artist,requires=IS_IN_DB(db,\'artist.id\',\'artist.artist_name\'),label=\'Select Artist\'),\n                         db.Field(\'movien\',db.movie,requires=IS_NULL_OR(IS_IN_DB(db,\'movie.id\',\'movie.name\'))))\n  if form.accepts(request.vars,session):\n    redirect(URL(r=request, f=\'new2?namen=\'+form.vars.namen+\'&movien=\'+form.vars.movien))\n  elif form.errors:\n    response.flash=\'Errors in form Please re-enter\'\n  return dict(form=form)     \ndef new2():\n  if request.vars.movien==None:\n    sname=str(request.vars.namen)\n    #here whatever be always sname will be referred by id ! \n    rows=db(db.song.singer==sname).select(db.song.name)\n    return dict(rows=rows)\n  else:\n    sname=str(request.vars.namen)\n    movien=str(request.vars.movien)\n    rows=db((db.song.singer==sname) & (db.song.movie==movien)).select(db.song.name)\n    return dict(rows=rows)\n\nresponse._vars=response._caller(new)\n'
p6
sS'snapshot'
p7
(dp8
S'exception'
p9
(dp10
S'__hash__'
p11
S"<method-wrapper '__hash__' of exceptions.TypeError object at 0x06CE0A30>"
p12
sS'__setattr__'
p13
S"<method-wrapper '__setattr__' of exceptions.TypeError object at 0x06CE0A30>"
p14
sS'__reduce_ex__'
p15
S'<built-in method __reduce_ex__ of exceptions.TypeError object at 0x06CE0A30>'
p16
sS'__getslice__'
p17
S"<method-wrapper '__getslice__' of exceptions.TypeError object at 0x06CE0A30>"
p18
sS'__getitem__'
p19
S"<method-wrapper '__getitem__' of exceptions.TypeError object at 0x06CE0A30>"
p20
sS'__setstate__'
p21
S'<built-in method __setstate__ of exceptions.TypeError object at 0x06CE0A30>'
p22
sS'__reduce__'
p23
S'<built-in method __reduce__ of exceptions.TypeError object at 0x06CE0A30>'
p24
sS'__str__'
p25
S"<method-wrapper '__str__' of exceptions.TypeError object at 0x06CE0A30>"
p26
sS'args'
p27
S'("cannot concatenate \'str\' and \'NoneType\' objects",)'
p28
sS'__getattribute__'
p29
S"<method-wrapper '__getattribute__' of exceptions.TypeError object at 0x06CE0A30>"
p30
sS'__class__'
p31
S"<type 'exceptions.TypeError'>"
p32
sS'__delattr__'
p33
S"<method-wrapper '__delattr__' of exceptions.TypeError object at 0x06CE0A30>"
p34
sS'__repr__'
p35
S"<method-wrapper '__repr__' of exceptions.TypeError object at 0x06CE0A30>"
p36
sS'__dict__'
p37
S'{}'
p38
sS'__doc__'
p39
S"'Inappropriate argument type.'"
p40
sS'__init__'
p41
S"<method-wrapper '__init__' of exceptions.TypeError object at 0x06CE0A30>"
p42
sS'__new__'
p43
S'<built-in method __new__ of type object at 0x1E1CCD78>'
p44
ssS'evalue'
p45
S"cannot concatenate 'str' and 'NoneType' objects"
p46
sS'request'
p47
ccopy_reg
_reconstructor
p48
(cgluon.html
BEAUTIFY
p49
c__builtin__
object
p50
NtRp51
(dp52
S'attributes'
p53
(dp54
sS'components'
p55
(lp56
g48
(cgluon.html
TABLE
p57
g50
NtRp58
(dp59
g53
(dp60
S'level'
p61
I5
ssS'parent'
p62
Nsg55
(lp63
g48
(cgluon.html
TR
p64
g50
NtRp65
(dp66
g53
(dp67
sg62
g58
sg55
(lp68
g48
(cgluon.html
TD
p69
g50
NtRp70
(dp71
g53
(dp72
S'_style'
p73
S'font-weight:bold;'
p74
ssg62
g65
sg55
(lp75
S'ajax'
p76
asbag48
(g69
g50
NtRp77
(dp78
g53
(dp79
S'_valign'
p80
S'top'
p81
ssg62
g65
sg55
(lp82
S':'
asbag48
(g69
g50
NtRp83
(dp84
g53
(dp85
sg62
g65
sg55
(lp86
g48
(g49
g50
NtRp87
(dp88
g53
(dp89
g61
I5
ssg62
g83
sg55
(lp90
S'False'
p91
asbasbasbag48
(g64
g50
NtRp92
(dp93
g53
(dp94
sg62
g58
sg55
(lp95
g48
(g69
g50
NtRp96
(dp97
g53
(dp98
g73
g74
ssg62
g92
sg55
(lp99
S'application'
p100
asbag48
(g69
g50
NtRp101
(dp102
g53
(dp103
g80
g81
ssg62
g92
sg55
(lp104
S':'
asbag48
(g69
g50
NtRp105
(dp106
g53
(dp107
sg62
g92
sg55
(lp108
g48
(g49
g50
NtRp109
(dp110
g53
(dp111
g61
I5
ssg62
g105
sg55
(lp112
S'201056161'
p113
asbasbasbag48
(g64
g50
NtRp114
(dp115
g53
(dp116
sg62
g58
sg55
(lp117
g48
(g69
g50
NtRp118
(dp119
g53
(dp120
g73
g74
ssg62
g114
sg55
(lp121
g27
asbag48
(g69
g50
NtRp122
(dp123
g53
(dp124
g80
g81
ssg62
g114
sg55
(lp125
S':'
asbag48
(g69
g50
NtRp126
(dp127
g53
(dp128
sg62
g114
sg55
(lp129
g48
(g49
g50
NtRp130
(dp131
g53
(dp132
g61
I5
ssg62
g126
sg55
(lp133
g48
(g57
g50
NtRp134
(dp135
g53
(dp136
g61
I4
ssg62
Nsg55
(lp137
sbasbasbasbag48
(g64
g50
NtRp138
(dp139
g53
(dp140
sg62
g58
sg55
(lp141
g48
(g69
g50
NtRp142
(dp143
g53
(dp144
g73
g74
ssg62
g138
sg55
(lp145
S'body'
p146
asbag48
(g69
g50
NtRp147
(dp148
g53
(dp149
g80
g81
ssg62
g138
sg55
(lp150
S':'
asbag48
(g69
g50
NtRp151
(dp152
g53
(dp153
sg62
g138
sg55
(lp154
g48
(g49
g50
NtRp155
(dp156
g53
(dp157
g61
I5
ssg62
g151
sg55
(lp158
S"<open file '<fdopen>', mode 'w+b' at 0x06F5A2F0>"
p159
asbasbasbag48
(g64
g50
NtRp160
(dp161
g53
(dp162
sg62
g58
sg55
(lp163
g48
(g69
g50
NtRp164
(dp165
g53
(dp166
g73
g74
ssg62
g160
sg55
(lp167
S'client'
p168
asbag48
(g69
g50
NtRp169
(dp170
g53
(dp171
g80
g81
ssg62
g160
sg55
(lp172
S':'
asbag48
(g69
g50
NtRp173
(dp174
g53
(dp175
sg62
g160
sg55
(lp176
g48
(g49
g50
NtRp177
(dp178
g53
(dp179
g61
I5
ssg62
g173
sg55
(lp180
S'127.0.0.1'
p181
asbasbasbag48
(g64
g50
NtRp182
(dp183
g53
(dp184
sg62
g58
sg55
(lp185
g48
(g69
g50
NtRp186
(dp187
g53
(dp188
g73
g74
ssg62
g182
sg55
(lp189
S'controller'
p190
asbag48
(g69
g50
NtRp191
(dp192
g53
(dp193
g80
g81
ssg62
g182
sg55
(lp194
S':'
asbag48
(g69
g50
NtRp195
(dp196
g53
(dp197
sg62
g182
sg55
(lp198
g48
(g49
g50
NtRp199
(dp200
g53
(dp201
g61
I5
ssg62
g195
sg55
(lp202
S'default'
p203
asbasbasbag48
(g64
g50
NtRp204
(dp205
g53
(dp206
sg62
g58
sg55
(lp207
g48
(g69
g50
NtRp208
(dp209
g53
(dp210
g73
g74
ssg62
g204
sg55
(lp211
S'cookies'
p212
asbag48
(g69
g50
NtRp213
(dp214
g53
(dp215
g80
g81
ssg62
g204
sg55
(lp216
S':'
asbag48
(g69
g50
NtRp217
(dp218
g53
(dp219
sg62
g204
sg55
(lp220
g48
(g49
g50
NtRp221
(dp222
g53
(dp223
g61
I5
ssg62
g217
sg55
(lp224
g48
(g57
g50
NtRp225
(dp226
g53
(dp227
g61
I4
ssg62
Nsg55
(lp228
g48
(g64
g50
NtRp229
(dp230
g53
(dp231
sg62
g225
sg55
(lp232
g48
(g69
g50
NtRp233
(dp234
g53
(dp235
g73
g74
ssg62
g229
sg55
(lp236
S'session_id_201056161'
p237
asbag48
(g69
g50
NtRp238
(dp239
g53
(dp240
g80
g81
ssg62
g229
sg55
(lp241
S':'
asbag48
(g69
g50
NtRp242
(dp243
g53
(dp244
sg62
g229
sg55
(lp245
g48
(g49
g50
NtRp246
(dp247
g53
(dp248
g61
I4
ssg62
g242
sg55
(lp249
g48
(g57
g50
NtRp250
(dp251
g53
(dp252
g61
I3
ssg62
Nsg55
(lp253
g48
(g64
g50
NtRp254
(dp255
g53
(dp256
sg62
g250
sg55
(lp257
g48
(g69
g50
NtRp258
(dp259
g53
(dp260
g73
g74
ssg62
g254
sg55
(lp261
S'comment'
p262
asbag48
(g69
g50
NtRp263
(dp264
g53
(dp265
g80
g81
ssg62
g254
sg55
(lp266
S':'
asbag48
(g69
g50
NtRp267
(dp268
g53
(dp269
sg62
g254
sg55
(lp270
g48
(g49
g50
NtRp271
(dp272
g53
(dp273
g61
I3
ssg62
g267
sg55
(lp274
S''
asbasbasbag48
(g64
g50
NtRp275
(dp276
g53
(dp277
sg62
g250
sg55
(lp278
g48
(g69
g50
NtRp279
(dp280
g53
(dp281
g73
g74
ssg62
g275
sg55
(lp282
S'domain'
p283
asbag48
(g69
g50
NtRp284
(dp285
g53
(dp286
g80
g81
ssg62
g275
sg55
(lp287
S':'
asbag48
(g69
g50
NtRp288
(dp289
g53
(dp290
sg62
g275
sg55
(lp291
g48
(g49
g50
NtRp292
(dp293
g53
(dp294
g61
I3
ssg62
g288
sg55
(lp295
S''
asbasbasbag48
(g64
g50
NtRp296
(dp297
g53
(dp298
sg62
g250
sg55
(lp299
g48
(g69
g50
NtRp300
(dp301
g53
(dp302
g73
g74
ssg62
g296
sg55
(lp303
S'expires'
p304
asbag48
(g69
g50
NtRp305
(dp306
g53
(dp307
g80
g81
ssg62
g296
sg55
(lp308
S':'
asbag48
(g69
g50
NtRp309
(dp310
g53
(dp311
sg62
g296
sg55
(lp312
g48
(g49
g50
NtRp313
(dp314
g53
(dp315
g61
I3
ssg62
g309
sg55
(lp316
S''
asbasbasbag48
(g64
g50
NtRp317
(dp318
g53
(dp319
sg62
g250
sg55
(lp320
g48
(g69
g50
NtRp321
(dp322
g53
(dp323
g73
g74
ssg62
g317
sg55
(lp324
S'max-age'
p325
asbag48
(g69
g50
NtRp326
(dp327
g53
(dp328
g80
g81
ssg62
g317
sg55
(lp329
S':'
asbag48
(g69
g50
NtRp330
(dp331
g53
(dp332
sg62
g317
sg55
(lp333
g48
(g49
g50
NtRp334
(dp335
g53
(dp336
g61
I3
ssg62
g330
sg55
(lp337
S''
asbasbasbag48
(g64
g50
NtRp338
(dp339
g53
(dp340
sg62
g250
sg55
(lp341
g48
(g69
g50
NtRp342
(dp343
g53
(dp344
g73
g74
ssg62
g338
sg55
(lp345
S'path'
p346
asbag48
(g69
g50
NtRp347
(dp348
g53
(dp349
g80
g81
ssg62
g338
sg55
(lp350
S':'
asbag48
(g69
g50
NtRp351
(dp352
g53
(dp353
sg62
g338
sg55
(lp354
g48
(g49
g50
NtRp355
(dp356
g53
(dp357
g61
I3
ssg62
g351
sg55
(lp358
S''
asbasbasbag48
(g64
g50
NtRp359
(dp360
g53
(dp361
sg62
g250
sg55
(lp362
g48
(g69
g50
NtRp363
(dp364
g53
(dp365
g73
g74
ssg62
g359
sg55
(lp366
S'secure'
p367
asbag48
(g69
g50
NtRp368
(dp369
g53
(dp370
g80
g81
ssg62
g359
sg55
(lp371
S':'
asbag48
(g69
g50
NtRp372
(dp373
g53
(dp374
sg62
g359
sg55
(lp375
g48
(g49
g50
NtRp376
(dp377
g53
(dp378
g61
I3
ssg62
g372
sg55
(lp379
S''
asbasbasbag48
(g64
g50
NtRp380
(dp381
g53
(dp382
sg62
g250
sg55
(lp383
g48
(g69
g50
NtRp384
(dp385
g53
(dp386
g73
g74
ssg62
g380
sg55
(lp387
S'version'
p388
asbag48
(g69
g50
NtRp389
(dp390
g53
(dp391
g80
g81
ssg62
g380
sg55
(lp392
S':'
asbag48
(g69
g50
NtRp393
(dp394
g53
(dp395
sg62
g380
sg55
(lp396
g48
(g49
g50
NtRp397
(dp398
g53
(dp399
g61
I3
ssg62
g393
sg55
(lp400
S''
asbasbasbasbasbasbasbag48
(g64
g50
NtRp401
(dp402
g53
(dp403
sg62
g225
sg55
(lp404
g48
(g69
g50
NtRp405
(dp406
g53
(dp407
g73
g74
ssg62
g401
sg55
(lp408
S'session_id_admin'
p409
asbag48
(g69
g50
NtRp410
(dp411
g53
(dp412
g80
g81
ssg62
g401
sg55
(lp413
S':'
asbag48
(g69
g50
NtRp414
(dp415
g53
(dp416
sg62
g401
sg55
(lp417
g48
(g49
g50
NtRp418
(dp419
g53
(dp420
g61
I4
ssg62
g414
sg55
(lp421
g48
(g57
g50
NtRp422
(dp423
g53
(dp424
g61
I3
ssg62
Nsg55
(lp425
g48
(g64
g50
NtRp426
(dp427
g53
(dp428
sg62
g422
sg55
(lp429
g48
(g69
g50
NtRp430
(dp431
g53
(dp432
g73
g74
ssg62
g426
sg55
(lp433
g262
asbag48
(g69
g50
NtRp434
(dp435
g53
(dp436
g80
g81
ssg62
g426
sg55
(lp437
S':'
asbag48
(g69
g50
NtRp438
(dp439
g53
(dp440
sg62
g426
sg55
(lp441
g48
(g49
g50
NtRp442
(dp443
g53
(dp444
g61
I3
ssg62
g438
sg55
(lp445
S''
asbasbasbag48
(g64
g50
NtRp446
(dp447
g53
(dp448
sg62
g422
sg55
(lp449
g48
(g69
g50
NtRp450
(dp451
g53
(dp452
g73
g74
ssg62
g446
sg55
(lp453
g283
asbag48
(g69
g50
NtRp454
(dp455
g53
(dp456
g80
g81
ssg62
g446
sg55
(lp457
S':'
asbag48
(g69
g50
NtRp458
(dp459
g53
(dp460
sg62
g446
sg55
(lp461
g48
(g49
g50
NtRp462
(dp463
g53
(dp464
g61
I3
ssg62
g458
sg55
(lp465
S''
asbasbasbag48
(g64
g50
NtRp466
(dp467
g53
(dp468
sg62
g422
sg55
(lp469
g48
(g69
g50
NtRp470
(dp471
g53
(dp472
g73
g74
ssg62
g466
sg55
(lp473
g304
asbag48
(g69
g50
NtRp474
(dp475
g53
(dp476
g80
g81
ssg62
g466
sg55
(lp477
S':'
asbag48
(g69
g50
NtRp478
(dp479
g53
(dp480
sg62
g466
sg55
(lp481
g48
(g49
g50
NtRp482
(dp483
g53
(dp484
g61
I3
ssg62
g478
sg55
(lp485
S''
asbasbasbag48
(g64
g50
NtRp486
(dp487
g53
(dp488
sg62
g422
sg55
(lp489
g48
(g69
g50
NtRp490
(dp491
g53
(dp492
g73
g74
ssg62
g486
sg55
(lp493
g325
asbag48
(g69
g50
NtRp494
(dp495
g53
(dp496
g80
g81
ssg62
g486
sg55
(lp497
S':'
asbag48
(g69
g50
NtRp498
(dp499
g53
(dp500
sg62
g486
sg55
(lp501
g48
(g49
g50
NtRp502
(dp503
g53
(dp504
g61
I3
ssg62
g498
sg55
(lp505
S''
asbasbasbag48
(g64
g50
NtRp506
(dp507
g53
(dp508
sg62
g422
sg55
(lp509
g48
(g69
g50
NtRp510
(dp511
g53
(dp512
g73
g74
ssg62
g506
sg55
(lp513
g346
asbag48
(g69
g50
NtRp514
(dp515
g53
(dp516
g80
g81
ssg62
g506
sg55
(lp517
S':'
asbag48
(g69
g50
NtRp518
(dp519
g53
(dp520
sg62
g506
sg55
(lp521
g48
(g49
g50
NtRp522
(dp523
g53
(dp524
g61
I3
ssg62
g518
sg55
(lp525
S''
asbasbasbag48
(g64
g50
NtRp526
(dp527
g53
(dp528
sg62
g422
sg55
(lp529
g48
(g69
g50
NtRp530
(dp531
g53
(dp532
g73
g74
ssg62
g526
sg55
(lp533
g367
asbag48
(g69
g50
NtRp534
(dp535
g53
(dp536
g80
g81
ssg62
g526
sg55
(lp537
S':'
asbag48
(g69
g50
NtRp538
(dp539
g53
(dp540
sg62
g526
sg55
(lp541
g48
(g49
g50
NtRp542
(dp543
g53
(dp544
g61
I3
ssg62
g538
sg55
(lp545
S''
asbasbasbag48
(g64
g50
NtRp546
(dp547
g53
(dp548
sg62
g422
sg55
(lp549
g48
(g69
g50
NtRp550
(dp551
g53
(dp552
g73
g74
ssg62
g546
sg55
(lp553
g388
asbag48
(g69
g50
NtRp554
(dp555
g53
(dp556
g80
g81
ssg62
g546
sg55
(lp557
S':'
asbag48
(g69
g50
NtRp558
(dp559
g53
(dp560
sg62
g546
sg55
(lp561
g48
(g49
g50
NtRp562
(dp563
g53
(dp564
g61
I3
ssg62
g558
sg55
(lp565
S''
asbasbasbasbasbasbasbag48
(g64
g50
NtRp566
(dp567
g53
(dp568
sg62
g225
sg55
(lp569
g48
(g69
g50
NtRp570
(dp571
g53
(dp572
g73
g74
ssg62
g566
sg55
(lp573
S'session_id_welcome'
p574
asbag48
(g69
g50
NtRp575
(dp576
g53
(dp577
g80
g81
ssg62
g566
sg55
(lp578
S':'
asbag48
(g69
g50
NtRp579
(dp580
g53
(dp581
sg62
g566
sg55
(lp582
g48
(g49
g50
NtRp583
(dp584
g53
(dp585
g61
I4
ssg62
g579
sg55
(lp586
g48
(g57
g50
NtRp587
(dp588
g53
(dp589
g61
I3
ssg62
Nsg55
(lp590
g48
(g64
g50
NtRp591
(dp592
g53
(dp593
sg62
g587
sg55
(lp594
g48
(g69
g50
NtRp595
(dp596
g53
(dp597
g73
g74
ssg62
g591
sg55
(lp598
g262
asbag48
(g69
g50
NtRp599
(dp600
g53
(dp601
g80
g81
ssg62
g591
sg55
(lp602
S':'
asbag48
(g69
g50
NtRp603
(dp604
g53
(dp605
sg62
g591
sg55
(lp606
g48
(g49
g50
NtRp607
(dp608
g53
(dp609
g61
I3
ssg62
g603
sg55
(lp610
S''
asbasbasbag48
(g64
g50
NtRp611
(dp612
g53
(dp613
sg62
g587
sg55
(lp614
g48
(g69
g50
NtRp615
(dp616
g53
(dp617
g73
g74
ssg62
g611
sg55
(lp618
g283
asbag48
(g69
g50
NtRp619
(dp620
g53
(dp621
g80
g81
ssg62
g611
sg55
(lp622
S':'
asbag48
(g69
g50
NtRp623
(dp624
g53
(dp625
sg62
g611
sg55
(lp626
g48
(g49
g50
NtRp627
(dp628
g53
(dp629
g61
I3
ssg62
g623
sg55
(lp630
S''
asbasbasbag48
(g64
g50
NtRp631
(dp632
g53
(dp633
sg62
g587
sg55
(lp634
g48
(g69
g50
NtRp635
(dp636
g53
(dp637
g73
g74
ssg62
g631
sg55
(lp638
g304
asbag48
(g69
g50
NtRp639
(dp640
g53
(dp641
g80
g81
ssg62
g631
sg55
(lp642
S':'
asbag48
(g69
g50
NtRp643
(dp644
g53
(dp645
sg62
g631
sg55
(lp646
g48
(g49
g50
NtRp647
(dp648
g53
(dp649
g61
I3
ssg62
g643
sg55
(lp650
S''
asbasbasbag48
(g64
g50
NtRp651
(dp652
g53
(dp653
sg62
g587
sg55
(lp654
g48
(g69
g50
NtRp655
(dp656
g53
(dp657
g73
g74
ssg62
g651
sg55
(lp658
g325
asbag48
(g69
g50
NtRp659
(dp660
g53
(dp661
g80
g81
ssg62
g651
sg55
(lp662
S':'
asbag48
(g69
g50
NtRp663
(dp664
g53
(dp665
sg62
g651
sg55
(lp666
g48
(g49
g50
NtRp667
(dp668
g53
(dp669
g61
I3
ssg62
g663
sg55
(lp670
S''
asbasbasbag48
(g64
g50
NtRp671
(dp672
g53
(dp673
sg62
g587
sg55
(lp674
g48
(g69
g50
NtRp675
(dp676
g53
(dp677
g73
g74
ssg62
g671
sg55
(lp678
g346
asbag48
(g69
g50
NtRp679
(dp680
g53
(dp681
g80
g81
ssg62
g671
sg55
(lp682
S':'
asbag48
(g69
g50
NtRp683
(dp684
g53
(dp685
sg62
g671
sg55
(lp686
g48
(g49
g50
NtRp687
(dp688
g53
(dp689
g61
I3
ssg62
g683
sg55
(lp690
S''
asbasbasbag48
(g64
g50
NtRp691
(dp692
g53
(dp693
sg62
g587
sg55
(lp694
g48
(g69
g50
NtRp695
(dp696
g53
(dp697
g73
g74
ssg62
g691
sg55
(lp698
g367
asbag48
(g69
g50
NtRp699
(dp700
g53
(dp701
g80
g81
ssg62
g691
sg55
(lp702
S':'
asbag48
(g69
g50
NtRp703
(dp704
g53
(dp705
sg62
g691
sg55
(lp706
g48
(g49
g50
NtRp707
(dp708
g53
(dp709
g61
I3
ssg62
g703
sg55
(lp710
S''
asbasbasbag48
(g64
g50
NtRp711
(dp712
g53
(dp713
sg62
g587
sg55
(lp714
g48
(g69
g50
NtRp715
(dp716
g53
(dp717
g73
g74
ssg62
g711
sg55
(lp718
g388
asbag48
(g69
g50
NtRp719
(dp720
g53
(dp721
g80
g81
ssg62
g711
sg55
(lp722
S':'
asbag48
(g69
g50
NtRp723
(dp724
g53
(dp725
sg62
g711
sg55
(lp726
g48
(g49
g50
NtRp727
(dp728
g53
(dp729
g61
I3
ssg62
g723
sg55
(lp730
S''
asbasbasbasbasbasbasbasbasbasbasbag48
(g64
g50
NtRp731
(dp732
g53
(dp733
sg62
g58
sg55
(lp734
g48
(g69
g50
NtRp735
(dp736
g53
(dp737
g73
g74
ssg62
g731
sg55
(lp738
S'env'
p739
asbag48
(g69
g50
NtRp740
(dp741
g53
(dp742
g80
g81
ssg62
g731
sg55
(lp743
S':'
asbag48
(g69
g50
NtRp744
(dp745
g53
(dp746
sg62
g731
sg55
(lp747
g48
(g49
g50
NtRp748
(dp749
g53
(dp750
g61
I5
ssg62
g744
sg55
(lp751
g48
(g57
g50
NtRp752
(dp753
g53
(dp754
g61
I4
ssg62
Nsg55
(lp755
g48
(g64
g50
NtRp756
(dp757
g53
(dp758
sg62
g752
sg55
(lp759
g48
(g69
g50
NtRp760
(dp761
g53
(dp762
g73
g74
ssg62
g756
sg55
(lp763
S'app_folders'
p764
asbag48
(g69
g50
NtRp765
(dp766
g53
(dp767
g80
g81
ssg62
g756
sg55
(lp768
S':'
asbag48
(g69
g50
NtRp769
(dp770
g53
(dp771
sg62
g756
sg55
(lp772
g48
(g49
g50
NtRp773
(dp774
g53
(dp775
g61
I4
ssg62
g769
sg55
(lp776
S"set(['C:\\\\Users\\\\AKSHAY\\\\Desktop\\\\web2py\\\\applications\\\\welcome\\\\', 'C:\\\\Users\\\\AKSHAY\\\\Desktop\\\\web2py\\\\applications\\\\201056161\\\\', 'C:\\\\Users\\\\AKSHAY\\\\Desktop\\\\web2py\\\\applications\\\\examples\\\\', 'C:\\\\Users\\\\AKSHAY\\\\Desktop\\\\web2py\\\\applications\\\\admin\\\\', 'C:\\\\Users\\\\AKSHAY\\\\Desktop\\\\web2py\\\\applications\\\\MusicRepo\\\\'])"
p777
asbasbasbag48
(g64
g50
NtRp778
(dp779
g53
(dp780
sg62
g752
sg55
(lp781
g48
(g69
g50
NtRp782
(dp783
g53
(dp784
g73
g74
ssg62
g778
sg55
(lp785
S'applications_parent'
p786
asbag48
(g69
g50
NtRp787
(dp788
g53
(dp789
g80
g81
ssg62
g778
sg55
(lp790
S':'
asbag48
(g69
g50
NtRp791
(dp792
g53
(dp793
sg62
g778
sg55
(lp794
g48
(g49
g50
NtRp795
(dp796
g53
(dp797
g61
I4
ssg62
g791
sg55
(lp798
S'C:\\Users\\AKSHAY\\Desktop\\web2py'
p799
asbasbasbag48
(g64
g50
NtRp800
(dp801
g53
(dp802
sg62
g752
sg55
(lp803
g48
(g69
g50
NtRp804
(dp805
g53
(dp806
g73
g74
ssg62
g800
sg55
(lp807
S'cmd_args'
p808
asbag48
(g69
g50
NtRp809
(dp810
g53
(dp811
g80
g81
ssg62
g800
sg55
(lp812
S':'
asbag48
(g69
g50
NtRp813
(dp814
g53
(dp815
sg62
g800
sg55
(lp816
g48
(g49
g50
NtRp817
(dp818
g53
(dp819
g61
I4
ssg62
g813
sg55
(lp820
g48
(g57
g50
NtRp821
(dp822
g53
(dp823
g61
I3
ssg62
Nsg55
(lp824
sbasbasbasbag48
(g64
g50
NtRp825
(dp826
g53
(dp827
sg62
g752
sg55
(lp828
g48
(g69
g50
NtRp829
(dp830
g53
(dp831
g73
g74
ssg62
g825
sg55
(lp832
S'cmd_options'
p833
asbag48
(g69
g50
NtRp834
(dp835
g53
(dp836
g80
g81
ssg62
g825
sg55
(lp837
S':'
asbag48
(g69
g50
NtRp838
(dp839
g53
(dp840
sg62
g825
sg55
(lp841
g48
(g49
g50
NtRp842
(dp843
g53
(dp844
g61
I4
ssg62
g838
sg55
(lp845
S"<Values at 0x317dfd0: {'verbose': False, 'ip': '127.0.0.1', 'shutdown_timeout': 5, 'taskbar': False, 'port': 8000, 'maxthreads': None, 'softcron': False, 'server_name': 'AKSHAY-PC', 'bpython': False, 'nogui': False, 'nocron': False, 'extcron': False, 'debuglevel': 30, 'test': None, 'folder': 'C:\\\\Users\\\\AKSHAY\\\\Desktop\\\\web2py', 'config': '', 'import_models': False, 'winservice': '', 'shell': None, 'run': '', 'log_filename': 'httpserver.log', 'args': [''], 'profiler_filename': None, 'ssl_private_key': '', 'password': '<ask>', 'request_queue_size': 5, 'ssl_certificate': '', 'cronjob': False, 'plain': False, 'quiet': False, 'interfaces': None, 'minthreads': None, 'timeout': 10, 'numthreads': None, 'nobanner': False, 'pid_filename': 'httpserver.pid'}>"
p846
asbasbasbag48
(g64
g50
NtRp847
(dp848
g53
(dp849
sg62
g752
sg55
(lp850
g48
(g69
g50
NtRp851
(dp852
g53
(dp853
g73
g74
ssg62
g847
sg55
(lp854
S'content_length'
p855
asbag48
(g69
g50
NtRp856
(dp857
g53
(dp858
g80
g81
ssg62
g847
sg55
(lp859
S':'
asbag48
(g69
g50
NtRp860
(dp861
g53
(dp862
sg62
g847
sg55
(lp863
g48
(g49
g50
NtRp864
(dp865
g53
(dp866
g61
I4
ssg62
g860
sg55
(lp867
S'473'
p868
asbasbasbag48
(g64
g50
NtRp869
(dp870
g53
(dp871
sg62
g752
sg55
(lp872
g48
(g69
g50
NtRp873
(dp874
g53
(dp875
g73
g74
ssg62
g869
sg55
(lp876
S'content_type'
p877
asbag48
(g69
g50
NtRp878
(dp879
g53
(dp880
g80
g81
ssg62
g869
sg55
(lp881
S':'
asbag48
(g69
g50
NtRp882
(dp883
g53
(dp884
sg62
g869
sg55
(lp885
g48
(g49
g50
NtRp886
(dp887
g53
(dp888
g61
I4
ssg62
g882
sg55
(lp889
S'multipart/form-data; boundary=----WebKitFormBoundaryOc8637AOOukX4JAH'
p890
asbasbasbag48
(g64
g50
NtRp891
(dp892
g53
(dp893
sg62
g752
sg55
(lp894
g48
(g69
g50
NtRp895
(dp896
g53
(dp897
g73
g74
ssg62
g891
sg55
(lp898
S'db_sessions'
p899
asbag48
(g69
g50
NtRp900
(dp901
g53
(dp902
g80
g81
ssg62
g891
sg55
(lp903
S':'
asbag48
(g69
g50
NtRp904
(dp905
g53
(dp906
sg62
g891
sg55
(lp907
g48
(g49
g50
NtRp908
(dp909
g53
(dp910
g61
I4
ssg62
g904
sg55
(lp911
S'set([])'
p912
asbasbasbag48
(g64
g50
NtRp913
(dp914
g53
(dp915
sg62
g752
sg55
(lp916
g48
(g69
g50
NtRp917
(dp918
g53
(dp919
g73
g74
ssg62
g913
sg55
(lp920
S'debugging'
p921
asbag48
(g69
g50
NtRp922
(dp923
g53
(dp924
g80
g81
ssg62
g913
sg55
(lp925
S':'
asbag48
(g69
g50
NtRp926
(dp927
g53
(dp928
sg62
g913
sg55
(lp929
g48
(g49
g50
NtRp930
(dp931
g53
(dp932
g61
I4
ssg62
g926
sg55
(lp933
g91
asbasbasbag48
(g64
g50
NtRp934
(dp935
g53
(dp936
sg62
g752
sg55
(lp937
g48
(g69
g50
NtRp938
(dp939
g53
(dp940
g73
g74
ssg62
g934
sg55
(lp941
S'gluon_parent'
p942
asbag48
(g69
g50
NtRp943
(dp944
g53
(dp945
g80
g81
ssg62
g934
sg55
(lp946
S':'
asbag48
(g69
g50
NtRp947
(dp948
g53
(dp949
sg62
g934
sg55
(lp950
g48
(g49
g50
NtRp951
(dp952
g53
(dp953
g61
I4
ssg62
g947
sg55
(lp954
S'C:\\Users\\AKSHAY\\Desktop\\web2py'
p955
asbasbasbag48
(g64
g50
NtRp956
(dp957
g53
(dp958
sg62
g752
sg55
(lp959
g48
(g69
g50
NtRp960
(dp961
g53
(dp962
g73
g74
ssg62
g956
sg55
(lp963
S'http_accept'
p964
asbag48
(g69
g50
NtRp965
(dp966
g53
(dp967
g80
g81
ssg62
g956
sg55
(lp968
S':'
asbag48
(g69
g50
NtRp969
(dp970
g53
(dp971
sg62
g956
sg55
(lp972
g48
(g49
g50
NtRp973
(dp974
g53
(dp975
g61
I4
ssg62
g969
sg55
(lp976
S'text/html,application/xhtml+xml,application/xml;q=0.9,*/*;q=0.8'
p977
asbasbasbag48
(g64
g50
NtRp978
(dp979
g53
(dp980
sg62
g752
sg55
(lp981
g48
(g69
g50
NtRp982
(dp983
g53
(dp984
g73
g74
ssg62
g978
sg55
(lp985
S'http_accept_charset'
p986
asbag48
(g69
g50
NtRp987
(dp988
g53
(dp989
g80
g81
ssg62
g978
sg55
(lp990
S':'
asbag48
(g69
g50
NtRp991
(dp992
g53
(dp993
sg62
g978
sg55
(lp994
g48
(g49
g50
NtRp995
(dp996
g53
(dp997
g61
I4
ssg62
g991
sg55
(lp998
S'ISO-8859-1,utf-8;q=0.7,*;q=0.3'
p999
asbasbasbag48
(g64
g50
NtRp1000
(dp1001
g53
(dp1002
sg62
g752
sg55
(lp1003
g48
(g69
g50
NtRp1004
(dp1005
g53
(dp1006
g73
g74
ssg62
g1000
sg55
(lp1007
S'http_accept_encoding'
p1008
asbag48
(g69
g50
NtRp1009
(dp1010
g53
(dp1011
g80
g81
ssg62
g1000
sg55
(lp1012
S':'
asbag48
(g69
g50
NtRp1013
(dp1014
g53
(dp1015
sg62
g1000
sg55
(lp1016
g48
(g49
g50
NtRp1017
(dp1018
g53
(dp1019
g61
I4
ssg62
g1013
sg55
(lp1020
S'gzip,deflate,sdch'
p1021
asbasbasbag48
(g64
g50
NtRp1022
(dp1023
g53
(dp1024
sg62
g752
sg55
(lp1025
g48
(g69
g50
NtRp1026
(dp1027
g53
(dp1028
g73
g74
ssg62
g1022
sg55
(lp1029
S'http_accept_language'
p1030
asbag48
(g69
g50
NtRp1031
(dp1032
g53
(dp1033
g80
g81
ssg62
g1022
sg55
(lp1034
S':'
asbag48
(g69
g50
NtRp1035
(dp1036
g53
(dp1037
sg62
g1022
sg55
(lp1038
g48
(g49
g50
NtRp1039
(dp1040
g53
(dp1041
g61
I4
ssg62
g1035
sg55
(lp1042
S'en-US,en;q=0.8'
p1043
asbasbasbag48
(g64
g50
NtRp1044
(dp1045
g53
(dp1046
sg62
g752
sg55
(lp1047
g48
(g69
g50
NtRp1048
(dp1049
g53
(dp1050
g73
g74
ssg62
g1044
sg55
(lp1051
S'http_cache_control'
p1052
asbag48
(g69
g50
NtRp1053
(dp1054
g53
(dp1055
g80
g81
ssg62
g1044
sg55
(lp1056
S':'
asbag48
(g69
g50
NtRp1057
(dp1058
g53
(dp1059
sg62
g1044
sg55
(lp1060
g48
(g49
g50
NtRp1061
(dp1062
g53
(dp1063
g61
I4
ssg62
g1057
sg55
(lp1064
S'max-age=0'
p1065
asbasbasbag48
(g64
g50
NtRp1066
(dp1067
g53
(dp1068
sg62
g752
sg55
(lp1069
g48
(g69
g50
NtRp1070
(dp1071
g53
(dp1072
g73
g74
ssg62
g1066
sg55
(lp1073
S'http_connection'
p1074
asbag48
(g69
g50
NtRp1075
(dp1076
g53
(dp1077
g80
g81
ssg62
g1066
sg55
(lp1078
S':'
asbag48
(g69
g50
NtRp1079
(dp1080
g53
(dp1081
sg62
g1066
sg55
(lp1082
g48
(g49
g50
NtRp1083
(dp1084
g53
(dp1085
g61
I4
ssg62
g1079
sg55
(lp1086
S'keep-alive'
p1087
asbasbasbag48
(g64
g50
NtRp1088
(dp1089
g53
(dp1090
sg62
g752
sg55
(lp1091
g48
(g69
g50
NtRp1092
(dp1093
g53
(dp1094
g73
g74
ssg62
g1088
sg55
(lp1095
S'http_content_length'
p1096
asbag48
(g69
g50
NtRp1097
(dp1098
g53
(dp1099
g80
g81
ssg62
g1088
sg55
(lp1100
S':'
asbag48
(g69
g50
NtRp1101
(dp1102
g53
(dp1103
sg62
g1088
sg55
(lp1104
g48
(g49
g50
NtRp1105
(dp1106
g53
(dp1107
g61
I4
ssg62
g1101
sg55
(lp1108
g868
asbasbasbag48
(g64
g50
NtRp1109
(dp1110
g53
(dp1111
sg62
g752
sg55
(lp1112
g48
(g69
g50
NtRp1113
(dp1114
g53
(dp1115
g73
g74
ssg62
g1109
sg55
(lp1116
S'http_content_type'
p1117
asbag48
(g69
g50
NtRp1118
(dp1119
g53
(dp1120
g80
g81
ssg62
g1109
sg55
(lp1121
S':'
asbag48
(g69
g50
NtRp1122
(dp1123
g53
(dp1124
sg62
g1109
sg55
(lp1125
g48
(g49
g50
NtRp1126
(dp1127
g53
(dp1128
g61
I4
ssg62
g1122
sg55
(lp1129
g890
asbasbasbag48
(g64
g50
NtRp1130
(dp1131
g53
(dp1132
sg62
g752
sg55
(lp1133
g48
(g69
g50
NtRp1134
(dp1135
g53
(dp1136
g73
g74
ssg62
g1130
sg55
(lp1137
S'http_cookie'
p1138
asbag48
(g69
g50
NtRp1139
(dp1140
g53
(dp1141
g80
g81
ssg62
g1130
sg55
(lp1142
S':'
asbag48
(g69
g50
NtRp1143
(dp1144
g53
(dp1145
sg62
g1130
sg55
(lp1146
g48
(g49
g50
NtRp1147
(dp1148
g53
(dp1149
g61
I4
ssg62
g1143
sg55
(lp1150
S'session_id_welcome=127.0.0.1-59771078-5064-4769-bad5-36c10b98c15f; session_id_admin=127.0.0.1-0f74329a-39f0-47c2-95cf-7f42bb528a7b; session_id_201056161=127.0.0.1-3bc821ac-4d59-41c6-8699-b3e43edfc478'
p1151
asbasbasbag48
(g64
g50
NtRp1152
(dp1153
g53
(dp1154
sg62
g752
sg55
(lp1155
g48
(g69
g50
NtRp1156
(dp1157
g53
(dp1158
g73
g74
ssg62
g1152
sg55
(lp1159
S'http_host'
p1160
asbag48
(g69
g50
NtRp1161
(dp1162
g53
(dp1163
g80
g81
ssg62
g1152
sg55
(lp1164
S':'
asbag48
(g69
g50
NtRp1165
(dp1166
g53
(dp1167
sg62
g1152
sg55
(lp1168
g48
(g49
g50
NtRp1169
(dp1170
g53
(dp1171
g61
I4
ssg62
g1165
sg55
(lp1172
S'127.0.0.1:8000'
p1173
asbasbasbag48
(g64
g50
NtRp1174
(dp1175
g53
(dp1176
sg62
g752
sg55
(lp1177
g48
(g69
g50
NtRp1178
(dp1179
g53
(dp1180
g73
g74
ssg62
g1174
sg55
(lp1181
S'http_origin'
p1182
asbag48
(g69
g50
NtRp1183
(dp1184
g53
(dp1185
g80
g81
ssg62
g1174
sg55
(lp1186
S':'
asbag48
(g69
g50
NtRp1187
(dp1188
g53
(dp1189
sg62
g1174
sg55
(lp1190
g48
(g49
g50
NtRp1191
(dp1192
g53
(dp1193
g61
I4
ssg62
g1187
sg55
(lp1194
S'http://127.0.0.1:8000'
p1195
asbasbasbag48
(g64
g50
NtRp1196
(dp1197
g53
(dp1198
sg62
g752
sg55
(lp1199
g48
(g69
g50
NtRp1200
(dp1201
g53
(dp1202
g73
g74
ssg62
g1196
sg55
(lp1203
S'http_referer'
p1204
asbag48
(g69
g50
NtRp1205
(dp1206
g53
(dp1207
g80
g81
ssg62
g1196
sg55
(lp1208
S':'
asbag48
(g69
g50
NtRp1209
(dp1210
g53
(dp1211
sg62
g1196
sg55
(lp1212
g48
(g49
g50
NtRp1213
(dp1214
g53
(dp1215
g61
I4
ssg62
g1209
sg55
(lp1216
S'http://127.0.0.1:8000/201056161/default/new'
p1217
asbasbasbag48
(g64
g50
NtRp1218
(dp1219
g53
(dp1220
sg62
g752
sg55
(lp1221
g48
(g69
g50
NtRp1222
(dp1223
g53
(dp1224
g73
g74
ssg62
g1218
sg55
(lp1225
S'http_user_agent'
p1226
asbag48
(g69
g50
NtRp1227
(dp1228
g53
(dp1229
g80
g81
ssg62
g1218
sg55
(lp1230
S':'
asbag48
(g69
g50
NtRp1231
(dp1232
g53
(dp1233
sg62
g1218
sg55
(lp1234
g48
(g49
g50
NtRp1235
(dp1236
g53
(dp1237
g61
I4
ssg62
g1231
sg55
(lp1238
S'Mozilla/5.0 (Windows NT 6.1; WOW64) AppleWebKit/535.1 (KHTML, like Gecko) Chrome/13.0.782.218 Safari/535.1'
p1239
asbasbasbag48
(g64
g50
NtRp1240
(dp1241
g53
(dp1242
sg62
g752
sg55
(lp1243
g48
(g69
g50
NtRp1244
(dp1245
g53
(dp1246
g73
g74
ssg62
g1240
sg55
(lp1247
S'path_info'
p1248
asbag48
(g69
g50
NtRp1249
(dp1250
g53
(dp1251
g80
g81
ssg62
g1240
sg55
(lp1252
S':'
asbag48
(g69
g50
NtRp1253
(dp1254
g53
(dp1255
sg62
g1240
sg55
(lp1256
g48
(g49
g50
NtRp1257
(dp1258
g53
(dp1259
g61
I4
ssg62
g1253
sg55
(lp1260
S'/201056161/default/new'
p1261
asbasbasbag48
(g64
g50
NtRp1262
(dp1263
g53
(dp1264
sg62
g752
sg55
(lp1265
g48
(g69
g50
NtRp1266
(dp1267
g53
(dp1268
g73
g74
ssg62
g1262
sg55
(lp1269
S'query_string'
p1270
asbag48
(g69
g50
NtRp1271
(dp1272
g53
(dp1273
g80
g81
ssg62
g1262
sg55
(lp1274
S':'
asbag48
(g69
g50
NtRp1275
(dp1276
g53
(dp1277
sg62
g1262
sg55
(lp1278
g48
(g49
g50
NtRp1279
(dp1280
g53
(dp1281
g61
I4
ssg62
g1275
sg55
(lp1282
S''
asbasbasbag48
(g64
g50
NtRp1283
(dp1284
g53
(dp1285
sg62
g752
sg55
(lp1286
g48
(g69
g50
NtRp1287
(dp1288
g53
(dp1289
g73
g74
ssg62
g1283
sg55
(lp1290
S'remote_addr'
p1291
asbag48
(g69
g50
NtRp1292
(dp1293
g53
(dp1294
g80
g81
ssg62
g1283
sg55
(lp1295
S':'
asbag48
(g69
g50
NtRp1296
(dp1297
g53
(dp1298
sg62
g1283
sg55
(lp1299
g48
(g49
g50
NtRp1300
(dp1301
g53
(dp1302
g61
I4
ssg62
g1296
sg55
(lp1303
g181
asbasbasbag48
(g64
g50
NtRp1304
(dp1305
g53
(dp1306
sg62
g752
sg55
(lp1307
g48
(g69
g50
NtRp1308
(dp1309
g53
(dp1310
g73
g74
ssg62
g1304
sg55
(lp1311
S'remote_port'
p1312
asbag48
(g69
g50
NtRp1313
(dp1314
g53
(dp1315
g80
g81
ssg62
g1304
sg55
(lp1316
S':'
asbag48
(g69
g50
NtRp1317
(dp1318
g53
(dp1319
sg62
g1304
sg55
(lp1320
g48
(g49
g50
NtRp1321
(dp1322
g53
(dp1323
g61
I4
ssg62
g1317
sg55
(lp1324
S'51282'
p1325
asbasbasbag48
(g64
g50
NtRp1326
(dp1327
g53
(dp1328
sg62
g752
sg55
(lp1329
g48
(g69
g50
NtRp1330
(dp1331
g53
(dp1332
g73
g74
ssg62
g1326
sg55
(lp1333
S'request_method'
p1334
asbag48
(g69
g50
NtRp1335
(dp1336
g53
(dp1337
g80
g81
ssg62
g1326
sg55
(lp1338
S':'
asbag48
(g69
g50
NtRp1339
(dp1340
g53
(dp1341
sg62
g1326
sg55
(lp1342
g48
(g49
g50
NtRp1343
(dp1344
g53
(dp1345
g61
I4
ssg62
g1339
sg55
(lp1346
S'POST'
p1347
asbasbasbag48
(g64
g50
NtRp1348
(dp1349
g53
(dp1350
sg62
g752
sg55
(lp1351
g48
(g69
g50
NtRp1352
(dp1353
g53
(dp1354
g73
g74
ssg62
g1348
sg55
(lp1355
S'script_name'
p1356
asbag48
(g69
g50
NtRp1357
(dp1358
g53
(dp1359
g80
g81
ssg62
g1348
sg55
(lp1360
S':'
asbag48
(g69
g50
NtRp1361
(dp1362
g53
(dp1363
sg62
g1348
sg55
(lp1364
g48
(g49
g50
NtRp1365
(dp1366
g53
(dp1367
g61
I4
ssg62
g1361
sg55
(lp1368
S''
asbasbasbag48
(g64
g50
NtRp1369
(dp1370
g53
(dp1371
sg62
g752
sg55
(lp1372
g48
(g69
g50
NtRp1373
(dp1374
g53
(dp1375
g73
g74
ssg62
g1369
sg55
(lp1376
S'server_name'
p1377
asbag48
(g69
g50
NtRp1378
(dp1379
g53
(dp1380
g80
g81
ssg62
g1369
sg55
(lp1381
S':'
asbag48
(g69
g50
NtRp1382
(dp1383
g53
(dp1384
sg62
g1369
sg55
(lp1385
g48
(g49
g50
NtRp1386
(dp1387
g53
(dp1388
g61
I4
ssg62
g1382
sg55
(lp1389
S'AKSHAY-PC'
p1390
asbasbasbag48
(g64
g50
NtRp1391
(dp1392
g53
(dp1393
sg62
g752
sg55
(lp1394
g48
(g69
g50
NtRp1395
(dp1396
g53
(dp1397
g73
g74
ssg62
g1391
sg55
(lp1398
S'server_port'
p1399
asbag48
(g69
g50
NtRp1400
(dp1401
g53
(dp1402
g80
g81
ssg62
g1391
sg55
(lp1403
S':'
asbag48
(g69
g50
NtRp1404
(dp1405
g53
(dp1406
sg62
g1391
sg55
(lp1407
g48
(g49
g50
NtRp1408
(dp1409
g53
(dp1410
g61
I4
ssg62
g1404
sg55
(lp1411
S'8000'
p1412
asbasbasbag48
(g64
g50
NtRp1413
(dp1414
g53
(dp1415
sg62
g752
sg55
(lp1416
g48
(g69
g50
NtRp1417
(dp1418
g53
(dp1419
g73
g74
ssg62
g1413
sg55
(lp1420
S'server_protocol'
p1421
asbag48
(g69
g50
NtRp1422
(dp1423
g53
(dp1424
g80
g81
ssg62
g1413
sg55
(lp1425
S':'
asbag48
(g69
g50
NtRp1426
(dp1427
g53
(dp1428
sg62
g1413
sg55
(lp1429
g48
(g49
g50
NtRp1430
(dp1431
g53
(dp1432
g61
I4
ssg62
g1426
sg55
(lp1433
S'HTTP/1.1'
p1434
asbasbasbag48
(g64
g50
NtRp1435
(dp1436
g53
(dp1437
sg62
g752
sg55
(lp1438
g48
(g69
g50
NtRp1439
(dp1440
g53
(dp1441
g73
g74
ssg62
g1435
sg55
(lp1442
S'server_software'
p1443
asbag48
(g69
g50
NtRp1444
(dp1445
g53
(dp1446
g80
g81
ssg62
g1435
sg55
(lp1447
S':'
asbag48
(g69
g50
NtRp1448
(dp1449
g53
(dp1450
sg62
g1435
sg55
(lp1451
g48
(g49
g50
NtRp1452
(dp1453
g53
(dp1454
g61
I4
ssg62
g1448
sg55
(lp1455
S'Rocket 1.2.2'
p1456
asbasbasbag48
(g64
g50
NtRp1457
(dp1458
g53
(dp1459
sg62
g752
sg55
(lp1460
g48
(g69
g50
NtRp1461
(dp1462
g53
(dp1463
g73
g74
ssg62
g1457
sg55
(lp1464
S'web2py_crontype'
p1465
asbag48
(g69
g50
NtRp1466
(dp1467
g53
(dp1468
g80
g81
ssg62
g1457
sg55
(lp1469
S':'
asbag48
(g69
g50
NtRp1470
(dp1471
g53
(dp1472
sg62
g1457
sg55
(lp1473
g48
(g49
g50
NtRp1474
(dp1475
g53
(dp1476
g61
I4
ssg62
g1470
sg55
(lp1477
S'hard'
p1478
asbasbasbag48
(g64
g50
NtRp1479
(dp1480
g53
(dp1481
sg62
g752
sg55
(lp1482
g48
(g69
g50
NtRp1483
(dp1484
g53
(dp1485
g73
g74
ssg62
g1479
sg55
(lp1486
S'web2py_path'
p1487
asbag48
(g69
g50
NtRp1488
(dp1489
g53
(dp1490
g80
g81
ssg62
g1479
sg55
(lp1491
S':'
asbag48
(g69
g50
NtRp1492
(dp1493
g53
(dp1494
sg62
g1479
sg55
(lp1495
g48
(g49
g50
NtRp1496
(dp1497
g53
(dp1498
g61
I4
ssg62
g1492
sg55
(lp1499
g799
asbasbasbag48
(g64
g50
NtRp1500
(dp1501
g53
(dp1502
sg62
g752
sg55
(lp1503
g48
(g69
g50
NtRp1504
(dp1505
g53
(dp1506
g73
g74
ssg62
g1500
sg55
(lp1507
S'web2py_version'
p1508
asbag48
(g69
g50
NtRp1509
(dp1510
g53
(dp1511
g80
g81
ssg62
g1500
sg55
(lp1512
S':'
asbag48
(g69
g50
NtRp1513
(dp1514
g53
(dp1515
sg62
g1500
sg55
(lp1516
g48
(g49
g50
NtRp1517
(dp1518
g53
(dp1519
g61
I4
ssg62
g1513
sg55
(lp1520
S'Version 1.97.1 (2011-06-26 19:25:44)\n'
p1521
asbasbasbag48
(g64
g50
NtRp1522
(dp1523
g53
(dp1524
sg62
g752
sg55
(lp1525
g48
(g69
g50
NtRp1526
(dp1527
g53
(dp1528
g73
g74
ssg62
g1522
sg55
(lp1529
S'wsgi_errors'
p1530
asbag48
(g69
g50
NtRp1531
(dp1532
g53
(dp1533
g80
g81
ssg62
g1522
sg55
(lp1534
S':'
asbag48
(g69
g50
NtRp1535
(dp1536
g53
(dp1537
sg62
g1522
sg55
(lp1538
g48
(g49
g50
NtRp1539
(dp1540
g53
(dp1541
g61
I4
ssg62
g1535
sg55
(lp1542
S"<open file '<stderr>', mode 'w' at 0x002500B0>"
p1543
asbasbasbag48
(g64
g50
NtRp1544
(dp1545
g53
(dp1546
sg62
g752
sg55
(lp1547
g48
(g69
g50
NtRp1548
(dp1549
g53
(dp1550
g73
g74
ssg62
g1544
sg55
(lp1551
S'wsgi_file_wrapper'
p1552
asbag48
(g69
g50
NtRp1553
(dp1554
g53
(dp1555
g80
g81
ssg62
g1544
sg55
(lp1556
S':'
asbag48
(g69
g50
NtRp1557
(dp1558
g53
(dp1559
sg62
g1544
sg55
(lp1560
g48
(g49
g50
NtRp1561
(dp1562
g53
(dp1563
g61
I4
ssg62
g1557
sg55
(lp1564
S'<class gluon.rocket.FileWrapper at 0x03132BA0>'
p1565
asbasbasbag48
(g64
g50
NtRp1566
(dp1567
g53
(dp1568
sg62
g752
sg55
(lp1569
g48
(g69
g50
NtRp1570
(dp1571
g53
(dp1572
g73
g74
ssg62
g1566
sg55
(lp1573
S'wsgi_input'
p1574
asbag48
(g69
g50
NtRp1575
(dp1576
g53
(dp1577
g80
g81
ssg62
g1566
sg55
(lp1578
S':'
asbag48
(g69
g50
NtRp1579
(dp1580
g53
(dp1581
sg62
g1566
sg55
(lp1582
g48
(g49
g50
NtRp1583
(dp1584
g53
(dp1585
g61
I4
ssg62
g1579
sg55
(lp1586
S'<socket._fileobject object at 0x06C4C070>'
p1587
asbasbasbag48
(g64
g50
NtRp1588
(dp1589
g53
(dp1590
sg62
g752
sg55
(lp1591
g48
(g69
g50
NtRp1592
(dp1593
g53
(dp1594
g73
g74
ssg62
g1588
sg55
(lp1595
S'wsgi_multiprocess'
p1596
asbag48
(g69
g50
NtRp1597
(dp1598
g53
(dp1599
g80
g81
ssg62
g1588
sg55
(lp1600
S':'
asbag48
(g69
g50
NtRp1601
(dp1602
g53
(dp1603
sg62
g1588
sg55
(lp1604
g48
(g49
g50
NtRp1605
(dp1606
g53
(dp1607
g61
I4
ssg62
g1601
sg55
(lp1608
g91
asbasbasbag48
(g64
g50
NtRp1609
(dp1610
g53
(dp1611
sg62
g752
sg55
(lp1612
g48
(g69
g50
NtRp1613
(dp1614
g53
(dp1615
g73
g74
ssg62
g1609
sg55
(lp1616
S'wsgi_multithread'
p1617
asbag48
(g69
g50
NtRp1618
(dp1619
g53
(dp1620
g80
g81
ssg62
g1609
sg55
(lp1621
S':'
asbag48
(g69
g50
NtRp1622
(dp1623
g53
(dp1624
sg62
g1609
sg55
(lp1625
g48
(g49
g50
NtRp1626
(dp1627
g53
(dp1628
g61
I4
ssg62
g1622
sg55
(lp1629
S'True'
p1630
asbasbasbag48
(g64
g50
NtRp1631
(dp1632
g53
(dp1633
sg62
g752
sg55
(lp1634
g48
(g69
g50
NtRp1635
(dp1636
g53
(dp1637
g73
g74
ssg62
g1631
sg55
(lp1638
S'wsgi_run_once'
p1639
asbag48
(g69
g50
NtRp1640
(dp1641
g53
(dp1642
g80
g81
ssg62
g1631
sg55
(lp1643
S':'
asbag48
(g69
g50
NtRp1644
(dp1645
g53
(dp1646
sg62
g1631
sg55
(lp1647
g48
(g49
g50
NtRp1648
(dp1649
g53
(dp1650
g61
I4
ssg62
g1644
sg55
(lp1651
g91
asbasbasbag48
(g64
g50
NtRp1652
(dp1653
g53
(dp1654
sg62
g752
sg55
(lp1655
g48
(g69
g50
NtRp1656
(dp1657
g53
(dp1658
g73
g74
ssg62
g1652
sg55
(lp1659
S'wsgi_url_scheme'
p1660
asbag48
(g69
g50
NtRp1661
(dp1662
g53
(dp1663
g80
g81
ssg62
g1652
sg55
(lp1664
S':'
asbag48
(g69
g50
NtRp1665
(dp1666
g53
(dp1667
sg62
g1652
sg55
(lp1668
g48
(g49
g50
NtRp1669
(dp1670
g53
(dp1671
g61
I4
ssg62
g1665
sg55
(lp1672
S'http'
p1673
asbasbasbag48
(g64
g50
NtRp1674
(dp1675
g53
(dp1676
sg62
g752
sg55
(lp1677
g48
(g69
g50
NtRp1678
(dp1679
g53
(dp1680
g73
g74
ssg62
g1674
sg55
(lp1681
S'wsgi_version'
p1682
asbag48
(g69
g50
NtRp1683
(dp1684
g53
(dp1685
g80
g81
ssg62
g1674
sg55
(lp1686
S':'
asbag48
(g69
g50
NtRp1687
(dp1688
g53
(dp1689
sg62
g1674
sg55
(lp1690
g48
(g49
g50
NtRp1691
(dp1692
g53
(dp1693
g61
I4
ssg62
g1687
sg55
(lp1694
g48
(g57
g50
NtRp1695
(dp1696
g53
(dp1697
g61
I3
ssg62
Nsg55
(lp1698
g48
(g64
g50
NtRp1699
(dp1700
g53
(dp1701
sg62
g1695
sg55
(lp1702
g48
(g69
g50
NtRp1703
(dp1704
g53
(dp1705
sg62
g1699
sg55
(lp1706
g48
(g49
g50
NtRp1707
(dp1708
g53
(dp1709
g61
I3
ssg62
g1703
sg55
(lp1710
S'1'
asbasbasbag48
(g64
g50
NtRp1711
(dp1712
g53
(dp1713
sg62
g1695
sg55
(lp1714
g48
(g69
g50
NtRp1715
(dp1716
g53
(dp1717
sg62
g1711
sg55
(lp1718
g48
(g49
g50
NtRp1719
(dp1720
g53
(dp1721
g61
I3
ssg62
g1715
sg55
(lp1722
S'0'
asbasbasbasbasbasbasbasbasbasbasbag48
(g64
g50
NtRp1723
(dp1724
g53
(dp1725
sg62
g58
sg55
(lp1726
g48
(g69
g50
NtRp1727
(dp1728
g53
(dp1729
g73
g74
ssg62
g1723
sg55
(lp1730
S'extension'
p1731
asbag48
(g69
g50
NtRp1732
(dp1733
g53
(dp1734
g80
g81
ssg62
g1723
sg55
(lp1735
S':'
asbag48
(g69
g50
NtRp1736
(dp1737
g53
(dp1738
sg62
g1723
sg55
(lp1739
g48
(g49
g50
NtRp1740
(dp1741
g53
(dp1742
g61
I5
ssg62
g1736
sg55
(lp1743
S'html'
p1744
asbasbasbag48
(g64
g50
NtRp1745
(dp1746
g53
(dp1747
sg62
g58
sg55
(lp1748
g48
(g69
g50
NtRp1749
(dp1750
g53
(dp1751
g73
g74
ssg62
g1745
sg55
(lp1752
S'folder'
p1753
asbag48
(g69
g50
NtRp1754
(dp1755
g53
(dp1756
g80
g81
ssg62
g1745
sg55
(lp1757
S':'
asbag48
(g69
g50
NtRp1758
(dp1759
g53
(dp1760
sg62
g1745
sg55
(lp1761
g48
(g49
g50
NtRp1762
(dp1763
g53
(dp1764
g61
I5
ssg62
g1758
sg55
(lp1765
S'C:\\Users\\AKSHAY\\Desktop\\web2py\\applications\\201056161\\'
p1766
asbasbasbag48
(g64
g50
NtRp1767
(dp1768
g53
(dp1769
sg62
g58
sg55
(lp1770
g48
(g69
g50
NtRp1771
(dp1772
g53
(dp1773
g73
g74
ssg62
g1767
sg55
(lp1774
S'function'
p1775
asbag48
(g69
g50
NtRp1776
(dp1777
g53
(dp1778
g80
g81
ssg62
g1767
sg55
(lp1779
S':'
asbag48
(g69
g50
NtRp1780
(dp1781
g53
(dp1782
sg62
g1767
sg55
(lp1783
g48
(g49
g50
NtRp1784
(dp1785
g53
(dp1786
g61
I5
ssg62
g1780
sg55
(lp1787
S'new'
p1788
asbasbasbag48
(g64
g50
NtRp1789
(dp1790
g53
(dp1791
sg62
g58
sg55
(lp1792
g48
(g69
g50
NtRp1793
(dp1794
g53
(dp1795
g73
g74
ssg62
g1789
sg55
(lp1796
S'get_vars'
p1797
asbag48
(g69
g50
NtRp1798
(dp1799
g53
(dp1800
g80
g81
ssg62
g1789
sg55
(lp1801
S':'
asbag48
(g69
g50
NtRp1802
(dp1803
g53
(dp1804
sg62
g1789
sg55
(lp1805
g48
(g49
g50
NtRp1806
(dp1807
g53
(dp1808
g61
I5
ssg62
g1802
sg55
(lp1809
g48
(g57
g50
NtRp1810
(dp1811
g53
(dp1812
g61
I4
ssg62
Nsg55
(lp1813
sbasbasbasbag48
(g64
g50
NtRp1814
(dp1815
g53
(dp1816
sg62
g58
sg55
(lp1817
g48
(g69
g50
NtRp1818
(dp1819
g53
(dp1820
g73
g74
ssg62
g1814
sg55
(lp1821
S'is_https'
p1822
asbag48
(g69
g50
NtRp1823
(dp1824
g53
(dp1825
g80
g81
ssg62
g1814
sg55
(lp1826
S':'
asbag48
(g69
g50
NtRp1827
(dp1828
g53
(dp1829
sg62
g1814
sg55
(lp1830
g48
(g49
g50
NtRp1831
(dp1832
g53
(dp1833
g61
I5
ssg62
g1827
sg55
(lp1834
g91
asbasbasbag48
(g64
g50
NtRp1835
(dp1836
g53
(dp1837
sg62
g58
sg55
(lp1838
g48
(g69
g50
NtRp1839
(dp1840
g53
(dp1841
g73
g74
ssg62
g1835
sg55
(lp1842
S'is_local'
p1843
asbag48
(g69
g50
NtRp1844
(dp1845
g53
(dp1846
g80
g81
ssg62
g1835
sg55
(lp1847
S':'
asbag48
(g69
g50
NtRp1848
(dp1849
g53
(dp1850
sg62
g1835
sg55
(lp1851
g48
(g49
g50
NtRp1852
(dp1853
g53
(dp1854
g61
I5
ssg62
g1848
sg55
(lp1855
g1630
asbasbasbag48
(g64
g50
NtRp1856
(dp1857
g53
(dp1858
sg62
g58
sg55
(lp1859
g48
(g69
g50
NtRp1860
(dp1861
g53
(dp1862
g73
g74
ssg62
g1856
sg55
(lp1863
S'is_restful'
p1864
asbag48
(g69
g50
NtRp1865
(dp1866
g53
(dp1867
g80
g81
ssg62
g1856
sg55
(lp1868
S':'
asbag48
(g69
g50
NtRp1869
(dp1870
g53
(dp1871
sg62
g1856
sg55
(lp1872
g48
(g49
g50
NtRp1873
(dp1874
g53
(dp1875
g61
I5
ssg62
g1869
sg55
(lp1876
g91
asbasbasbag48
(g64
g50
NtRp1877
(dp1878
g53
(dp1879
sg62
g58
sg55
(lp1880
g48
(g69
g50
NtRp1881
(dp1882
g53
(dp1883
g73
g74
ssg62
g1877
sg55
(lp1884
S'now'
p1885
asbag48
(g69
g50
NtRp1886
(dp1887
g53
(dp1888
g80
g81
ssg62
g1877
sg55
(lp1889
S':'
asbag48
(g69
g50
NtRp1890
(dp1891
g53
(dp1892
sg62
g1877
sg55
(lp1893
g48
(g49
g50
NtRp1894
(dp1895
g53
(dp1896
g61
I5
ssg62
g1890
sg55
(lp1897
S'datetime.datetime(2011, 9, 7, 2, 30, 46, 596000)'
p1898
asbasbasbag48
(g64
g50
NtRp1899
(dp1900
g53
(dp1901
sg62
g58
sg55
(lp1902
g48
(g69
g50
NtRp1903
(dp1904
g53
(dp1905
g73
g74
ssg62
g1899
sg55
(lp1906
S'post_vars'
p1907
asbag48
(g69
g50
NtRp1908
(dp1909
g53
(dp1910
g80
g81
ssg62
g1899
sg55
(lp1911
S':'
asbag48
(g69
g50
NtRp1912
(dp1913
g53
(dp1914
sg62
g1899
sg55
(lp1915
g48
(g49
g50
NtRp1916
(dp1917
g53
(dp1918
g61
I5
ssg62
g1912
sg55
(lp1919
g48
(g57
g50
NtRp1920
(dp1921
g53
(dp1922
g61
I4
ssg62
Nsg55
(lp1923
g48
(g64
g50
NtRp1924
(dp1925
g53
(dp1926
sg62
g1920
sg55
(lp1927
g48
(g69
g50
NtRp1928
(dp1929
g53
(dp1930
g73
g74
ssg62
g1924
sg55
(lp1931
S'movien'
p1932
asbag48
(g69
g50
NtRp1933
(dp1934
g53
(dp1935
g80
g81
ssg62
g1924
sg55
(lp1936
S':'
asbag48
(g69
g50
NtRp1937
(dp1938
g53
(dp1939
sg62
g1924
sg55
(lp1940
g48
(g49
g50
NtRp1941
(dp1942
g53
(dp1943
g61
I4
ssg62
g1937
sg55
(lp1944
S''
asbasbasbag48
(g64
g50
NtRp1945
(dp1946
g53
(dp1947
sg62
g1920
sg55
(lp1948
g48
(g69
g50
NtRp1949
(dp1950
g53
(dp1951
g73
g74
ssg62
g1945
sg55
(lp1952
S'namen'
p1953
asbag48
(g69
g50
NtRp1954
(dp1955
g53
(dp1956
g80
g81
ssg62
g1945
sg55
(lp1957
S':'
asbag48
(g69
g50
NtRp1958
(dp1959
g53
(dp1960
sg62
g1945
sg55
(lp1961
g48
(g49
g50
NtRp1962
(dp1963
g53
(dp1964
g61
I4
ssg62
g1958
sg55
(lp1965
S'11'
p1966
asbasbasbasbasbasbasbag48
(g64
g50
NtRp1967
(dp1968
g53
(dp1969
sg62
g58
sg55
(lp1970
g48
(g69
g50
NtRp1971
(dp1972
g53
(dp1973
g73
g74
ssg62
g1967
sg55
(lp1974
S'url'
p1975
asbag48
(g69
g50
NtRp1976
(dp1977
g53
(dp1978
g80
g81
ssg62
g1967
sg55
(lp1979
S':'
asbag48
(g69
g50
NtRp1980
(dp1981
g53
(dp1982
sg62
g1967
sg55
(lp1983
g48
(g49
g50
NtRp1984
(dp1985
g53
(dp1986
g61
I5
ssg62
g1980
sg55
(lp1987
S'/201056161/default/new'
p1988
asbasbasbag48
(g64
g50
NtRp1989
(dp1990
g53
(dp1991
sg62
g58
sg55
(lp1992
g48
(g69
g50
NtRp1993
(dp1994
g53
(dp1995
g73
g74
ssg62
g1989
sg55
(lp1996
S'uuid'
p1997
asbag48
(g69
g50
NtRp1998
(dp1999
g53
(dp2000
g80
g81
ssg62
g1989
sg55
(lp2001
S':'
asbag48
(g69
g50
NtRp2002
(dp2003
g53
(dp2004
sg62
g1989
sg55
(lp2005
g48
(g49
g50
NtRp2006
(dp2007
g53
(dp2008
g61
I5
ssg62
g2002
sg55
(lp2009
S'201056161/127.0.0.1.2011-09-07.02-30-46.b523fdb7-70df-4a9e-be0c-fcb094b1c5cf'
p2010
asbasbasbag48
(g64
g50
NtRp2011
(dp2012
g53
(dp2013
sg62
g58
sg55
(lp2014
g48
(g69
g50
NtRp2015
(dp2016
g53
(dp2017
g73
g74
ssg62
g2011
sg55
(lp2018
S'vars'
p2019
asbag48
(g69
g50
NtRp2020
(dp2021
g53
(dp2022
g80
g81
ssg62
g2011
sg55
(lp2023
S':'
asbag48
(g69
g50
NtRp2024
(dp2025
g53
(dp2026
sg62
g2011
sg55
(lp2027
g48
(g49
g50
NtRp2028
(dp2029
g53
(dp2030
g61
I5
ssg62
g2024
sg55
(lp2031
g48
(g57
g50
NtRp2032
(dp2033
g53
(dp2034
g61
I4
ssg62
Nsg55
(lp2035
g48
(g64
g50
NtRp2036
(dp2037
g53
(dp2038
sg62
g2032
sg55
(lp2039
g48
(g69
g50
NtRp2040
(dp2041
g53
(dp2042
g73
g74
ssg62
g2036
sg55
(lp2043
g1932
asbag48
(g69
g50
NtRp2044
(dp2045
g53
(dp2046
g80
g81
ssg62
g2036
sg55
(lp2047
S':'
asbag48
(g69
g50
NtRp2048
(dp2049
g53
(dp2050
sg62
g2036
sg55
(lp2051
g48
(g49
g50
NtRp2052
(dp2053
g53
(dp2054
g61
I4
ssg62
g2048
sg55
(lp2055
S''
asbasbasbag48
(g64
g50
NtRp2056
(dp2057
g53
(dp2058
sg62
g2032
sg55
(lp2059
g48
(g69
g50
NtRp2060
(dp2061
g53
(dp2062
g73
g74
ssg62
g2056
sg55
(lp2063
g1953
asbag48
(g69
g50
NtRp2064
(dp2065
g53
(dp2066
g80
g81
ssg62
g2056
sg55
(lp2067
S':'
asbag48
(g69
g50
NtRp2068
(dp2069
g53
(dp2070
sg62
g2056
sg55
(lp2071
g48
(g49
g50
NtRp2072
(dp2073
g53
(dp2074
g61
I4
ssg62
g2068
sg55
(lp2075
g1966
asbasbasbasbasbasbasbag48
(g64
g50
NtRp2076
(dp2077
g53
(dp2078
sg62
g58
sg55
(lp2079
g48
(g69
g50
NtRp2080
(dp2081
g53
(dp2082
g73
g74
ssg62
g2076
sg55
(lp2083
S'wsgi'
p2084
asbag48
(g69
g50
NtRp2085
(dp2086
g53
(dp2087
g80
g81
ssg62
g2076
sg55
(lp2088
S':'
asbag48
(g69
g50
NtRp2089
(dp2090
g53
(dp2091
sg62
g2076
sg55
(lp2092
g48
(g49
g50
NtRp2093
(dp2094
g53
(dp2095
g61
I5
ssg62
g2089
sg55
(lp2096
g48
(g57
g50
NtRp2097
(dp2098
g53
(dp2099
g61
I4
ssg62
Nsg55
(lp2100
g48
(g64
g50
NtRp2101
(dp2102
g53
(dp2103
sg62
g2097
sg55
(lp2104
g48
(g69
g50
NtRp2105
(dp2106
g53
(dp2107
g73
g74
ssg62
g2101
sg55
(lp2108
S'environ'
p2109
asbag48
(g69
g50
NtRp2110
(dp2111
g53
(dp2112
g80
g81
ssg62
g2101
sg55
(lp2113
S':'
asbag48
(g69
g50
NtRp2114
(dp2115
g53
(dp2116
sg62
g2101
sg55
(lp2117
g48
(g49
g50
NtRp2118
(dp2119
g53
(dp2120
g61
I4
ssg62
g2114
sg55
(lp2121
g48
(g57
g50
NtRp2122
(dp2123
g53
(dp2124
g61
I3
ssg62
Nsg55
(lp2125
g48
(g64
g50
NtRp2126
(dp2127
g53
(dp2128
sg62
g2122
sg55
(lp2129
g48
(g69
g50
NtRp2130
(dp2131
g53
(dp2132
g73
g74
ssg62
g2126
sg55
(lp2133
S'CONTENT_LENGTH'
p2134
asbag48
(g69
g50
NtRp2135
(dp2136
g53
(dp2137
g80
g81
ssg62
g2126
sg55
(lp2138
S':'
asbag48
(g69
g50
NtRp2139
(dp2140
g53
(dp2141
sg62
g2126
sg55
(lp2142
g48
(g49
g50
NtRp2143
(dp2144
g53
(dp2145
g61
I3
ssg62
g2139
sg55
(lp2146
g868
asbasbasbag48
(g64
g50
NtRp2147
(dp2148
g53
(dp2149
sg62
g2122
sg55
(lp2150
g48
(g69
g50
NtRp2151
(dp2152
g53
(dp2153
g73
g74
ssg62
g2147
sg55
(lp2154
S'CONTENT_TYPE'
p2155
asbag48
(g69
g50
NtRp2156
(dp2157
g53
(dp2158
g80
g81
ssg62
g2147
sg55
(lp2159
S':'
asbag48
(g69
g50
NtRp2160
(dp2161
g53
(dp2162
sg62
g2147
sg55
(lp2163
g48
(g49
g50
NtRp2164
(dp2165
g53
(dp2166
g61
I3
ssg62
g2160
sg55
(lp2167
g890
asbasbasbag48
(g64
g50
NtRp2168
(dp2169
g53
(dp2170
sg62
g2122
sg55
(lp2171
g48
(g69
g50
NtRp2172
(dp2173
g53
(dp2174
g73
g74
ssg62
g2168
sg55
(lp2175
S'HTTP_ACCEPT'
p2176
asbag48
(g69
g50
NtRp2177
(dp2178
g53
(dp2179
g80
g81
ssg62
g2168
sg55
(lp2180
S':'
asbag48
(g69
g50
NtRp2181
(dp2182
g53
(dp2183
sg62
g2168
sg55
(lp2184
g48
(g49
g50
NtRp2185
(dp2186
g53
(dp2187
g61
I3
ssg62
g2181
sg55
(lp2188
g977
asbasbasbag48
(g64
g50
NtRp2189
(dp2190
g53
(dp2191
sg62
g2122
sg55
(lp2192
g48
(g69
g50
NtRp2193
(dp2194
g53
(dp2195
g73
g74
ssg62
g2189
sg55
(lp2196
S'HTTP_ACCEPT_CHARSET'
p2197
asbag48
(g69
g50
NtRp2198
(dp2199
g53
(dp2200
g80
g81
ssg62
g2189
sg55
(lp2201
S':'
asbag48
(g69
g50
NtRp2202
(dp2203
g53
(dp2204
sg62
g2189
sg55
(lp2205
g48
(g49
g50
NtRp2206
(dp2207
g53
(dp2208
g61
I3
ssg62
g2202
sg55
(lp2209
g999
asbasbasbag48
(g64
g50
NtRp2210
(dp2211
g53
(dp2212
sg62
g2122
sg55
(lp2213
g48
(g69
g50
NtRp2214
(dp2215
g53
(dp2216
g73
g74
ssg62
g2210
sg55
(lp2217
S'HTTP_ACCEPT_ENCODING'
p2218
asbag48
(g69
g50
NtRp2219
(dp2220
g53
(dp2221
g80
g81
ssg62
g2210
sg55
(lp2222
S':'
asbag48
(g69
g50
NtRp2223
(dp2224
g53
(dp2225
sg62
g2210
sg55
(lp2226
g48
(g49
g50
NtRp2227
(dp2228
g53
(dp2229
g61
I3
ssg62
g2223
sg55
(lp2230
g1021
asbasbasbag48
(g64
g50
NtRp2231
(dp2232
g53
(dp2233
sg62
g2122
sg55
(lp2234
g48
(g69
g50
NtRp2235
(dp2236
g53
(dp2237
g73
g74
ssg62
g2231
sg55
(lp2238
S'HTTP_ACCEPT_LANGUAGE'
p2239
asbag48
(g69
g50
NtRp2240
(dp2241
g53
(dp2242
g80
g81
ssg62
g2231
sg55
(lp2243
S':'
asbag48
(g69
g50
NtRp2244
(dp2245
g53
(dp2246
sg62
g2231
sg55
(lp2247
g48
(g49
g50
NtRp2248
(dp2249
g53
(dp2250
g61
I3
ssg62
g2244
sg55
(lp2251
g1043
asbasbasbag48
(g64
g50
NtRp2252
(dp2253
g53
(dp2254
sg62
g2122
sg55
(lp2255
g48
(g69
g50
NtRp2256
(dp2257
g53
(dp2258
g73
g74
ssg62
g2252
sg55
(lp2259
S'HTTP_CACHE_CONTROL'
p2260
asbag48
(g69
g50
NtRp2261
(dp2262
g53
(dp2263
g80
g81
ssg62
g2252
sg55
(lp2264
S':'
asbag48
(g69
g50
NtRp2265
(dp2266
g53
(dp2267
sg62
g2252
sg55
(lp2268
g48
(g49
g50
NtRp2269
(dp2270
g53
(dp2271
g61
I3
ssg62
g2265
sg55
(lp2272
g1065
asbasbasbag48
(g64
g50
NtRp2273
(dp2274
g53
(dp2275
sg62
g2122
sg55
(lp2276
g48
(g69
g50
NtRp2277
(dp2278
g53
(dp2279
g73
g74
ssg62
g2273
sg55
(lp2280
S'HTTP_CONNECTION'
p2281
asbag48
(g69
g50
NtRp2282
(dp2283
g53
(dp2284
g80
g81
ssg62
g2273
sg55
(lp2285
S':'
asbag48
(g69
g50
NtRp2286
(dp2287
g53
(dp2288
sg62
g2273
sg55
(lp2289
g48
(g49
g50
NtRp2290
(dp2291
g53
(dp2292
g61
I3
ssg62
g2286
sg55
(lp2293
g1087
asbasbasbag48
(g64
g50
NtRp2294
(dp2295
g53
(dp2296
sg62
g2122
sg55
(lp2297
g48
(g69
g50
NtRp2298
(dp2299
g53
(dp2300
g73
g74
ssg62
g2294
sg55
(lp2301
S'HTTP_CONTENT_LENGTH'
p2302
asbag48
(g69
g50
NtRp2303
(dp2304
g53
(dp2305
g80
g81
ssg62
g2294
sg55
(lp2306
S':'
asbag48
(g69
g50
NtRp2307
(dp2308
g53
(dp2309
sg62
g2294
sg55
(lp2310
g48
(g49
g50
NtRp2311
(dp2312
g53
(dp2313
g61
I3
ssg62
g2307
sg55
(lp2314
g868
asbasbasbag48
(g64
g50
NtRp2315
(dp2316
g53
(dp2317
sg62
g2122
sg55
(lp2318
g48
(g69
g50
NtRp2319
(dp2320
g53
(dp2321
g73
g74
ssg62
g2315
sg55
(lp2322
S'HTTP_CONTENT_TYPE'
p2323
asbag48
(g69
g50
NtRp2324
(dp2325
g53
(dp2326
g80
g81
ssg62
g2315
sg55
(lp2327
S':'
asbag48
(g69
g50
NtRp2328
(dp2329
g53
(dp2330
sg62
g2315
sg55
(lp2331
g48
(g49
g50
NtRp2332
(dp2333
g53
(dp2334
g61
I3
ssg62
g2328
sg55
(lp2335
g890
asbasbasbag48
(g64
g50
NtRp2336
(dp2337
g53
(dp2338
sg62
g2122
sg55
(lp2339
g48
(g69
g50
NtRp2340
(dp2341
g53
(dp2342
g73
g74
ssg62
g2336
sg55
(lp2343
S'HTTP_COOKIE'
p2344
asbag48
(g69
g50
NtRp2345
(dp2346
g53
(dp2347
g80
g81
ssg62
g2336
sg55
(lp2348
S':'
asbag48
(g69
g50
NtRp2349
(dp2350
g53
(dp2351
sg62
g2336
sg55
(lp2352
g48
(g49
g50
NtRp2353
(dp2354
g53
(dp2355
g61
I3
ssg62
g2349
sg55
(lp2356
g1151
asbasbasbag48
(g64
g50
NtRp2357
(dp2358
g53
(dp2359
sg62
g2122
sg55
(lp2360
g48
(g69
g50
NtRp2361
(dp2362
g53
(dp2363
g73
g74
ssg62
g2357
sg55
(lp2364
S'HTTP_HOST'
p2365
asbag48
(g69
g50
NtRp2366
(dp2367
g53
(dp2368
g80
g81
ssg62
g2357
sg55
(lp2369
S':'
asbag48
(g69
g50
NtRp2370
(dp2371
g53
(dp2372
sg62
g2357
sg55
(lp2373
g48
(g49
g50
NtRp2374
(dp2375
g53
(dp2376
g61
I3
ssg62
g2370
sg55
(lp2377
g1173
asbasbasbag48
(g64
g50
NtRp2378
(dp2379
g53
(dp2380
sg62
g2122
sg55
(lp2381
g48
(g69
g50
NtRp2382
(dp2383
g53
(dp2384
g73
g74
ssg62
g2378
sg55
(lp2385
S'HTTP_ORIGIN'
p2386
asbag48
(g69
g50
NtRp2387
(dp2388
g53
(dp2389
g80
g81
ssg62
g2378
sg55
(lp2390
S':'
asbag48
(g69
g50
NtRp2391
(dp2392
g53
(dp2393
sg62
g2378
sg55
(lp2394
g48
(g49
g50
NtRp2395
(dp2396
g53
(dp2397
g61
I3
ssg62
g2391
sg55
(lp2398
g1195
asbasbasbag48
(g64
g50
NtRp2399
(dp2400
g53
(dp2401
sg62
g2122
sg55
(lp2402
g48
(g69
g50
NtRp2403
(dp2404
g53
(dp2405
g73
g74
ssg62
g2399
sg55
(lp2406
S'HTTP_REFERER'
p2407
asbag48
(g69
g50
NtRp2408
(dp2409
g53
(dp2410
g80
g81
ssg62
g2399
sg55
(lp2411
S':'
asbag48
(g69
g50
NtRp2412
(dp2413
g53
(dp2414
sg62
g2399
sg55
(lp2415
g48
(g49
g50
NtRp2416
(dp2417
g53
(dp2418
g61
I3
ssg62
g2412
sg55
(lp2419
g1217
asbasbasbag48
(g64
g50
NtRp2420
(dp2421
g53
(dp2422
sg62
g2122
sg55
(lp2423
g48
(g69
g50
NtRp2424
(dp2425
g53
(dp2426
g73
g74
ssg62
g2420
sg55
(lp2427
S'HTTP_USER_AGENT'
p2428
asbag48
(g69
g50
NtRp2429
(dp2430
g53
(dp2431
g80
g81
ssg62
g2420
sg55
(lp2432
S':'
asbag48
(g69
g50
NtRp2433
(dp2434
g53
(dp2435
sg62
g2420
sg55
(lp2436
g48
(g49
g50
NtRp2437
(dp2438
g53
(dp2439
g61
I3
ssg62
g2433
sg55
(lp2440
g1239
asbasbasbag48
(g64
g50
NtRp2441
(dp2442
g53
(dp2443
sg62
g2122
sg55
(lp2444
g48
(g69
g50
NtRp2445
(dp2446
g53
(dp2447
g73
g74
ssg62
g2441
sg55
(lp2448
S'PATH_INFO'
p2449
asbag48
(g69
g50
NtRp2450
(dp2451
g53
(dp2452
g80
g81
ssg62
g2441
sg55
(lp2453
S':'
asbag48
(g69
g50
NtRp2454
(dp2455
g53
(dp2456
sg62
g2441
sg55
(lp2457
g48
(g49
g50
NtRp2458
(dp2459
g53
(dp2460
g61
I3
ssg62
g2454
sg55
(lp2461
g1261
asbasbasbag48
(g64
g50
NtRp2462
(dp2463
g53
(dp2464
sg62
g2122
sg55
(lp2465
g48
(g69
g50
NtRp2466
(dp2467
g53
(dp2468
g73
g74
ssg62
g2462
sg55
(lp2469
S'QUERY_STRING'
p2470
asbag48
(g69
g50
NtRp2471
(dp2472
g53
(dp2473
g80
g81
ssg62
g2462
sg55
(lp2474
S':'
asbag48
(g69
g50
NtRp2475
(dp2476
g53
(dp2477
sg62
g2462
sg55
(lp2478
g48
(g49
g50
NtRp2479
(dp2480
g53
(dp2481
g61
I3
ssg62
g2475
sg55
(lp2482
S''
asbasbasbag48
(g64
g50
NtRp2483
(dp2484
g53
(dp2485
sg62
g2122
sg55
(lp2486
g48
(g69
g50
NtRp2487
(dp2488
g53
(dp2489
g73
g74
ssg62
g2483
sg55
(lp2490
S'REMOTE_ADDR'
p2491
asbag48
(g69
g50
NtRp2492
(dp2493
g53
(dp2494
g80
g81
ssg62
g2483
sg55
(lp2495
S':'
asbag48
(g69
g50
NtRp2496
(dp2497
g53
(dp2498
sg62
g2483
sg55
(lp2499
g48
(g49
g50
NtRp2500
(dp2501
g53
(dp2502
g61
I3
ssg62
g2496
sg55
(lp2503
g181
asbasbasbag48
(g64
g50
NtRp2504
(dp2505
g53
(dp2506
sg62
g2122
sg55
(lp2507
g48
(g69
g50
NtRp2508
(dp2509
g53
(dp2510
g73
g74
ssg62
g2504
sg55
(lp2511
S'REMOTE_PORT'
p2512
asbag48
(g69
g50
NtRp2513
(dp2514
g53
(dp2515
g80
g81
ssg62
g2504
sg55
(lp2516
S':'
asbag48
(g69
g50
NtRp2517
(dp2518
g53
(dp2519
sg62
g2504
sg55
(lp2520
g48
(g49
g50
NtRp2521
(dp2522
g53
(dp2523
g61
I3
ssg62
g2517
sg55
(lp2524
g1325
asbasbasbag48
(g64
g50
NtRp2525
(dp2526
g53
(dp2527
sg62
g2122
sg55
(lp2528
g48
(g69
g50
NtRp2529
(dp2530
g53
(dp2531
g73
g74
ssg62
g2525
sg55
(lp2532
S'REQUEST_METHOD'
p2533
asbag48
(g69
g50
NtRp2534
(dp2535
g53
(dp2536
g80
g81
ssg62
g2525
sg55
(lp2537
S':'
asbag48
(g69
g50
NtRp2538
(dp2539
g53
(dp2540
sg62
g2525
sg55
(lp2541
g48
(g49
g50
NtRp2542
(dp2543
g53
(dp2544
g61
I3
ssg62
g2538
sg55
(lp2545
g1347
asbasbasbag48
(g64
g50
NtRp2546
(dp2547
g53
(dp2548
sg62
g2122
sg55
(lp2549
g48
(g69
g50
NtRp2550
(dp2551
g53
(dp2552
g73
g74
ssg62
g2546
sg55
(lp2553
S'SCRIPT_NAME'
p2554
asbag48
(g69
g50
NtRp2555
(dp2556
g53
(dp2557
g80
g81
ssg62
g2546
sg55
(lp2558
S':'
asbag48
(g69
g50
NtRp2559
(dp2560
g53
(dp2561
sg62
g2546
sg55
(lp2562
g48
(g49
g50
NtRp2563
(dp2564
g53
(dp2565
g61
I3
ssg62
g2559
sg55
(lp2566
S''
asbasbasbag48
(g64
g50
NtRp2567
(dp2568
g53
(dp2569
sg62
g2122
sg55
(lp2570
g48
(g69
g50
NtRp2571
(dp2572
g53
(dp2573
g73
g74
ssg62
g2567
sg55
(lp2574
S'SERVER_NAME'
p2575
asbag48
(g69
g50
NtRp2576
(dp2577
g53
(dp2578
g80
g81
ssg62
g2567
sg55
(lp2579
S':'
asbag48
(g69
g50
NtRp2580
(dp2581
g53
(dp2582
sg62
g2567
sg55
(lp2583
g48
(g49
g50
NtRp2584
(dp2585
g53
(dp2586
g61
I3
ssg62
g2580
sg55
(lp2587
g1390
asbasbasbag48
(g64
g50
NtRp2588
(dp2589
g53
(dp2590
sg62
g2122
sg55
(lp2591
g48
(g69
g50
NtRp2592
(dp2593
g53
(dp2594
g73
g74
ssg62
g2588
sg55
(lp2595
S'SERVER_PORT'
p2596
asbag48
(g69
g50
NtRp2597
(dp2598
g53
(dp2599
g80
g81
ssg62
g2588
sg55
(lp2600
S':'
asbag48
(g69
g50
NtRp2601
(dp2602
g53
(dp2603
sg62
g2588
sg55
(lp2604
g48
(g49
g50
NtRp2605
(dp2606
g53
(dp2607
g61
I3
ssg62
g2601
sg55
(lp2608
g1412
asbasbasbag48
(g64
g50
NtRp2609
(dp2610
g53
(dp2611
sg62
g2122
sg55
(lp2612
g48
(g69
g50
NtRp2613
(dp2614
g53
(dp2615
g73
g74
ssg62
g2609
sg55
(lp2616
S'SERVER_PROTOCOL'
p2617
asbag48
(g69
g50
NtRp2618
(dp2619
g53
(dp2620
g80
g81
ssg62
g2609
sg55
(lp2621
S':'
asbag48
(g69
g50
NtRp2622
(dp2623
g53
(dp2624
sg62
g2609
sg55
(lp2625
g48
(g49
g50
NtRp2626
(dp2627
g53
(dp2628
g61
I3
ssg62
g2622
sg55
(lp2629
g1434
asbasbasbag48
(g64
g50
NtRp2630
(dp2631
g53
(dp2632
sg62
g2122
sg55
(lp2633
g48
(g69
g50
NtRp2634
(dp2635
g53
(dp2636
g73
g74
ssg62
g2630
sg55
(lp2637
S'SERVER_SOFTWARE'
p2638
asbag48
(g69
g50
NtRp2639
(dp2640
g53
(dp2641
g80
g81
ssg62
g2630
sg55
(lp2642
S':'
asbag48
(g69
g50
NtRp2643
(dp2644
g53
(dp2645
sg62
g2630
sg55
(lp2646
g48
(g49
g50
NtRp2647
(dp2648
g53
(dp2649
g61
I3
ssg62
g2643
sg55
(lp2650
g1456
asbasbasbag48
(g64
g50
NtRp2651
(dp2652
g53
(dp2653
sg62
g2122
sg55
(lp2654
g48
(g69
g50
NtRp2655
(dp2656
g53
(dp2657
g73
g74
ssg62
g2651
sg55
(lp2658
S'wsgi.errors'
p2659
asbag48
(g69
g50
NtRp2660
(dp2661
g53
(dp2662
g80
g81
ssg62
g2651
sg55
(lp2663
S':'
asbag48
(g69
g50
NtRp2664
(dp2665
g53
(dp2666
sg62
g2651
sg55
(lp2667
g48
(g49
g50
NtRp2668
(dp2669
g53
(dp2670
g61
I3
ssg62
g2664
sg55
(lp2671
S"<open file '<stderr>', mode 'w' at 0x002500B0>"
p2672
asbasbasbag48
(g64
g50
NtRp2673
(dp2674
g53
(dp2675
sg62
g2122
sg55
(lp2676
g48
(g69
g50
NtRp2677
(dp2678
g53
(dp2679
g73
g74
ssg62
g2673
sg55
(lp2680
S'wsgi.file_wrapper'
p2681
asbag48
(g69
g50
NtRp2682
(dp2683
g53
(dp2684
g80
g81
ssg62
g2673
sg55
(lp2685
S':'
asbag48
(g69
g50
NtRp2686
(dp2687
g53
(dp2688
sg62
g2673
sg55
(lp2689
g48
(g49
g50
NtRp2690
(dp2691
g53
(dp2692
g61
I3
ssg62
g2686
sg55
(lp2693
S'<class gluon.rocket.FileWrapper at 0x03132BA0>'
p2694
asbasbasbag48
(g64
g50
NtRp2695
(dp2696
g53
(dp2697
sg62
g2122
sg55
(lp2698
g48
(g69
g50
NtRp2699
(dp2700
g53
(dp2701
g73
g74
ssg62
g2695
sg55
(lp2702
S'wsgi.input'
p2703
asbag48
(g69
g50
NtRp2704
(dp2705
g53
(dp2706
g80
g81
ssg62
g2695
sg55
(lp2707
S':'
asbag48
(g69
g50
NtRp2708
(dp2709
g53
(dp2710
sg62
g2695
sg55
(lp2711
g48
(g49
g50
NtRp2712
(dp2713
g53
(dp2714
g61
I3
ssg62
g2708
sg55
(lp2715
S"<open file '<fdopen>', mode 'w+b' at 0x06F5A2F0>"
p2716
asbasbasbag48
(g64
g50
NtRp2717
(dp2718
g53
(dp2719
sg62
g2122
sg55
(lp2720
g48
(g69
g50
NtRp2721
(dp2722
g53
(dp2723
g73
g74
ssg62
g2717
sg55
(lp2724
S'wsgi.multiprocess'
p2725
asbag48
(g69
g50
NtRp2726
(dp2727
g53
(dp2728
g80
g81
ssg62
g2717
sg55
(lp2729
S':'
asbag48
(g69
g50
NtRp2730
(dp2731
g53
(dp2732
sg62
g2717
sg55
(lp2733
g48
(g49
g50
NtRp2734
(dp2735
g53
(dp2736
g61
I3
ssg62
g2730
sg55
(lp2737
g91
asbasbasbag48
(g64
g50
NtRp2738
(dp2739
g53
(dp2740
sg62
g2122
sg55
(lp2741
g48
(g69
g50
NtRp2742
(dp2743
g53
(dp2744
g73
g74
ssg62
g2738
sg55
(lp2745
S'wsgi.multithread'
p2746
asbag48
(g69
g50
NtRp2747
(dp2748
g53
(dp2749
g80
g81
ssg62
g2738
sg55
(lp2750
S':'
asbag48
(g69
g50
NtRp2751
(dp2752
g53
(dp2753
sg62
g2738
sg55
(lp2754
g48
(g49
g50
NtRp2755
(dp2756
g53
(dp2757
g61
I3
ssg62
g2751
sg55
(lp2758
g1630
asbasbasbag48
(g64
g50
NtRp2759
(dp2760
g53
(dp2761
sg62
g2122
sg55
(lp2762
g48
(g69
g50
NtRp2763
(dp2764
g53
(dp2765
g73
g74
ssg62
g2759
sg55
(lp2766
S'wsgi.run_once'
p2767
asbag48
(g69
g50
NtRp2768
(dp2769
g53
(dp2770
g80
g81
ssg62
g2759
sg55
(lp2771
S':'
asbag48
(g69
g50
NtRp2772
(dp2773
g53
(dp2774
sg62
g2759
sg55
(lp2775
g48
(g49
g50
NtRp2776
(dp2777
g53
(dp2778
g61
I3
ssg62
g2772
sg55
(lp2779
g91
asbasbasbag48
(g64
g50
NtRp2780
(dp2781
g53
(dp2782
sg62
g2122
sg55
(lp2783
g48
(g69
g50
NtRp2784
(dp2785
g53
(dp2786
g73
g74
ssg62
g2780
sg55
(lp2787
S'wsgi.url_scheme'
p2788
asbag48
(g69
g50
NtRp2789
(dp2790
g53
(dp2791
g80
g81
ssg62
g2780
sg55
(lp2792
S':'
asbag48
(g69
g50
NtRp2793
(dp2794
g53
(dp2795
sg62
g2780
sg55
(lp2796
g48
(g49
g50
NtRp2797
(dp2798
g53
(dp2799
g61
I3
ssg62
g2793
sg55
(lp2800
g1673
asbasbasbag48
(g64
g50
NtRp2801
(dp2802
g53
(dp2803
sg62
g2122
sg55
(lp2804
g48
(g69
g50
NtRp2805
(dp2806
g53
(dp2807
g73
g74
ssg62
g2801
sg55
(lp2808
S'wsgi.version'
p2809
asbag48
(g69
g50
NtRp2810
(dp2811
g53
(dp2812
g80
g81
ssg62
g2801
sg55
(lp2813
S':'
asbag48
(g69
g50
NtRp2814
(dp2815
g53
(dp2816
sg62
g2801
sg55
(lp2817
g48
(g49
g50
NtRp2818
(dp2819
g53
(dp2820
g61
I3
ssg62
g2814
sg55
(lp2821
S'1'
asbasbasbasbasbasbasbasbasbasbasbasbasbsS'frames'
p2822
(lp2823
(dp2824
S'file'
p2825
S'C:\\Users\\AKSHAY\\Desktop\\web2py\\gluon\\restricted.py'
p2826
sS'dump'
p2827
(dp2828
sS'lnum'
p2829
I192
sS'lines'
p2830
(dp2831
sS'call'
p2832
S"(code='# -*- coding: utf-8 -*-\\n# this file is released ...rows=rows)\\n\\nresponse._vars=response._caller(new)\\n', environment={'A': <class 'gluon.html.A'>, 'Auth': <class 'gluon.tools.Auth'>, 'B': <class 'gluon.html.B'>, 'BEAUTIFY': <class 'gluon.html.BEAUTIFY'>, 'BODY': <class 'gluon.html.BODY'>, 'BR': <class 'gluon.html.BR'>, 'BUTTON': <class 'gluon.html.BUTTON'>, 'CENTER': <class 'gluon.html.CENTER'>, 'CLEANUP': <class 'gluon.validators.CLEANUP'>, 'CODE': <class 'gluon.html.CODE'>, ...}, layer=r'C:\\Users\\AKSHAY\\Desktop\\web2py\\applications\\201056161\\controllers/default.py')"
p2833
sS'func'
p2834
S'restricted'
p2835
sa(dp2836
g2825
S'C:\\Users\\AKSHAY\\Desktop\\web2py\\applications\\201056161\\controllers\\default.py'
p2837
sg2827
(dp2838
sg2829
I169
sg2830
(dp2839
I160
S'    #here whatever be always sname will be referred by id !'
p2840
sI161
S'    rows=db(db.song.singer==sname).select(db.song.name)'
p2841
sI162
S'    return dict(rows=rows)'
p2842
sI163
S'  else:'
p2843
sI164
S'    sname=str(request.vars.namen)'
p2844
sI165
S'    movien=str(request.vars.movien)'
p2845
sI166
S'    rows=db((db.song.singer==sname) & (db.song.movie==movien)).select(db.song.name)'
p2846
sI167
S'    return dict(rows=rows)'
p2847
sI158
S'  if request.vars.movien==None:'
p2848
sI159
S'    sname=str(request.vars.namen)'
p2849
ssg2832
S'()'
p2850
sg2834
S'<module>'
p2851
sa(dp2852
g2825
S'C:\\Users\\AKSHAY\\Desktop\\web2py\\gluon\\globals.py'
p2853
sg2827
(dp2854
sg2829
I137
sg2830
(dp2855
sg2832
S'(f=<function new at 0x06BFEF70>)'
p2856
sg2834
S'<lambda>'
p2857
sa(dp2858
g2825
S'C:\\Users\\AKSHAY\\Desktop\\web2py\\applications\\201056161\\controllers\\default.py'
p2859
sg2827
(dp2860
sg2829
I153
sg2830
(dp2861
I148
S'  return dict(form=form)'
p2862
sI149
S'def new():'
p2863
sI150
S"  form = SQLFORM.factory(db.Field('namen',db.artist,requires=IS_IN_DB(db,'artist.id','artist.artist_name'),label='Select Artist'),"
p2864
sI151
S"                         db.Field('movien',db.movie,requires=IS_NULL_OR(IS_IN_DB(db,'movie.id','movie.name'))))"
p2865
sI152
S'  if form.accepts(request.vars,session):'
p2866
sI153
S"    redirect(URL(r=request, f='new2?namen='+form.vars.namen+'&movien='+form.vars.movien))"
p2867
sI154
S'  elif form.errors:'
p2868
sI155
S"    response.flash='Errors in form Please re-enter'"
p2869
sI156
S'  return dict(form=form)'
p2870
sI157
S'def new2():'
p2871
ssg2832
S'()'
p2872
sg2834
S'new'
p2873
sasS'pyver'
p2874
S'Python 2.5.4: C:\\Users\\AKSHAY\\Desktop\\web2py\\web2py.exe'
p2875
sS'session'
p2876
g48
(g49
g50
NtRp2877
(dp2878
g53
(dp2879
sg55
(lp2880
g48
(g57
g50
NtRp2881
(dp2882
g53
(dp2883
g61
I5
ssg62
Nsg55
(lp2884
sbasbsS'etype'
p2885
S"<type 'exceptions.TypeError'>"
p2886
sS'date'
p2887
S'Wed Sep 07 02:30:46 2011'
p2888
sS'response'
p2889
g48
(g49
g50
NtRp2890
(dp2891
g53
(dp2892
sg55
(lp2893
g48
(g57
g50
NtRp2894
(dp2895
g53
(dp2896
g61
I5
ssg62
Nsg55
(lp2897
g48
(g64
g50
NtRp2898
(dp2899
g53
(dp2900
sg62
g2894
sg55
(lp2901
g48
(g69
g50
NtRp2902
(dp2903
g53
(dp2904
g73
g74
ssg62
g2898
sg55
(lp2905
g146
asbag48
(g69
g50
NtRp2906
(dp2907
g53
(dp2908
g80
g81
ssg62
g2898
sg55
(lp2909
S':'
asbag48
(g69
g50
NtRp2910
(dp2911
g53
(dp2912
sg62
g2898
sg55
(lp2913
g48
(g49
g50
NtRp2914
(dp2915
g53
(dp2916
g61
I5
ssg62
g2910
sg55
(lp2917
S'<cStringIO.StringO object at 0x0338D480>'
p2918
asbasbasbag48
(g64
g50
NtRp2919
(dp2920
g53
(dp2921
sg62
g2894
sg55
(lp2922
g48
(g69
g50
NtRp2923
(dp2924
g53
(dp2925
g73
g74
ssg62
g2919
sg55
(lp2926
g212
asbag48
(g69
g50
NtRp2927
(dp2928
g53
(dp2929
g80
g81
ssg62
g2919
sg55
(lp2930
S':'
asbag48
(g69
g50
NtRp2931
(dp2932
g53
(dp2933
sg62
g2919
sg55
(lp2934
g48
(g49
g50
NtRp2935
(dp2936
g53
(dp2937
g61
I5
ssg62
g2931
sg55
(lp2938
g48
(g57
g50
NtRp2939
(dp2940
g53
(dp2941
g61
I4
ssg62
Nsg55
(lp2942
g48
(g64
g50
NtRp2943
(dp2944
g53
(dp2945
sg62
g2939
sg55
(lp2946
g48
(g69
g50
NtRp2947
(dp2948
g53
(dp2949
g73
g74
ssg62
g2943
sg55
(lp2950
S'session_id_201056161'
p2951
asbag48
(g69
g50
NtRp2952
(dp2953
g53
(dp2954
g80
g81
ssg62
g2943
sg55
(lp2955
S':'
asbag48
(g69
g50
NtRp2956
(dp2957
g53
(dp2958
sg62
g2943
sg55
(lp2959
g48
(g49
g50
NtRp2960
(dp2961
g53
(dp2962
g61
I4
ssg62
g2956
sg55
(lp2963
g48
(g57
g50
NtRp2964
(dp2965
g53
(dp2966
g61
I3
ssg62
Nsg55
(lp2967
g48
(g64
g50
NtRp2968
(dp2969
g53
(dp2970
sg62
g2964
sg55
(lp2971
g48
(g69
g50
NtRp2972
(dp2973
g53
(dp2974
g73
g74
ssg62
g2968
sg55
(lp2975
g262
asbag48
(g69
g50
NtRp2976
(dp2977
g53
(dp2978
g80
g81
ssg62
g2968
sg55
(lp2979
S':'
asbag48
(g69
g50
NtRp2980
(dp2981
g53
(dp2982
sg62
g2968
sg55
(lp2983
g48
(g49
g50
NtRp2984
(dp2985
g53
(dp2986
g61
I3
ssg62
g2980
sg55
(lp2987
S''
asbasbasbag48
(g64
g50
NtRp2988
(dp2989
g53
(dp2990
sg62
g2964
sg55
(lp2991
g48
(g69
g50
NtRp2992
(dp2993
g53
(dp2994
g73
g74
ssg62
g2988
sg55
(lp2995
g283
asbag48
(g69
g50
NtRp2996
(dp2997
g53
(dp2998
g80
g81
ssg62
g2988
sg55
(lp2999
S':'
asbag48
(g69
g50
NtRp3000
(dp3001
g53
(dp3002
sg62
g2988
sg55
(lp3003
g48
(g49
g50
NtRp3004
(dp3005
g53
(dp3006
g61
I3
ssg62
g3000
sg55
(lp3007
S''
asbasbasbag48
(g64
g50
NtRp3008
(dp3009
g53
(dp3010
sg62
g2964
sg55
(lp3011
g48
(g69
g50
NtRp3012
(dp3013
g53
(dp3014
g73
g74
ssg62
g3008
sg55
(lp3015
g304
asbag48
(g69
g50
NtRp3016
(dp3017
g53
(dp3018
g80
g81
ssg62
g3008
sg55
(lp3019
S':'
asbag48
(g69
g50
NtRp3020
(dp3021
g53
(dp3022
sg62
g3008
sg55
(lp3023
g48
(g49
g50
NtRp3024
(dp3025
g53
(dp3026
g61
I3
ssg62
g3020
sg55
(lp3027
S''
asbasbasbag48
(g64
g50
NtRp3028
(dp3029
g53
(dp3030
sg62
g2964
sg55
(lp3031
g48
(g69
g50
NtRp3032
(dp3033
g53
(dp3034
g73
g74
ssg62
g3028
sg55
(lp3035
g325
asbag48
(g69
g50
NtRp3036
(dp3037
g53
(dp3038
g80
g81
ssg62
g3028
sg55
(lp3039
S':'
asbag48
(g69
g50
NtRp3040
(dp3041
g53
(dp3042
sg62
g3028
sg55
(lp3043
g48
(g49
g50
NtRp3044
(dp3045
g53
(dp3046
g61
I3
ssg62
g3040
sg55
(lp3047
S''
asbasbasbag48
(g64
g50
NtRp3048
(dp3049
g53
(dp3050
sg62
g2964
sg55
(lp3051
g48
(g69
g50
NtRp3052
(dp3053
g53
(dp3054
g73
g74
ssg62
g3048
sg55
(lp3055
g346
asbag48
(g69
g50
NtRp3056
(dp3057
g53
(dp3058
g80
g81
ssg62
g3048
sg55
(lp3059
S':'
asbag48
(g69
g50
NtRp3060
(dp3061
g53
(dp3062
sg62
g3048
sg55
(lp3063
g48
(g49
g50
NtRp3064
(dp3065
g53
(dp3066
g61
I3
ssg62
g3060
sg55
(lp3067
S'/'
asbasbasbag48
(g64
g50
NtRp3068
(dp3069
g53
(dp3070
sg62
g2964
sg55
(lp3071
g48
(g69
g50
NtRp3072
(dp3073
g53
(dp3074
g73
g74
ssg62
g3068
sg55
(lp3075
g367
asbag48
(g69
g50
NtRp3076
(dp3077
g53
(dp3078
g80
g81
ssg62
g3068
sg55
(lp3079
S':'
asbag48
(g69
g50
NtRp3080
(dp3081
g53
(dp3082
sg62
g3068
sg55
(lp3083
g48
(g49
g50
NtRp3084
(dp3085
g53
(dp3086
g61
I3
ssg62
g3080
sg55
(lp3087
S''
asbasbasbag48
(g64
g50
NtRp3088
(dp3089
g53
(dp3090
sg62
g2964
sg55
(lp3091
g48
(g69
g50
NtRp3092
(dp3093
g53
(dp3094
g73
g74
ssg62
g3088
sg55
(lp3095
g388
asbag48
(g69
g50
NtRp3096
(dp3097
g53
(dp3098
g80
g81
ssg62
g3088
sg55
(lp3099
S':'
asbag48
(g69
g50
NtRp3100
(dp3101
g53
(dp3102
sg62
g3088
sg55
(lp3103
g48
(g49
g50
NtRp3104
(dp3105
g53
(dp3106
g61
I3
ssg62
g3100
sg55
(lp3107
S''
asbasbasbasbasbasbasbasbasbasbasbag48
(g64
g50
NtRp3108
(dp3109
g53
(dp3110
sg62
g2894
sg55
(lp3111
g48
(g69
g50
NtRp3112
(dp3113
g53
(dp3114
g73
g74
ssg62
g3108
sg55
(lp3115
S'files'
p3116
asbag48
(g69
g50
NtRp3117
(dp3118
g53
(dp3119
g80
g81
ssg62
g3108
sg55
(lp3120
S':'
asbag48
(g69
g50
NtRp3121
(dp3122
g53
(dp3123
sg62
g3108
sg55
(lp3124
g48
(g49
g50
NtRp3125
(dp3126
g53
(dp3127
g61
I5
ssg62
g3121
sg55
(lp3128
g48
(g57
g50
NtRp3129
(dp3130
g53
(dp3131
g61
I4
ssg62
Nsg55
(lp3132
sbasbasbasbag48
(g64
g50
NtRp3133
(dp3134
g53
(dp3135
sg62
g2894
sg55
(lp3136
g48
(g69
g50
NtRp3137
(dp3138
g53
(dp3139
g73
g74
ssg62
g3133
sg55
(lp3140
S'flash'
p3141
asbag48
(g69
g50
NtRp3142
(dp3143
g53
(dp3144
g80
g81
ssg62
g3133
sg55
(lp3145
S':'
asbag48
(g69
g50
NtRp3146
(dp3147
g53
(dp3148
sg62
g3133
sg55
(lp3149
g48
(g49
g50
NtRp3150
(dp3151
g53
(dp3152
g61
I5
ssg62
g3146
sg55
(lp3153
S''
asbasbasbag48
(g64
g50
NtRp3154
(dp3155
g53
(dp3156
sg62
g2894
sg55
(lp3157
g48
(g69
g50
NtRp3158
(dp3159
g53
(dp3160
g73
g74
ssg62
g3154
sg55
(lp3161
S'generic_patterns'
p3162
asbag48
(g69
g50
NtRp3163
(dp3164
g53
(dp3165
g80
g81
ssg62
g3154
sg55
(lp3166
S':'
asbag48
(g69
g50
NtRp3167
(dp3168
g53
(dp3169
sg62
g3154
sg55
(lp3170
g48
(g49
g50
NtRp3171
(dp3172
g53
(dp3173
g61
I5
ssg62
g3167
sg55
(lp3174
g48
(g57
g50
NtRp3175
(dp3176
g53
(dp3177
g61
I4
ssg62
Nsg55
(lp3178
g48
(g64
g50
NtRp3179
(dp3180
g53
(dp3181
sg62
g3175
sg55
(lp3182
g48
(g69
g50
NtRp3183
(dp3184
g53
(dp3185
sg62
g3179
sg55
(lp3186
g48
(g49
g50
NtRp3187
(dp3188
g53
(dp3189
g61
I4
ssg62
g3183
sg55
(lp3190
S'*'
asbasbasbasbasbasbasbag48
(g64
g50
NtRp3191
(dp3192
g53
(dp3193
sg62
g2894
sg55
(lp3194
g48
(g69
g50
NtRp3195
(dp3196
g53
(dp3197
g73
g74
ssg62
g3191
sg55
(lp3198
S'headers'
p3199
asbag48
(g69
g50
NtRp3200
(dp3201
g53
(dp3202
g80
g81
ssg62
g3191
sg55
(lp3203
S':'
asbag48
(g69
g50
NtRp3204
(dp3205
g53
(dp3206
sg62
g3191
sg55
(lp3207
g48
(g49
g50
NtRp3208
(dp3209
g53
(dp3210
g61
I5
ssg62
g3204
sg55
(lp3211
g48
(g57
g50
NtRp3212
(dp3213
g53
(dp3214
g61
I4
ssg62
Nsg55
(lp3215
g48
(g64
g50
NtRp3216
(dp3217
g53
(dp3218
sg62
g3212
sg55
(lp3219
g48
(g69
g50
NtRp3220
(dp3221
g53
(dp3222
g73
g74
ssg62
g3216
sg55
(lp3223
S'Cache-Control'
p3224
asbag48
(g69
g50
NtRp3225
(dp3226
g53
(dp3227
g80
g81
ssg62
g3216
sg55
(lp3228
S':'
asbag48
(g69
g50
NtRp3229
(dp3230
g53
(dp3231
sg62
g3216
sg55
(lp3232
g48
(g49
g50
NtRp3233
(dp3234
g53
(dp3235
g61
I4
ssg62
g3229
sg55
(lp3236
S'no-store, no-cache, must-revalidate, post-check=0, pre-check=0'
p3237
asbasbasbag48
(g64
g50
NtRp3238
(dp3239
g53
(dp3240
sg62
g3212
sg55
(lp3241
g48
(g69
g50
NtRp3242
(dp3243
g53
(dp3244
g73
g74
ssg62
g3238
sg55
(lp3245
S'Content-Type'
p3246
asbag48
(g69
g50
NtRp3247
(dp3248
g53
(dp3249
g80
g81
ssg62
g3238
sg55
(lp3250
S':'
asbag48
(g69
g50
NtRp3251
(dp3252
g53
(dp3253
sg62
g3238
sg55
(lp3254
g48
(g49
g50
NtRp3255
(dp3256
g53
(dp3257
g61
I4
ssg62
g3251
sg55
(lp3258
S'text/html; charset=utf-8'
p3259
asbasbasbag48
(g64
g50
NtRp3260
(dp3261
g53
(dp3262
sg62
g3212
sg55
(lp3263
g48
(g69
g50
NtRp3264
(dp3265
g53
(dp3266
g73
g74
ssg62
g3260
sg55
(lp3267
S'Expires'
p3268
asbag48
(g69
g50
NtRp3269
(dp3270
g53
(dp3271
g80
g81
ssg62
g3260
sg55
(lp3272
S':'
asbag48
(g69
g50
NtRp3273
(dp3274
g53
(dp3275
sg62
g3260
sg55
(lp3276
g48
(g49
g50
NtRp3277
(dp3278
g53
(dp3279
g61
I4
ssg62
g3273
sg55
(lp3280
S'Tue, 06 Sep 2011 21:00:46 GMT'
p3281
asbasbasbag48
(g64
g50
NtRp3282
(dp3283
g53
(dp3284
sg62
g3212
sg55
(lp3285
g48
(g69
g50
NtRp3286
(dp3287
g53
(dp3288
g73
g74
ssg62
g3282
sg55
(lp3289
S'Pragma'
p3290
asbag48
(g69
g50
NtRp3291
(dp3292
g53
(dp3293
g80
g81
ssg62
g3282
sg55
(lp3294
S':'
asbag48
(g69
g50
NtRp3295
(dp3296
g53
(dp3297
sg62
g3282
sg55
(lp3298
g48
(g49
g50
NtRp3299
(dp3300
g53
(dp3301
g61
I4
ssg62
g3295
sg55
(lp3302
S'no-cache'
p3303
asbasbasbag48
(g64
g50
NtRp3304
(dp3305
g53
(dp3306
sg62
g3212
sg55
(lp3307
g48
(g69
g50
NtRp3308
(dp3309
g53
(dp3310
g73
g74
ssg62
g3304
sg55
(lp3311
S'X-Powered-By'
p3312
asbag48
(g69
g50
NtRp3313
(dp3314
g53
(dp3315
g80
g81
ssg62
g3304
sg55
(lp3316
S':'
asbag48
(g69
g50
NtRp3317
(dp3318
g53
(dp3319
sg62
g3304
sg55
(lp3320
g48
(g49
g50
NtRp3321
(dp3322
g53
(dp3323
g61
I4
ssg62
g3317
sg55
(lp3324
S'web2py'
p3325
asbasbasbasbasbasbasbag48
(g64
g50
NtRp3326
(dp3327
g53
(dp3328
sg62
g2894
sg55
(lp3329
g48
(g69
g50
NtRp3330
(dp3331
g53
(dp3332
g73
g74
ssg62
g3326
sg55
(lp3333
S'menu'
p3334
asbag48
(g69
g50
NtRp3335
(dp3336
g53
(dp3337
g80
g81
ssg62
g3326
sg55
(lp3338
S':'
asbag48
(g69
g50
NtRp3339
(dp3340
g53
(dp3341
sg62
g3326
sg55
(lp3342
g48
(g49
g50
NtRp3343
(dp3344
g53
(dp3345
g61
I5
ssg62
g3339
sg55
(lp3346
g48
(g57
g50
NtRp3347
(dp3348
g53
(dp3349
g61
I4
ssg62
Nsg55
(lp3350
g48
(g64
g50
NtRp3351
(dp3352
g53
(dp3353
sg62
g3347
sg55
(lp3354
g48
(g69
g50
NtRp3355
(dp3356
g53
(dp3357
sg62
g3351
sg55
(lp3358
g48
(g49
g50
NtRp3359
(dp3360
g53
(dp3361
g61
I4
ssg62
g3355
sg55
(lp3362
g48
(g57
g50
NtRp3363
(dp3364
g53
(dp3365
g61
I3
ssg62
Nsg55
(lp3366
g48
(g64
g50
NtRp3367
(dp3368
g53
(dp3369
sg62
g3363
sg55
(lp3370
g48
(g69
g50
NtRp3371
(dp3372
g53
(dp3373
sg62
g3367
sg55
(lp3374
g48
(g49
g50
NtRp3375
(dp3376
g53
(dp3377
g61
I3
ssg62
g3371
sg55
(lp3378
cgluon.languages
lazyT_unpickle
p3379
(S's\x04\x00\x00\x00Home'
tRp3380
asbasbasbag48
(g64
g50
NtRp3381
(dp3382
g53
(dp3383
sg62
g3363
sg55
(lp3384
g48
(g69
g50
NtRp3385
(dp3386
g53
(dp3387
sg62
g3381
sg55
(lp3388
g48
(g49
g50
NtRp3389
(dp3390
g53
(dp3391
g61
I3
ssg62
g3385
sg55
(lp3392
g91
asbasbasbag48
(g64
g50
NtRp3393
(dp3394
g53
(dp3395
sg62
g3363
sg55
(lp3396
g48
(g69
g50
NtRp3397
(dp3398
g53
(dp3399
sg62
g3393
sg55
(lp3400
g48
(g49
g50
NtRp3401
(dp3402
g53
(dp3403
g61
I3
ssg62
g3397
sg55
(lp3404
S'/201056161/default/index'
p3405
asbasbasbag48
(g64
g50
NtRp3406
(dp3407
g53
(dp3408
sg62
g3363
sg55
(lp3409
g48
(g69
g50
NtRp3410
(dp3411
g53
(dp3412
sg62
g3406
sg55
(lp3413
g48
(g49
g50
NtRp3414
(dp3415
g53
(dp3416
g61
I3
ssg62
g3410
sg55
(lp3417
g48
(g57
g50
NtRp3418
(dp3419
g53
(dp3420
g61
I2
ssg62
Nsg55
(lp3421
sbasbasbasbasbasbasbasbag48
(g64
g50
NtRp3422
(dp3423
g53
(dp3424
sg62
g3347
sg55
(lp3425
g48
(g69
g50
NtRp3426
(dp3427
g53
(dp3428
sg62
g3422
sg55
(lp3429
g48
(g49
g50
NtRp3430
(dp3431
g53
(dp3432
g61
I4
ssg62
g3426
sg55
(lp3433
g48
(g57
g50
NtRp3434
(dp3435
g53
(dp3436
g61
I3
ssg62
Nsg55
(lp3437
g48
(g64
g50
NtRp3438
(dp3439
g53
(dp3440
sg62
g3434
sg55
(lp3441
g48
(g69
g50
NtRp3442
(dp3443
g53
(dp3444
sg62
g3438
sg55
(lp3445
g48
(g49
g50
NtRp3446
(dp3447
g53
(dp3448
g61
I3
ssg62
g3442
sg55
(lp3449
g3379
(S's\x08\x00\x00\x00This App'
tRp3450
asbasbasbag48
(g64
g50
NtRp3451
(dp3452
g53
(dp3453
sg62
g3434
sg55
(lp3454
g48
(g69
g50
NtRp3455
(dp3456
g53
(dp3457
sg62
g3451
sg55
(lp3458
g48
(g49
g50
NtRp3459
(dp3460
g53
(dp3461
g61
I3
ssg62
g3455
sg55
(lp3462
g91
asbasbasbag48
(g64
g50
NtRp3463
(dp3464
g53
(dp3465
sg62
g3434
sg55
(lp3466
g48
(g69
g50
NtRp3467
(dp3468
g53
(dp3469
sg62
g3463
sg55
(lp3470
g48
(g49
g50
NtRp3471
(dp3472
g53
(dp3473
g61
I3
ssg62
g3467
sg55
(lp3474
S'/admin/default/design/201056161'
p3475
asbasbasbag48
(g64
g50
NtRp3476
(dp3477
g53
(dp3478
sg62
g3434
sg55
(lp3479
g48
(g69
g50
NtRp3480
(dp3481
g53
(dp3482
sg62
g3476
sg55
(lp3483
g48
(g49
g50
NtRp3484
(dp3485
g53
(dp3486
g61
I3
ssg62
g3480
sg55
(lp3487
g48
(g57
g50
NtRp3488
(dp3489
g53
(dp3490
g61
I2
ssg62
Nsg55
(lp3491
g48
(g64
g50
NtRp3492
(dp3493
g53
(dp3494
sg62
g3488
sg55
(lp3495
g48
(g69
g50
NtRp3496
(dp3497
g53
(dp3498
sg62
g3492
sg55
(lp3499
g48
(g49
g50
NtRp3500
(dp3501
g53
(dp3502
g61
I2
ssg62
g3496
sg55
(lp3503
g48
(g57
g50
NtRp3504
(dp3505
g53
(dp3506
g61
I1
ssg62
Nsg55
(lp3507
g48
(g64
g50
NtRp3508
(dp3509
g53
(dp3510
sg62
g3504
sg55
(lp3511
g48
(g69
g50
NtRp3512
(dp3513
g53
(dp3514
sg62
g3508
sg55
(lp3515
g48
(g49
g50
NtRp3516
(dp3517
g53
(dp3518
g61
I1
ssg62
g3512
sg55
(lp3519
g3379
(S's\n\x00\x00\x00Controller'
tRp3520
asbasbasbag48
(g64
g50
NtRp3521
(dp3522
g53
(dp3523
sg62
g3504
sg55
(lp3524
g48
(g69
g50
NtRp3525
(dp3526
g53
(dp3527
sg62
g3521
sg55
(lp3528
g48
(g49
g50
NtRp3529
(dp3530
g53
(dp3531
g61
I1
ssg62
g3525
sg55
(lp3532
I00
asbasbasbag48
(g64
g50
NtRp3533
(dp3534
g53
(dp3535
sg62
g3504
sg55
(lp3536
g48
(g69
g50
NtRp3537
(dp3538
g53
(dp3539
sg62
g3533
sg55
(lp3540
g48
(g49
g50
NtRp3541
(dp3542
g53
(dp3543
g61
I1
ssg62
g3537
sg55
(lp3544
S'/admin/default/edit/201056161/controllers/default.py'
p3545
asbasbasbasbasbasbasbag48
(g64
g50
NtRp3546
(dp3547
g53
(dp3548
sg62
g3488
sg55
(lp3549
g48
(g69
g50
NtRp3550
(dp3551
g53
(dp3552
sg62
g3546
sg55
(lp3553
g48
(g49
g50
NtRp3554
(dp3555
g53
(dp3556
g61
I2
ssg62
g3550
sg55
(lp3557
g48
(g57
g50
NtRp3558
(dp3559
g53
(dp3560
g61
I1
ssg62
Nsg55
(lp3561
g48
(g64
g50
NtRp3562
(dp3563
g53
(dp3564
sg62
g3558
sg55
(lp3565
g48
(g69
g50
NtRp3566
(dp3567
g53
(dp3568
sg62
g3562
sg55
(lp3569
g48
(g49
g50
NtRp3570
(dp3571
g53
(dp3572
g61
I1
ssg62
g3566
sg55
(lp3573
g3379
(S's\x04\x00\x00\x00View'
tRp3574
asbasbasbag48
(g64
g50
NtRp3575
(dp3576
g53
(dp3577
sg62
g3558
sg55
(lp3578
g48
(g69
g50
NtRp3579
(dp3580
g53
(dp3581
sg62
g3575
sg55
(lp3582
g48
(g49
g50
NtRp3583
(dp3584
g53
(dp3585
g61
I1
ssg62
g3579
sg55
(lp3586
I00
asbasbasbag48
(g64
g50
NtRp3587
(dp3588
g53
(dp3589
sg62
g3558
sg55
(lp3590
g48
(g69
g50
NtRp3591
(dp3592
g53
(dp3593
sg62
g3587
sg55
(lp3594
g48
(g49
g50
NtRp3595
(dp3596
g53
(dp3597
g61
I1
ssg62
g3591
sg55
(lp3598
S'/admin/default/edit/201056161/views/default/new.html'
p3599
asbasbasbasbasbasbasbag48
(g64
g50
NtRp3600
(dp3601
g53
(dp3602
sg62
g3488
sg55
(lp3603
g48
(g69
g50
NtRp3604
(dp3605
g53
(dp3606
sg62
g3600
sg55
(lp3607
g48
(g49
g50
NtRp3608
(dp3609
g53
(dp3610
g61
I2
ssg62
g3604
sg55
(lp3611
g48
(g57
g50
NtRp3612
(dp3613
g53
(dp3614
g61
I1
ssg62
Nsg55
(lp3615
g48
(g64
g50
NtRp3616
(dp3617
g53
(dp3618
sg62
g3612
sg55
(lp3619
g48
(g69
g50
NtRp3620
(dp3621
g53
(dp3622
sg62
g3616
sg55
(lp3623
g48
(g49
g50
NtRp3624
(dp3625
g53
(dp3626
g61
I1
ssg62
g3620
sg55
(lp3627
g3379
(S's\x06\x00\x00\x00Layout'
tRp3628
asbasbasbag48
(g64
g50
NtRp3629
(dp3630
g53
(dp3631
sg62
g3612
sg55
(lp3632
g48
(g69
g50
NtRp3633
(dp3634
g53
(dp3635
sg62
g3629
sg55
(lp3636
g48
(g49
g50
NtRp3637
(dp3638
g53
(dp3639
g61
I1
ssg62
g3633
sg55
(lp3640
I00
asbasbasbag48
(g64
g50
NtRp3641
(dp3642
g53
(dp3643
sg62
g3612
sg55
(lp3644
g48
(g69
g50
NtRp3645
(dp3646
g53
(dp3647
sg62
g3641
sg55
(lp3648
g48
(g49
g50
NtRp3649
(dp3650
g53
(dp3651
g61
I1
ssg62
g3645
sg55
(lp3652
S'/admin/default/edit/201056161/views/layout.html'
p3653
asbasbasbasbasbasbasbag48
(g64
g50
NtRp3654
(dp3655
g53
(dp3656
sg62
g3488
sg55
(lp3657
g48
(g69
g50
NtRp3658
(dp3659
g53
(dp3660
sg62
g3654
sg55
(lp3661
g48
(g49
g50
NtRp3662
(dp3663
g53
(dp3664
g61
I2
ssg62
g3658
sg55
(lp3665
g48
(g57
g50
NtRp3666
(dp3667
g53
(dp3668
g61
I1
ssg62
Nsg55
(lp3669
g48
(g64
g50
NtRp3670
(dp3671
g53
(dp3672
sg62
g3666
sg55
(lp3673
g48
(g69
g50
NtRp3674
(dp3675
g53
(dp3676
sg62
g3670
sg55
(lp3677
g48
(g49
g50
NtRp3678
(dp3679
g53
(dp3680
g61
I1
ssg62
g3674
sg55
(lp3681
g3379
(S's\n\x00\x00\x00Stylesheet'
tRp3682
asbasbasbag48
(g64
g50
NtRp3683
(dp3684
g53
(dp3685
sg62
g3666
sg55
(lp3686
g48
(g69
g50
NtRp3687
(dp3688
g53
(dp3689
sg62
g3683
sg55
(lp3690
g48
(g49
g50
NtRp3691
(dp3692
g53
(dp3693
g61
I1
ssg62
g3687
sg55
(lp3694
I00
asbasbasbag48
(g64
g50
NtRp3695
(dp3696
g53
(dp3697
sg62
g3666
sg55
(lp3698
g48
(g69
g50
NtRp3699
(dp3700
g53
(dp3701
sg62
g3695
sg55
(lp3702
g48
(g49
g50
NtRp3703
(dp3704
g53
(dp3705
g61
I1
ssg62
g3699
sg55
(lp3706
S'/admin/default/edit/201056161/static/base.css'
p3707
asbasbasbasbasbasbasbag48
(g64
g50
NtRp3708
(dp3709
g53
(dp3710
sg62
g3488
sg55
(lp3711
g48
(g69
g50
NtRp3712
(dp3713
g53
(dp3714
sg62
g3708
sg55
(lp3715
g48
(g49
g50
NtRp3716
(dp3717
g53
(dp3718
g61
I2
ssg62
g3712
sg55
(lp3719
g48
(g57
g50
NtRp3720
(dp3721
g53
(dp3722
g61
I1
ssg62
Nsg55
(lp3723
g48
(g64
g50
NtRp3724
(dp3725
g53
(dp3726
sg62
g3720
sg55
(lp3727
g48
(g69
g50
NtRp3728
(dp3729
g53
(dp3730
sg62
g3724
sg55
(lp3731
g48
(g49
g50
NtRp3732
(dp3733
g53
(dp3734
g61
I1
ssg62
g3728
sg55
(lp3735
g3379
(S's\x08\x00\x00\x00DB Model'
tRp3736
asbasbasbag48
(g64
g50
NtRp3737
(dp3738
g53
(dp3739
sg62
g3720
sg55
(lp3740
g48
(g69
g50
NtRp3741
(dp3742
g53
(dp3743
sg62
g3737
sg55
(lp3744
g48
(g49
g50
NtRp3745
(dp3746
g53
(dp3747
g61
I1
ssg62
g3741
sg55
(lp3748
I00
asbasbasbag48
(g64
g50
NtRp3749
(dp3750
g53
(dp3751
sg62
g3720
sg55
(lp3752
g48
(g69
g50
NtRp3753
(dp3754
g53
(dp3755
sg62
g3749
sg55
(lp3756
g48
(g49
g50
NtRp3757
(dp3758
g53
(dp3759
g61
I1
ssg62
g3753
sg55
(lp3760
S'/admin/default/edit/201056161/models/db.py'
p3761
asbasbasbasbasbasbasbag48
(g64
g50
NtRp3762
(dp3763
g53
(dp3764
sg62
g3488
sg55
(lp3765
g48
(g69
g50
NtRp3766
(dp3767
g53
(dp3768
sg62
g3762
sg55
(lp3769
g48
(g49
g50
NtRp3770
(dp3771
g53
(dp3772
g61
I2
ssg62
g3766
sg55
(lp3773
g48
(g57
g50
NtRp3774
(dp3775
g53
(dp3776
g61
I1
ssg62
Nsg55
(lp3777
g48
(g64
g50
NtRp3778
(dp3779
g53
(dp3780
sg62
g3774
sg55
(lp3781
g48
(g69
g50
NtRp3782
(dp3783
g53
(dp3784
sg62
g3778
sg55
(lp3785
g48
(g49
g50
NtRp3786
(dp3787
g53
(dp3788
g61
I1
ssg62
g3782
sg55
(lp3789
g3379
(S's\n\x00\x00\x00Menu Model'
tRp3790
asbasbasbag48
(g64
g50
NtRp3791
(dp3792
g53
(dp3793
sg62
g3774
sg55
(lp3794
g48
(g69
g50
NtRp3795
(dp3796
g53
(dp3797
sg62
g3791
sg55
(lp3798
g48
(g49
g50
NtRp3799
(dp3800
g53
(dp3801
g61
I1
ssg62
g3795
sg55
(lp3802
I00
asbasbasbag48
(g64
g50
NtRp3803
(dp3804
g53
(dp3805
sg62
g3774
sg55
(lp3806
g48
(g69
g50
NtRp3807
(dp3808
g53
(dp3809
sg62
g3803
sg55
(lp3810
g48
(g49
g50
NtRp3811
(dp3812
g53
(dp3813
g61
I1
ssg62
g3807
sg55
(lp3814
S'/admin/default/edit/201056161/models/menu.py'
p3815
asbasbasbasbasbasbasbag48
(g64
g50
NtRp3816
(dp3817
g53
(dp3818
sg62
g3488
sg55
(lp3819
g48
(g69
g50
NtRp3820
(dp3821
g53
(dp3822
sg62
g3816
sg55
(lp3823
g48
(g49
g50
NtRp3824
(dp3825
g53
(dp3826
g61
I2
ssg62
g3820
sg55
(lp3827
g48
(g57
g50
NtRp3828
(dp3829
g53
(dp3830
g61
I1
ssg62
Nsg55
(lp3831
g48
(g64
g50
NtRp3832
(dp3833
g53
(dp3834
sg62
g3828
sg55
(lp3835
g48
(g69
g50
NtRp3836
(dp3837
g53
(dp3838
sg62
g3832
sg55
(lp3839
g48
(g49
g50
NtRp3840
(dp3841
g53
(dp3842
g61
I1
ssg62
g3836
sg55
(lp3843
g3379
(S's\x08\x00\x00\x00Database'
tRp3844
asbasbasbag48
(g64
g50
NtRp3845
(dp3846
g53
(dp3847
sg62
g3828
sg55
(lp3848
g48
(g69
g50
NtRp3849
(dp3850
g53
(dp3851
sg62
g3845
sg55
(lp3852
g48
(g49
g50
NtRp3853
(dp3854
g53
(dp3855
g61
I1
ssg62
g3849
sg55
(lp3856
I00
asbasbasbag48
(g64
g50
NtRp3857
(dp3858
g53
(dp3859
sg62
g3828
sg55
(lp3860
g48
(g69
g50
NtRp3861
(dp3862
g53
(dp3863
sg62
g3857
sg55
(lp3864
g48
(g49
g50
NtRp3865
(dp3866
g53
(dp3867
g61
I1
ssg62
g3861
sg55
(lp3868
S'/201056161/appadmin/index'
p3869
asbasbasbasbasbasbasbag48
(g64
g50
NtRp3870
(dp3871
g53
(dp3872
sg62
g3488
sg55
(lp3873
g48
(g69
g50
NtRp3874
(dp3875
g53
(dp3876
sg62
g3870
sg55
(lp3877
g48
(g49
g50
NtRp3878
(dp3879
g53
(dp3880
g61
I2
ssg62
g3874
sg55
(lp3881
g48
(g57
g50
NtRp3882
(dp3883
g53
(dp3884
g61
I1
ssg62
Nsg55
(lp3885
g48
(g64
g50
NtRp3886
(dp3887
g53
(dp3888
sg62
g3882
sg55
(lp3889
g48
(g69
g50
NtRp3890
(dp3891
g53
(dp3892
sg62
g3886
sg55
(lp3893
g48
(g49
g50
NtRp3894
(dp3895
g53
(dp3896
g61
I1
ssg62
g3890
sg55
(lp3897
g3379
(S's\x06\x00\x00\x00Errors'
tRp3898
asbasbasbag48
(g64
g50
NtRp3899
(dp3900
g53
(dp3901
sg62
g3882
sg55
(lp3902
g48
(g69
g50
NtRp3903
(dp3904
g53
(dp3905
sg62
g3899
sg55
(lp3906
g48
(g49
g50
NtRp3907
(dp3908
g53
(dp3909
g61
I1
ssg62
g3903
sg55
(lp3910
I00
asbasbasbag48
(g64
g50
NtRp3911
(dp3912
g53
(dp3913
sg62
g3882
sg55
(lp3914
g48
(g69
g50
NtRp3915
(dp3916
g53
(dp3917
sg62
g3911
sg55
(lp3918
g48
(g49
g50
NtRp3919
(dp3920
g53
(dp3921
g61
I1
ssg62
g3915
sg55
(lp3922
S'/admin/default/errors/201056161'
p3923
asbasbasbasbasbasbasbag48
(g64
g50
NtRp3924
(dp3925
g53
(dp3926
sg62
g3488
sg55
(lp3927
g48
(g69
g50
NtRp3928
(dp3929
g53
(dp3930
sg62
g3924
sg55
(lp3931
g48
(g49
g50
NtRp3932
(dp3933
g53
(dp3934
g61
I2
ssg62
g3928
sg55
(lp3935
g48
(g57
g50
NtRp3936
(dp3937
g53
(dp3938
g61
I1
ssg62
Nsg55
(lp3939
g48
(g64
g50
NtRp3940
(dp3941
g53
(dp3942
sg62
g3936
sg55
(lp3943
g48
(g69
g50
NtRp3944
(dp3945
g53
(dp3946
sg62
g3940
sg55
(lp3947
g48
(g49
g50
NtRp3948
(dp3949
g53
(dp3950
g61
I1
ssg62
g3944
sg55
(lp3951
g3379
(S's\x05\x00\x00\x00About'
tRp3952
asbasbasbag48
(g64
g50
NtRp3953
(dp3954
g53
(dp3955
sg62
g3936
sg55
(lp3956
g48
(g69
g50
NtRp3957
(dp3958
g53
(dp3959
sg62
g3953
sg55
(lp3960
g48
(g49
g50
NtRp3961
(dp3962
g53
(dp3963
g61
I1
ssg62
g3957
sg55
(lp3964
I00
asbasbasbag48
(g64
g50
NtRp3965
(dp3966
g53
(dp3967
sg62
g3936
sg55
(lp3968
g48
(g69
g50
NtRp3969
(dp3970
g53
(dp3971
sg62
g3965
sg55
(lp3972
g48
(g49
g50
NtRp3973
(dp3974
g53
(dp3975
g61
I1
ssg62
g3969
sg55
(lp3976
S'/admin/default/about/201056161'
p3977
asbasbasbasbasbasbasbasbasbasbasbasbasbasbasbag48
(g64
g50
NtRp3978
(dp3979
g53
(dp3980
sg62
g3347
sg55
(lp3981
g48
(g69
g50
NtRp3982
(dp3983
g53
(dp3984
sg62
g3978
sg55
(lp3985
g48
(g49
g50
NtRp3986
(dp3987
g53
(dp3988
g61
I4
ssg62
g3982
sg55
(lp3989
g48
(g57
g50
NtRp3990
(dp3991
g53
(dp3992
g61
I3
ssg62
Nsg55
(lp3993
g48
(g64
g50
NtRp3994
(dp3995
g53
(dp3996
sg62
g3990
sg55
(lp3997
g48
(g69
g50
NtRp3998
(dp3999
g53
(dp4000
sg62
g3994
sg55
(lp4001
g48
(g49
g50
NtRp4002
(dp4003
g53
(dp4004
g61
I3
ssg62
g3998
sg55
(lp4005
g3379
(S's\t\x00\x00\x00Resources'
tRp4006
asbasbasbag48
(g64
g50
NtRp4007
(dp4008
g53
(dp4009
sg62
g3990
sg55
(lp4010
g48
(g69
g50
NtRp4011
(dp4012
g53
(dp4013
sg62
g4007
sg55
(lp4014
g48
(g49
g50
NtRp4015
(dp4016
g53
(dp4017
g61
I3
ssg62
g4011
sg55
(lp4018
g91
asbasbasbag48
(g64
g50
NtRp4019
(dp4020
g53
(dp4021
sg62
g3990
sg55
(lp4022
g48
(g69
g50
NtRp4023
(dp4024
g53
(dp4025
sg62
g4019
sg55
(lp4026
g48
(g49
g50
NtRp4027
(dp4028
g53
(dp4029
g61
I3
ssg62
g4023
sg55
(lp4030
S'None'
p4031
asbasbasbag48
(g64
g50
NtRp4032
(dp4033
g53
(dp4034
sg62
g3990
sg55
(lp4035
g48
(g69
g50
NtRp4036
(dp4037
g53
(dp4038
sg62
g4032
sg55
(lp4039
g48
(g49
g50
NtRp4040
(dp4041
g53
(dp4042
g61
I3
ssg62
g4036
sg55
(lp4043
g48
(g57
g50
NtRp4044
(dp4045
g53
(dp4046
g61
I2
ssg62
Nsg55
(lp4047
g48
(g64
g50
NtRp4048
(dp4049
g53
(dp4050
sg62
g4044
sg55
(lp4051
g48
(g69
g50
NtRp4052
(dp4053
g53
(dp4054
sg62
g4048
sg55
(lp4055
g48
(g49
g50
NtRp4056
(dp4057
g53
(dp4058
g61
I2
ssg62
g4052
sg55
(lp4059
g48
(g57
g50
NtRp4060
(dp4061
g53
(dp4062
g61
I1
ssg62
Nsg55
(lp4063
g48
(g64
g50
NtRp4064
(dp4065
g53
(dp4066
sg62
g4060
sg55
(lp4067
g48
(g69
g50
NtRp4068
(dp4069
g53
(dp4070
sg62
g4064
sg55
(lp4071
g48
(g49
g50
NtRp4072
(dp4073
g53
(dp4074
g61
I1
ssg62
g4068
sg55
(lp4075
g3379
(S's\r\x00\x00\x00Documentation'
tRp4076
asbasbasbag48
(g64
g50
NtRp4077
(dp4078
g53
(dp4079
sg62
g4060
sg55
(lp4080
g48
(g69
g50
NtRp4081
(dp4082
g53
(dp4083
sg62
g4077
sg55
(lp4084
g48
(g49
g50
NtRp4085
(dp4086
g53
(dp4087
g61
I1
ssg62
g4081
sg55
(lp4088
I00
asbasbasbag48
(g64
g50
NtRp4089
(dp4090
g53
(dp4091
sg62
g4060
sg55
(lp4092
g48
(g69
g50
NtRp4093
(dp4094
g53
(dp4095
sg62
g4089
sg55
(lp4096
g48
(g49
g50
NtRp4097
(dp4098
g53
(dp4099
g61
I1
ssg62
g4093
sg55
(lp4100
S'http://www.web2py.com/book'
p4101
asbasbasbag48
(g64
g50
NtRp4102
(dp4103
g53
(dp4104
sg62
g4060
sg55
(lp4105
g48
(g69
g50
NtRp4106
(dp4107
g53
(dp4108
sg62
g4102
sg55
(lp4109
g48
(g49
g50
NtRp4110
(dp4111
g53
(dp4112
g61
I1
ssg62
g4106
sg55
(lp4113
(lp4114
(g3379
(S's\x07\x00\x00\x00Preface'
tRp4115
I00
S'http://www.web2py.com/book/default/chapter/00'
tp4116
a(g3379
(S's\x0c\x00\x00\x00Introduction'
tRp4117
I00
S'http://www.web2py.com/book/default/chapter/01'
tp4118
a(g3379
(S's\x06\x00\x00\x00Python'
tRp4119
I00
S'http://www.web2py.com/book/default/chapter/02'
tp4120
a(g3379
(S's\x08\x00\x00\x00Overview'
tRp4121
I00
S'http://www.web2py.com/book/default/chapter/03'
tp4122
a(g3379
(S's\x08\x00\x00\x00The Core'
tRp4123
I00
S'http://www.web2py.com/book/default/chapter/04'
tp4124
a(g3379
(S's\t\x00\x00\x00The Views'
tRp4125
I00
S'http://www.web2py.com/book/default/chapter/05'
tp4126
a(g3379
(S's\x08\x00\x00\x00Database'
tRp4127
I00
S'http://www.web2py.com/book/default/chapter/06'
tp4128
a(g3379
(S's\x14\x00\x00\x00Forms and Validators'
tRp4129
I00
S'http://www.web2py.com/book/default/chapter/07'
tp4130
a(g3379
(S's\x0e\x00\x00\x00Access Control'
tRp4131
I00
S'http://www.web2py.com/book/default/chapter/08'
tp4132
a(g3379
(S's\x08\x00\x00\x00Services'
tRp4133
I00
S'http://www.web2py.com/book/default/chapter/09'
tp4134
a(g3379
(S's\x0c\x00\x00\x00Ajax Recipes'
tRp4135
I00
S'http://www.web2py.com/book/default/chapter/10'
tp4136
a(g3379
(S's\x12\x00\x00\x00Deployment Recipes'
tRp4137
I00
S'http://www.web2py.com/book/default/chapter/11'
tp4138
a(g3379
(S's\r\x00\x00\x00Other Recipes'
tRp4139
I00
S'http://www.web2py.com/book/default/chapter/12'
tp4140
a(g3379
(S's\r\x00\x00\x00Buy this book'
tRp4141
I00
S'http://stores.lulu.com/web2py'
tp4142
aasbasbasbasbasbasbasbag48
(g64
g50
NtRp4143
(dp4144
g53
(dp4145
sg62
g4044
sg55
(lp4146
g48
(g69
g50
NtRp4147
(dp4148
g53
(dp4149
sg62
g4143
sg55
(lp4150
g48
(g49
g50
NtRp4151
(dp4152
g53
(dp4153
g61
I2
ssg62
g4147
sg55
(lp4154
g48
(g57
g50
NtRp4155
(dp4156
g53
(dp4157
g61
I1
ssg62
Nsg55
(lp4158
g48
(g64
g50
NtRp4159
(dp4160
g53
(dp4161
sg62
g4155
sg55
(lp4162
g48
(g69
g50
NtRp4163
(dp4164
g53
(dp4165
sg62
g4159
sg55
(lp4166
g48
(g49
g50
NtRp4167
(dp4168
g53
(dp4169
g61
I1
ssg62
g4163
sg55
(lp4170
g3379
(S's\t\x00\x00\x00Community'
tRp4171
asbasbasbag48
(g64
g50
NtRp4172
(dp4173
g53
(dp4174
sg62
g4155
sg55
(lp4175
g48
(g69
g50
NtRp4176
(dp4177
g53
(dp4178
sg62
g4172
sg55
(lp4179
g48
(g49
g50
NtRp4180
(dp4181
g53
(dp4182
g61
I1
ssg62
g4176
sg55
(lp4183
I00
asbasbasbag48
(g64
g50
NtRp4184
(dp4185
g53
(dp4186
sg62
g4155
sg55
(lp4187
g48
(g69
g50
NtRp4188
(dp4189
g53
(dp4190
sg62
g4184
sg55
(lp4191
g48
(g49
g50
NtRp4192
(dp4193
g53
(dp4194
g61
I1
ssg62
g4188
sg55
(lp4195
Nasbasbasbag48
(g64
g50
NtRp4196
(dp4197
g53
(dp4198
sg62
g4155
sg55
(lp4199
g48
(g69
g50
NtRp4200
(dp4201
g53
(dp4202
sg62
g4196
sg55
(lp4203
g48
(g49
g50
NtRp4204
(dp4205
g53
(dp4206
g61
I1
ssg62
g4200
sg55
(lp4207
(lp4208
(g3379
(S's\x06\x00\x00\x00Groups'
tRp4209
I00
S'http://www.web2py.com/examples/default/usergroups'
tp4210
a(g3379
(S's\x07\x00\x00\x00Twitter'
tRp4211
I00
S'http://twitter.com/web2py'
tp4212
a(g3379
(S's\t\x00\x00\x00Live chat'
tRp4213
I00
S'http://mibbit.com/?channel=%23web2py&server=irc.mibbit.net'
tp4214
a(g3379
(S's\n\x00\x00\x00User Voice'
tRp4215
I00
S'http://web2py.uservoice.com/'
tp4216
aasbasbasbasbasbasbasbag48
(g64
g50
NtRp4217
(dp4218
g53
(dp4219
sg62
g4044
sg55
(lp4220
g48
(g69
g50
NtRp4221
(dp4222
g53
(dp4223
sg62
g4217
sg55
(lp4224
g48
(g49
g50
NtRp4225
(dp4226
g53
(dp4227
g61
I2
ssg62
g4221
sg55
(lp4228
g48
(g57
g50
NtRp4229
(dp4230
g53
(dp4231
g61
I1
ssg62
Nsg55
(lp4232
g48
(g64
g50
NtRp4233
(dp4234
g53
(dp4235
sg62
g4229
sg55
(lp4236
g48
(g69
g50
NtRp4237
(dp4238
g53
(dp4239
sg62
g4233
sg55
(lp4240
g48
(g49
g50
NtRp4241
(dp4242
g53
(dp4243
g61
I1
ssg62
g4237
sg55
(lp4244
g3379
(S's\x06\x00\x00\x00Web2py'
tRp4245
asbasbasbag48
(g64
g50
NtRp4246
(dp4247
g53
(dp4248
sg62
g4229
sg55
(lp4249
g48
(g69
g50
NtRp4250
(dp4251
g53
(dp4252
sg62
g4246
sg55
(lp4253
g48
(g49
g50
NtRp4254
(dp4255
g53
(dp4256
g61
I1
ssg62
g4250
sg55
(lp4257
I00
asbasbasbag48
(g64
g50
NtRp4258
(dp4259
g53
(dp4260
sg62
g4229
sg55
(lp4261
g48
(g69
g50
NtRp4262
(dp4263
g53
(dp4264
sg62
g4258
sg55
(lp4265
g48
(g49
g50
NtRp4266
(dp4267
g53
(dp4268
g61
I1
ssg62
g4262
sg55
(lp4269
S'http://www.web2py.com'
p4270
asbasbasbag48
(g64
g50
NtRp4271
(dp4272
g53
(dp4273
sg62
g4229
sg55
(lp4274
g48
(g69
g50
NtRp4275
(dp4276
g53
(dp4277
sg62
g4271
sg55
(lp4278
g48
(g49
g50
NtRp4279
(dp4280
g53
(dp4281
g61
I1
ssg62
g4275
sg55
(lp4282
(lp4283
(g3379
(S's\x08\x00\x00\x00Download'
tRp4284
I00
S'http://www.web2py.com/examples/default/download'
tp4285
a(g3379
(S's\x07\x00\x00\x00Support'
tRp4286
I00
S'http://www.web2py.com/examples/default/support'
tp4287
a(g3379
(S's\x0e\x00\x00\x00Quick Examples'
tRp4288
I00
S'http://web2py.com/examples/default/examples'
tp4289
a(g3379
(S's\x03\x00\x00\x00FAQ'
tRp4290
I00
S'http://web2py.com/AlterEgo'
tp4291
a(g3379
(S's\x11\x00\x00\x00Free Applications'
tRp4292
I00
S'http://web2py.com/appliances'
tp4293
a(g3379
(S's\x07\x00\x00\x00Plugins'
tRp4294
I00
S'http://web2py.com/plugins'
tp4295
a(g3379
(S's\x07\x00\x00\x00Recipes'
tRp4296
I00
S'http://web2pyslices.com/'
tp4297
a(g3379
(S's\x04\x00\x00\x00Demo'
tRp4298
I00
S'http://web2py.com/demo_admin'
tp4299
a(g3379
(S's\x08\x00\x00\x00Semantic'
tRp4300
I00
S'http://web2py.com/semantic'
tp4301
a(g3379
(S's\x07\x00\x00\x00Layouts'
tRp4302
I00
S'http://web2py.com/layouts'
tp4303
a(g3379
(S's\x06\x00\x00\x00Videos'
tRp4304
I00
S'http://www.web2py.com/examples/default/videos/'
tp4305
aasbasbasbasbasbasbasbasbasbasbasbasbasbasbasbasbasbasbasbag48
(g64
g50
NtRp4306
(dp4307
g53
(dp4308
sg62
g2894
sg55
(lp4309
g48
(g69
g50
NtRp4310
(dp4311
g53
(dp4312
g73
g74
ssg62
g4306
sg55
(lp4313
S'meta'
p4314
asbag48
(g69
g50
NtRp4315
(dp4316
g53
(dp4317
g80
g81
ssg62
g4306
sg55
(lp4318
S':'
asbag48
(g69
g50
NtRp4319
(dp4320
g53
(dp4321
sg62
g4306
sg55
(lp4322
g48
(g49
g50
NtRp4323
(dp4324
g53
(dp4325
g61
I5
ssg62
g4319
sg55
(lp4326
g48
(g57
g50
NtRp4327
(dp4328
g53
(dp4329
g61
I4
ssg62
Nsg55
(lp4330
g48
(g64
g50
NtRp4331
(dp4332
g53
(dp4333
sg62
g4327
sg55
(lp4334
g48
(g69
g50
NtRp4335
(dp4336
g53
(dp4337
g73
g74
ssg62
g4331
sg55
(lp4338
S'author'
p4339
asbag48
(g69
g50
NtRp4340
(dp4341
g53
(dp4342
g80
g81
ssg62
g4331
sg55
(lp4343
S':'
asbag48
(g69
g50
NtRp4344
(dp4345
g53
(dp4346
sg62
g4331
sg55
(lp4347
g48
(g49
g50
NtRp4348
(dp4349
g53
(dp4350
g61
I4
ssg62
g4344
sg55
(lp4351
S'you'
p4352
asbasbasbag48
(g64
g50
NtRp4353
(dp4354
g53
(dp4355
sg62
g4327
sg55
(lp4356
g48
(g69
g50
NtRp4357
(dp4358
g53
(dp4359
g73
g74
ssg62
g4353
sg55
(lp4360
S'copyright'
p4361
asbag48
(g69
g50
NtRp4362
(dp4363
g53
(dp4364
g80
g81
ssg62
g4353
sg55
(lp4365
S':'
asbag48
(g69
g50
NtRp4366
(dp4367
g53
(dp4368
sg62
g4353
sg55
(lp4369
g48
(g49
g50
NtRp4370
(dp4371
g53
(dp4372
g61
I4
ssg62
g4366
sg55
(lp4373
S'Copyright 2007-2010'
p4374
asbasbasbag48
(g64
g50
NtRp4375
(dp4376
g53
(dp4377
sg62
g4327
sg55
(lp4378
g48
(g69
g50
NtRp4379
(dp4380
g53
(dp4381
g73
g74
ssg62
g4375
sg55
(lp4382
S'description'
p4383
asbag48
(g69
g50
NtRp4384
(dp4385
g53
(dp4386
g80
g81
ssg62
g4375
sg55
(lp4387
S':'
asbag48
(g69
g50
NtRp4388
(dp4389
g53
(dp4390
sg62
g4375
sg55
(lp4391
g48
(g49
g50
NtRp4392
(dp4393
g53
(dp4394
g61
I4
ssg62
g4388
sg55
(lp4395
S'Free and open source full-stack enterprise framework for agile development of fast, scalable, secure and portable database-driven web-based applications. Written and programmable in Python'
p4396
asbasbasbag48
(g64
g50
NtRp4397
(dp4398
g53
(dp4399
sg62
g4327
sg55
(lp4400
g48
(g69
g50
NtRp4401
(dp4402
g53
(dp4403
g73
g74
ssg62
g4397
sg55
(lp4404
S'generator'
p4405
asbag48
(g69
g50
NtRp4406
(dp4407
g53
(dp4408
g80
g81
ssg62
g4397
sg55
(lp4409
S':'
asbag48
(g69
g50
NtRp4410
(dp4411
g53
(dp4412
sg62
g4397
sg55
(lp4413
g48
(g49
g50
NtRp4414
(dp4415
g53
(dp4416
g61
I4
ssg62
g4410
sg55
(lp4417
S'Web2py Enterprise Framework'
p4418
asbasbasbag48
(g64
g50
NtRp4419
(dp4420
g53
(dp4421
sg62
g4327
sg55
(lp4422
g48
(g69
g50
NtRp4423
(dp4424
g53
(dp4425
g73
g74
ssg62
g4419
sg55
(lp4426
S'keywords'
p4427
asbag48
(g69
g50
NtRp4428
(dp4429
g53
(dp4430
g80
g81
ssg62
g4419
sg55
(lp4431
S':'
asbag48
(g69
g50
NtRp4432
(dp4433
g53
(dp4434
sg62
g4419
sg55
(lp4435
g48
(g49
g50
NtRp4436
(dp4437
g53
(dp4438
g61
I4
ssg62
g4432
sg55
(lp4439
S'web2py, python, framework'
p4440
asbasbasbasbasbasbasbag48
(g64
g50
NtRp4441
(dp4442
g53
(dp4443
sg62
g2894
sg55
(lp4444
g48
(g69
g50
NtRp4445
(dp4446
g53
(dp4447
g73
g74
ssg62
g4441
sg55
(lp4448
S'postprocessing'
p4449
asbag48
(g69
g50
NtRp4450
(dp4451
g53
(dp4452
g80
g81
ssg62
g4441
sg55
(lp4453
S':'
asbag48
(g69
g50
NtRp4454
(dp4455
g53
(dp4456
sg62
g4441
sg55
(lp4457
g48
(g49
g50
NtRp4458
(dp4459
g53
(dp4460
g61
I5
ssg62
g4454
sg55
(lp4461
g48
(g57
g50
NtRp4462
(dp4463
g53
(dp4464
g61
I4
ssg62
Nsg55
(lp4465
sbasbasbasbag48
(g64
g50
NtRp4466
(dp4467
g53
(dp4468
sg62
g2894
sg55
(lp4469
g48
(g69
g50
NtRp4470
(dp4471
g53
(dp4472
g73
g74
ssg62
g4466
sg55
(lp4473
S'session_file'
p4474
asbag48
(g69
g50
NtRp4475
(dp4476
g53
(dp4477
g80
g81
ssg62
g4466
sg55
(lp4478
S':'
asbag48
(g69
g50
NtRp4479
(dp4480
g53
(dp4481
sg62
g4466
sg55
(lp4482
g48
(g49
g50
NtRp4483
(dp4484
g53
(dp4485
g61
I5
ssg62
g4479
sg55
(lp4486
S"<open file 'C:\\Users\\AKSHAY\\Desktop\\web2py\\applications\\201056161\\sessions\\127.0.0.1-3bc821ac-4d59-41c6-8699-b3e43edfc478', mode 'rb+' at 0x06BF8890>"
p4487
asbasbasbag48
(g64
g50
NtRp4488
(dp4489
g53
(dp4490
sg62
g2894
sg55
(lp4491
g48
(g69
g50
NtRp4492
(dp4493
g53
(dp4494
g73
g74
ssg62
g4488
sg55
(lp4495
S'session_filename'
p4496
asbag48
(g69
g50
NtRp4497
(dp4498
g53
(dp4499
g80
g81
ssg62
g4488
sg55
(lp4500
S':'
asbag48
(g69
g50
NtRp4501
(dp4502
g53
(dp4503
sg62
g4488
sg55
(lp4504
g48
(g49
g50
NtRp4505
(dp4506
g53
(dp4507
g61
I5
ssg62
g4501
sg55
(lp4508
S'C:\\Users\\AKSHAY\\Desktop\\web2py\\applications\\201056161\\sessions\\127.0.0.1-3bc821ac-4d59-41c6-8699-b3e43edfc478'
p4509
asbasbasbag48
(g64
g50
NtRp4510
(dp4511
g53
(dp4512
sg62
g2894
sg55
(lp4513
g48
(g69
g50
NtRp4514
(dp4515
g53
(dp4516
g73
g74
ssg62
g4510
sg55
(lp4517
S'session_id'
p4518
asbag48
(g69
g50
NtRp4519
(dp4520
g53
(dp4521
g80
g81
ssg62
g4510
sg55
(lp4522
S':'
asbag48
(g69
g50
NtRp4523
(dp4524
g53
(dp4525
sg62
g4510
sg55
(lp4526
g48
(g49
g50
NtRp4527
(dp4528
g53
(dp4529
g61
I5
ssg62
g4523
sg55
(lp4530
S'127.0.0.1-3bc821ac-4d59-41c6-8699-b3e43edfc478'
p4531
asbasbasbag48
(g64
g50
NtRp4532
(dp4533
g53
(dp4534
sg62
g2894
sg55
(lp4535
g48
(g69
g50
NtRp4536
(dp4537
g53
(dp4538
g73
g74
ssg62
g4532
sg55
(lp4539
S'session_id_name'
p4540
asbag48
(g69
g50
NtRp4541
(dp4542
g53
(dp4543
g80
g81
ssg62
g4532
sg55
(lp4544
S':'
asbag48
(g69
g50
NtRp4545
(dp4546
g53
(dp4547
sg62
g4532
sg55
(lp4548
g48
(g49
g50
NtRp4549
(dp4550
g53
(dp4551
g61
I5
ssg62
g4545
sg55
(lp4552
g2951
asbasbasbag48
(g64
g50
NtRp4553
(dp4554
g53
(dp4555
sg62
g2894
sg55
(lp4556
g48
(g69
g50
NtRp4557
(dp4558
g53
(dp4559
g73
g74
ssg62
g4553
sg55
(lp4560
S'session_locked'
p4561
asbag48
(g69
g50
NtRp4562
(dp4563
g53
(dp4564
g80
g81
ssg62
g4553
sg55
(lp4565
S':'
asbag48
(g69
g50
NtRp4566
(dp4567
g53
(dp4568
sg62
g4553
sg55
(lp4569
g48
(g49
g50
NtRp4570
(dp4571
g53
(dp4572
g61
I5
ssg62
g4566
sg55
(lp4573
g1630
asbasbasbag48
(g64
g50
NtRp4574
(dp4575
g53
(dp4576
sg62
g2894
sg55
(lp4577
g48
(g69
g50
NtRp4578
(dp4579
g53
(dp4580
g73
g74
ssg62
g4574
sg55
(lp4581
S'session_new'
p4582
asbag48
(g69
g50
NtRp4583
(dp4584
g53
(dp4585
g80
g81
ssg62
g4574
sg55
(lp4586
S':'
asbag48
(g69
g50
NtRp4587
(dp4588
g53
(dp4589
sg62
g4574
sg55
(lp4590
g48
(g49
g50
NtRp4591
(dp4592
g53
(dp4593
g61
I5
ssg62
g4587
sg55
(lp4594
g91
asbasbasbag48
(g64
g50
NtRp4595
(dp4596
g53
(dp4597
sg62
g2894
sg55
(lp4598
g48
(g69
g50
NtRp4599
(dp4600
g53
(dp4601
g73
g74
ssg62
g4595
sg55
(lp4602
S'status'
p4603
asbag48
(g69
g50
NtRp4604
(dp4605
g53
(dp4606
g80
g81
ssg62
g4595
sg55
(lp4607
S':'
asbag48
(g69
g50
NtRp4608
(dp4609
g53
(dp4610
sg62
g4595
sg55
(lp4611
g48
(g49
g50
NtRp4612
(dp4613
g53
(dp4614
g61
I5
ssg62
g4608
sg55
(lp4615
S'200'
p4616
asbasbasbag48
(g64
g50
NtRp4617
(dp4618
g53
(dp4619
sg62
g2894
sg55
(lp4620
g48
(g69
g50
NtRp4621
(dp4622
g53
(dp4623
g73
g74
ssg62
g4617
sg55
(lp4624
S'subtitle'
p4625
asbag48
(g69
g50
NtRp4626
(dp4627
g53
(dp4628
g80
g81
ssg62
g4617
sg55
(lp4629
S':'
asbag48
(g69
g50
NtRp4630
(dp4631
g53
(dp4632
sg62
g4617
sg55
(lp4633
g48
(g49
g50
NtRp4634
(dp4635
g53
(dp4636
g61
I5
ssg62
g4630
sg55
(lp4637
g3379
(S's\r\x00\x00\x00customize me!'
tRp4638
asbasbasbag48
(g64
g50
NtRp4639
(dp4640
g53
(dp4641
sg62
g2894
sg55
(lp4642
g48
(g69
g50
NtRp4643
(dp4644
g53
(dp4645
g73
g74
ssg62
g4639
sg55
(lp4646
S'title'
p4647
asbag48
(g69
g50
NtRp4648
(dp4649
g53
(dp4650
g80
g81
ssg62
g4639
sg55
(lp4651
S':'
asbag48
(g69
g50
NtRp4652
(dp4653
g53
(dp4654
sg62
g4639
sg55
(lp4655
g48
(g49
g50
NtRp4656
(dp4657
g53
(dp4658
g61
I5
ssg62
g4652
sg55
(lp4659
g113
asbasbasbag48
(g64
g50
NtRp4660
(dp4661
g53
(dp4662
sg62
g2894
sg55
(lp4663
g48
(g69
g50
NtRp4664
(dp4665
g53
(dp4666
g73
g74
ssg62
g4660
sg55
(lp4667
g1997
asbag48
(g69
g50
NtRp4668
(dp4669
g53
(dp4670
g80
g81
ssg62
g4660
sg55
(lp4671
S':'
asbag48
(g69
g50
NtRp4672
(dp4673
g53
(dp4674
sg62
g4660
sg55
(lp4675
g48
(g49
g50
NtRp4676
(dp4677
g53
(dp4678
g61
I5
ssg62
g4672
sg55
(lp4679
g2010
asbasbasbag48
(g64
g50
NtRp4680
(dp4681
g53
(dp4682
sg62
g2894
sg55
(lp4683
g48
(g69
g50
NtRp4684
(dp4685
g53
(dp4686
g73
g74
ssg62
g4680
sg55
(lp4687
S'view'
p4688
asbag48
(g69
g50
NtRp4689
(dp4690
g53
(dp4691
g80
g81
ssg62
g4680
sg55
(lp4692
S':'
asbag48
(g69
g50
NtRp4693
(dp4694
g53
(dp4695
sg62
g4680
sg55
(lp4696
g48
(g49
g50
NtRp4697
(dp4698
g53
(dp4699
g61
I5
ssg62
g4693
sg55
(lp4700
S'default/new.html'
p4701
asbasbasbasbasbsS'locals'
p4702
(dp4703
S'form'
p4704
S'<gluon.sqlhtml.SQLFORM object at 0x033A32F0>'
p4705
sssS'traceback'
p4706
S'Traceback (most recent call last):\n  File "gluon/restricted.py", line 192, in restricted\n  File "C:\\Users\\AKSHAY\\Desktop\\web2py\\applications\\201056161\\controllers/default.py", line 169, in <module>\n  File "gluon/globals.py", line 137, in <lambda>\n  File "C:\\Users\\AKSHAY\\Desktop\\web2py\\applications\\201056161\\controllers/default.py", line 153, in new\nTypeError: cannot concatenate \'str\' and \'NoneType\' objects\n'
p4707
s.