(dp1
S'output'
p2
S''
sS'layer'
p3
S'C:\\Users\\AKSHAY\\Desktop\\web2py\\applications\\201056161\\views\\default/q2s.html'
p4
sS'code'
p5
S'response.write(\'<!DOCTYPE html>\\n<html lang="\', escape=False)\nresponse.write(T.accepted_language or \'en\')\nresponse.write(\'" class="no-js"><!-- no-js need it for modernzr -->\\n  <head>\\n    \\n    <meta charset="utf-8" />\\t  \\t\\n    <!-- www.phpied.com/conditional-comments-block-downloads/ -->\\n    <!--[if IE]><![endif]-->    \\n    <!-- Always force latest IE rendering engine \\n\\t (even in intranet) & Chrome Frame \\n\\t Remove this if you use the .htaccess -->\\n    <meta http-equiv="X-UA-Compatible" content="IE=edge,chrome=1">\\n    \\n    <title>\', escape=False)\nresponse.write(response.title or request.application)\nresponse.write(\'</title>\\n    \\n    <!-- http://dev.w3.org/html5/markup/meta.name.html -->\\n    <meta name="application-name" content="\', escape=False)\nresponse.write(request.application)\nresponse.write(\'" />\\t\\n    \\n    <!-- Speaking of Google, don\\\'t forget to set your site up: \\n\\t http://google.com/webmasters -->\\n    <meta name="google-site-verification" content="" />\\n    \\n    <!--  Mobile Viewport Fix\\n\\t  j.mp/mobileviewport & davidbcalhoun.com/2010/viewport-metatag \\n\\t  device-width: Occupy full width of the screen in its current orientation\\n\\t  initial-scale = 1.0 retains dimensions instead of zooming out if page height > device height\\n\\t  maximum-scale = 1.0 retains dimensions instead of zooming in if page width < device width\\n      -->\\n    <meta name="viewport" content="width=device-width, initial-scale=1.0, maximum-scale=1.0">\\n    \\n    <!-- Place favicon.ico and apple-touch-icon.png in the root of your domain and delete these references -->\\n    <link rel="shortcut icon" href="\', escape=False)\nresponse.write(URL(\'static\',\'favicon.ico\'))\nresponse.write(\'" type="image/x-icon">\\n    <link rel="apple-touch-icon" href="\', escape=False)\nresponse.write(URL(\'static\',\'favicon.png\'))\nresponse.write(\'">\\n\\n    <!-- For the less-enabled mobile browsers like Opera Mini -->\\n    <link rel="stylesheet" media="handheld" href="\', escape=False)\nresponse.write(URL(\'static\',\'css/handheld.css\'))\nresponse.write(\'">\\n    \\n    <!-- All JavaScript at the bottom, except for Modernizr which enables HTML5 elements & feature detects -->\\n    <script src="\', escape=False)\nresponse.write(URL(\'static\',\'js/modernizr-1.7.min.js\'))\nresponse.write(\'"></script>\\n    \\n    \', escape=False)\n#------  require CSS and JS files for this page (read info in base.css) ------\nresponse.write(\'\\n    \', escape=False)\nresponse.files.append(URL(\'static\',\'css/base.css\'))\nresponse.write(\'\\n    \', escape=False)\nresponse.files.append(URL(\'static\',\'css/superfish.css\'))\nresponse.write(\'\\n    \', escape=False)\nresponse.files.append(URL(\'static\',\'js/superfish.js\'))\nresponse.write(\'\\n    \', escape=False)\n#------ include web2py specific js code (jquery, calendar, form stuff) ------\nresponse.write(\'\\n    \', escape=False)\nresponse.files.insert(0,URL(\'static\',\'js/jquery.js\'))\nresponse.files.insert(1,URL(\'static\',\'css/calendar.css\'))\nresponse.files.insert(2,URL(\'static\',\'js/calendar.js\'))\nfor _item in response.meta or []:\n    response.write(\'\\n     <meta name="\', escape=False)\n    response.write(_item)\n    response.write(\'" content="\', escape=False)\n    response.write(response.meta[_item])\n    response.write(\'" />\', escape=False)\n    pass\nfor _k,_file in enumerate(response.files or []):\n    if _file in response.files[:_k]:\n        continue\n    _file0=_file.lower().split(\'?\')[0]\n    if _file0.endswith(\'.css\'):\n        response.write(\'\\n     <link href="\', escape=False)\n        response.write(_file)\n        response.write(\'" rel="stylesheet" type="text/css" />\', escape=False)\n    elif _file0.endswith(\'.js\'):\n        response.write(\'\\n     <script src="\', escape=False)\n        response.write(_file)\n        response.write(\'" type="text/javascript"></script>\', escape=False)\n        pass\n    pass\nresponse.write(\'\\n    <script type="text/javascript"><!--\\n    // These variables are used by the web2py_ajax_init function in web2py_ajax.js (which is loaded below).\\n    var w2p_ajax_confirm_message = "\', escape=False)\nresponse.write(T(\'Are you sure you want to delete this object?\'))\nresponse.write(\'";\\n    var w2p_ajax_date_format = "\', escape=False)\nresponse.write(T(\'%Y-%m-%d\'))\nresponse.write(\'";\\n    var w2p_ajax_datetime_format = "\', escape=False)\nresponse.write(T(\'%Y-%m-%d %H:%M:%S\'))\nresponse.write(\'";\\n    //--></script>\\n    <script src="\', escape=False)\nresponse.write(URL(\'static\',\'js/web2py_ajax.js\'))\nresponse.write(\'" type="text/javascript"></script>\\n\', escape=False)\nresponse.write(\'\\n\\n    \', escape=False)\n#using sidebars need to know what sidebar you want to use\n#prior of using it, because of static width size of content, you can use\n#left_sidebar, right_sidebar, both or none (False left and right)\nleft_sidebar_enabled = globals().get(\'left_sidebar_enabled\',False)\nright_sidebar_enabled = globals().get(\'right_sidebar_enabled\',False)\nif left_sidebar_enabled and right_sidebar_enabled: width_content=\'63%\'\nelif left_sidebar_enabled != right_sidebar_enabled: width_content=\'740px\'\nelse: width_content=\'100%\'\nif left_sidebar_enabled: left_sidebar_style = \'style="display: block;"\'\nelse: left_sidebar_style = \'style="display: none;"\'\nif right_sidebar_enabled: right_sidebar_style = \'style="display: block;"\'\nelse: right_sidebar_style = \'style="display: none;"\'\nstyle_content = \'style="width: %s"\' % width_content\nresponse.write(\'\\n  </head>\\n  \\n  <!-- paulirish.com/2008/conditional-stylesheets-vs-css-hacks-answer-neither/ -->\\t\\n  <!--[if lt IE 7 ]> <body class="ie6"> <![endif]-->\\n  <!--[if IE 7 ]>    <body class="ie7"> <![endif]-->\\n  <!--[if IE 8 ]>    <body class="ie8"> <![endif]-->\\n  <!--[if IE 9 ]>    <body class="ie9"> <![endif]-->\\n  <!--[if (gt IE 9)|!(IE)]><!--> <body> <!--<![endif]-->\\n    \\n    <div class="flash">\', escape=False)\nresponse.write(response.flash or \'\')\nresponse.write(\'</div> <!-- notification div -->\\n    \\n    <div id="container">\\t      \\t\\t      \\t\\n      \\n      <div id="wrapper">\\t\\t\\n\\t\\n\\t<div id="header"> <!-- header and login nav -->\\n\\t  \', escape=False)\nresponse.write(\' <!-- this is default header -->\\n\\t  \', escape=False)\ntry:\n    response.write(auth.navbar(action=URL(\'default\',\'user\')))\nexcept:pass\nresponse.write(\'\\t\\t          \\n\\t  <h1><span id="appname">\', escape=False)\nresponse.write(request.application.capitalize())\nresponse.write(\'</span>App</h1>\\n\\t  <div style="clear: both;"></div><!-- Clear the divs -->\\n\\t  \', escape=False)\nresponse.write(\'\\t\\t\\t\\t  \\t\\t\\t\\t\\t  \\n\\t</div><!-- header  -->\\n\\t\\n\\t<div id="statusbar"><!-- statusbar is menu zone -->\\n\\t  \', escape=False)\nresponse.write(\' <!-- this is default statusbar -->\\n\\t  \', escape=False)\n#------ superfish menu ------\nresponse.write(\'\\n\\t  \', escape=False)\nresponse.write(MENU(response.menu,_class=\'sf-menu\'))\nresponse.write(\'\\n\\t  <script type="text/javascript">\\n\\t    jQuery(document).ready(function(){\\n\\t    jQuery(\\\'ul.sf-menu\\\').superfish();});\\n\\t  </script>\\n\\t  <div style="clear: both;"></div><!-- Clear the divs -->\\t\\n\\t  \', escape=False)\nresponse.write(\'\\t\\t\\t\\t\\n\\t</div><!-- statusbar -->\\n\\t\\n\\t<div id="page"> <!-- Here my central body -->\\t  \\n\\n\\t  \', escape=False)\nif left_sidebar_enabled:\n    response.write(\'\\n          <div id="left_sidebar" \', escape=False)\n    response.write(XML(left_sidebar_style))\n    response.write(\' >\\n            <div style="padding: 4px;">\\n\\t      \', escape=False)\n    response.write(\'Content Left Sidebar\', escape=False)\n    response.write(\'\\t\\t  \\n            </div>\\n          </div><!-- left_sidebar -->\\n\\t  \', escape=False)\n    pass\nresponse.write(\'\\n\\n\\t  <!-- content -->\\n\\t  <div id="content" \', escape=False)\nresponse.write(XML(style_content))\nresponse.write(\' >\\n\\t    \', escape=False)\nresponse.write(\'\\r\\n\', escape=False)\nfor row in rows:\n    response.write(\'\\r\\n  \', escape=False)\n    response.write(LI(A("%s" %(row.name),_href=URL(r=request,f=\'student_details?id=%d\' %(row.id)))))\n    response.write(\'\\r\\n  </br>\\r\\n\', escape=False)\n    pass\nresponse.write(\'\\r\\n\', escape=False)\nresponse.write(\'\\t\\n\\t  </div>\\n\\t  <!-- content -->\\n\\n\\t  \', escape=False)\nif right_sidebar_enabled:\n    response.write(\'\\n          <div id="right_sidebar" \', escape=False)\n    response.write(XML(right_sidebar_style))\n    response.write(\' >\\n            <div style="padding: 4px;">\\n              \', escape=False)\n    response.write(\'Content Right Sidebar\', escape=False)\n    response.write(\'\\n            </div>\\n\\t  </div><!-- right_sidebar -->\\n          \', escape=False)\n    pass\nresponse.write(\'\\n\\n\\n\\t  <div style="clear: both;"></div><!-- Clear the divs -->\\n\\t  \\n\\t</div><!-- page -->\\t\\t\\t\\t\\t\\t\\t\\n\\t\\n\\t<div id="footer">\\n\\t  \', escape=False)\nresponse.write(\' <!-- this is default footer -->\\n\\t  <a href="http://www.web2py.com/" style="float: left; padding-right: 6px;">\\n\\t    <img src="\', escape=False)\nresponse.write(URL(\'static\',\'images/poweredby.png\'))\nresponse.write(\'"/>\\n\\t  </a>\\n\\t  \', escape=False)\nresponse.write(T(\'Copyright\'))\nresponse.write(\' &#169; 2010\\t\\t\\t\\t\\n\\t  <div style="clear: both;"></div><!-- Clear the divs -->\\n\\t  \', escape=False)\nresponse.write(\'\\n\\n\\t</div><!-- footer -->\\t\\t\\t\\n      </div><!-- wrapper -->\\n    </div><!-- container -->\\t\\t\\n    \\n    <!--[if lt IE 7 ]>\\n\\t<script src="\', escape=False)\nresponse.write(URL(\'static\',\'js/dd_belatedpng.js\'))\nresponse.write(\'"></script>\\n\\t<script> DD_belatedPNG.fix(\\\'img, .png_bg\\\'); //fix any <img> or .png_bg background-images </script>\\n\\t<![endif]-->\\n    \\n    <!-- asynchronous google analytics: mathiasbynens.be/notes/async-analytics-snippet \\n\\t change the UA-XXXXX-X to be your site\\\'s ID -->\\n    <!--   \\n\\t   <script>\\n\\t     var _gaq = [[\\\'_setAccount\\\', \\\'UA-XXXXX-X\\\'], [\\\'_trackPageview\\\']];\\n\\t     (function(d, t) {\\n\\t     var g = d.createElement(t),\\n\\t     s = d.getElementsByTagName(t)[0];\\n\\t     g.async = true;\\n\\t     g.src = \\\'//www.google-analytics.com/ga.js\\\';\\n\\t     s.parentNode.insertBefore(g, s);\\n\\t     })(document, \\\'script\\\');\\n\\t   </script>\\n\\t   -->    \\n  </body>\\n</html>\\n\', escape=False)'
p6
sS'snapshot'
p7
(dp8
S'exception'
p9
(dp10
S'__hash__'
p11
S"<method-wrapper '__hash__' of exceptions.KeyError object at 0x06BBE148>"
p12
sS'__setattr__'
p13
S"<method-wrapper '__setattr__' of exceptions.KeyError object at 0x06BBE148>"
p14
sS'__reduce_ex__'
p15
S'<built-in method __reduce_ex__ of exceptions.KeyError object at 0x06BBE148>'
p16
sS'__getslice__'
p17
S"<method-wrapper '__getslice__' of exceptions.KeyError object at 0x06BBE148>"
p18
sS'__getitem__'
p19
S"<method-wrapper '__getitem__' of exceptions.KeyError object at 0x06BBE148>"
p20
sS'__setstate__'
p21
S'<built-in method __setstate__ of exceptions.KeyError object at 0x06BBE148>'
p22
sS'__reduce__'
p23
S'<built-in method __reduce__ of exceptions.KeyError object at 0x06BBE148>'
p24
sS'__str__'
p25
S"<method-wrapper '__str__' of exceptions.KeyError object at 0x06BBE148>"
p26
sS'args'
p27
S"('id',)"
p28
sS'__getattribute__'
p29
S"<method-wrapper '__getattribute__' of exceptions.KeyError object at 0x06BBE148>"
p30
sS'__class__'
p31
S"<type 'exceptions.KeyError'>"
p32
sS'__delattr__'
p33
S"<method-wrapper '__delattr__' of exceptions.KeyError object at 0x06BBE148>"
p34
sS'__repr__'
p35
S"<method-wrapper '__repr__' of exceptions.KeyError object at 0x06BBE148>"
p36
sS'__dict__'
p37
S'{}'
p38
sS'__doc__'
p39
S"'Mapping key not found.'"
p40
sS'__init__'
p41
S"<method-wrapper '__init__' of exceptions.KeyError object at 0x06BBE148>"
p42
sS'__new__'
p43
S'<built-in method __new__ of type object at 0x1E1CDFB8>'
p44
ssS'evalue'
p45
S"'id'"
p46
sS'request'
p47
ccopy_reg
_reconstructor
p48
(cgluon.html
BEAUTIFY
p49
c__builtin__
object
p50
NtRp51
(dp52
S'attributes'
p53
(dp54
sS'components'
p55
(lp56
g48
(cgluon.html
TABLE
p57
g50
NtRp58
(dp59
g53
(dp60
S'level'
p61
I5
ssS'parent'
p62
Nsg55
(lp63
g48
(cgluon.html
TR
p64
g50
NtRp65
(dp66
g53
(dp67
sg62
g58
sg55
(lp68
g48
(cgluon.html
TD
p69
g50
NtRp70
(dp71
g53
(dp72
S'_style'
p73
S'font-weight:bold;'
p74
ssg62
g65
sg55
(lp75
S'ajax'
p76
asbag48
(g69
g50
NtRp77
(dp78
g53
(dp79
S'_valign'
p80
S'top'
p81
ssg62
g65
sg55
(lp82
S':'
asbag48
(g69
g50
NtRp83
(dp84
g53
(dp85
sg62
g65
sg55
(lp86
g48
(g49
g50
NtRp87
(dp88
g53
(dp89
g61
I5
ssg62
g83
sg55
(lp90
S'False'
p91
asbasbasbag48
(g64
g50
NtRp92
(dp93
g53
(dp94
sg62
g58
sg55
(lp95
g48
(g69
g50
NtRp96
(dp97
g53
(dp98
g73
g74
ssg62
g92
sg55
(lp99
S'application'
p100
asbag48
(g69
g50
NtRp101
(dp102
g53
(dp103
g80
g81
ssg62
g92
sg55
(lp104
S':'
asbag48
(g69
g50
NtRp105
(dp106
g53
(dp107
sg62
g92
sg55
(lp108
g48
(g49
g50
NtRp109
(dp110
g53
(dp111
g61
I5
ssg62
g105
sg55
(lp112
S'201056161'
p113
asbasbasbag48
(g64
g50
NtRp114
(dp115
g53
(dp116
sg62
g58
sg55
(lp117
g48
(g69
g50
NtRp118
(dp119
g53
(dp120
g73
g74
ssg62
g114
sg55
(lp121
g27
asbag48
(g69
g50
NtRp122
(dp123
g53
(dp124
g80
g81
ssg62
g114
sg55
(lp125
S':'
asbag48
(g69
g50
NtRp126
(dp127
g53
(dp128
sg62
g114
sg55
(lp129
g48
(g49
g50
NtRp130
(dp131
g53
(dp132
g61
I5
ssg62
g126
sg55
(lp133
g48
(g57
g50
NtRp134
(dp135
g53
(dp136
g61
I4
ssg62
Nsg55
(lp137
sbasbasbasbag48
(g64
g50
NtRp138
(dp139
g53
(dp140
sg62
g58
sg55
(lp141
g48
(g69
g50
NtRp142
(dp143
g53
(dp144
g73
g74
ssg62
g138
sg55
(lp145
S'body'
p146
asbag48
(g69
g50
NtRp147
(dp148
g53
(dp149
g80
g81
ssg62
g138
sg55
(lp150
S':'
asbag48
(g69
g50
NtRp151
(dp152
g53
(dp153
sg62
g138
sg55
(lp154
g48
(g49
g50
NtRp155
(dp156
g53
(dp157
g61
I5
ssg62
g151
sg55
(lp158
S'<cStringIO.StringO object at 0x06B7C940>'
p159
asbasbasbag48
(g64
g50
NtRp160
(dp161
g53
(dp162
sg62
g58
sg55
(lp163
g48
(g69
g50
NtRp164
(dp165
g53
(dp166
g73
g74
ssg62
g160
sg55
(lp167
S'client'
p168
asbag48
(g69
g50
NtRp169
(dp170
g53
(dp171
g80
g81
ssg62
g160
sg55
(lp172
S':'
asbag48
(g69
g50
NtRp173
(dp174
g53
(dp175
sg62
g160
sg55
(lp176
g48
(g49
g50
NtRp177
(dp178
g53
(dp179
g61
I5
ssg62
g173
sg55
(lp180
S'127.0.0.1'
p181
asbasbasbag48
(g64
g50
NtRp182
(dp183
g53
(dp184
sg62
g58
sg55
(lp185
g48
(g69
g50
NtRp186
(dp187
g53
(dp188
g73
g74
ssg62
g182
sg55
(lp189
S'controller'
p190
asbag48
(g69
g50
NtRp191
(dp192
g53
(dp193
g80
g81
ssg62
g182
sg55
(lp194
S':'
asbag48
(g69
g50
NtRp195
(dp196
g53
(dp197
sg62
g182
sg55
(lp198
g48
(g49
g50
NtRp199
(dp200
g53
(dp201
g61
I5
ssg62
g195
sg55
(lp202
S'default'
p203
asbasbasbag48
(g64
g50
NtRp204
(dp205
g53
(dp206
sg62
g58
sg55
(lp207
g48
(g69
g50
NtRp208
(dp209
g53
(dp210
g73
g74
ssg62
g204
sg55
(lp211
S'cookies'
p212
asbag48
(g69
g50
NtRp213
(dp214
g53
(dp215
g80
g81
ssg62
g204
sg55
(lp216
S':'
asbag48
(g69
g50
NtRp217
(dp218
g53
(dp219
sg62
g204
sg55
(lp220
g48
(g49
g50
NtRp221
(dp222
g53
(dp223
g61
I5
ssg62
g217
sg55
(lp224
g48
(g57
g50
NtRp225
(dp226
g53
(dp227
g61
I4
ssg62
Nsg55
(lp228
g48
(g64
g50
NtRp229
(dp230
g53
(dp231
sg62
g225
sg55
(lp232
g48
(g69
g50
NtRp233
(dp234
g53
(dp235
g73
g74
ssg62
g229
sg55
(lp236
S'session_id_201056161'
p237
asbag48
(g69
g50
NtRp238
(dp239
g53
(dp240
g80
g81
ssg62
g229
sg55
(lp241
S':'
asbag48
(g69
g50
NtRp242
(dp243
g53
(dp244
sg62
g229
sg55
(lp245
g48
(g49
g50
NtRp246
(dp247
g53
(dp248
g61
I4
ssg62
g242
sg55
(lp249
g48
(g57
g50
NtRp250
(dp251
g53
(dp252
g61
I3
ssg62
Nsg55
(lp253
g48
(g64
g50
NtRp254
(dp255
g53
(dp256
sg62
g250
sg55
(lp257
g48
(g69
g50
NtRp258
(dp259
g53
(dp260
g73
g74
ssg62
g254
sg55
(lp261
S'comment'
p262
asbag48
(g69
g50
NtRp263
(dp264
g53
(dp265
g80
g81
ssg62
g254
sg55
(lp266
S':'
asbag48
(g69
g50
NtRp267
(dp268
g53
(dp269
sg62
g254
sg55
(lp270
g48
(g49
g50
NtRp271
(dp272
g53
(dp273
g61
I3
ssg62
g267
sg55
(lp274
S''
asbasbasbag48
(g64
g50
NtRp275
(dp276
g53
(dp277
sg62
g250
sg55
(lp278
g48
(g69
g50
NtRp279
(dp280
g53
(dp281
g73
g74
ssg62
g275
sg55
(lp282
S'domain'
p283
asbag48
(g69
g50
NtRp284
(dp285
g53
(dp286
g80
g81
ssg62
g275
sg55
(lp287
S':'
asbag48
(g69
g50
NtRp288
(dp289
g53
(dp290
sg62
g275
sg55
(lp291
g48
(g49
g50
NtRp292
(dp293
g53
(dp294
g61
I3
ssg62
g288
sg55
(lp295
S''
asbasbasbag48
(g64
g50
NtRp296
(dp297
g53
(dp298
sg62
g250
sg55
(lp299
g48
(g69
g50
NtRp300
(dp301
g53
(dp302
g73
g74
ssg62
g296
sg55
(lp303
S'expires'
p304
asbag48
(g69
g50
NtRp305
(dp306
g53
(dp307
g80
g81
ssg62
g296
sg55
(lp308
S':'
asbag48
(g69
g50
NtRp309
(dp310
g53
(dp311
sg62
g296
sg55
(lp312
g48
(g49
g50
NtRp313
(dp314
g53
(dp315
g61
I3
ssg62
g309
sg55
(lp316
S''
asbasbasbag48
(g64
g50
NtRp317
(dp318
g53
(dp319
sg62
g250
sg55
(lp320
g48
(g69
g50
NtRp321
(dp322
g53
(dp323
g73
g74
ssg62
g317
sg55
(lp324
S'max-age'
p325
asbag48
(g69
g50
NtRp326
(dp327
g53
(dp328
g80
g81
ssg62
g317
sg55
(lp329
S':'
asbag48
(g69
g50
NtRp330
(dp331
g53
(dp332
sg62
g317
sg55
(lp333
g48
(g49
g50
NtRp334
(dp335
g53
(dp336
g61
I3
ssg62
g330
sg55
(lp337
S''
asbasbasbag48
(g64
g50
NtRp338
(dp339
g53
(dp340
sg62
g250
sg55
(lp341
g48
(g69
g50
NtRp342
(dp343
g53
(dp344
g73
g74
ssg62
g338
sg55
(lp345
S'path'
p346
asbag48
(g69
g50
NtRp347
(dp348
g53
(dp349
g80
g81
ssg62
g338
sg55
(lp350
S':'
asbag48
(g69
g50
NtRp351
(dp352
g53
(dp353
sg62
g338
sg55
(lp354
g48
(g49
g50
NtRp355
(dp356
g53
(dp357
g61
I3
ssg62
g351
sg55
(lp358
S''
asbasbasbag48
(g64
g50
NtRp359
(dp360
g53
(dp361
sg62
g250
sg55
(lp362
g48
(g69
g50
NtRp363
(dp364
g53
(dp365
g73
g74
ssg62
g359
sg55
(lp366
S'secure'
p367
asbag48
(g69
g50
NtRp368
(dp369
g53
(dp370
g80
g81
ssg62
g359
sg55
(lp371
S':'
asbag48
(g69
g50
NtRp372
(dp373
g53
(dp374
sg62
g359
sg55
(lp375
g48
(g49
g50
NtRp376
(dp377
g53
(dp378
g61
I3
ssg62
g372
sg55
(lp379
S''
asbasbasbag48
(g64
g50
NtRp380
(dp381
g53
(dp382
sg62
g250
sg55
(lp383
g48
(g69
g50
NtRp384
(dp385
g53
(dp386
g73
g74
ssg62
g380
sg55
(lp387
S'version'
p388
asbag48
(g69
g50
NtRp389
(dp390
g53
(dp391
g80
g81
ssg62
g380
sg55
(lp392
S':'
asbag48
(g69
g50
NtRp393
(dp394
g53
(dp395
sg62
g380
sg55
(lp396
g48
(g49
g50
NtRp397
(dp398
g53
(dp399
g61
I3
ssg62
g393
sg55
(lp400
S''
asbasbasbasbasbasbasbag48
(g64
g50
NtRp401
(dp402
g53
(dp403
sg62
g225
sg55
(lp404
g48
(g69
g50
NtRp405
(dp406
g53
(dp407
g73
g74
ssg62
g401
sg55
(lp408
S'session_id_admin'
p409
asbag48
(g69
g50
NtRp410
(dp411
g53
(dp412
g80
g81
ssg62
g401
sg55
(lp413
S':'
asbag48
(g69
g50
NtRp414
(dp415
g53
(dp416
sg62
g401
sg55
(lp417
g48
(g49
g50
NtRp418
(dp419
g53
(dp420
g61
I4
ssg62
g414
sg55
(lp421
g48
(g57
g50
NtRp422
(dp423
g53
(dp424
g61
I3
ssg62
Nsg55
(lp425
g48
(g64
g50
NtRp426
(dp427
g53
(dp428
sg62
g422
sg55
(lp429
g48
(g69
g50
NtRp430
(dp431
g53
(dp432
g73
g74
ssg62
g426
sg55
(lp433
g262
asbag48
(g69
g50
NtRp434
(dp435
g53
(dp436
g80
g81
ssg62
g426
sg55
(lp437
S':'
asbag48
(g69
g50
NtRp438
(dp439
g53
(dp440
sg62
g426
sg55
(lp441
g48
(g49
g50
NtRp442
(dp443
g53
(dp444
g61
I3
ssg62
g438
sg55
(lp445
S''
asbasbasbag48
(g64
g50
NtRp446
(dp447
g53
(dp448
sg62
g422
sg55
(lp449
g48
(g69
g50
NtRp450
(dp451
g53
(dp452
g73
g74
ssg62
g446
sg55
(lp453
g283
asbag48
(g69
g50
NtRp454
(dp455
g53
(dp456
g80
g81
ssg62
g446
sg55
(lp457
S':'
asbag48
(g69
g50
NtRp458
(dp459
g53
(dp460
sg62
g446
sg55
(lp461
g48
(g49
g50
NtRp462
(dp463
g53
(dp464
g61
I3
ssg62
g458
sg55
(lp465
S''
asbasbasbag48
(g64
g50
NtRp466
(dp467
g53
(dp468
sg62
g422
sg55
(lp469
g48
(g69
g50
NtRp470
(dp471
g53
(dp472
g73
g74
ssg62
g466
sg55
(lp473
g304
asbag48
(g69
g50
NtRp474
(dp475
g53
(dp476
g80
g81
ssg62
g466
sg55
(lp477
S':'
asbag48
(g69
g50
NtRp478
(dp479
g53
(dp480
sg62
g466
sg55
(lp481
g48
(g49
g50
NtRp482
(dp483
g53
(dp484
g61
I3
ssg62
g478
sg55
(lp485
S''
asbasbasbag48
(g64
g50
NtRp486
(dp487
g53
(dp488
sg62
g422
sg55
(lp489
g48
(g69
g50
NtRp490
(dp491
g53
(dp492
g73
g74
ssg62
g486
sg55
(lp493
g325
asbag48
(g69
g50
NtRp494
(dp495
g53
(dp496
g80
g81
ssg62
g486
sg55
(lp497
S':'
asbag48
(g69
g50
NtRp498
(dp499
g53
(dp500
sg62
g486
sg55
(lp501
g48
(g49
g50
NtRp502
(dp503
g53
(dp504
g61
I3
ssg62
g498
sg55
(lp505
S''
asbasbasbag48
(g64
g50
NtRp506
(dp507
g53
(dp508
sg62
g422
sg55
(lp509
g48
(g69
g50
NtRp510
(dp511
g53
(dp512
g73
g74
ssg62
g506
sg55
(lp513
g346
asbag48
(g69
g50
NtRp514
(dp515
g53
(dp516
g80
g81
ssg62
g506
sg55
(lp517
S':'
asbag48
(g69
g50
NtRp518
(dp519
g53
(dp520
sg62
g506
sg55
(lp521
g48
(g49
g50
NtRp522
(dp523
g53
(dp524
g61
I3
ssg62
g518
sg55
(lp525
S''
asbasbasbag48
(g64
g50
NtRp526
(dp527
g53
(dp528
sg62
g422
sg55
(lp529
g48
(g69
g50
NtRp530
(dp531
g53
(dp532
g73
g74
ssg62
g526
sg55
(lp533
g367
asbag48
(g69
g50
NtRp534
(dp535
g53
(dp536
g80
g81
ssg62
g526
sg55
(lp537
S':'
asbag48
(g69
g50
NtRp538
(dp539
g53
(dp540
sg62
g526
sg55
(lp541
g48
(g49
g50
NtRp542
(dp543
g53
(dp544
g61
I3
ssg62
g538
sg55
(lp545
S''
asbasbasbag48
(g64
g50
NtRp546
(dp547
g53
(dp548
sg62
g422
sg55
(lp549
g48
(g69
g50
NtRp550
(dp551
g53
(dp552
g73
g74
ssg62
g546
sg55
(lp553
g388
asbag48
(g69
g50
NtRp554
(dp555
g53
(dp556
g80
g81
ssg62
g546
sg55
(lp557
S':'
asbag48
(g69
g50
NtRp558
(dp559
g53
(dp560
sg62
g546
sg55
(lp561
g48
(g49
g50
NtRp562
(dp563
g53
(dp564
g61
I3
ssg62
g558
sg55
(lp565
S''
asbasbasbasbasbasbasbag48
(g64
g50
NtRp566
(dp567
g53
(dp568
sg62
g225
sg55
(lp569
g48
(g69
g50
NtRp570
(dp571
g53
(dp572
g73
g74
ssg62
g566
sg55
(lp573
S'session_id_welcome'
p574
asbag48
(g69
g50
NtRp575
(dp576
g53
(dp577
g80
g81
ssg62
g566
sg55
(lp578
S':'
asbag48
(g69
g50
NtRp579
(dp580
g53
(dp581
sg62
g566
sg55
(lp582
g48
(g49
g50
NtRp583
(dp584
g53
(dp585
g61
I4
ssg62
g579
sg55
(lp586
g48
(g57
g50
NtRp587
(dp588
g53
(dp589
g61
I3
ssg62
Nsg55
(lp590
g48
(g64
g50
NtRp591
(dp592
g53
(dp593
sg62
g587
sg55
(lp594
g48
(g69
g50
NtRp595
(dp596
g53
(dp597
g73
g74
ssg62
g591
sg55
(lp598
g262
asbag48
(g69
g50
NtRp599
(dp600
g53
(dp601
g80
g81
ssg62
g591
sg55
(lp602
S':'
asbag48
(g69
g50
NtRp603
(dp604
g53
(dp605
sg62
g591
sg55
(lp606
g48
(g49
g50
NtRp607
(dp608
g53
(dp609
g61
I3
ssg62
g603
sg55
(lp610
S''
asbasbasbag48
(g64
g50
NtRp611
(dp612
g53
(dp613
sg62
g587
sg55
(lp614
g48
(g69
g50
NtRp615
(dp616
g53
(dp617
g73
g74
ssg62
g611
sg55
(lp618
g283
asbag48
(g69
g50
NtRp619
(dp620
g53
(dp621
g80
g81
ssg62
g611
sg55
(lp622
S':'
asbag48
(g69
g50
NtRp623
(dp624
g53
(dp625
sg62
g611
sg55
(lp626
g48
(g49
g50
NtRp627
(dp628
g53
(dp629
g61
I3
ssg62
g623
sg55
(lp630
S''
asbasbasbag48
(g64
g50
NtRp631
(dp632
g53
(dp633
sg62
g587
sg55
(lp634
g48
(g69
g50
NtRp635
(dp636
g53
(dp637
g73
g74
ssg62
g631
sg55
(lp638
g304
asbag48
(g69
g50
NtRp639
(dp640
g53
(dp641
g80
g81
ssg62
g631
sg55
(lp642
S':'
asbag48
(g69
g50
NtRp643
(dp644
g53
(dp645
sg62
g631
sg55
(lp646
g48
(g49
g50
NtRp647
(dp648
g53
(dp649
g61
I3
ssg62
g643
sg55
(lp650
S''
asbasbasbag48
(g64
g50
NtRp651
(dp652
g53
(dp653
sg62
g587
sg55
(lp654
g48
(g69
g50
NtRp655
(dp656
g53
(dp657
g73
g74
ssg62
g651
sg55
(lp658
g325
asbag48
(g69
g50
NtRp659
(dp660
g53
(dp661
g80
g81
ssg62
g651
sg55
(lp662
S':'
asbag48
(g69
g50
NtRp663
(dp664
g53
(dp665
sg62
g651
sg55
(lp666
g48
(g49
g50
NtRp667
(dp668
g53
(dp669
g61
I3
ssg62
g663
sg55
(lp670
S''
asbasbasbag48
(g64
g50
NtRp671
(dp672
g53
(dp673
sg62
g587
sg55
(lp674
g48
(g69
g50
NtRp675
(dp676
g53
(dp677
g73
g74
ssg62
g671
sg55
(lp678
g346
asbag48
(g69
g50
NtRp679
(dp680
g53
(dp681
g80
g81
ssg62
g671
sg55
(lp682
S':'
asbag48
(g69
g50
NtRp683
(dp684
g53
(dp685
sg62
g671
sg55
(lp686
g48
(g49
g50
NtRp687
(dp688
g53
(dp689
g61
I3
ssg62
g683
sg55
(lp690
S''
asbasbasbag48
(g64
g50
NtRp691
(dp692
g53
(dp693
sg62
g587
sg55
(lp694
g48
(g69
g50
NtRp695
(dp696
g53
(dp697
g73
g74
ssg62
g691
sg55
(lp698
g367
asbag48
(g69
g50
NtRp699
(dp700
g53
(dp701
g80
g81
ssg62
g691
sg55
(lp702
S':'
asbag48
(g69
g50
NtRp703
(dp704
g53
(dp705
sg62
g691
sg55
(lp706
g48
(g49
g50
NtRp707
(dp708
g53
(dp709
g61
I3
ssg62
g703
sg55
(lp710
S''
asbasbasbag48
(g64
g50
NtRp711
(dp712
g53
(dp713
sg62
g587
sg55
(lp714
g48
(g69
g50
NtRp715
(dp716
g53
(dp717
g73
g74
ssg62
g711
sg55
(lp718
g388
asbag48
(g69
g50
NtRp719
(dp720
g53
(dp721
g80
g81
ssg62
g711
sg55
(lp722
S':'
asbag48
(g69
g50
NtRp723
(dp724
g53
(dp725
sg62
g711
sg55
(lp726
g48
(g49
g50
NtRp727
(dp728
g53
(dp729
g61
I3
ssg62
g723
sg55
(lp730
S''
asbasbasbasbasbasbasbasbasbasbasbag48
(g64
g50
NtRp731
(dp732
g53
(dp733
sg62
g58
sg55
(lp734
g48
(g69
g50
NtRp735
(dp736
g53
(dp737
g73
g74
ssg62
g731
sg55
(lp738
S'env'
p739
asbag48
(g69
g50
NtRp740
(dp741
g53
(dp742
g80
g81
ssg62
g731
sg55
(lp743
S':'
asbag48
(g69
g50
NtRp744
(dp745
g53
(dp746
sg62
g731
sg55
(lp747
g48
(g49
g50
NtRp748
(dp749
g53
(dp750
g61
I5
ssg62
g744
sg55
(lp751
g48
(g57
g50
NtRp752
(dp753
g53
(dp754
g61
I4
ssg62
Nsg55
(lp755
g48
(g64
g50
NtRp756
(dp757
g53
(dp758
sg62
g752
sg55
(lp759
g48
(g69
g50
NtRp760
(dp761
g53
(dp762
g73
g74
ssg62
g756
sg55
(lp763
S'app_folders'
p764
asbag48
(g69
g50
NtRp765
(dp766
g53
(dp767
g80
g81
ssg62
g756
sg55
(lp768
S':'
asbag48
(g69
g50
NtRp769
(dp770
g53
(dp771
sg62
g756
sg55
(lp772
g48
(g49
g50
NtRp773
(dp774
g53
(dp775
g61
I4
ssg62
g769
sg55
(lp776
S"set(['C:\\\\Users\\\\AKSHAY\\\\Desktop\\\\web2py\\\\applications\\\\welcome\\\\', 'C:\\\\Users\\\\AKSHAY\\\\Desktop\\\\web2py\\\\applications\\\\201056161\\\\', 'C:\\\\Users\\\\AKSHAY\\\\Desktop\\\\web2py\\\\applications\\\\examples\\\\', 'C:\\\\Users\\\\AKSHAY\\\\Desktop\\\\web2py\\\\applications\\\\admin\\\\', 'C:\\\\Users\\\\AKSHAY\\\\Desktop\\\\web2py\\\\applications\\\\MusicRepo\\\\'])"
p777
asbasbasbag48
(g64
g50
NtRp778
(dp779
g53
(dp780
sg62
g752
sg55
(lp781
g48
(g69
g50
NtRp782
(dp783
g53
(dp784
g73
g74
ssg62
g778
sg55
(lp785
S'applications_parent'
p786
asbag48
(g69
g50
NtRp787
(dp788
g53
(dp789
g80
g81
ssg62
g778
sg55
(lp790
S':'
asbag48
(g69
g50
NtRp791
(dp792
g53
(dp793
sg62
g778
sg55
(lp794
g48
(g49
g50
NtRp795
(dp796
g53
(dp797
g61
I4
ssg62
g791
sg55
(lp798
S'C:\\Users\\AKSHAY\\Desktop\\web2py'
p799
asbasbasbag48
(g64
g50
NtRp800
(dp801
g53
(dp802
sg62
g752
sg55
(lp803
g48
(g69
g50
NtRp804
(dp805
g53
(dp806
g73
g74
ssg62
g800
sg55
(lp807
S'cmd_args'
p808
asbag48
(g69
g50
NtRp809
(dp810
g53
(dp811
g80
g81
ssg62
g800
sg55
(lp812
S':'
asbag48
(g69
g50
NtRp813
(dp814
g53
(dp815
sg62
g800
sg55
(lp816
g48
(g49
g50
NtRp817
(dp818
g53
(dp819
g61
I4
ssg62
g813
sg55
(lp820
g48
(g57
g50
NtRp821
(dp822
g53
(dp823
g61
I3
ssg62
Nsg55
(lp824
sbasbasbasbag48
(g64
g50
NtRp825
(dp826
g53
(dp827
sg62
g752
sg55
(lp828
g48
(g69
g50
NtRp829
(dp830
g53
(dp831
g73
g74
ssg62
g825
sg55
(lp832
S'cmd_options'
p833
asbag48
(g69
g50
NtRp834
(dp835
g53
(dp836
g80
g81
ssg62
g825
sg55
(lp837
S':'
asbag48
(g69
g50
NtRp838
(dp839
g53
(dp840
sg62
g825
sg55
(lp841
g48
(g49
g50
NtRp842
(dp843
g53
(dp844
g61
I4
ssg62
g838
sg55
(lp845
S"<Values at 0x317dfd0: {'verbose': False, 'ip': '127.0.0.1', 'shutdown_timeout': 5, 'taskbar': False, 'port': 8000, 'maxthreads': None, 'softcron': False, 'server_name': 'AKSHAY-PC', 'bpython': False, 'nogui': False, 'nocron': False, 'extcron': False, 'debuglevel': 30, 'test': None, 'folder': 'C:\\\\Users\\\\AKSHAY\\\\Desktop\\\\web2py', 'config': '', 'import_models': False, 'winservice': '', 'shell': None, 'run': '', 'log_filename': 'httpserver.log', 'args': [''], 'profiler_filename': None, 'ssl_private_key': '', 'password': '<ask>', 'request_queue_size': 5, 'ssl_certificate': '', 'cronjob': False, 'plain': False, 'quiet': False, 'interfaces': None, 'minthreads': None, 'timeout': 10, 'numthreads': None, 'nobanner': False, 'pid_filename': 'httpserver.pid'}>"
p846
asbasbasbag48
(g64
g50
NtRp847
(dp848
g53
(dp849
sg62
g752
sg55
(lp850
g48
(g69
g50
NtRp851
(dp852
g53
(dp853
g73
g74
ssg62
g847
sg55
(lp854
S'db_sessions'
p855
asbag48
(g69
g50
NtRp856
(dp857
g53
(dp858
g80
g81
ssg62
g847
sg55
(lp859
S':'
asbag48
(g69
g50
NtRp860
(dp861
g53
(dp862
sg62
g847
sg55
(lp863
g48
(g49
g50
NtRp864
(dp865
g53
(dp866
g61
I4
ssg62
g860
sg55
(lp867
S'set([])'
p868
asbasbasbag48
(g64
g50
NtRp869
(dp870
g53
(dp871
sg62
g752
sg55
(lp872
g48
(g69
g50
NtRp873
(dp874
g53
(dp875
g73
g74
ssg62
g869
sg55
(lp876
S'debugging'
p877
asbag48
(g69
g50
NtRp878
(dp879
g53
(dp880
g80
g81
ssg62
g869
sg55
(lp881
S':'
asbag48
(g69
g50
NtRp882
(dp883
g53
(dp884
sg62
g869
sg55
(lp885
g48
(g49
g50
NtRp886
(dp887
g53
(dp888
g61
I4
ssg62
g882
sg55
(lp889
g91
asbasbasbag48
(g64
g50
NtRp890
(dp891
g53
(dp892
sg62
g752
sg55
(lp893
g48
(g69
g50
NtRp894
(dp895
g53
(dp896
g73
g74
ssg62
g890
sg55
(lp897
S'gluon_parent'
p898
asbag48
(g69
g50
NtRp899
(dp900
g53
(dp901
g80
g81
ssg62
g890
sg55
(lp902
S':'
asbag48
(g69
g50
NtRp903
(dp904
g53
(dp905
sg62
g890
sg55
(lp906
g48
(g49
g50
NtRp907
(dp908
g53
(dp909
g61
I4
ssg62
g903
sg55
(lp910
S'C:\\Users\\AKSHAY\\Desktop\\web2py'
p911
asbasbasbag48
(g64
g50
NtRp912
(dp913
g53
(dp914
sg62
g752
sg55
(lp915
g48
(g69
g50
NtRp916
(dp917
g53
(dp918
g73
g74
ssg62
g912
sg55
(lp919
S'http_accept'
p920
asbag48
(g69
g50
NtRp921
(dp922
g53
(dp923
g80
g81
ssg62
g912
sg55
(lp924
S':'
asbag48
(g69
g50
NtRp925
(dp926
g53
(dp927
sg62
g912
sg55
(lp928
g48
(g49
g50
NtRp929
(dp930
g53
(dp931
g61
I4
ssg62
g925
sg55
(lp932
S'text/html,application/xhtml+xml,application/xml;q=0.9,*/*;q=0.8'
p933
asbasbasbag48
(g64
g50
NtRp934
(dp935
g53
(dp936
sg62
g752
sg55
(lp937
g48
(g69
g50
NtRp938
(dp939
g53
(dp940
g73
g74
ssg62
g934
sg55
(lp941
S'http_accept_charset'
p942
asbag48
(g69
g50
NtRp943
(dp944
g53
(dp945
g80
g81
ssg62
g934
sg55
(lp946
S':'
asbag48
(g69
g50
NtRp947
(dp948
g53
(dp949
sg62
g934
sg55
(lp950
g48
(g49
g50
NtRp951
(dp952
g53
(dp953
g61
I4
ssg62
g947
sg55
(lp954
S'ISO-8859-1,utf-8;q=0.7,*;q=0.3'
p955
asbasbasbag48
(g64
g50
NtRp956
(dp957
g53
(dp958
sg62
g752
sg55
(lp959
g48
(g69
g50
NtRp960
(dp961
g53
(dp962
g73
g74
ssg62
g956
sg55
(lp963
S'http_accept_encoding'
p964
asbag48
(g69
g50
NtRp965
(dp966
g53
(dp967
g80
g81
ssg62
g956
sg55
(lp968
S':'
asbag48
(g69
g50
NtRp969
(dp970
g53
(dp971
sg62
g956
sg55
(lp972
g48
(g49
g50
NtRp973
(dp974
g53
(dp975
g61
I4
ssg62
g969
sg55
(lp976
S'gzip,deflate,sdch'
p977
asbasbasbag48
(g64
g50
NtRp978
(dp979
g53
(dp980
sg62
g752
sg55
(lp981
g48
(g69
g50
NtRp982
(dp983
g53
(dp984
g73
g74
ssg62
g978
sg55
(lp985
S'http_accept_language'
p986
asbag48
(g69
g50
NtRp987
(dp988
g53
(dp989
g80
g81
ssg62
g978
sg55
(lp990
S':'
asbag48
(g69
g50
NtRp991
(dp992
g53
(dp993
sg62
g978
sg55
(lp994
g48
(g49
g50
NtRp995
(dp996
g53
(dp997
g61
I4
ssg62
g991
sg55
(lp998
S'en-US,en;q=0.8'
p999
asbasbasbag48
(g64
g50
NtRp1000
(dp1001
g53
(dp1002
sg62
g752
sg55
(lp1003
g48
(g69
g50
NtRp1004
(dp1005
g53
(dp1006
g73
g74
ssg62
g1000
sg55
(lp1007
S'http_cache_control'
p1008
asbag48
(g69
g50
NtRp1009
(dp1010
g53
(dp1011
g80
g81
ssg62
g1000
sg55
(lp1012
S':'
asbag48
(g69
g50
NtRp1013
(dp1014
g53
(dp1015
sg62
g1000
sg55
(lp1016
g48
(g49
g50
NtRp1017
(dp1018
g53
(dp1019
g61
I4
ssg62
g1013
sg55
(lp1020
S'max-age=0'
p1021
asbasbasbag48
(g64
g50
NtRp1022
(dp1023
g53
(dp1024
sg62
g752
sg55
(lp1025
g48
(g69
g50
NtRp1026
(dp1027
g53
(dp1028
g73
g74
ssg62
g1022
sg55
(lp1029
S'http_connection'
p1030
asbag48
(g69
g50
NtRp1031
(dp1032
g53
(dp1033
g80
g81
ssg62
g1022
sg55
(lp1034
S':'
asbag48
(g69
g50
NtRp1035
(dp1036
g53
(dp1037
sg62
g1022
sg55
(lp1038
g48
(g49
g50
NtRp1039
(dp1040
g53
(dp1041
g61
I4
ssg62
g1035
sg55
(lp1042
S'keep-alive'
p1043
asbasbasbag48
(g64
g50
NtRp1044
(dp1045
g53
(dp1046
sg62
g752
sg55
(lp1047
g48
(g69
g50
NtRp1048
(dp1049
g53
(dp1050
g73
g74
ssg62
g1044
sg55
(lp1051
S'http_cookie'
p1052
asbag48
(g69
g50
NtRp1053
(dp1054
g53
(dp1055
g80
g81
ssg62
g1044
sg55
(lp1056
S':'
asbag48
(g69
g50
NtRp1057
(dp1058
g53
(dp1059
sg62
g1044
sg55
(lp1060
g48
(g49
g50
NtRp1061
(dp1062
g53
(dp1063
g61
I4
ssg62
g1057
sg55
(lp1064
S'session_id_welcome=127.0.0.1-59771078-5064-4769-bad5-36c10b98c15f; session_id_admin=127.0.0.1-0f74329a-39f0-47c2-95cf-7f42bb528a7b; session_id_201056161=127.0.0.1-3bc821ac-4d59-41c6-8699-b3e43edfc478'
p1065
asbasbasbag48
(g64
g50
NtRp1066
(dp1067
g53
(dp1068
sg62
g752
sg55
(lp1069
g48
(g69
g50
NtRp1070
(dp1071
g53
(dp1072
g73
g74
ssg62
g1066
sg55
(lp1073
S'http_host'
p1074
asbag48
(g69
g50
NtRp1075
(dp1076
g53
(dp1077
g80
g81
ssg62
g1066
sg55
(lp1078
S':'
asbag48
(g69
g50
NtRp1079
(dp1080
g53
(dp1081
sg62
g1066
sg55
(lp1082
g48
(g49
g50
NtRp1083
(dp1084
g53
(dp1085
g61
I4
ssg62
g1079
sg55
(lp1086
S'127.0.0.1:8000'
p1087
asbasbasbag48
(g64
g50
NtRp1088
(dp1089
g53
(dp1090
sg62
g752
sg55
(lp1091
g48
(g69
g50
NtRp1092
(dp1093
g53
(dp1094
g73
g74
ssg62
g1088
sg55
(lp1095
S'http_referer'
p1096
asbag48
(g69
g50
NtRp1097
(dp1098
g53
(dp1099
g80
g81
ssg62
g1088
sg55
(lp1100
S':'
asbag48
(g69
g50
NtRp1101
(dp1102
g53
(dp1103
sg62
g1088
sg55
(lp1104
g48
(g49
g50
NtRp1105
(dp1106
g53
(dp1107
g61
I4
ssg62
g1101
sg55
(lp1108
S'http://127.0.0.1:8000/201056161/default/q2f'
p1109
asbasbasbag48
(g64
g50
NtRp1110
(dp1111
g53
(dp1112
sg62
g752
sg55
(lp1113
g48
(g69
g50
NtRp1114
(dp1115
g53
(dp1116
g73
g74
ssg62
g1110
sg55
(lp1117
S'http_user_agent'
p1118
asbag48
(g69
g50
NtRp1119
(dp1120
g53
(dp1121
g80
g81
ssg62
g1110
sg55
(lp1122
S':'
asbag48
(g69
g50
NtRp1123
(dp1124
g53
(dp1125
sg62
g1110
sg55
(lp1126
g48
(g49
g50
NtRp1127
(dp1128
g53
(dp1129
g61
I4
ssg62
g1123
sg55
(lp1130
S'Mozilla/5.0 (Windows NT 6.1; WOW64) AppleWebKit/535.1 (KHTML, like Gecko) Chrome/13.0.782.218 Safari/535.1'
p1131
asbasbasbag48
(g64
g50
NtRp1132
(dp1133
g53
(dp1134
sg62
g752
sg55
(lp1135
g48
(g69
g50
NtRp1136
(dp1137
g53
(dp1138
g73
g74
ssg62
g1132
sg55
(lp1139
S'path_info'
p1140
asbag48
(g69
g50
NtRp1141
(dp1142
g53
(dp1143
g80
g81
ssg62
g1132
sg55
(lp1144
S':'
asbag48
(g69
g50
NtRp1145
(dp1146
g53
(dp1147
sg62
g1132
sg55
(lp1148
g48
(g49
g50
NtRp1149
(dp1150
g53
(dp1151
g61
I4
ssg62
g1145
sg55
(lp1152
S'/201056161/default/q2s'
p1153
asbasbasbag48
(g64
g50
NtRp1154
(dp1155
g53
(dp1156
sg62
g752
sg55
(lp1157
g48
(g69
g50
NtRp1158
(dp1159
g53
(dp1160
g73
g74
ssg62
g1154
sg55
(lp1161
S'query_string'
p1162
asbag48
(g69
g50
NtRp1163
(dp1164
g53
(dp1165
g80
g81
ssg62
g1154
sg55
(lp1166
S':'
asbag48
(g69
g50
NtRp1167
(dp1168
g53
(dp1169
sg62
g1154
sg55
(lp1170
g48
(g49
g50
NtRp1171
(dp1172
g53
(dp1173
g61
I4
ssg62
g1167
sg55
(lp1174
S'namen=9'
p1175
asbasbasbag48
(g64
g50
NtRp1176
(dp1177
g53
(dp1178
sg62
g752
sg55
(lp1179
g48
(g69
g50
NtRp1180
(dp1181
g53
(dp1182
g73
g74
ssg62
g1176
sg55
(lp1183
S'remote_addr'
p1184
asbag48
(g69
g50
NtRp1185
(dp1186
g53
(dp1187
g80
g81
ssg62
g1176
sg55
(lp1188
S':'
asbag48
(g69
g50
NtRp1189
(dp1190
g53
(dp1191
sg62
g1176
sg55
(lp1192
g48
(g49
g50
NtRp1193
(dp1194
g53
(dp1195
g61
I4
ssg62
g1189
sg55
(lp1196
g181
asbasbasbag48
(g64
g50
NtRp1197
(dp1198
g53
(dp1199
sg62
g752
sg55
(lp1200
g48
(g69
g50
NtRp1201
(dp1202
g53
(dp1203
g73
g74
ssg62
g1197
sg55
(lp1204
S'remote_port'
p1205
asbag48
(g69
g50
NtRp1206
(dp1207
g53
(dp1208
g80
g81
ssg62
g1197
sg55
(lp1209
S':'
asbag48
(g69
g50
NtRp1210
(dp1211
g53
(dp1212
sg62
g1197
sg55
(lp1213
g48
(g49
g50
NtRp1214
(dp1215
g53
(dp1216
g61
I4
ssg62
g1210
sg55
(lp1217
S'51614'
p1218
asbasbasbag48
(g64
g50
NtRp1219
(dp1220
g53
(dp1221
sg62
g752
sg55
(lp1222
g48
(g69
g50
NtRp1223
(dp1224
g53
(dp1225
g73
g74
ssg62
g1219
sg55
(lp1226
S'request_method'
p1227
asbag48
(g69
g50
NtRp1228
(dp1229
g53
(dp1230
g80
g81
ssg62
g1219
sg55
(lp1231
S':'
asbag48
(g69
g50
NtRp1232
(dp1233
g53
(dp1234
sg62
g1219
sg55
(lp1235
g48
(g49
g50
NtRp1236
(dp1237
g53
(dp1238
g61
I4
ssg62
g1232
sg55
(lp1239
S'GET'
p1240
asbasbasbag48
(g64
g50
NtRp1241
(dp1242
g53
(dp1243
sg62
g752
sg55
(lp1244
g48
(g69
g50
NtRp1245
(dp1246
g53
(dp1247
g73
g74
ssg62
g1241
sg55
(lp1248
S'script_name'
p1249
asbag48
(g69
g50
NtRp1250
(dp1251
g53
(dp1252
g80
g81
ssg62
g1241
sg55
(lp1253
S':'
asbag48
(g69
g50
NtRp1254
(dp1255
g53
(dp1256
sg62
g1241
sg55
(lp1257
g48
(g49
g50
NtRp1258
(dp1259
g53
(dp1260
g61
I4
ssg62
g1254
sg55
(lp1261
S''
asbasbasbag48
(g64
g50
NtRp1262
(dp1263
g53
(dp1264
sg62
g752
sg55
(lp1265
g48
(g69
g50
NtRp1266
(dp1267
g53
(dp1268
g73
g74
ssg62
g1262
sg55
(lp1269
S'server_name'
p1270
asbag48
(g69
g50
NtRp1271
(dp1272
g53
(dp1273
g80
g81
ssg62
g1262
sg55
(lp1274
S':'
asbag48
(g69
g50
NtRp1275
(dp1276
g53
(dp1277
sg62
g1262
sg55
(lp1278
g48
(g49
g50
NtRp1279
(dp1280
g53
(dp1281
g61
I4
ssg62
g1275
sg55
(lp1282
S'AKSHAY-PC'
p1283
asbasbasbag48
(g64
g50
NtRp1284
(dp1285
g53
(dp1286
sg62
g752
sg55
(lp1287
g48
(g69
g50
NtRp1288
(dp1289
g53
(dp1290
g73
g74
ssg62
g1284
sg55
(lp1291
S'server_port'
p1292
asbag48
(g69
g50
NtRp1293
(dp1294
g53
(dp1295
g80
g81
ssg62
g1284
sg55
(lp1296
S':'
asbag48
(g69
g50
NtRp1297
(dp1298
g53
(dp1299
sg62
g1284
sg55
(lp1300
g48
(g49
g50
NtRp1301
(dp1302
g53
(dp1303
g61
I4
ssg62
g1297
sg55
(lp1304
S'8000'
p1305
asbasbasbag48
(g64
g50
NtRp1306
(dp1307
g53
(dp1308
sg62
g752
sg55
(lp1309
g48
(g69
g50
NtRp1310
(dp1311
g53
(dp1312
g73
g74
ssg62
g1306
sg55
(lp1313
S'server_protocol'
p1314
asbag48
(g69
g50
NtRp1315
(dp1316
g53
(dp1317
g80
g81
ssg62
g1306
sg55
(lp1318
S':'
asbag48
(g69
g50
NtRp1319
(dp1320
g53
(dp1321
sg62
g1306
sg55
(lp1322
g48
(g49
g50
NtRp1323
(dp1324
g53
(dp1325
g61
I4
ssg62
g1319
sg55
(lp1326
S'HTTP/1.1'
p1327
asbasbasbag48
(g64
g50
NtRp1328
(dp1329
g53
(dp1330
sg62
g752
sg55
(lp1331
g48
(g69
g50
NtRp1332
(dp1333
g53
(dp1334
g73
g74
ssg62
g1328
sg55
(lp1335
S'server_software'
p1336
asbag48
(g69
g50
NtRp1337
(dp1338
g53
(dp1339
g80
g81
ssg62
g1328
sg55
(lp1340
S':'
asbag48
(g69
g50
NtRp1341
(dp1342
g53
(dp1343
sg62
g1328
sg55
(lp1344
g48
(g49
g50
NtRp1345
(dp1346
g53
(dp1347
g61
I4
ssg62
g1341
sg55
(lp1348
S'Rocket 1.2.2'
p1349
asbasbasbag48
(g64
g50
NtRp1350
(dp1351
g53
(dp1352
sg62
g752
sg55
(lp1353
g48
(g69
g50
NtRp1354
(dp1355
g53
(dp1356
g73
g74
ssg62
g1350
sg55
(lp1357
S'web2py_crontype'
p1358
asbag48
(g69
g50
NtRp1359
(dp1360
g53
(dp1361
g80
g81
ssg62
g1350
sg55
(lp1362
S':'
asbag48
(g69
g50
NtRp1363
(dp1364
g53
(dp1365
sg62
g1350
sg55
(lp1366
g48
(g49
g50
NtRp1367
(dp1368
g53
(dp1369
g61
I4
ssg62
g1363
sg55
(lp1370
S'hard'
p1371
asbasbasbag48
(g64
g50
NtRp1372
(dp1373
g53
(dp1374
sg62
g752
sg55
(lp1375
g48
(g69
g50
NtRp1376
(dp1377
g53
(dp1378
g73
g74
ssg62
g1372
sg55
(lp1379
S'web2py_path'
p1380
asbag48
(g69
g50
NtRp1381
(dp1382
g53
(dp1383
g80
g81
ssg62
g1372
sg55
(lp1384
S':'
asbag48
(g69
g50
NtRp1385
(dp1386
g53
(dp1387
sg62
g1372
sg55
(lp1388
g48
(g49
g50
NtRp1389
(dp1390
g53
(dp1391
g61
I4
ssg62
g1385
sg55
(lp1392
g799
asbasbasbag48
(g64
g50
NtRp1393
(dp1394
g53
(dp1395
sg62
g752
sg55
(lp1396
g48
(g69
g50
NtRp1397
(dp1398
g53
(dp1399
g73
g74
ssg62
g1393
sg55
(lp1400
S'web2py_version'
p1401
asbag48
(g69
g50
NtRp1402
(dp1403
g53
(dp1404
g80
g81
ssg62
g1393
sg55
(lp1405
S':'
asbag48
(g69
g50
NtRp1406
(dp1407
g53
(dp1408
sg62
g1393
sg55
(lp1409
g48
(g49
g50
NtRp1410
(dp1411
g53
(dp1412
g61
I4
ssg62
g1406
sg55
(lp1413
S'Version 1.97.1 (2011-06-26 19:25:44)\n'
p1414
asbasbasbag48
(g64
g50
NtRp1415
(dp1416
g53
(dp1417
sg62
g752
sg55
(lp1418
g48
(g69
g50
NtRp1419
(dp1420
g53
(dp1421
g73
g74
ssg62
g1415
sg55
(lp1422
S'wsgi_errors'
p1423
asbag48
(g69
g50
NtRp1424
(dp1425
g53
(dp1426
g80
g81
ssg62
g1415
sg55
(lp1427
S':'
asbag48
(g69
g50
NtRp1428
(dp1429
g53
(dp1430
sg62
g1415
sg55
(lp1431
g48
(g49
g50
NtRp1432
(dp1433
g53
(dp1434
g61
I4
ssg62
g1428
sg55
(lp1435
S"<open file '<stderr>', mode 'w' at 0x002500B0>"
p1436
asbasbasbag48
(g64
g50
NtRp1437
(dp1438
g53
(dp1439
sg62
g752
sg55
(lp1440
g48
(g69
g50
NtRp1441
(dp1442
g53
(dp1443
g73
g74
ssg62
g1437
sg55
(lp1444
S'wsgi_file_wrapper'
p1445
asbag48
(g69
g50
NtRp1446
(dp1447
g53
(dp1448
g80
g81
ssg62
g1437
sg55
(lp1449
S':'
asbag48
(g69
g50
NtRp1450
(dp1451
g53
(dp1452
sg62
g1437
sg55
(lp1453
g48
(g49
g50
NtRp1454
(dp1455
g53
(dp1456
g61
I4
ssg62
g1450
sg55
(lp1457
S'<class gluon.rocket.FileWrapper at 0x03132BA0>'
p1458
asbasbasbag48
(g64
g50
NtRp1459
(dp1460
g53
(dp1461
sg62
g752
sg55
(lp1462
g48
(g69
g50
NtRp1463
(dp1464
g53
(dp1465
g73
g74
ssg62
g1459
sg55
(lp1466
S'wsgi_input'
p1467
asbag48
(g69
g50
NtRp1468
(dp1469
g53
(dp1470
g80
g81
ssg62
g1459
sg55
(lp1471
S':'
asbag48
(g69
g50
NtRp1472
(dp1473
g53
(dp1474
sg62
g1459
sg55
(lp1475
g48
(g49
g50
NtRp1476
(dp1477
g53
(dp1478
g61
I4
ssg62
g1472
sg55
(lp1479
S'<socket._fileobject object at 0x07252230>'
p1480
asbasbasbag48
(g64
g50
NtRp1481
(dp1482
g53
(dp1483
sg62
g752
sg55
(lp1484
g48
(g69
g50
NtRp1485
(dp1486
g53
(dp1487
g73
g74
ssg62
g1481
sg55
(lp1488
S'wsgi_multiprocess'
p1489
asbag48
(g69
g50
NtRp1490
(dp1491
g53
(dp1492
g80
g81
ssg62
g1481
sg55
(lp1493
S':'
asbag48
(g69
g50
NtRp1494
(dp1495
g53
(dp1496
sg62
g1481
sg55
(lp1497
g48
(g49
g50
NtRp1498
(dp1499
g53
(dp1500
g61
I4
ssg62
g1494
sg55
(lp1501
g91
asbasbasbag48
(g64
g50
NtRp1502
(dp1503
g53
(dp1504
sg62
g752
sg55
(lp1505
g48
(g69
g50
NtRp1506
(dp1507
g53
(dp1508
g73
g74
ssg62
g1502
sg55
(lp1509
S'wsgi_multithread'
p1510
asbag48
(g69
g50
NtRp1511
(dp1512
g53
(dp1513
g80
g81
ssg62
g1502
sg55
(lp1514
S':'
asbag48
(g69
g50
NtRp1515
(dp1516
g53
(dp1517
sg62
g1502
sg55
(lp1518
g48
(g49
g50
NtRp1519
(dp1520
g53
(dp1521
g61
I4
ssg62
g1515
sg55
(lp1522
S'True'
p1523
asbasbasbag48
(g64
g50
NtRp1524
(dp1525
g53
(dp1526
sg62
g752
sg55
(lp1527
g48
(g69
g50
NtRp1528
(dp1529
g53
(dp1530
g73
g74
ssg62
g1524
sg55
(lp1531
S'wsgi_run_once'
p1532
asbag48
(g69
g50
NtRp1533
(dp1534
g53
(dp1535
g80
g81
ssg62
g1524
sg55
(lp1536
S':'
asbag48
(g69
g50
NtRp1537
(dp1538
g53
(dp1539
sg62
g1524
sg55
(lp1540
g48
(g49
g50
NtRp1541
(dp1542
g53
(dp1543
g61
I4
ssg62
g1537
sg55
(lp1544
g91
asbasbasbag48
(g64
g50
NtRp1545
(dp1546
g53
(dp1547
sg62
g752
sg55
(lp1548
g48
(g69
g50
NtRp1549
(dp1550
g53
(dp1551
g73
g74
ssg62
g1545
sg55
(lp1552
S'wsgi_url_scheme'
p1553
asbag48
(g69
g50
NtRp1554
(dp1555
g53
(dp1556
g80
g81
ssg62
g1545
sg55
(lp1557
S':'
asbag48
(g69
g50
NtRp1558
(dp1559
g53
(dp1560
sg62
g1545
sg55
(lp1561
g48
(g49
g50
NtRp1562
(dp1563
g53
(dp1564
g61
I4
ssg62
g1558
sg55
(lp1565
S'http'
p1566
asbasbasbag48
(g64
g50
NtRp1567
(dp1568
g53
(dp1569
sg62
g752
sg55
(lp1570
g48
(g69
g50
NtRp1571
(dp1572
g53
(dp1573
g73
g74
ssg62
g1567
sg55
(lp1574
S'wsgi_version'
p1575
asbag48
(g69
g50
NtRp1576
(dp1577
g53
(dp1578
g80
g81
ssg62
g1567
sg55
(lp1579
S':'
asbag48
(g69
g50
NtRp1580
(dp1581
g53
(dp1582
sg62
g1567
sg55
(lp1583
g48
(g49
g50
NtRp1584
(dp1585
g53
(dp1586
g61
I4
ssg62
g1580
sg55
(lp1587
g48
(g57
g50
NtRp1588
(dp1589
g53
(dp1590
g61
I3
ssg62
Nsg55
(lp1591
g48
(g64
g50
NtRp1592
(dp1593
g53
(dp1594
sg62
g1588
sg55
(lp1595
g48
(g69
g50
NtRp1596
(dp1597
g53
(dp1598
sg62
g1592
sg55
(lp1599
g48
(g49
g50
NtRp1600
(dp1601
g53
(dp1602
g61
I3
ssg62
g1596
sg55
(lp1603
S'1'
asbasbasbag48
(g64
g50
NtRp1604
(dp1605
g53
(dp1606
sg62
g1588
sg55
(lp1607
g48
(g69
g50
NtRp1608
(dp1609
g53
(dp1610
sg62
g1604
sg55
(lp1611
g48
(g49
g50
NtRp1612
(dp1613
g53
(dp1614
g61
I3
ssg62
g1608
sg55
(lp1615
S'0'
asbasbasbasbasbasbasbasbasbasbasbag48
(g64
g50
NtRp1616
(dp1617
g53
(dp1618
sg62
g58
sg55
(lp1619
g48
(g69
g50
NtRp1620
(dp1621
g53
(dp1622
g73
g74
ssg62
g1616
sg55
(lp1623
S'extension'
p1624
asbag48
(g69
g50
NtRp1625
(dp1626
g53
(dp1627
g80
g81
ssg62
g1616
sg55
(lp1628
S':'
asbag48
(g69
g50
NtRp1629
(dp1630
g53
(dp1631
sg62
g1616
sg55
(lp1632
g48
(g49
g50
NtRp1633
(dp1634
g53
(dp1635
g61
I5
ssg62
g1629
sg55
(lp1636
S'html'
p1637
asbasbasbag48
(g64
g50
NtRp1638
(dp1639
g53
(dp1640
sg62
g58
sg55
(lp1641
g48
(g69
g50
NtRp1642
(dp1643
g53
(dp1644
g73
g74
ssg62
g1638
sg55
(lp1645
S'folder'
p1646
asbag48
(g69
g50
NtRp1647
(dp1648
g53
(dp1649
g80
g81
ssg62
g1638
sg55
(lp1650
S':'
asbag48
(g69
g50
NtRp1651
(dp1652
g53
(dp1653
sg62
g1638
sg55
(lp1654
g48
(g49
g50
NtRp1655
(dp1656
g53
(dp1657
g61
I5
ssg62
g1651
sg55
(lp1658
S'C:\\Users\\AKSHAY\\Desktop\\web2py\\applications\\201056161\\'
p1659
asbasbasbag48
(g64
g50
NtRp1660
(dp1661
g53
(dp1662
sg62
g58
sg55
(lp1663
g48
(g69
g50
NtRp1664
(dp1665
g53
(dp1666
g73
g74
ssg62
g1660
sg55
(lp1667
S'function'
p1668
asbag48
(g69
g50
NtRp1669
(dp1670
g53
(dp1671
g80
g81
ssg62
g1660
sg55
(lp1672
S':'
asbag48
(g69
g50
NtRp1673
(dp1674
g53
(dp1675
sg62
g1660
sg55
(lp1676
g48
(g49
g50
NtRp1677
(dp1678
g53
(dp1679
g61
I5
ssg62
g1673
sg55
(lp1680
S'q2s'
p1681
asbasbasbag48
(g64
g50
NtRp1682
(dp1683
g53
(dp1684
sg62
g58
sg55
(lp1685
g48
(g69
g50
NtRp1686
(dp1687
g53
(dp1688
g73
g74
ssg62
g1682
sg55
(lp1689
S'get_vars'
p1690
asbag48
(g69
g50
NtRp1691
(dp1692
g53
(dp1693
g80
g81
ssg62
g1682
sg55
(lp1694
S':'
asbag48
(g69
g50
NtRp1695
(dp1696
g53
(dp1697
sg62
g1682
sg55
(lp1698
g48
(g49
g50
NtRp1699
(dp1700
g53
(dp1701
g61
I5
ssg62
g1695
sg55
(lp1702
g48
(g57
g50
NtRp1703
(dp1704
g53
(dp1705
g61
I4
ssg62
Nsg55
(lp1706
g48
(g64
g50
NtRp1707
(dp1708
g53
(dp1709
sg62
g1703
sg55
(lp1710
g48
(g69
g50
NtRp1711
(dp1712
g53
(dp1713
g73
g74
ssg62
g1707
sg55
(lp1714
S'namen'
p1715
asbag48
(g69
g50
NtRp1716
(dp1717
g53
(dp1718
g80
g81
ssg62
g1707
sg55
(lp1719
S':'
asbag48
(g69
g50
NtRp1720
(dp1721
g53
(dp1722
sg62
g1707
sg55
(lp1723
g48
(g49
g50
NtRp1724
(dp1725
g53
(dp1726
g61
I4
ssg62
g1720
sg55
(lp1727
S'9'
asbasbasbasbasbasbasbag48
(g64
g50
NtRp1728
(dp1729
g53
(dp1730
sg62
g58
sg55
(lp1731
g48
(g69
g50
NtRp1732
(dp1733
g53
(dp1734
g73
g74
ssg62
g1728
sg55
(lp1735
S'is_https'
p1736
asbag48
(g69
g50
NtRp1737
(dp1738
g53
(dp1739
g80
g81
ssg62
g1728
sg55
(lp1740
S':'
asbag48
(g69
g50
NtRp1741
(dp1742
g53
(dp1743
sg62
g1728
sg55
(lp1744
g48
(g49
g50
NtRp1745
(dp1746
g53
(dp1747
g61
I5
ssg62
g1741
sg55
(lp1748
g91
asbasbasbag48
(g64
g50
NtRp1749
(dp1750
g53
(dp1751
sg62
g58
sg55
(lp1752
g48
(g69
g50
NtRp1753
(dp1754
g53
(dp1755
g73
g74
ssg62
g1749
sg55
(lp1756
S'is_local'
p1757
asbag48
(g69
g50
NtRp1758
(dp1759
g53
(dp1760
g80
g81
ssg62
g1749
sg55
(lp1761
S':'
asbag48
(g69
g50
NtRp1762
(dp1763
g53
(dp1764
sg62
g1749
sg55
(lp1765
g48
(g49
g50
NtRp1766
(dp1767
g53
(dp1768
g61
I5
ssg62
g1762
sg55
(lp1769
g1523
asbasbasbag48
(g64
g50
NtRp1770
(dp1771
g53
(dp1772
sg62
g58
sg55
(lp1773
g48
(g69
g50
NtRp1774
(dp1775
g53
(dp1776
g73
g74
ssg62
g1770
sg55
(lp1777
S'is_restful'
p1778
asbag48
(g69
g50
NtRp1779
(dp1780
g53
(dp1781
g80
g81
ssg62
g1770
sg55
(lp1782
S':'
asbag48
(g69
g50
NtRp1783
(dp1784
g53
(dp1785
sg62
g1770
sg55
(lp1786
g48
(g49
g50
NtRp1787
(dp1788
g53
(dp1789
g61
I5
ssg62
g1783
sg55
(lp1790
g91
asbasbasbag48
(g64
g50
NtRp1791
(dp1792
g53
(dp1793
sg62
g58
sg55
(lp1794
g48
(g69
g50
NtRp1795
(dp1796
g53
(dp1797
g73
g74
ssg62
g1791
sg55
(lp1798
S'now'
p1799
asbag48
(g69
g50
NtRp1800
(dp1801
g53
(dp1802
g80
g81
ssg62
g1791
sg55
(lp1803
S':'
asbag48
(g69
g50
NtRp1804
(dp1805
g53
(dp1806
sg62
g1791
sg55
(lp1807
g48
(g49
g50
NtRp1808
(dp1809
g53
(dp1810
g61
I5
ssg62
g1804
sg55
(lp1811
S'datetime.datetime(2011, 9, 7, 3, 0, 0, 880000)'
p1812
asbasbasbag48
(g64
g50
NtRp1813
(dp1814
g53
(dp1815
sg62
g58
sg55
(lp1816
g48
(g69
g50
NtRp1817
(dp1818
g53
(dp1819
g73
g74
ssg62
g1813
sg55
(lp1820
S'post_vars'
p1821
asbag48
(g69
g50
NtRp1822
(dp1823
g53
(dp1824
g80
g81
ssg62
g1813
sg55
(lp1825
S':'
asbag48
(g69
g50
NtRp1826
(dp1827
g53
(dp1828
sg62
g1813
sg55
(lp1829
g48
(g49
g50
NtRp1830
(dp1831
g53
(dp1832
g61
I5
ssg62
g1826
sg55
(lp1833
g48
(g57
g50
NtRp1834
(dp1835
g53
(dp1836
g61
I4
ssg62
Nsg55
(lp1837
sbasbasbasbag48
(g64
g50
NtRp1838
(dp1839
g53
(dp1840
sg62
g58
sg55
(lp1841
g48
(g69
g50
NtRp1842
(dp1843
g53
(dp1844
g73
g74
ssg62
g1838
sg55
(lp1845
S'url'
p1846
asbag48
(g69
g50
NtRp1847
(dp1848
g53
(dp1849
g80
g81
ssg62
g1838
sg55
(lp1850
S':'
asbag48
(g69
g50
NtRp1851
(dp1852
g53
(dp1853
sg62
g1838
sg55
(lp1854
g48
(g49
g50
NtRp1855
(dp1856
g53
(dp1857
g61
I5
ssg62
g1851
sg55
(lp1858
S'/201056161/default/q2s'
p1859
asbasbasbag48
(g64
g50
NtRp1860
(dp1861
g53
(dp1862
sg62
g58
sg55
(lp1863
g48
(g69
g50
NtRp1864
(dp1865
g53
(dp1866
g73
g74
ssg62
g1860
sg55
(lp1867
S'uuid'
p1868
asbag48
(g69
g50
NtRp1869
(dp1870
g53
(dp1871
g80
g81
ssg62
g1860
sg55
(lp1872
S':'
asbag48
(g69
g50
NtRp1873
(dp1874
g53
(dp1875
sg62
g1860
sg55
(lp1876
g48
(g49
g50
NtRp1877
(dp1878
g53
(dp1879
g61
I5
ssg62
g1873
sg55
(lp1880
S'201056161/127.0.0.1.2011-09-07.03-00-00.433142a3-1752-4572-95fa-fa3570b703de'
p1881
asbasbasbag48
(g64
g50
NtRp1882
(dp1883
g53
(dp1884
sg62
g58
sg55
(lp1885
g48
(g69
g50
NtRp1886
(dp1887
g53
(dp1888
g73
g74
ssg62
g1882
sg55
(lp1889
S'vars'
p1890
asbag48
(g69
g50
NtRp1891
(dp1892
g53
(dp1893
g80
g81
ssg62
g1882
sg55
(lp1894
S':'
asbag48
(g69
g50
NtRp1895
(dp1896
g53
(dp1897
sg62
g1882
sg55
(lp1898
g48
(g49
g50
NtRp1899
(dp1900
g53
(dp1901
g61
I5
ssg62
g1895
sg55
(lp1902
g48
(g57
g50
NtRp1903
(dp1904
g53
(dp1905
g61
I4
ssg62
Nsg55
(lp1906
g48
(g64
g50
NtRp1907
(dp1908
g53
(dp1909
sg62
g1903
sg55
(lp1910
g48
(g69
g50
NtRp1911
(dp1912
g53
(dp1913
g73
g74
ssg62
g1907
sg55
(lp1914
g1715
asbag48
(g69
g50
NtRp1915
(dp1916
g53
(dp1917
g80
g81
ssg62
g1907
sg55
(lp1918
S':'
asbag48
(g69
g50
NtRp1919
(dp1920
g53
(dp1921
sg62
g1907
sg55
(lp1922
g48
(g49
g50
NtRp1923
(dp1924
g53
(dp1925
g61
I4
ssg62
g1919
sg55
(lp1926
S'9'
asbasbasbasbasbasbasbag48
(g64
g50
NtRp1927
(dp1928
g53
(dp1929
sg62
g58
sg55
(lp1930
g48
(g69
g50
NtRp1931
(dp1932
g53
(dp1933
g73
g74
ssg62
g1927
sg55
(lp1934
S'wsgi'
p1935
asbag48
(g69
g50
NtRp1936
(dp1937
g53
(dp1938
g80
g81
ssg62
g1927
sg55
(lp1939
S':'
asbag48
(g69
g50
NtRp1940
(dp1941
g53
(dp1942
sg62
g1927
sg55
(lp1943
g48
(g49
g50
NtRp1944
(dp1945
g53
(dp1946
g61
I5
ssg62
g1940
sg55
(lp1947
g48
(g57
g50
NtRp1948
(dp1949
g53
(dp1950
g61
I4
ssg62
Nsg55
(lp1951
g48
(g64
g50
NtRp1952
(dp1953
g53
(dp1954
sg62
g1948
sg55
(lp1955
g48
(g69
g50
NtRp1956
(dp1957
g53
(dp1958
g73
g74
ssg62
g1952
sg55
(lp1959
S'environ'
p1960
asbag48
(g69
g50
NtRp1961
(dp1962
g53
(dp1963
g80
g81
ssg62
g1952
sg55
(lp1964
S':'
asbag48
(g69
g50
NtRp1965
(dp1966
g53
(dp1967
sg62
g1952
sg55
(lp1968
g48
(g49
g50
NtRp1969
(dp1970
g53
(dp1971
g61
I4
ssg62
g1965
sg55
(lp1972
g48
(g57
g50
NtRp1973
(dp1974
g53
(dp1975
g61
I3
ssg62
Nsg55
(lp1976
g48
(g64
g50
NtRp1977
(dp1978
g53
(dp1979
sg62
g1973
sg55
(lp1980
g48
(g69
g50
NtRp1981
(dp1982
g53
(dp1983
g73
g74
ssg62
g1977
sg55
(lp1984
S'HTTP_ACCEPT'
p1985
asbag48
(g69
g50
NtRp1986
(dp1987
g53
(dp1988
g80
g81
ssg62
g1977
sg55
(lp1989
S':'
asbag48
(g69
g50
NtRp1990
(dp1991
g53
(dp1992
sg62
g1977
sg55
(lp1993
g48
(g49
g50
NtRp1994
(dp1995
g53
(dp1996
g61
I3
ssg62
g1990
sg55
(lp1997
g933
asbasbasbag48
(g64
g50
NtRp1998
(dp1999
g53
(dp2000
sg62
g1973
sg55
(lp2001
g48
(g69
g50
NtRp2002
(dp2003
g53
(dp2004
g73
g74
ssg62
g1998
sg55
(lp2005
S'HTTP_ACCEPT_CHARSET'
p2006
asbag48
(g69
g50
NtRp2007
(dp2008
g53
(dp2009
g80
g81
ssg62
g1998
sg55
(lp2010
S':'
asbag48
(g69
g50
NtRp2011
(dp2012
g53
(dp2013
sg62
g1998
sg55
(lp2014
g48
(g49
g50
NtRp2015
(dp2016
g53
(dp2017
g61
I3
ssg62
g2011
sg55
(lp2018
g955
asbasbasbag48
(g64
g50
NtRp2019
(dp2020
g53
(dp2021
sg62
g1973
sg55
(lp2022
g48
(g69
g50
NtRp2023
(dp2024
g53
(dp2025
g73
g74
ssg62
g2019
sg55
(lp2026
S'HTTP_ACCEPT_ENCODING'
p2027
asbag48
(g69
g50
NtRp2028
(dp2029
g53
(dp2030
g80
g81
ssg62
g2019
sg55
(lp2031
S':'
asbag48
(g69
g50
NtRp2032
(dp2033
g53
(dp2034
sg62
g2019
sg55
(lp2035
g48
(g49
g50
NtRp2036
(dp2037
g53
(dp2038
g61
I3
ssg62
g2032
sg55
(lp2039
g977
asbasbasbag48
(g64
g50
NtRp2040
(dp2041
g53
(dp2042
sg62
g1973
sg55
(lp2043
g48
(g69
g50
NtRp2044
(dp2045
g53
(dp2046
g73
g74
ssg62
g2040
sg55
(lp2047
S'HTTP_ACCEPT_LANGUAGE'
p2048
asbag48
(g69
g50
NtRp2049
(dp2050
g53
(dp2051
g80
g81
ssg62
g2040
sg55
(lp2052
S':'
asbag48
(g69
g50
NtRp2053
(dp2054
g53
(dp2055
sg62
g2040
sg55
(lp2056
g48
(g49
g50
NtRp2057
(dp2058
g53
(dp2059
g61
I3
ssg62
g2053
sg55
(lp2060
g999
asbasbasbag48
(g64
g50
NtRp2061
(dp2062
g53
(dp2063
sg62
g1973
sg55
(lp2064
g48
(g69
g50
NtRp2065
(dp2066
g53
(dp2067
g73
g74
ssg62
g2061
sg55
(lp2068
S'HTTP_CACHE_CONTROL'
p2069
asbag48
(g69
g50
NtRp2070
(dp2071
g53
(dp2072
g80
g81
ssg62
g2061
sg55
(lp2073
S':'
asbag48
(g69
g50
NtRp2074
(dp2075
g53
(dp2076
sg62
g2061
sg55
(lp2077
g48
(g49
g50
NtRp2078
(dp2079
g53
(dp2080
g61
I3
ssg62
g2074
sg55
(lp2081
g1021
asbasbasbag48
(g64
g50
NtRp2082
(dp2083
g53
(dp2084
sg62
g1973
sg55
(lp2085
g48
(g69
g50
NtRp2086
(dp2087
g53
(dp2088
g73
g74
ssg62
g2082
sg55
(lp2089
S'HTTP_CONNECTION'
p2090
asbag48
(g69
g50
NtRp2091
(dp2092
g53
(dp2093
g80
g81
ssg62
g2082
sg55
(lp2094
S':'
asbag48
(g69
g50
NtRp2095
(dp2096
g53
(dp2097
sg62
g2082
sg55
(lp2098
g48
(g49
g50
NtRp2099
(dp2100
g53
(dp2101
g61
I3
ssg62
g2095
sg55
(lp2102
g1043
asbasbasbag48
(g64
g50
NtRp2103
(dp2104
g53
(dp2105
sg62
g1973
sg55
(lp2106
g48
(g69
g50
NtRp2107
(dp2108
g53
(dp2109
g73
g74
ssg62
g2103
sg55
(lp2110
S'HTTP_COOKIE'
p2111
asbag48
(g69
g50
NtRp2112
(dp2113
g53
(dp2114
g80
g81
ssg62
g2103
sg55
(lp2115
S':'
asbag48
(g69
g50
NtRp2116
(dp2117
g53
(dp2118
sg62
g2103
sg55
(lp2119
g48
(g49
g50
NtRp2120
(dp2121
g53
(dp2122
g61
I3
ssg62
g2116
sg55
(lp2123
g1065
asbasbasbag48
(g64
g50
NtRp2124
(dp2125
g53
(dp2126
sg62
g1973
sg55
(lp2127
g48
(g69
g50
NtRp2128
(dp2129
g53
(dp2130
g73
g74
ssg62
g2124
sg55
(lp2131
S'HTTP_HOST'
p2132
asbag48
(g69
g50
NtRp2133
(dp2134
g53
(dp2135
g80
g81
ssg62
g2124
sg55
(lp2136
S':'
asbag48
(g69
g50
NtRp2137
(dp2138
g53
(dp2139
sg62
g2124
sg55
(lp2140
g48
(g49
g50
NtRp2141
(dp2142
g53
(dp2143
g61
I3
ssg62
g2137
sg55
(lp2144
g1087
asbasbasbag48
(g64
g50
NtRp2145
(dp2146
g53
(dp2147
sg62
g1973
sg55
(lp2148
g48
(g69
g50
NtRp2149
(dp2150
g53
(dp2151
g73
g74
ssg62
g2145
sg55
(lp2152
S'HTTP_REFERER'
p2153
asbag48
(g69
g50
NtRp2154
(dp2155
g53
(dp2156
g80
g81
ssg62
g2145
sg55
(lp2157
S':'
asbag48
(g69
g50
NtRp2158
(dp2159
g53
(dp2160
sg62
g2145
sg55
(lp2161
g48
(g49
g50
NtRp2162
(dp2163
g53
(dp2164
g61
I3
ssg62
g2158
sg55
(lp2165
g1109
asbasbasbag48
(g64
g50
NtRp2166
(dp2167
g53
(dp2168
sg62
g1973
sg55
(lp2169
g48
(g69
g50
NtRp2170
(dp2171
g53
(dp2172
g73
g74
ssg62
g2166
sg55
(lp2173
S'HTTP_USER_AGENT'
p2174
asbag48
(g69
g50
NtRp2175
(dp2176
g53
(dp2177
g80
g81
ssg62
g2166
sg55
(lp2178
S':'
asbag48
(g69
g50
NtRp2179
(dp2180
g53
(dp2181
sg62
g2166
sg55
(lp2182
g48
(g49
g50
NtRp2183
(dp2184
g53
(dp2185
g61
I3
ssg62
g2179
sg55
(lp2186
g1131
asbasbasbag48
(g64
g50
NtRp2187
(dp2188
g53
(dp2189
sg62
g1973
sg55
(lp2190
g48
(g69
g50
NtRp2191
(dp2192
g53
(dp2193
g73
g74
ssg62
g2187
sg55
(lp2194
S'PATH_INFO'
p2195
asbag48
(g69
g50
NtRp2196
(dp2197
g53
(dp2198
g80
g81
ssg62
g2187
sg55
(lp2199
S':'
asbag48
(g69
g50
NtRp2200
(dp2201
g53
(dp2202
sg62
g2187
sg55
(lp2203
g48
(g49
g50
NtRp2204
(dp2205
g53
(dp2206
g61
I3
ssg62
g2200
sg55
(lp2207
g1153
asbasbasbag48
(g64
g50
NtRp2208
(dp2209
g53
(dp2210
sg62
g1973
sg55
(lp2211
g48
(g69
g50
NtRp2212
(dp2213
g53
(dp2214
g73
g74
ssg62
g2208
sg55
(lp2215
S'QUERY_STRING'
p2216
asbag48
(g69
g50
NtRp2217
(dp2218
g53
(dp2219
g80
g81
ssg62
g2208
sg55
(lp2220
S':'
asbag48
(g69
g50
NtRp2221
(dp2222
g53
(dp2223
sg62
g2208
sg55
(lp2224
g48
(g49
g50
NtRp2225
(dp2226
g53
(dp2227
g61
I3
ssg62
g2221
sg55
(lp2228
g1175
asbasbasbag48
(g64
g50
NtRp2229
(dp2230
g53
(dp2231
sg62
g1973
sg55
(lp2232
g48
(g69
g50
NtRp2233
(dp2234
g53
(dp2235
g73
g74
ssg62
g2229
sg55
(lp2236
S'REMOTE_ADDR'
p2237
asbag48
(g69
g50
NtRp2238
(dp2239
g53
(dp2240
g80
g81
ssg62
g2229
sg55
(lp2241
S':'
asbag48
(g69
g50
NtRp2242
(dp2243
g53
(dp2244
sg62
g2229
sg55
(lp2245
g48
(g49
g50
NtRp2246
(dp2247
g53
(dp2248
g61
I3
ssg62
g2242
sg55
(lp2249
g181
asbasbasbag48
(g64
g50
NtRp2250
(dp2251
g53
(dp2252
sg62
g1973
sg55
(lp2253
g48
(g69
g50
NtRp2254
(dp2255
g53
(dp2256
g73
g74
ssg62
g2250
sg55
(lp2257
S'REMOTE_PORT'
p2258
asbag48
(g69
g50
NtRp2259
(dp2260
g53
(dp2261
g80
g81
ssg62
g2250
sg55
(lp2262
S':'
asbag48
(g69
g50
NtRp2263
(dp2264
g53
(dp2265
sg62
g2250
sg55
(lp2266
g48
(g49
g50
NtRp2267
(dp2268
g53
(dp2269
g61
I3
ssg62
g2263
sg55
(lp2270
g1218
asbasbasbag48
(g64
g50
NtRp2271
(dp2272
g53
(dp2273
sg62
g1973
sg55
(lp2274
g48
(g69
g50
NtRp2275
(dp2276
g53
(dp2277
g73
g74
ssg62
g2271
sg55
(lp2278
S'REQUEST_METHOD'
p2279
asbag48
(g69
g50
NtRp2280
(dp2281
g53
(dp2282
g80
g81
ssg62
g2271
sg55
(lp2283
S':'
asbag48
(g69
g50
NtRp2284
(dp2285
g53
(dp2286
sg62
g2271
sg55
(lp2287
g48
(g49
g50
NtRp2288
(dp2289
g53
(dp2290
g61
I3
ssg62
g2284
sg55
(lp2291
g1240
asbasbasbag48
(g64
g50
NtRp2292
(dp2293
g53
(dp2294
sg62
g1973
sg55
(lp2295
g48
(g69
g50
NtRp2296
(dp2297
g53
(dp2298
g73
g74
ssg62
g2292
sg55
(lp2299
S'SCRIPT_NAME'
p2300
asbag48
(g69
g50
NtRp2301
(dp2302
g53
(dp2303
g80
g81
ssg62
g2292
sg55
(lp2304
S':'
asbag48
(g69
g50
NtRp2305
(dp2306
g53
(dp2307
sg62
g2292
sg55
(lp2308
g48
(g49
g50
NtRp2309
(dp2310
g53
(dp2311
g61
I3
ssg62
g2305
sg55
(lp2312
S''
asbasbasbag48
(g64
g50
NtRp2313
(dp2314
g53
(dp2315
sg62
g1973
sg55
(lp2316
g48
(g69
g50
NtRp2317
(dp2318
g53
(dp2319
g73
g74
ssg62
g2313
sg55
(lp2320
S'SERVER_NAME'
p2321
asbag48
(g69
g50
NtRp2322
(dp2323
g53
(dp2324
g80
g81
ssg62
g2313
sg55
(lp2325
S':'
asbag48
(g69
g50
NtRp2326
(dp2327
g53
(dp2328
sg62
g2313
sg55
(lp2329
g48
(g49
g50
NtRp2330
(dp2331
g53
(dp2332
g61
I3
ssg62
g2326
sg55
(lp2333
g1283
asbasbasbag48
(g64
g50
NtRp2334
(dp2335
g53
(dp2336
sg62
g1973
sg55
(lp2337
g48
(g69
g50
NtRp2338
(dp2339
g53
(dp2340
g73
g74
ssg62
g2334
sg55
(lp2341
S'SERVER_PORT'
p2342
asbag48
(g69
g50
NtRp2343
(dp2344
g53
(dp2345
g80
g81
ssg62
g2334
sg55
(lp2346
S':'
asbag48
(g69
g50
NtRp2347
(dp2348
g53
(dp2349
sg62
g2334
sg55
(lp2350
g48
(g49
g50
NtRp2351
(dp2352
g53
(dp2353
g61
I3
ssg62
g2347
sg55
(lp2354
g1305
asbasbasbag48
(g64
g50
NtRp2355
(dp2356
g53
(dp2357
sg62
g1973
sg55
(lp2358
g48
(g69
g50
NtRp2359
(dp2360
g53
(dp2361
g73
g74
ssg62
g2355
sg55
(lp2362
S'SERVER_PROTOCOL'
p2363
asbag48
(g69
g50
NtRp2364
(dp2365
g53
(dp2366
g80
g81
ssg62
g2355
sg55
(lp2367
S':'
asbag48
(g69
g50
NtRp2368
(dp2369
g53
(dp2370
sg62
g2355
sg55
(lp2371
g48
(g49
g50
NtRp2372
(dp2373
g53
(dp2374
g61
I3
ssg62
g2368
sg55
(lp2375
g1327
asbasbasbag48
(g64
g50
NtRp2376
(dp2377
g53
(dp2378
sg62
g1973
sg55
(lp2379
g48
(g69
g50
NtRp2380
(dp2381
g53
(dp2382
g73
g74
ssg62
g2376
sg55
(lp2383
S'SERVER_SOFTWARE'
p2384
asbag48
(g69
g50
NtRp2385
(dp2386
g53
(dp2387
g80
g81
ssg62
g2376
sg55
(lp2388
S':'
asbag48
(g69
g50
NtRp2389
(dp2390
g53
(dp2391
sg62
g2376
sg55
(lp2392
g48
(g49
g50
NtRp2393
(dp2394
g53
(dp2395
g61
I3
ssg62
g2389
sg55
(lp2396
g1349
asbasbasbag48
(g64
g50
NtRp2397
(dp2398
g53
(dp2399
sg62
g1973
sg55
(lp2400
g48
(g69
g50
NtRp2401
(dp2402
g53
(dp2403
g73
g74
ssg62
g2397
sg55
(lp2404
S'wsgi.errors'
p2405
asbag48
(g69
g50
NtRp2406
(dp2407
g53
(dp2408
g80
g81
ssg62
g2397
sg55
(lp2409
S':'
asbag48
(g69
g50
NtRp2410
(dp2411
g53
(dp2412
sg62
g2397
sg55
(lp2413
g48
(g49
g50
NtRp2414
(dp2415
g53
(dp2416
g61
I3
ssg62
g2410
sg55
(lp2417
S"<open file '<stderr>', mode 'w' at 0x002500B0>"
p2418
asbasbasbag48
(g64
g50
NtRp2419
(dp2420
g53
(dp2421
sg62
g1973
sg55
(lp2422
g48
(g69
g50
NtRp2423
(dp2424
g53
(dp2425
g73
g74
ssg62
g2419
sg55
(lp2426
S'wsgi.file_wrapper'
p2427
asbag48
(g69
g50
NtRp2428
(dp2429
g53
(dp2430
g80
g81
ssg62
g2419
sg55
(lp2431
S':'
asbag48
(g69
g50
NtRp2432
(dp2433
g53
(dp2434
sg62
g2419
sg55
(lp2435
g48
(g49
g50
NtRp2436
(dp2437
g53
(dp2438
g61
I3
ssg62
g2432
sg55
(lp2439
S'<class gluon.rocket.FileWrapper at 0x03132BA0>'
p2440
asbasbasbag48
(g64
g50
NtRp2441
(dp2442
g53
(dp2443
sg62
g1973
sg55
(lp2444
g48
(g69
g50
NtRp2445
(dp2446
g53
(dp2447
g73
g74
ssg62
g2441
sg55
(lp2448
S'wsgi.input'
p2449
asbag48
(g69
g50
NtRp2450
(dp2451
g53
(dp2452
g80
g81
ssg62
g2441
sg55
(lp2453
S':'
asbag48
(g69
g50
NtRp2454
(dp2455
g53
(dp2456
sg62
g2441
sg55
(lp2457
g48
(g49
g50
NtRp2458
(dp2459
g53
(dp2460
g61
I3
ssg62
g2454
sg55
(lp2461
S'<cStringIO.StringO object at 0x06B7C940>'
p2462
asbasbasbag48
(g64
g50
NtRp2463
(dp2464
g53
(dp2465
sg62
g1973
sg55
(lp2466
g48
(g69
g50
NtRp2467
(dp2468
g53
(dp2469
g73
g74
ssg62
g2463
sg55
(lp2470
S'wsgi.multiprocess'
p2471
asbag48
(g69
g50
NtRp2472
(dp2473
g53
(dp2474
g80
g81
ssg62
g2463
sg55
(lp2475
S':'
asbag48
(g69
g50
NtRp2476
(dp2477
g53
(dp2478
sg62
g2463
sg55
(lp2479
g48
(g49
g50
NtRp2480
(dp2481
g53
(dp2482
g61
I3
ssg62
g2476
sg55
(lp2483
g91
asbasbasbag48
(g64
g50
NtRp2484
(dp2485
g53
(dp2486
sg62
g1973
sg55
(lp2487
g48
(g69
g50
NtRp2488
(dp2489
g53
(dp2490
g73
g74
ssg62
g2484
sg55
(lp2491
S'wsgi.multithread'
p2492
asbag48
(g69
g50
NtRp2493
(dp2494
g53
(dp2495
g80
g81
ssg62
g2484
sg55
(lp2496
S':'
asbag48
(g69
g50
NtRp2497
(dp2498
g53
(dp2499
sg62
g2484
sg55
(lp2500
g48
(g49
g50
NtRp2501
(dp2502
g53
(dp2503
g61
I3
ssg62
g2497
sg55
(lp2504
g1523
asbasbasbag48
(g64
g50
NtRp2505
(dp2506
g53
(dp2507
sg62
g1973
sg55
(lp2508
g48
(g69
g50
NtRp2509
(dp2510
g53
(dp2511
g73
g74
ssg62
g2505
sg55
(lp2512
S'wsgi.run_once'
p2513
asbag48
(g69
g50
NtRp2514
(dp2515
g53
(dp2516
g80
g81
ssg62
g2505
sg55
(lp2517
S':'
asbag48
(g69
g50
NtRp2518
(dp2519
g53
(dp2520
sg62
g2505
sg55
(lp2521
g48
(g49
g50
NtRp2522
(dp2523
g53
(dp2524
g61
I3
ssg62
g2518
sg55
(lp2525
g91
asbasbasbag48
(g64
g50
NtRp2526
(dp2527
g53
(dp2528
sg62
g1973
sg55
(lp2529
g48
(g69
g50
NtRp2530
(dp2531
g53
(dp2532
g73
g74
ssg62
g2526
sg55
(lp2533
S'wsgi.url_scheme'
p2534
asbag48
(g69
g50
NtRp2535
(dp2536
g53
(dp2537
g80
g81
ssg62
g2526
sg55
(lp2538
S':'
asbag48
(g69
g50
NtRp2539
(dp2540
g53
(dp2541
sg62
g2526
sg55
(lp2542
g48
(g49
g50
NtRp2543
(dp2544
g53
(dp2545
g61
I3
ssg62
g2539
sg55
(lp2546
g1566
asbasbasbag48
(g64
g50
NtRp2547
(dp2548
g53
(dp2549
sg62
g1973
sg55
(lp2550
g48
(g69
g50
NtRp2551
(dp2552
g53
(dp2553
g73
g74
ssg62
g2547
sg55
(lp2554
S'wsgi.version'
p2555
asbag48
(g69
g50
NtRp2556
(dp2557
g53
(dp2558
g80
g81
ssg62
g2547
sg55
(lp2559
S':'
asbag48
(g69
g50
NtRp2560
(dp2561
g53
(dp2562
sg62
g2547
sg55
(lp2563
g48
(g49
g50
NtRp2564
(dp2565
g53
(dp2566
g61
I3
ssg62
g2560
sg55
(lp2567
S'1'
asbasbasbasbasbasbasbasbasbasbasbasbasbsS'frames'
p2568
(lp2569
(dp2570
S'file'
p2571
S'C:\\Users\\AKSHAY\\Desktop\\web2py\\gluon\\restricted.py'
p2572
sS'dump'
p2573
(dp2574
sS'lnum'
p2575
I192
sS'lines'
p2576
(dp2577
sS'call'
p2578
S'(code=\'response.write(\\\'<!DOCTYPE html>\\\\n<html lang="\\\', ...t   -->    \\\\n  </body>\\\\n</html>\\\\n\\\', escape=False)\', environment={\'A\': <class \'gluon.html.A\'>, \'Auth\': <class \'gluon.tools.Auth\'>, \'B\': <class \'gluon.html.B\'>, \'BEAUTIFY\': <class \'gluon.html.BEAUTIFY\'>, \'BODY\': <class \'gluon.html.BODY\'>, \'BR\': <class \'gluon.html.BR\'>, \'BUTTON\': <class \'gluon.html.BUTTON\'>, \'CENTER\': <class \'gluon.html.CENTER\'>, \'CLEANUP\': <class \'gluon.validators.CLEANUP\'>, \'CODE\': <class \'gluon.html.CODE\'>, ...}, layer=r\'C:\\Users\\AKSHAY\\Desktop\\web2py\\applications\\201056161\\views\\default/q2s.html\')'
p2579
sS'func'
p2580
S'restricted'
p2581
sa(dp2582
g2571
S'C:\\Users\\AKSHAY\\Desktop\\web2py\\applications\\201056161\\views\\default\\q2s.html'
p2583
sg2573
(dp2584
sg2575
I103
sg2576
(dp2585
I96
S'    pass'
p2586
sI97
S'response.write(\'\\n\\n\\t  <!-- content -->\\n\\t  <div id="content" \', escape=False)'
p2587
sI98
S'response.write(XML(style_content))'
p2588
sI99
S"response.write(' >\\n\\t    ', escape=False)"
p2589
sI100
S"response.write('\\r\\n', escape=False)"
p2590
sI101
S'for row in rows:'
p2591
sI102
S"    response.write('\\r\\n  ', escape=False)"
p2592
sI103
S'    response.write(LI(A("%s" %(row.name),_href=URL(r=request,f=\'student_details?id=%d\' %(row.id)))))'
p2593
sI104
S"    response.write('\\r\\n  </br>\\r\\n', escape=False)"
p2594
sI105
S'    pass'
p2595
sI106
S"response.write('\\r\\n', escape=False)"
p2596
sI107
S"response.write('\\t\\n\\t  </div>\\n\\t  <!-- content -->\\n\\n\\t  ', escape=False)"
p2597
sI108
S'if right_sidebar_enabled:'
p2598
sI109
S'    response.write(\'\\n          <div id="right_sidebar" \', escape=False)'
p2599
sI110
S'    response.write(XML(right_sidebar_style))'
p2600
sI111
S'    response.write(\' >\\n            <div style="padding: 4px;">\\n              \', escape=False)'
p2601
sI112
S"    response.write('Content Right Sidebar', escape=False)"
p2602
sI113
S"    response.write('\\n            </div>\\n\\t  </div><!-- right_sidebar -->\\n          ', escape=False)"
p2603
sI94
S"    response.write('Content Left Sidebar', escape=False)"
p2604
sI95
S"    response.write('\\t\\t  \\n            </div>\\n          </div><!-- left_sidebar -->\\n\\t  ', escape=False)"
p2605
ssg2578
S'()'
p2606
sg2580
S'<module>'
p2607
sa(dp2608
g2571
S'C:\\Users\\AKSHAY\\Desktop\\web2py\\gluon\\dal.py'
p2609
sg2573
(dp2610
sg2575
I3710
sg2576
(dp2611
sg2578
S"(self=<Row {'name': 'Naguva Nayana'}>, key='id')"
p2612
sg2580
S'__getattr__'
p2613
sa(dp2614
g2571
S'C:\\Users\\AKSHAY\\Desktop\\web2py\\gluon\\dal.py'
p2615
sg2573
(dp2616
sg2575
I3701
sg2576
(dp2617
sg2578
S"(self=<Row {'name': 'Naguva Nayana'}>, key='id')"
p2618
sg2580
g19
sasS'pyver'
p2619
S'Python 2.5.4: C:\\Users\\AKSHAY\\Desktop\\web2py\\web2py.exe'
p2620
sS'session'
p2621
g48
(g49
g50
NtRp2622
(dp2623
g53
(dp2624
sg55
(lp2625
g48
(g57
g50
NtRp2626
(dp2627
g53
(dp2628
g61
I5
ssg62
Nsg55
(lp2629
g48
(g64
g50
NtRp2630
(dp2631
g53
(dp2632
sg62
g2626
sg55
(lp2633
g48
(g69
g50
NtRp2634
(dp2635
g53
(dp2636
g73
g74
ssg62
g2630
sg55
(lp2637
S'last_query'
p2638
asbag48
(g69
g50
NtRp2639
(dp2640
g53
(dp2641
g80
g81
ssg62
g2630
sg55
(lp2642
S':'
asbag48
(g69
g50
NtRp2643
(dp2644
g53
(dp2645
sg62
g2630
sg55
(lp2646
g48
(g49
g50
NtRp2647
(dp2648
g53
(dp2649
g61
I5
ssg62
g2643
sg55
(lp2650
S'db.song.id>0'
p2651
asbasbasbasbasbsS'etype'
p2652
S"<type 'exceptions.KeyError'>"
p2653
sS'date'
p2654
S'Wed Sep 07 03:00:00 2011'
p2655
sS'response'
p2656
g48
(g49
g50
NtRp2657
(dp2658
g53
(dp2659
sg55
(lp2660
g48
(g57
g50
NtRp2661
(dp2662
g53
(dp2663
g61
I5
ssg62
Nsg55
(lp2664
g48
(g64
g50
NtRp2665
(dp2666
g53
(dp2667
sg62
g2661
sg55
(lp2668
g48
(g69
g50
NtRp2669
(dp2670
g53
(dp2671
g73
g74
ssg62
g2665
sg55
(lp2672
g146
asbag48
(g69
g50
NtRp2673
(dp2674
g53
(dp2675
g80
g81
ssg62
g2665
sg55
(lp2676
S':'
asbag48
(g69
g50
NtRp2677
(dp2678
g53
(dp2679
sg62
g2665
sg55
(lp2680
g48
(g49
g50
NtRp2681
(dp2682
g53
(dp2683
g61
I5
ssg62
g2677
sg55
(lp2684
S'<cStringIO.StringO object at 0x0338B400>'
p2685
asbasbasbag48
(g64
g50
NtRp2686
(dp2687
g53
(dp2688
sg62
g2661
sg55
(lp2689
g48
(g69
g50
NtRp2690
(dp2691
g53
(dp2692
g73
g74
ssg62
g2686
sg55
(lp2693
g212
asbag48
(g69
g50
NtRp2694
(dp2695
g53
(dp2696
g80
g81
ssg62
g2686
sg55
(lp2697
S':'
asbag48
(g69
g50
NtRp2698
(dp2699
g53
(dp2700
sg62
g2686
sg55
(lp2701
g48
(g49
g50
NtRp2702
(dp2703
g53
(dp2704
g61
I5
ssg62
g2698
sg55
(lp2705
g48
(g57
g50
NtRp2706
(dp2707
g53
(dp2708
g61
I4
ssg62
Nsg55
(lp2709
g48
(g64
g50
NtRp2710
(dp2711
g53
(dp2712
sg62
g2706
sg55
(lp2713
g48
(g69
g50
NtRp2714
(dp2715
g53
(dp2716
g73
g74
ssg62
g2710
sg55
(lp2717
S'session_id_201056161'
p2718
asbag48
(g69
g50
NtRp2719
(dp2720
g53
(dp2721
g80
g81
ssg62
g2710
sg55
(lp2722
S':'
asbag48
(g69
g50
NtRp2723
(dp2724
g53
(dp2725
sg62
g2710
sg55
(lp2726
g48
(g49
g50
NtRp2727
(dp2728
g53
(dp2729
g61
I4
ssg62
g2723
sg55
(lp2730
g48
(g57
g50
NtRp2731
(dp2732
g53
(dp2733
g61
I3
ssg62
Nsg55
(lp2734
g48
(g64
g50
NtRp2735
(dp2736
g53
(dp2737
sg62
g2731
sg55
(lp2738
g48
(g69
g50
NtRp2739
(dp2740
g53
(dp2741
g73
g74
ssg62
g2735
sg55
(lp2742
g262
asbag48
(g69
g50
NtRp2743
(dp2744
g53
(dp2745
g80
g81
ssg62
g2735
sg55
(lp2746
S':'
asbag48
(g69
g50
NtRp2747
(dp2748
g53
(dp2749
sg62
g2735
sg55
(lp2750
g48
(g49
g50
NtRp2751
(dp2752
g53
(dp2753
g61
I3
ssg62
g2747
sg55
(lp2754
S''
asbasbasbag48
(g64
g50
NtRp2755
(dp2756
g53
(dp2757
sg62
g2731
sg55
(lp2758
g48
(g69
g50
NtRp2759
(dp2760
g53
(dp2761
g73
g74
ssg62
g2755
sg55
(lp2762
g283
asbag48
(g69
g50
NtRp2763
(dp2764
g53
(dp2765
g80
g81
ssg62
g2755
sg55
(lp2766
S':'
asbag48
(g69
g50
NtRp2767
(dp2768
g53
(dp2769
sg62
g2755
sg55
(lp2770
g48
(g49
g50
NtRp2771
(dp2772
g53
(dp2773
g61
I3
ssg62
g2767
sg55
(lp2774
S''
asbasbasbag48
(g64
g50
NtRp2775
(dp2776
g53
(dp2777
sg62
g2731
sg55
(lp2778
g48
(g69
g50
NtRp2779
(dp2780
g53
(dp2781
g73
g74
ssg62
g2775
sg55
(lp2782
g304
asbag48
(g69
g50
NtRp2783
(dp2784
g53
(dp2785
g80
g81
ssg62
g2775
sg55
(lp2786
S':'
asbag48
(g69
g50
NtRp2787
(dp2788
g53
(dp2789
sg62
g2775
sg55
(lp2790
g48
(g49
g50
NtRp2791
(dp2792
g53
(dp2793
g61
I3
ssg62
g2787
sg55
(lp2794
S''
asbasbasbag48
(g64
g50
NtRp2795
(dp2796
g53
(dp2797
sg62
g2731
sg55
(lp2798
g48
(g69
g50
NtRp2799
(dp2800
g53
(dp2801
g73
g74
ssg62
g2795
sg55
(lp2802
g325
asbag48
(g69
g50
NtRp2803
(dp2804
g53
(dp2805
g80
g81
ssg62
g2795
sg55
(lp2806
S':'
asbag48
(g69
g50
NtRp2807
(dp2808
g53
(dp2809
sg62
g2795
sg55
(lp2810
g48
(g49
g50
NtRp2811
(dp2812
g53
(dp2813
g61
I3
ssg62
g2807
sg55
(lp2814
S''
asbasbasbag48
(g64
g50
NtRp2815
(dp2816
g53
(dp2817
sg62
g2731
sg55
(lp2818
g48
(g69
g50
NtRp2819
(dp2820
g53
(dp2821
g73
g74
ssg62
g2815
sg55
(lp2822
g346
asbag48
(g69
g50
NtRp2823
(dp2824
g53
(dp2825
g80
g81
ssg62
g2815
sg55
(lp2826
S':'
asbag48
(g69
g50
NtRp2827
(dp2828
g53
(dp2829
sg62
g2815
sg55
(lp2830
g48
(g49
g50
NtRp2831
(dp2832
g53
(dp2833
g61
I3
ssg62
g2827
sg55
(lp2834
S'/'
asbasbasbag48
(g64
g50
NtRp2835
(dp2836
g53
(dp2837
sg62
g2731
sg55
(lp2838
g48
(g69
g50
NtRp2839
(dp2840
g53
(dp2841
g73
g74
ssg62
g2835
sg55
(lp2842
g367
asbag48
(g69
g50
NtRp2843
(dp2844
g53
(dp2845
g80
g81
ssg62
g2835
sg55
(lp2846
S':'
asbag48
(g69
g50
NtRp2847
(dp2848
g53
(dp2849
sg62
g2835
sg55
(lp2850
g48
(g49
g50
NtRp2851
(dp2852
g53
(dp2853
g61
I3
ssg62
g2847
sg55
(lp2854
S''
asbasbasbag48
(g64
g50
NtRp2855
(dp2856
g53
(dp2857
sg62
g2731
sg55
(lp2858
g48
(g69
g50
NtRp2859
(dp2860
g53
(dp2861
g73
g74
ssg62
g2855
sg55
(lp2862
g388
asbag48
(g69
g50
NtRp2863
(dp2864
g53
(dp2865
g80
g81
ssg62
g2855
sg55
(lp2866
S':'
asbag48
(g69
g50
NtRp2867
(dp2868
g53
(dp2869
sg62
g2855
sg55
(lp2870
g48
(g49
g50
NtRp2871
(dp2872
g53
(dp2873
g61
I3
ssg62
g2867
sg55
(lp2874
S''
asbasbasbasbasbasbasbasbasbasbasbag48
(g64
g50
NtRp2875
(dp2876
g53
(dp2877
sg62
g2661
sg55
(lp2878
g48
(g69
g50
NtRp2879
(dp2880
g53
(dp2881
g73
g74
ssg62
g2875
sg55
(lp2882
S'files'
p2883
asbag48
(g69
g50
NtRp2884
(dp2885
g53
(dp2886
g80
g81
ssg62
g2875
sg55
(lp2887
S':'
asbag48
(g69
g50
NtRp2888
(dp2889
g53
(dp2890
sg62
g2875
sg55
(lp2891
g48
(g49
g50
NtRp2892
(dp2893
g53
(dp2894
g61
I5
ssg62
g2888
sg55
(lp2895
g48
(g57
g50
NtRp2896
(dp2897
g53
(dp2898
g61
I4
ssg62
Nsg55
(lp2899
g48
(g64
g50
NtRp2900
(dp2901
g53
(dp2902
sg62
g2896
sg55
(lp2903
g48
(g69
g50
NtRp2904
(dp2905
g53
(dp2906
sg62
g2900
sg55
(lp2907
g48
(g49
g50
NtRp2908
(dp2909
g53
(dp2910
g61
I4
ssg62
g2904
sg55
(lp2911
S'/201056161/static/js/jquery.js'
p2912
asbasbasbag48
(g64
g50
NtRp2913
(dp2914
g53
(dp2915
sg62
g2896
sg55
(lp2916
g48
(g69
g50
NtRp2917
(dp2918
g53
(dp2919
sg62
g2913
sg55
(lp2920
g48
(g49
g50
NtRp2921
(dp2922
g53
(dp2923
g61
I4
ssg62
g2917
sg55
(lp2924
S'/201056161/static/css/calendar.css'
p2925
asbasbasbag48
(g64
g50
NtRp2926
(dp2927
g53
(dp2928
sg62
g2896
sg55
(lp2929
g48
(g69
g50
NtRp2930
(dp2931
g53
(dp2932
sg62
g2926
sg55
(lp2933
g48
(g49
g50
NtRp2934
(dp2935
g53
(dp2936
g61
I4
ssg62
g2930
sg55
(lp2937
S'/201056161/static/js/calendar.js'
p2938
asbasbasbag48
(g64
g50
NtRp2939
(dp2940
g53
(dp2941
sg62
g2896
sg55
(lp2942
g48
(g69
g50
NtRp2943
(dp2944
g53
(dp2945
sg62
g2939
sg55
(lp2946
g48
(g49
g50
NtRp2947
(dp2948
g53
(dp2949
g61
I4
ssg62
g2943
sg55
(lp2950
S'/201056161/static/css/base.css'
p2951
asbasbasbag48
(g64
g50
NtRp2952
(dp2953
g53
(dp2954
sg62
g2896
sg55
(lp2955
g48
(g69
g50
NtRp2956
(dp2957
g53
(dp2958
sg62
g2952
sg55
(lp2959
g48
(g49
g50
NtRp2960
(dp2961
g53
(dp2962
g61
I4
ssg62
g2956
sg55
(lp2963
S'/201056161/static/css/superfish.css'
p2964
asbasbasbag48
(g64
g50
NtRp2965
(dp2966
g53
(dp2967
sg62
g2896
sg55
(lp2968
g48
(g69
g50
NtRp2969
(dp2970
g53
(dp2971
sg62
g2965
sg55
(lp2972
g48
(g49
g50
NtRp2973
(dp2974
g53
(dp2975
g61
I4
ssg62
g2969
sg55
(lp2976
S'/201056161/static/js/superfish.js'
p2977
asbasbasbasbasbasbasbag48
(g64
g50
NtRp2978
(dp2979
g53
(dp2980
sg62
g2661
sg55
(lp2981
g48
(g69
g50
NtRp2982
(dp2983
g53
(dp2984
g73
g74
ssg62
g2978
sg55
(lp2985
S'flash'
p2986
asbag48
(g69
g50
NtRp2987
(dp2988
g53
(dp2989
g80
g81
ssg62
g2978
sg55
(lp2990
S':'
asbag48
(g69
g50
NtRp2991
(dp2992
g53
(dp2993
sg62
g2978
sg55
(lp2994
g48
(g49
g50
NtRp2995
(dp2996
g53
(dp2997
g61
I5
ssg62
g2991
sg55
(lp2998
S''
asbasbasbag48
(g64
g50
NtRp2999
(dp3000
g53
(dp3001
sg62
g2661
sg55
(lp3002
g48
(g69
g50
NtRp3003
(dp3004
g53
(dp3005
g73
g74
ssg62
g2999
sg55
(lp3006
S'generic_patterns'
p3007
asbag48
(g69
g50
NtRp3008
(dp3009
g53
(dp3010
g80
g81
ssg62
g2999
sg55
(lp3011
S':'
asbag48
(g69
g50
NtRp3012
(dp3013
g53
(dp3014
sg62
g2999
sg55
(lp3015
g48
(g49
g50
NtRp3016
(dp3017
g53
(dp3018
g61
I5
ssg62
g3012
sg55
(lp3019
g48
(g57
g50
NtRp3020
(dp3021
g53
(dp3022
g61
I4
ssg62
Nsg55
(lp3023
g48
(g64
g50
NtRp3024
(dp3025
g53
(dp3026
sg62
g3020
sg55
(lp3027
g48
(g69
g50
NtRp3028
(dp3029
g53
(dp3030
sg62
g3024
sg55
(lp3031
g48
(g49
g50
NtRp3032
(dp3033
g53
(dp3034
g61
I4
ssg62
g3028
sg55
(lp3035
S'*'
asbasbasbasbasbasbasbag48
(g64
g50
NtRp3036
(dp3037
g53
(dp3038
sg62
g2661
sg55
(lp3039
g48
(g69
g50
NtRp3040
(dp3041
g53
(dp3042
g73
g74
ssg62
g3036
sg55
(lp3043
S'headers'
p3044
asbag48
(g69
g50
NtRp3045
(dp3046
g53
(dp3047
g80
g81
ssg62
g3036
sg55
(lp3048
S':'
asbag48
(g69
g50
NtRp3049
(dp3050
g53
(dp3051
sg62
g3036
sg55
(lp3052
g48
(g49
g50
NtRp3053
(dp3054
g53
(dp3055
g61
I5
ssg62
g3049
sg55
(lp3056
g48
(g57
g50
NtRp3057
(dp3058
g53
(dp3059
g61
I4
ssg62
Nsg55
(lp3060
g48
(g64
g50
NtRp3061
(dp3062
g53
(dp3063
sg62
g3057
sg55
(lp3064
g48
(g69
g50
NtRp3065
(dp3066
g53
(dp3067
g73
g74
ssg62
g3061
sg55
(lp3068
S'Cache-Control'
p3069
asbag48
(g69
g50
NtRp3070
(dp3071
g53
(dp3072
g80
g81
ssg62
g3061
sg55
(lp3073
S':'
asbag48
(g69
g50
NtRp3074
(dp3075
g53
(dp3076
sg62
g3061
sg55
(lp3077
g48
(g49
g50
NtRp3078
(dp3079
g53
(dp3080
g61
I4
ssg62
g3074
sg55
(lp3081
S'no-store, no-cache, must-revalidate, post-check=0, pre-check=0'
p3082
asbasbasbag48
(g64
g50
NtRp3083
(dp3084
g53
(dp3085
sg62
g3057
sg55
(lp3086
g48
(g69
g50
NtRp3087
(dp3088
g53
(dp3089
g73
g74
ssg62
g3083
sg55
(lp3090
S'Content-Type'
p3091
asbag48
(g69
g50
NtRp3092
(dp3093
g53
(dp3094
g80
g81
ssg62
g3083
sg55
(lp3095
S':'
asbag48
(g69
g50
NtRp3096
(dp3097
g53
(dp3098
sg62
g3083
sg55
(lp3099
g48
(g49
g50
NtRp3100
(dp3101
g53
(dp3102
g61
I4
ssg62
g3096
sg55
(lp3103
S'text/html; charset=utf-8'
p3104
asbasbasbag48
(g64
g50
NtRp3105
(dp3106
g53
(dp3107
sg62
g3057
sg55
(lp3108
g48
(g69
g50
NtRp3109
(dp3110
g53
(dp3111
g73
g74
ssg62
g3105
sg55
(lp3112
S'Expires'
p3113
asbag48
(g69
g50
NtRp3114
(dp3115
g53
(dp3116
g80
g81
ssg62
g3105
sg55
(lp3117
S':'
asbag48
(g69
g50
NtRp3118
(dp3119
g53
(dp3120
sg62
g3105
sg55
(lp3121
g48
(g49
g50
NtRp3122
(dp3123
g53
(dp3124
g61
I4
ssg62
g3118
sg55
(lp3125
S'Tue, 06 Sep 2011 21:30:00 GMT'
p3126
asbasbasbag48
(g64
g50
NtRp3127
(dp3128
g53
(dp3129
sg62
g3057
sg55
(lp3130
g48
(g69
g50
NtRp3131
(dp3132
g53
(dp3133
g73
g74
ssg62
g3127
sg55
(lp3134
S'Pragma'
p3135
asbag48
(g69
g50
NtRp3136
(dp3137
g53
(dp3138
g80
g81
ssg62
g3127
sg55
(lp3139
S':'
asbag48
(g69
g50
NtRp3140
(dp3141
g53
(dp3142
sg62
g3127
sg55
(lp3143
g48
(g49
g50
NtRp3144
(dp3145
g53
(dp3146
g61
I4
ssg62
g3140
sg55
(lp3147
S'no-cache'
p3148
asbasbasbag48
(g64
g50
NtRp3149
(dp3150
g53
(dp3151
sg62
g3057
sg55
(lp3152
g48
(g69
g50
NtRp3153
(dp3154
g53
(dp3155
g73
g74
ssg62
g3149
sg55
(lp3156
S'X-Powered-By'
p3157
asbag48
(g69
g50
NtRp3158
(dp3159
g53
(dp3160
g80
g81
ssg62
g3149
sg55
(lp3161
S':'
asbag48
(g69
g50
NtRp3162
(dp3163
g53
(dp3164
sg62
g3149
sg55
(lp3165
g48
(g49
g50
NtRp3166
(dp3167
g53
(dp3168
g61
I4
ssg62
g3162
sg55
(lp3169
S'web2py'
p3170
asbasbasbasbasbasbasbag48
(g64
g50
NtRp3171
(dp3172
g53
(dp3173
sg62
g2661
sg55
(lp3174
g48
(g69
g50
NtRp3175
(dp3176
g53
(dp3177
g73
g74
ssg62
g3171
sg55
(lp3178
S'menu'
p3179
asbag48
(g69
g50
NtRp3180
(dp3181
g53
(dp3182
g80
g81
ssg62
g3171
sg55
(lp3183
S':'
asbag48
(g69
g50
NtRp3184
(dp3185
g53
(dp3186
sg62
g3171
sg55
(lp3187
g48
(g49
g50
NtRp3188
(dp3189
g53
(dp3190
g61
I5
ssg62
g3184
sg55
(lp3191
g48
(g57
g50
NtRp3192
(dp3193
g53
(dp3194
g61
I4
ssg62
Nsg55
(lp3195
g48
(g64
g50
NtRp3196
(dp3197
g53
(dp3198
sg62
g3192
sg55
(lp3199
g48
(g69
g50
NtRp3200
(dp3201
g53
(dp3202
sg62
g3196
sg55
(lp3203
g48
(g49
g50
NtRp3204
(dp3205
g53
(dp3206
g61
I4
ssg62
g3200
sg55
(lp3207
g48
(g57
g50
NtRp3208
(dp3209
g53
(dp3210
g61
I3
ssg62
Nsg55
(lp3211
g48
(g64
g50
NtRp3212
(dp3213
g53
(dp3214
sg62
g3208
sg55
(lp3215
g48
(g69
g50
NtRp3216
(dp3217
g53
(dp3218
sg62
g3212
sg55
(lp3219
g48
(g49
g50
NtRp3220
(dp3221
g53
(dp3222
g61
I3
ssg62
g3216
sg55
(lp3223
cgluon.languages
lazyT_unpickle
p3224
(S's\x04\x00\x00\x00Home'
tRp3225
asbasbasbag48
(g64
g50
NtRp3226
(dp3227
g53
(dp3228
sg62
g3208
sg55
(lp3229
g48
(g69
g50
NtRp3230
(dp3231
g53
(dp3232
sg62
g3226
sg55
(lp3233
g48
(g49
g50
NtRp3234
(dp3235
g53
(dp3236
g61
I3
ssg62
g3230
sg55
(lp3237
g91
asbasbasbag48
(g64
g50
NtRp3238
(dp3239
g53
(dp3240
sg62
g3208
sg55
(lp3241
g48
(g69
g50
NtRp3242
(dp3243
g53
(dp3244
sg62
g3238
sg55
(lp3245
g48
(g49
g50
NtRp3246
(dp3247
g53
(dp3248
g61
I3
ssg62
g3242
sg55
(lp3249
S'/201056161/default/index'
p3250
asbasbasbag48
(g64
g50
NtRp3251
(dp3252
g53
(dp3253
sg62
g3208
sg55
(lp3254
g48
(g69
g50
NtRp3255
(dp3256
g53
(dp3257
sg62
g3251
sg55
(lp3258
g48
(g49
g50
NtRp3259
(dp3260
g53
(dp3261
g61
I3
ssg62
g3255
sg55
(lp3262
g48
(g57
g50
NtRp3263
(dp3264
g53
(dp3265
g61
I2
ssg62
Nsg55
(lp3266
sbasbasbasbasbasbasbasbag48
(g64
g50
NtRp3267
(dp3268
g53
(dp3269
sg62
g3192
sg55
(lp3270
g48
(g69
g50
NtRp3271
(dp3272
g53
(dp3273
sg62
g3267
sg55
(lp3274
g48
(g49
g50
NtRp3275
(dp3276
g53
(dp3277
g61
I4
ssg62
g3271
sg55
(lp3278
g48
(g57
g50
NtRp3279
(dp3280
g53
(dp3281
g61
I3
ssg62
Nsg55
(lp3282
g48
(g64
g50
NtRp3283
(dp3284
g53
(dp3285
sg62
g3279
sg55
(lp3286
g48
(g69
g50
NtRp3287
(dp3288
g53
(dp3289
sg62
g3283
sg55
(lp3290
g48
(g49
g50
NtRp3291
(dp3292
g53
(dp3293
g61
I3
ssg62
g3287
sg55
(lp3294
g3224
(S's\x08\x00\x00\x00This App'
tRp3295
asbasbasbag48
(g64
g50
NtRp3296
(dp3297
g53
(dp3298
sg62
g3279
sg55
(lp3299
g48
(g69
g50
NtRp3300
(dp3301
g53
(dp3302
sg62
g3296
sg55
(lp3303
g48
(g49
g50
NtRp3304
(dp3305
g53
(dp3306
g61
I3
ssg62
g3300
sg55
(lp3307
g91
asbasbasbag48
(g64
g50
NtRp3308
(dp3309
g53
(dp3310
sg62
g3279
sg55
(lp3311
g48
(g69
g50
NtRp3312
(dp3313
g53
(dp3314
sg62
g3308
sg55
(lp3315
g48
(g49
g50
NtRp3316
(dp3317
g53
(dp3318
g61
I3
ssg62
g3312
sg55
(lp3319
S'/admin/default/design/201056161'
p3320
asbasbasbag48
(g64
g50
NtRp3321
(dp3322
g53
(dp3323
sg62
g3279
sg55
(lp3324
g48
(g69
g50
NtRp3325
(dp3326
g53
(dp3327
sg62
g3321
sg55
(lp3328
g48
(g49
g50
NtRp3329
(dp3330
g53
(dp3331
g61
I3
ssg62
g3325
sg55
(lp3332
g48
(g57
g50
NtRp3333
(dp3334
g53
(dp3335
g61
I2
ssg62
Nsg55
(lp3336
g48
(g64
g50
NtRp3337
(dp3338
g53
(dp3339
sg62
g3333
sg55
(lp3340
g48
(g69
g50
NtRp3341
(dp3342
g53
(dp3343
sg62
g3337
sg55
(lp3344
g48
(g49
g50
NtRp3345
(dp3346
g53
(dp3347
g61
I2
ssg62
g3341
sg55
(lp3348
g48
(g57
g50
NtRp3349
(dp3350
g53
(dp3351
g61
I1
ssg62
Nsg55
(lp3352
g48
(g64
g50
NtRp3353
(dp3354
g53
(dp3355
sg62
g3349
sg55
(lp3356
g48
(g69
g50
NtRp3357
(dp3358
g53
(dp3359
sg62
g3353
sg55
(lp3360
g48
(g49
g50
NtRp3361
(dp3362
g53
(dp3363
g61
I1
ssg62
g3357
sg55
(lp3364
g3224
(S's\n\x00\x00\x00Controller'
tRp3365
asbasbasbag48
(g64
g50
NtRp3366
(dp3367
g53
(dp3368
sg62
g3349
sg55
(lp3369
g48
(g69
g50
NtRp3370
(dp3371
g53
(dp3372
sg62
g3366
sg55
(lp3373
g48
(g49
g50
NtRp3374
(dp3375
g53
(dp3376
g61
I1
ssg62
g3370
sg55
(lp3377
I00
asbasbasbag48
(g64
g50
NtRp3378
(dp3379
g53
(dp3380
sg62
g3349
sg55
(lp3381
g48
(g69
g50
NtRp3382
(dp3383
g53
(dp3384
sg62
g3378
sg55
(lp3385
g48
(g49
g50
NtRp3386
(dp3387
g53
(dp3388
g61
I1
ssg62
g3382
sg55
(lp3389
S'/admin/default/edit/201056161/controllers/default.py'
p3390
asbasbasbasbasbasbasbag48
(g64
g50
NtRp3391
(dp3392
g53
(dp3393
sg62
g3333
sg55
(lp3394
g48
(g69
g50
NtRp3395
(dp3396
g53
(dp3397
sg62
g3391
sg55
(lp3398
g48
(g49
g50
NtRp3399
(dp3400
g53
(dp3401
g61
I2
ssg62
g3395
sg55
(lp3402
g48
(g57
g50
NtRp3403
(dp3404
g53
(dp3405
g61
I1
ssg62
Nsg55
(lp3406
g48
(g64
g50
NtRp3407
(dp3408
g53
(dp3409
sg62
g3403
sg55
(lp3410
g48
(g69
g50
NtRp3411
(dp3412
g53
(dp3413
sg62
g3407
sg55
(lp3414
g48
(g49
g50
NtRp3415
(dp3416
g53
(dp3417
g61
I1
ssg62
g3411
sg55
(lp3418
g3224
(S's\x04\x00\x00\x00View'
tRp3419
asbasbasbag48
(g64
g50
NtRp3420
(dp3421
g53
(dp3422
sg62
g3403
sg55
(lp3423
g48
(g69
g50
NtRp3424
(dp3425
g53
(dp3426
sg62
g3420
sg55
(lp3427
g48
(g49
g50
NtRp3428
(dp3429
g53
(dp3430
g61
I1
ssg62
g3424
sg55
(lp3431
I00
asbasbasbag48
(g64
g50
NtRp3432
(dp3433
g53
(dp3434
sg62
g3403
sg55
(lp3435
g48
(g69
g50
NtRp3436
(dp3437
g53
(dp3438
sg62
g3432
sg55
(lp3439
g48
(g49
g50
NtRp3440
(dp3441
g53
(dp3442
g61
I1
ssg62
g3436
sg55
(lp3443
S'/admin/default/edit/201056161/views/default/q2s.html'
p3444
asbasbasbasbasbasbasbag48
(g64
g50
NtRp3445
(dp3446
g53
(dp3447
sg62
g3333
sg55
(lp3448
g48
(g69
g50
NtRp3449
(dp3450
g53
(dp3451
sg62
g3445
sg55
(lp3452
g48
(g49
g50
NtRp3453
(dp3454
g53
(dp3455
g61
I2
ssg62
g3449
sg55
(lp3456
g48
(g57
g50
NtRp3457
(dp3458
g53
(dp3459
g61
I1
ssg62
Nsg55
(lp3460
g48
(g64
g50
NtRp3461
(dp3462
g53
(dp3463
sg62
g3457
sg55
(lp3464
g48
(g69
g50
NtRp3465
(dp3466
g53
(dp3467
sg62
g3461
sg55
(lp3468
g48
(g49
g50
NtRp3469
(dp3470
g53
(dp3471
g61
I1
ssg62
g3465
sg55
(lp3472
g3224
(S's\x06\x00\x00\x00Layout'
tRp3473
asbasbasbag48
(g64
g50
NtRp3474
(dp3475
g53
(dp3476
sg62
g3457
sg55
(lp3477
g48
(g69
g50
NtRp3478
(dp3479
g53
(dp3480
sg62
g3474
sg55
(lp3481
g48
(g49
g50
NtRp3482
(dp3483
g53
(dp3484
g61
I1
ssg62
g3478
sg55
(lp3485
I00
asbasbasbag48
(g64
g50
NtRp3486
(dp3487
g53
(dp3488
sg62
g3457
sg55
(lp3489
g48
(g69
g50
NtRp3490
(dp3491
g53
(dp3492
sg62
g3486
sg55
(lp3493
g48
(g49
g50
NtRp3494
(dp3495
g53
(dp3496
g61
I1
ssg62
g3490
sg55
(lp3497
S'/admin/default/edit/201056161/views/layout.html'
p3498
asbasbasbasbasbasbasbag48
(g64
g50
NtRp3499
(dp3500
g53
(dp3501
sg62
g3333
sg55
(lp3502
g48
(g69
g50
NtRp3503
(dp3504
g53
(dp3505
sg62
g3499
sg55
(lp3506
g48
(g49
g50
NtRp3507
(dp3508
g53
(dp3509
g61
I2
ssg62
g3503
sg55
(lp3510
g48
(g57
g50
NtRp3511
(dp3512
g53
(dp3513
g61
I1
ssg62
Nsg55
(lp3514
g48
(g64
g50
NtRp3515
(dp3516
g53
(dp3517
sg62
g3511
sg55
(lp3518
g48
(g69
g50
NtRp3519
(dp3520
g53
(dp3521
sg62
g3515
sg55
(lp3522
g48
(g49
g50
NtRp3523
(dp3524
g53
(dp3525
g61
I1
ssg62
g3519
sg55
(lp3526
g3224
(S's\n\x00\x00\x00Stylesheet'
tRp3527
asbasbasbag48
(g64
g50
NtRp3528
(dp3529
g53
(dp3530
sg62
g3511
sg55
(lp3531
g48
(g69
g50
NtRp3532
(dp3533
g53
(dp3534
sg62
g3528
sg55
(lp3535
g48
(g49
g50
NtRp3536
(dp3537
g53
(dp3538
g61
I1
ssg62
g3532
sg55
(lp3539
I00
asbasbasbag48
(g64
g50
NtRp3540
(dp3541
g53
(dp3542
sg62
g3511
sg55
(lp3543
g48
(g69
g50
NtRp3544
(dp3545
g53
(dp3546
sg62
g3540
sg55
(lp3547
g48
(g49
g50
NtRp3548
(dp3549
g53
(dp3550
g61
I1
ssg62
g3544
sg55
(lp3551
S'/admin/default/edit/201056161/static/base.css'
p3552
asbasbasbasbasbasbasbag48
(g64
g50
NtRp3553
(dp3554
g53
(dp3555
sg62
g3333
sg55
(lp3556
g48
(g69
g50
NtRp3557
(dp3558
g53
(dp3559
sg62
g3553
sg55
(lp3560
g48
(g49
g50
NtRp3561
(dp3562
g53
(dp3563
g61
I2
ssg62
g3557
sg55
(lp3564
g48
(g57
g50
NtRp3565
(dp3566
g53
(dp3567
g61
I1
ssg62
Nsg55
(lp3568
g48
(g64
g50
NtRp3569
(dp3570
g53
(dp3571
sg62
g3565
sg55
(lp3572
g48
(g69
g50
NtRp3573
(dp3574
g53
(dp3575
sg62
g3569
sg55
(lp3576
g48
(g49
g50
NtRp3577
(dp3578
g53
(dp3579
g61
I1
ssg62
g3573
sg55
(lp3580
g3224
(S's\x08\x00\x00\x00DB Model'
tRp3581
asbasbasbag48
(g64
g50
NtRp3582
(dp3583
g53
(dp3584
sg62
g3565
sg55
(lp3585
g48
(g69
g50
NtRp3586
(dp3587
g53
(dp3588
sg62
g3582
sg55
(lp3589
g48
(g49
g50
NtRp3590
(dp3591
g53
(dp3592
g61
I1
ssg62
g3586
sg55
(lp3593
I00
asbasbasbag48
(g64
g50
NtRp3594
(dp3595
g53
(dp3596
sg62
g3565
sg55
(lp3597
g48
(g69
g50
NtRp3598
(dp3599
g53
(dp3600
sg62
g3594
sg55
(lp3601
g48
(g49
g50
NtRp3602
(dp3603
g53
(dp3604
g61
I1
ssg62
g3598
sg55
(lp3605
S'/admin/default/edit/201056161/models/db.py'
p3606
asbasbasbasbasbasbasbag48
(g64
g50
NtRp3607
(dp3608
g53
(dp3609
sg62
g3333
sg55
(lp3610
g48
(g69
g50
NtRp3611
(dp3612
g53
(dp3613
sg62
g3607
sg55
(lp3614
g48
(g49
g50
NtRp3615
(dp3616
g53
(dp3617
g61
I2
ssg62
g3611
sg55
(lp3618
g48
(g57
g50
NtRp3619
(dp3620
g53
(dp3621
g61
I1
ssg62
Nsg55
(lp3622
g48
(g64
g50
NtRp3623
(dp3624
g53
(dp3625
sg62
g3619
sg55
(lp3626
g48
(g69
g50
NtRp3627
(dp3628
g53
(dp3629
sg62
g3623
sg55
(lp3630
g48
(g49
g50
NtRp3631
(dp3632
g53
(dp3633
g61
I1
ssg62
g3627
sg55
(lp3634
g3224
(S's\n\x00\x00\x00Menu Model'
tRp3635
asbasbasbag48
(g64
g50
NtRp3636
(dp3637
g53
(dp3638
sg62
g3619
sg55
(lp3639
g48
(g69
g50
NtRp3640
(dp3641
g53
(dp3642
sg62
g3636
sg55
(lp3643
g48
(g49
g50
NtRp3644
(dp3645
g53
(dp3646
g61
I1
ssg62
g3640
sg55
(lp3647
I00
asbasbasbag48
(g64
g50
NtRp3648
(dp3649
g53
(dp3650
sg62
g3619
sg55
(lp3651
g48
(g69
g50
NtRp3652
(dp3653
g53
(dp3654
sg62
g3648
sg55
(lp3655
g48
(g49
g50
NtRp3656
(dp3657
g53
(dp3658
g61
I1
ssg62
g3652
sg55
(lp3659
S'/admin/default/edit/201056161/models/menu.py'
p3660
asbasbasbasbasbasbasbag48
(g64
g50
NtRp3661
(dp3662
g53
(dp3663
sg62
g3333
sg55
(lp3664
g48
(g69
g50
NtRp3665
(dp3666
g53
(dp3667
sg62
g3661
sg55
(lp3668
g48
(g49
g50
NtRp3669
(dp3670
g53
(dp3671
g61
I2
ssg62
g3665
sg55
(lp3672
g48
(g57
g50
NtRp3673
(dp3674
g53
(dp3675
g61
I1
ssg62
Nsg55
(lp3676
g48
(g64
g50
NtRp3677
(dp3678
g53
(dp3679
sg62
g3673
sg55
(lp3680
g48
(g69
g50
NtRp3681
(dp3682
g53
(dp3683
sg62
g3677
sg55
(lp3684
g48
(g49
g50
NtRp3685
(dp3686
g53
(dp3687
g61
I1
ssg62
g3681
sg55
(lp3688
g3224
(S's\x08\x00\x00\x00Database'
tRp3689
asbasbasbag48
(g64
g50
NtRp3690
(dp3691
g53
(dp3692
sg62
g3673
sg55
(lp3693
g48
(g69
g50
NtRp3694
(dp3695
g53
(dp3696
sg62
g3690
sg55
(lp3697
g48
(g49
g50
NtRp3698
(dp3699
g53
(dp3700
g61
I1
ssg62
g3694
sg55
(lp3701
I00
asbasbasbag48
(g64
g50
NtRp3702
(dp3703
g53
(dp3704
sg62
g3673
sg55
(lp3705
g48
(g69
g50
NtRp3706
(dp3707
g53
(dp3708
sg62
g3702
sg55
(lp3709
g48
(g49
g50
NtRp3710
(dp3711
g53
(dp3712
g61
I1
ssg62
g3706
sg55
(lp3713
S'/201056161/appadmin/index'
p3714
asbasbasbasbasbasbasbag48
(g64
g50
NtRp3715
(dp3716
g53
(dp3717
sg62
g3333
sg55
(lp3718
g48
(g69
g50
NtRp3719
(dp3720
g53
(dp3721
sg62
g3715
sg55
(lp3722
g48
(g49
g50
NtRp3723
(dp3724
g53
(dp3725
g61
I2
ssg62
g3719
sg55
(lp3726
g48
(g57
g50
NtRp3727
(dp3728
g53
(dp3729
g61
I1
ssg62
Nsg55
(lp3730
g48
(g64
g50
NtRp3731
(dp3732
g53
(dp3733
sg62
g3727
sg55
(lp3734
g48
(g69
g50
NtRp3735
(dp3736
g53
(dp3737
sg62
g3731
sg55
(lp3738
g48
(g49
g50
NtRp3739
(dp3740
g53
(dp3741
g61
I1
ssg62
g3735
sg55
(lp3742
g3224
(S's\x06\x00\x00\x00Errors'
tRp3743
asbasbasbag48
(g64
g50
NtRp3744
(dp3745
g53
(dp3746
sg62
g3727
sg55
(lp3747
g48
(g69
g50
NtRp3748
(dp3749
g53
(dp3750
sg62
g3744
sg55
(lp3751
g48
(g49
g50
NtRp3752
(dp3753
g53
(dp3754
g61
I1
ssg62
g3748
sg55
(lp3755
I00
asbasbasbag48
(g64
g50
NtRp3756
(dp3757
g53
(dp3758
sg62
g3727
sg55
(lp3759
g48
(g69
g50
NtRp3760
(dp3761
g53
(dp3762
sg62
g3756
sg55
(lp3763
g48
(g49
g50
NtRp3764
(dp3765
g53
(dp3766
g61
I1
ssg62
g3760
sg55
(lp3767
S'/admin/default/errors/201056161'
p3768
asbasbasbasbasbasbasbag48
(g64
g50
NtRp3769
(dp3770
g53
(dp3771
sg62
g3333
sg55
(lp3772
g48
(g69
g50
NtRp3773
(dp3774
g53
(dp3775
sg62
g3769
sg55
(lp3776
g48
(g49
g50
NtRp3777
(dp3778
g53
(dp3779
g61
I2
ssg62
g3773
sg55
(lp3780
g48
(g57
g50
NtRp3781
(dp3782
g53
(dp3783
g61
I1
ssg62
Nsg55
(lp3784
g48
(g64
g50
NtRp3785
(dp3786
g53
(dp3787
sg62
g3781
sg55
(lp3788
g48
(g69
g50
NtRp3789
(dp3790
g53
(dp3791
sg62
g3785
sg55
(lp3792
g48
(g49
g50
NtRp3793
(dp3794
g53
(dp3795
g61
I1
ssg62
g3789
sg55
(lp3796
g3224
(S's\x05\x00\x00\x00About'
tRp3797
asbasbasbag48
(g64
g50
NtRp3798
(dp3799
g53
(dp3800
sg62
g3781
sg55
(lp3801
g48
(g69
g50
NtRp3802
(dp3803
g53
(dp3804
sg62
g3798
sg55
(lp3805
g48
(g49
g50
NtRp3806
(dp3807
g53
(dp3808
g61
I1
ssg62
g3802
sg55
(lp3809
I00
asbasbasbag48
(g64
g50
NtRp3810
(dp3811
g53
(dp3812
sg62
g3781
sg55
(lp3813
g48
(g69
g50
NtRp3814
(dp3815
g53
(dp3816
sg62
g3810
sg55
(lp3817
g48
(g49
g50
NtRp3818
(dp3819
g53
(dp3820
g61
I1
ssg62
g3814
sg55
(lp3821
S'/admin/default/about/201056161'
p3822
asbasbasbasbasbasbasbasbasbasbasbasbasbasbasbag48
(g64
g50
NtRp3823
(dp3824
g53
(dp3825
sg62
g3192
sg55
(lp3826
g48
(g69
g50
NtRp3827
(dp3828
g53
(dp3829
sg62
g3823
sg55
(lp3830
g48
(g49
g50
NtRp3831
(dp3832
g53
(dp3833
g61
I4
ssg62
g3827
sg55
(lp3834
g48
(g57
g50
NtRp3835
(dp3836
g53
(dp3837
g61
I3
ssg62
Nsg55
(lp3838
g48
(g64
g50
NtRp3839
(dp3840
g53
(dp3841
sg62
g3835
sg55
(lp3842
g48
(g69
g50
NtRp3843
(dp3844
g53
(dp3845
sg62
g3839
sg55
(lp3846
g48
(g49
g50
NtRp3847
(dp3848
g53
(dp3849
g61
I3
ssg62
g3843
sg55
(lp3850
g3224
(S's\t\x00\x00\x00Resources'
tRp3851
asbasbasbag48
(g64
g50
NtRp3852
(dp3853
g53
(dp3854
sg62
g3835
sg55
(lp3855
g48
(g69
g50
NtRp3856
(dp3857
g53
(dp3858
sg62
g3852
sg55
(lp3859
g48
(g49
g50
NtRp3860
(dp3861
g53
(dp3862
g61
I3
ssg62
g3856
sg55
(lp3863
g91
asbasbasbag48
(g64
g50
NtRp3864
(dp3865
g53
(dp3866
sg62
g3835
sg55
(lp3867
g48
(g69
g50
NtRp3868
(dp3869
g53
(dp3870
sg62
g3864
sg55
(lp3871
g48
(g49
g50
NtRp3872
(dp3873
g53
(dp3874
g61
I3
ssg62
g3868
sg55
(lp3875
S'None'
p3876
asbasbasbag48
(g64
g50
NtRp3877
(dp3878
g53
(dp3879
sg62
g3835
sg55
(lp3880
g48
(g69
g50
NtRp3881
(dp3882
g53
(dp3883
sg62
g3877
sg55
(lp3884
g48
(g49
g50
NtRp3885
(dp3886
g53
(dp3887
g61
I3
ssg62
g3881
sg55
(lp3888
g48
(g57
g50
NtRp3889
(dp3890
g53
(dp3891
g61
I2
ssg62
Nsg55
(lp3892
g48
(g64
g50
NtRp3893
(dp3894
g53
(dp3895
sg62
g3889
sg55
(lp3896
g48
(g69
g50
NtRp3897
(dp3898
g53
(dp3899
sg62
g3893
sg55
(lp3900
g48
(g49
g50
NtRp3901
(dp3902
g53
(dp3903
g61
I2
ssg62
g3897
sg55
(lp3904
g48
(g57
g50
NtRp3905
(dp3906
g53
(dp3907
g61
I1
ssg62
Nsg55
(lp3908
g48
(g64
g50
NtRp3909
(dp3910
g53
(dp3911
sg62
g3905
sg55
(lp3912
g48
(g69
g50
NtRp3913
(dp3914
g53
(dp3915
sg62
g3909
sg55
(lp3916
g48
(g49
g50
NtRp3917
(dp3918
g53
(dp3919
g61
I1
ssg62
g3913
sg55
(lp3920
g3224
(S's\r\x00\x00\x00Documentation'
tRp3921
asbasbasbag48
(g64
g50
NtRp3922
(dp3923
g53
(dp3924
sg62
g3905
sg55
(lp3925
g48
(g69
g50
NtRp3926
(dp3927
g53
(dp3928
sg62
g3922
sg55
(lp3929
g48
(g49
g50
NtRp3930
(dp3931
g53
(dp3932
g61
I1
ssg62
g3926
sg55
(lp3933
I00
asbasbasbag48
(g64
g50
NtRp3934
(dp3935
g53
(dp3936
sg62
g3905
sg55
(lp3937
g48
(g69
g50
NtRp3938
(dp3939
g53
(dp3940
sg62
g3934
sg55
(lp3941
g48
(g49
g50
NtRp3942
(dp3943
g53
(dp3944
g61
I1
ssg62
g3938
sg55
(lp3945
S'http://www.web2py.com/book'
p3946
asbasbasbag48
(g64
g50
NtRp3947
(dp3948
g53
(dp3949
sg62
g3905
sg55
(lp3950
g48
(g69
g50
NtRp3951
(dp3952
g53
(dp3953
sg62
g3947
sg55
(lp3954
g48
(g49
g50
NtRp3955
(dp3956
g53
(dp3957
g61
I1
ssg62
g3951
sg55
(lp3958
(lp3959
(g3224
(S's\x07\x00\x00\x00Preface'
tRp3960
I00
S'http://www.web2py.com/book/default/chapter/00'
tp3961
a(g3224
(S's\x0c\x00\x00\x00Introduction'
tRp3962
I00
S'http://www.web2py.com/book/default/chapter/01'
tp3963
a(g3224
(S's\x06\x00\x00\x00Python'
tRp3964
I00
S'http://www.web2py.com/book/default/chapter/02'
tp3965
a(g3224
(S's\x08\x00\x00\x00Overview'
tRp3966
I00
S'http://www.web2py.com/book/default/chapter/03'
tp3967
a(g3224
(S's\x08\x00\x00\x00The Core'
tRp3968
I00
S'http://www.web2py.com/book/default/chapter/04'
tp3969
a(g3224
(S's\t\x00\x00\x00The Views'
tRp3970
I00
S'http://www.web2py.com/book/default/chapter/05'
tp3971
a(g3224
(S's\x08\x00\x00\x00Database'
tRp3972
I00
S'http://www.web2py.com/book/default/chapter/06'
tp3973
a(g3224
(S's\x14\x00\x00\x00Forms and Validators'
tRp3974
I00
S'http://www.web2py.com/book/default/chapter/07'
tp3975
a(g3224
(S's\x0e\x00\x00\x00Access Control'
tRp3976
I00
S'http://www.web2py.com/book/default/chapter/08'
tp3977
a(g3224
(S's\x08\x00\x00\x00Services'
tRp3978
I00
S'http://www.web2py.com/book/default/chapter/09'
tp3979
a(g3224
(S's\x0c\x00\x00\x00Ajax Recipes'
tRp3980
I00
S'http://www.web2py.com/book/default/chapter/10'
tp3981
a(g3224
(S's\x12\x00\x00\x00Deployment Recipes'
tRp3982
I00
S'http://www.web2py.com/book/default/chapter/11'
tp3983
a(g3224
(S's\r\x00\x00\x00Other Recipes'
tRp3984
I00
S'http://www.web2py.com/book/default/chapter/12'
tp3985
a(g3224
(S's\r\x00\x00\x00Buy this book'
tRp3986
I00
S'http://stores.lulu.com/web2py'
tp3987
aasbasbasbasbasbasbasbag48
(g64
g50
NtRp3988
(dp3989
g53
(dp3990
sg62
g3889
sg55
(lp3991
g48
(g69
g50
NtRp3992
(dp3993
g53
(dp3994
sg62
g3988
sg55
(lp3995
g48
(g49
g50
NtRp3996
(dp3997
g53
(dp3998
g61
I2
ssg62
g3992
sg55
(lp3999
g48
(g57
g50
NtRp4000
(dp4001
g53
(dp4002
g61
I1
ssg62
Nsg55
(lp4003
g48
(g64
g50
NtRp4004
(dp4005
g53
(dp4006
sg62
g4000
sg55
(lp4007
g48
(g69
g50
NtRp4008
(dp4009
g53
(dp4010
sg62
g4004
sg55
(lp4011
g48
(g49
g50
NtRp4012
(dp4013
g53
(dp4014
g61
I1
ssg62
g4008
sg55
(lp4015
g3224
(S's\t\x00\x00\x00Community'
tRp4016
asbasbasbag48
(g64
g50
NtRp4017
(dp4018
g53
(dp4019
sg62
g4000
sg55
(lp4020
g48
(g69
g50
NtRp4021
(dp4022
g53
(dp4023
sg62
g4017
sg55
(lp4024
g48
(g49
g50
NtRp4025
(dp4026
g53
(dp4027
g61
I1
ssg62
g4021
sg55
(lp4028
I00
asbasbasbag48
(g64
g50
NtRp4029
(dp4030
g53
(dp4031
sg62
g4000
sg55
(lp4032
g48
(g69
g50
NtRp4033
(dp4034
g53
(dp4035
sg62
g4029
sg55
(lp4036
g48
(g49
g50
NtRp4037
(dp4038
g53
(dp4039
g61
I1
ssg62
g4033
sg55
(lp4040
Nasbasbasbag48
(g64
g50
NtRp4041
(dp4042
g53
(dp4043
sg62
g4000
sg55
(lp4044
g48
(g69
g50
NtRp4045
(dp4046
g53
(dp4047
sg62
g4041
sg55
(lp4048
g48
(g49
g50
NtRp4049
(dp4050
g53
(dp4051
g61
I1
ssg62
g4045
sg55
(lp4052
(lp4053
(g3224
(S's\x06\x00\x00\x00Groups'
tRp4054
I00
S'http://www.web2py.com/examples/default/usergroups'
tp4055
a(g3224
(S's\x07\x00\x00\x00Twitter'
tRp4056
I00
S'http://twitter.com/web2py'
tp4057
a(g3224
(S's\t\x00\x00\x00Live chat'
tRp4058
I00
S'http://mibbit.com/?channel=%23web2py&server=irc.mibbit.net'
tp4059
a(g3224
(S's\n\x00\x00\x00User Voice'
tRp4060
I00
S'http://web2py.uservoice.com/'
tp4061
aasbasbasbasbasbasbasbag48
(g64
g50
NtRp4062
(dp4063
g53
(dp4064
sg62
g3889
sg55
(lp4065
g48
(g69
g50
NtRp4066
(dp4067
g53
(dp4068
sg62
g4062
sg55
(lp4069
g48
(g49
g50
NtRp4070
(dp4071
g53
(dp4072
g61
I2
ssg62
g4066
sg55
(lp4073
g48
(g57
g50
NtRp4074
(dp4075
g53
(dp4076
g61
I1
ssg62
Nsg55
(lp4077
g48
(g64
g50
NtRp4078
(dp4079
g53
(dp4080
sg62
g4074
sg55
(lp4081
g48
(g69
g50
NtRp4082
(dp4083
g53
(dp4084
sg62
g4078
sg55
(lp4085
g48
(g49
g50
NtRp4086
(dp4087
g53
(dp4088
g61
I1
ssg62
g4082
sg55
(lp4089
g3224
(S's\x06\x00\x00\x00Web2py'
tRp4090
asbasbasbag48
(g64
g50
NtRp4091
(dp4092
g53
(dp4093
sg62
g4074
sg55
(lp4094
g48
(g69
g50
NtRp4095
(dp4096
g53
(dp4097
sg62
g4091
sg55
(lp4098
g48
(g49
g50
NtRp4099
(dp4100
g53
(dp4101
g61
I1
ssg62
g4095
sg55
(lp4102
I00
asbasbasbag48
(g64
g50
NtRp4103
(dp4104
g53
(dp4105
sg62
g4074
sg55
(lp4106
g48
(g69
g50
NtRp4107
(dp4108
g53
(dp4109
sg62
g4103
sg55
(lp4110
g48
(g49
g50
NtRp4111
(dp4112
g53
(dp4113
g61
I1
ssg62
g4107
sg55
(lp4114
S'http://www.web2py.com'
p4115
asbasbasbag48
(g64
g50
NtRp4116
(dp4117
g53
(dp4118
sg62
g4074
sg55
(lp4119
g48
(g69
g50
NtRp4120
(dp4121
g53
(dp4122
sg62
g4116
sg55
(lp4123
g48
(g49
g50
NtRp4124
(dp4125
g53
(dp4126
g61
I1
ssg62
g4120
sg55
(lp4127
(lp4128
(g3224
(S's\x08\x00\x00\x00Download'
tRp4129
I00
S'http://www.web2py.com/examples/default/download'
tp4130
a(g3224
(S's\x07\x00\x00\x00Support'
tRp4131
I00
S'http://www.web2py.com/examples/default/support'
tp4132
a(g3224
(S's\x0e\x00\x00\x00Quick Examples'
tRp4133
I00
S'http://web2py.com/examples/default/examples'
tp4134
a(g3224
(S's\x03\x00\x00\x00FAQ'
tRp4135
I00
S'http://web2py.com/AlterEgo'
tp4136
a(g3224
(S's\x11\x00\x00\x00Free Applications'
tRp4137
I00
S'http://web2py.com/appliances'
tp4138
a(g3224
(S's\x07\x00\x00\x00Plugins'
tRp4139
I00
S'http://web2py.com/plugins'
tp4140
a(g3224
(S's\x07\x00\x00\x00Recipes'
tRp4141
I00
S'http://web2pyslices.com/'
tp4142
a(g3224
(S's\x04\x00\x00\x00Demo'
tRp4143
I00
S'http://web2py.com/demo_admin'
tp4144
a(g3224
(S's\x08\x00\x00\x00Semantic'
tRp4145
I00
S'http://web2py.com/semantic'
tp4146
a(g3224
(S's\x07\x00\x00\x00Layouts'
tRp4147
I00
S'http://web2py.com/layouts'
tp4148
a(g3224
(S's\x06\x00\x00\x00Videos'
tRp4149
I00
S'http://www.web2py.com/examples/default/videos/'
tp4150
aasbasbasbasbasbasbasbasbasbasbasbasbasbasbasbasbasbasbasbag48
(g64
g50
NtRp4151
(dp4152
g53
(dp4153
sg62
g2661
sg55
(lp4154
g48
(g69
g50
NtRp4155
(dp4156
g53
(dp4157
g73
g74
ssg62
g4151
sg55
(lp4158
S'meta'
p4159
asbag48
(g69
g50
NtRp4160
(dp4161
g53
(dp4162
g80
g81
ssg62
g4151
sg55
(lp4163
S':'
asbag48
(g69
g50
NtRp4164
(dp4165
g53
(dp4166
sg62
g4151
sg55
(lp4167
g48
(g49
g50
NtRp4168
(dp4169
g53
(dp4170
g61
I5
ssg62
g4164
sg55
(lp4171
g48
(g57
g50
NtRp4172
(dp4173
g53
(dp4174
g61
I4
ssg62
Nsg55
(lp4175
g48
(g64
g50
NtRp4176
(dp4177
g53
(dp4178
sg62
g4172
sg55
(lp4179
g48
(g69
g50
NtRp4180
(dp4181
g53
(dp4182
g73
g74
ssg62
g4176
sg55
(lp4183
S'author'
p4184
asbag48
(g69
g50
NtRp4185
(dp4186
g53
(dp4187
g80
g81
ssg62
g4176
sg55
(lp4188
S':'
asbag48
(g69
g50
NtRp4189
(dp4190
g53
(dp4191
sg62
g4176
sg55
(lp4192
g48
(g49
g50
NtRp4193
(dp4194
g53
(dp4195
g61
I4
ssg62
g4189
sg55
(lp4196
S'you'
p4197
asbasbasbag48
(g64
g50
NtRp4198
(dp4199
g53
(dp4200
sg62
g4172
sg55
(lp4201
g48
(g69
g50
NtRp4202
(dp4203
g53
(dp4204
g73
g74
ssg62
g4198
sg55
(lp4205
S'copyright'
p4206
asbag48
(g69
g50
NtRp4207
(dp4208
g53
(dp4209
g80
g81
ssg62
g4198
sg55
(lp4210
S':'
asbag48
(g69
g50
NtRp4211
(dp4212
g53
(dp4213
sg62
g4198
sg55
(lp4214
g48
(g49
g50
NtRp4215
(dp4216
g53
(dp4217
g61
I4
ssg62
g4211
sg55
(lp4218
S'Copyright 2007-2010'
p4219
asbasbasbag48
(g64
g50
NtRp4220
(dp4221
g53
(dp4222
sg62
g4172
sg55
(lp4223
g48
(g69
g50
NtRp4224
(dp4225
g53
(dp4226
g73
g74
ssg62
g4220
sg55
(lp4227
S'description'
p4228
asbag48
(g69
g50
NtRp4229
(dp4230
g53
(dp4231
g80
g81
ssg62
g4220
sg55
(lp4232
S':'
asbag48
(g69
g50
NtRp4233
(dp4234
g53
(dp4235
sg62
g4220
sg55
(lp4236
g48
(g49
g50
NtRp4237
(dp4238
g53
(dp4239
g61
I4
ssg62
g4233
sg55
(lp4240
S'Free and open source full-stack enterprise framework for agile development of fast, scalable, secure and portable database-driven web-based applications. Written and programmable in Python'
p4241
asbasbasbag48
(g64
g50
NtRp4242
(dp4243
g53
(dp4244
sg62
g4172
sg55
(lp4245
g48
(g69
g50
NtRp4246
(dp4247
g53
(dp4248
g73
g74
ssg62
g4242
sg55
(lp4249
S'generator'
p4250
asbag48
(g69
g50
NtRp4251
(dp4252
g53
(dp4253
g80
g81
ssg62
g4242
sg55
(lp4254
S':'
asbag48
(g69
g50
NtRp4255
(dp4256
g53
(dp4257
sg62
g4242
sg55
(lp4258
g48
(g49
g50
NtRp4259
(dp4260
g53
(dp4261
g61
I4
ssg62
g4255
sg55
(lp4262
S'Web2py Enterprise Framework'
p4263
asbasbasbag48
(g64
g50
NtRp4264
(dp4265
g53
(dp4266
sg62
g4172
sg55
(lp4267
g48
(g69
g50
NtRp4268
(dp4269
g53
(dp4270
g73
g74
ssg62
g4264
sg55
(lp4271
S'keywords'
p4272
asbag48
(g69
g50
NtRp4273
(dp4274
g53
(dp4275
g80
g81
ssg62
g4264
sg55
(lp4276
S':'
asbag48
(g69
g50
NtRp4277
(dp4278
g53
(dp4279
sg62
g4264
sg55
(lp4280
g48
(g49
g50
NtRp4281
(dp4282
g53
(dp4283
g61
I4
ssg62
g4277
sg55
(lp4284
S'web2py, python, framework'
p4285
asbasbasbasbasbasbasbag48
(g64
g50
NtRp4286
(dp4287
g53
(dp4288
sg62
g2661
sg55
(lp4289
g48
(g69
g50
NtRp4290
(dp4291
g53
(dp4292
g73
g74
ssg62
g4286
sg55
(lp4293
S'postprocessing'
p4294
asbag48
(g69
g50
NtRp4295
(dp4296
g53
(dp4297
g80
g81
ssg62
g4286
sg55
(lp4298
S':'
asbag48
(g69
g50
NtRp4299
(dp4300
g53
(dp4301
sg62
g4286
sg55
(lp4302
g48
(g49
g50
NtRp4303
(dp4304
g53
(dp4305
g61
I5
ssg62
g4299
sg55
(lp4306
g48
(g57
g50
NtRp4307
(dp4308
g53
(dp4309
g61
I4
ssg62
Nsg55
(lp4310
sbasbasbasbag48
(g64
g50
NtRp4311
(dp4312
g53
(dp4313
sg62
g2661
sg55
(lp4314
g48
(g69
g50
NtRp4315
(dp4316
g53
(dp4317
g73
g74
ssg62
g4311
sg55
(lp4318
S'session_file'
p4319
asbag48
(g69
g50
NtRp4320
(dp4321
g53
(dp4322
g80
g81
ssg62
g4311
sg55
(lp4323
S':'
asbag48
(g69
g50
NtRp4324
(dp4325
g53
(dp4326
sg62
g4311
sg55
(lp4327
g48
(g49
g50
NtRp4328
(dp4329
g53
(dp4330
g61
I5
ssg62
g4324
sg55
(lp4331
S"<open file 'C:\\Users\\AKSHAY\\Desktop\\web2py\\applications\\201056161\\sessions\\127.0.0.1-3bc821ac-4d59-41c6-8699-b3e43edfc478', mode 'rb+' at 0x03368530>"
p4332
asbasbasbag48
(g64
g50
NtRp4333
(dp4334
g53
(dp4335
sg62
g2661
sg55
(lp4336
g48
(g69
g50
NtRp4337
(dp4338
g53
(dp4339
g73
g74
ssg62
g4333
sg55
(lp4340
S'session_filename'
p4341
asbag48
(g69
g50
NtRp4342
(dp4343
g53
(dp4344
g80
g81
ssg62
g4333
sg55
(lp4345
S':'
asbag48
(g69
g50
NtRp4346
(dp4347
g53
(dp4348
sg62
g4333
sg55
(lp4349
g48
(g49
g50
NtRp4350
(dp4351
g53
(dp4352
g61
I5
ssg62
g4346
sg55
(lp4353
S'C:\\Users\\AKSHAY\\Desktop\\web2py\\applications\\201056161\\sessions\\127.0.0.1-3bc821ac-4d59-41c6-8699-b3e43edfc478'
p4354
asbasbasbag48
(g64
g50
NtRp4355
(dp4356
g53
(dp4357
sg62
g2661
sg55
(lp4358
g48
(g69
g50
NtRp4359
(dp4360
g53
(dp4361
g73
g74
ssg62
g4355
sg55
(lp4362
S'session_id'
p4363
asbag48
(g69
g50
NtRp4364
(dp4365
g53
(dp4366
g80
g81
ssg62
g4355
sg55
(lp4367
S':'
asbag48
(g69
g50
NtRp4368
(dp4369
g53
(dp4370
sg62
g4355
sg55
(lp4371
g48
(g49
g50
NtRp4372
(dp4373
g53
(dp4374
g61
I5
ssg62
g4368
sg55
(lp4375
S'127.0.0.1-3bc821ac-4d59-41c6-8699-b3e43edfc478'
p4376
asbasbasbag48
(g64
g50
NtRp4377
(dp4378
g53
(dp4379
sg62
g2661
sg55
(lp4380
g48
(g69
g50
NtRp4381
(dp4382
g53
(dp4383
g73
g74
ssg62
g4377
sg55
(lp4384
S'session_id_name'
p4385
asbag48
(g69
g50
NtRp4386
(dp4387
g53
(dp4388
g80
g81
ssg62
g4377
sg55
(lp4389
S':'
asbag48
(g69
g50
NtRp4390
(dp4391
g53
(dp4392
sg62
g4377
sg55
(lp4393
g48
(g49
g50
NtRp4394
(dp4395
g53
(dp4396
g61
I5
ssg62
g4390
sg55
(lp4397
g2718
asbasbasbag48
(g64
g50
NtRp4398
(dp4399
g53
(dp4400
sg62
g2661
sg55
(lp4401
g48
(g69
g50
NtRp4402
(dp4403
g53
(dp4404
g73
g74
ssg62
g4398
sg55
(lp4405
S'session_locked'
p4406
asbag48
(g69
g50
NtRp4407
(dp4408
g53
(dp4409
g80
g81
ssg62
g4398
sg55
(lp4410
S':'
asbag48
(g69
g50
NtRp4411
(dp4412
g53
(dp4413
sg62
g4398
sg55
(lp4414
g48
(g49
g50
NtRp4415
(dp4416
g53
(dp4417
g61
I5
ssg62
g4411
sg55
(lp4418
g1523
asbasbasbag48
(g64
g50
NtRp4419
(dp4420
g53
(dp4421
sg62
g2661
sg55
(lp4422
g48
(g69
g50
NtRp4423
(dp4424
g53
(dp4425
g73
g74
ssg62
g4419
sg55
(lp4426
S'session_new'
p4427
asbag48
(g69
g50
NtRp4428
(dp4429
g53
(dp4430
g80
g81
ssg62
g4419
sg55
(lp4431
S':'
asbag48
(g69
g50
NtRp4432
(dp4433
g53
(dp4434
sg62
g4419
sg55
(lp4435
g48
(g49
g50
NtRp4436
(dp4437
g53
(dp4438
g61
I5
ssg62
g4432
sg55
(lp4439
g91
asbasbasbag48
(g64
g50
NtRp4440
(dp4441
g53
(dp4442
sg62
g2661
sg55
(lp4443
g48
(g69
g50
NtRp4444
(dp4445
g53
(dp4446
g73
g74
ssg62
g4440
sg55
(lp4447
S'status'
p4448
asbag48
(g69
g50
NtRp4449
(dp4450
g53
(dp4451
g80
g81
ssg62
g4440
sg55
(lp4452
S':'
asbag48
(g69
g50
NtRp4453
(dp4454
g53
(dp4455
sg62
g4440
sg55
(lp4456
g48
(g49
g50
NtRp4457
(dp4458
g53
(dp4459
g61
I5
ssg62
g4453
sg55
(lp4460
S'200'
p4461
asbasbasbag48
(g64
g50
NtRp4462
(dp4463
g53
(dp4464
sg62
g2661
sg55
(lp4465
g48
(g69
g50
NtRp4466
(dp4467
g53
(dp4468
g73
g74
ssg62
g4462
sg55
(lp4469
S'subtitle'
p4470
asbag48
(g69
g50
NtRp4471
(dp4472
g53
(dp4473
g80
g81
ssg62
g4462
sg55
(lp4474
S':'
asbag48
(g69
g50
NtRp4475
(dp4476
g53
(dp4477
sg62
g4462
sg55
(lp4478
g48
(g49
g50
NtRp4479
(dp4480
g53
(dp4481
g61
I5
ssg62
g4475
sg55
(lp4482
g3224
(S's\r\x00\x00\x00customize me!'
tRp4483
asbasbasbag48
(g64
g50
NtRp4484
(dp4485
g53
(dp4486
sg62
g2661
sg55
(lp4487
g48
(g69
g50
NtRp4488
(dp4489
g53
(dp4490
g73
g74
ssg62
g4484
sg55
(lp4491
S'title'
p4492
asbag48
(g69
g50
NtRp4493
(dp4494
g53
(dp4495
g80
g81
ssg62
g4484
sg55
(lp4496
S':'
asbag48
(g69
g50
NtRp4497
(dp4498
g53
(dp4499
sg62
g4484
sg55
(lp4500
g48
(g49
g50
NtRp4501
(dp4502
g53
(dp4503
g61
I5
ssg62
g4497
sg55
(lp4504
g113
asbasbasbag48
(g64
g50
NtRp4505
(dp4506
g53
(dp4507
sg62
g2661
sg55
(lp4508
g48
(g69
g50
NtRp4509
(dp4510
g53
(dp4511
g73
g74
ssg62
g4505
sg55
(lp4512
g1868
asbag48
(g69
g50
NtRp4513
(dp4514
g53
(dp4515
g80
g81
ssg62
g4505
sg55
(lp4516
S':'
asbag48
(g69
g50
NtRp4517
(dp4518
g53
(dp4519
sg62
g4505
sg55
(lp4520
g48
(g49
g50
NtRp4521
(dp4522
g53
(dp4523
g61
I5
ssg62
g4517
sg55
(lp4524
g1881
asbasbasbag48
(g64
g50
NtRp4525
(dp4526
g53
(dp4527
sg62
g2661
sg55
(lp4528
g48
(g69
g50
NtRp4529
(dp4530
g53
(dp4531
g73
g74
ssg62
g4525
sg55
(lp4532
S'view'
p4533
asbag48
(g69
g50
NtRp4534
(dp4535
g53
(dp4536
g80
g81
ssg62
g4525
sg55
(lp4537
S':'
asbag48
(g69
g50
NtRp4538
(dp4539
g53
(dp4540
sg62
g4525
sg55
(lp4541
g48
(g49
g50
NtRp4542
(dp4543
g53
(dp4544
g61
I5
ssg62
g4538
sg55
(lp4545
S'default/q2s.html'
p4546
asbasbasbasbasbsS'locals'
p4547
(dp4548
S'self'
p4549
S"<Row {'name': 'Naguva Nayana'}>"
p4550
sS'key'
p4551
S"'id'"
p4552
sssS'traceback'
p4553
S'Traceback (most recent call last):\n  File "gluon/restricted.py", line 192, in restricted\n  File "C:\\Users\\AKSHAY\\Desktop\\web2py\\applications\\201056161\\views\\default/q2s.html", line 103, in <module>\n  File "gluon/dal.py", line 3710, in __getattr__\n  File "gluon/dal.py", line 3701, in __getitem__\nKeyError: \'id\'\n'
p4554
s.