(dp1
S'output'
p2
S''
sS'layer'
p3
S'C:\\Users\\AKSHAY\\Desktop\\web2py\\applications\\201056161\\controllers/default.py'
p4
sS'code'
p5
S'# -*- coding: utf-8 -*-\n# this file is released under public domain and you can use without limitations\n\n#########################################################################\n## This is a samples controller\n## - index is the default action of any application\n## - user is required for authentication and authorization\n## - download is for downloading files uploaded in the db (does streaming)\n## - call exposes all registered services (none by default)\n#########################################################################\n\ndef index():\n    return dict()\n\ndef user():\n    """\n    exposes:\n    http://..../[app]/default/user/login\n    http://..../[app]/default/user/logout\n    http://..../[app]/default/user/register\n    http://..../[app]/default/user/profile\n    http://..../[app]/default/user/retrieve_password\n    http://..../[app]/default/user/change_password\n    use @auth.requires_login()\n        @auth.requires_membership(\'group name\')\n        @auth.requires_permission(\'read\',\'table name\',record_id)\n    to decorate functions that need access control\n    """\n    return dict(form=auth())\n\n\ndef download():\n    """\n    allows downloading of uploaded files\n    http://..../[app]/default/download/[filename]\n    """\n    return response.download(request,db)\n\n\ndef call():\n    """\n    exposes services. for example:\n    http://..../[app]/default/call/jsonrpc\n    decorate with @services.jsonrpc the functions to expose\n    supports xml, json, xmlrpc, jsonrpc, amfrpc, rss, csv\n    """\n    return service()\n\n\n@auth.requires_signature()\ndef data():\n    """\n    http://..../[app]/default/data/tables\n    http://..../[app]/default/data/create/[table]\n    http://..../[app]/default/data/read/[table]/[id]\n    http://..../[app]/default/data/update/[table]/[id]\n    http://..../[app]/default/data/delete/[table]/[id[\n    http://..../[app]/default/data/select/[table]\n    http://..../[app]/default/data/search/[table]\n    but URLs bust be signed, i.e. linked with\n      A(\'table\',_href=URL(\'data/tables\',user_signature=True))\n    or with the signed load operator\n      LOAD(\'default\',\'data.load\',args=\'tables\',ajax=True,user_signature=True)\n    """\n    return dict(form=crud())\ndef q1f():\n#  form=SQLFORM.factory(db.Field(\'id\',db.artist,requires=IS_IN_DB(db,\'artist.id\'),required=True,label=\'Select Singer id\'))#  form=SQLFORM(db.query) #form=FORM(INPUT(_name=\'singer\',requires=IS_NOT_EMPTY()),INPUT(_type=\'submit\')) #\n  form = SQLFORM.factory(db.Field(\'idn\',db.artist,requires=IS_IN_DB(db,\'artist.id\',\'artist.id\'),label=\'Select id\'))\n  if form.accepts(request.vars,session):\n    redirect(URL(r=request, f=\'q1s?idn=\'+form.vars.idn))\n  elif form.errors:\n    response.flash=\'Errors in form Please re-enter\'\n  return dict(form=form)  \ndef q1s():\n  sname = int(request.vars.idn)\n  rows=db(db.song.singer==sname).select(db.song.name)\n  """count=1\n  for row in rows:\n    count+=1\n    if count==2:\n      snames=str(row.artist_name)\n  rows1=db(db.song.singer is snames).select(db.song.name)"""\n  return dict(rows=rows)\ndef q2f():\n  form = SQLFORM.factory(db.Field(\'namen\',db.artist,requires=IS_IN_DB(db,\'artist.id\',\'artist.artist_name\'),label=\'Select artist name\'))\n  if form.accepts(request.vars,session):\n    redirect(URL(r=request, f=\'q2s?namen=\'+form.vars.namen))\n  elif form.errors:\n    response.flash=\'Errors in form Please re-enter\'\n  return dict(form=form)  \ndef q2s():\n  sname=str(request.vars.namen)\n  #here whatever be always sname will be referred by id ! \n  rows=db(db.song.singer==sname).select(db.song.name)\n  return dict(rows=rows)\ndef q3f():\n  form = SQLFORM.factory(db.Field(\'namen\',db.artist,requires=IS_IN_DB(db,\'artist.id\',\'artist.artist_name\'),label=\'Select Artist\'),\n                         db.Field(\'movien\',db.movie,requires=IS_IN_DB(db,\'movie.id\',\'movie.name\'),label=\'Select movie\'))\n  if form.accepts(request.vars,session):\n    redirect(URL(r=request, f=\'q3s?namen=\'+form.vars.namen+\'&movien=\'+form.vars.movien))\n  elif form.errors:\n    response.flash=\'Errors in form Please re-enter\'\n  return dict(form=form)                         \ndef q3s():\n  sname=str(request.vars.namen)\n  movien=str(request.vars.movien)\n  rows=db((db.song.singer==sname) & (db.song.movie==movien)).select(db.song.name)\n  return dict(rows=rows)\ndef q4f():\n  form = SQLFORM.factory(db.Field(\'namen\',db.artist,requires=IS_IN_DB(db,\'artist.id\',\'artist.artist_name\'),label=\'Select Artist\'),\n                         db.Field(\'yearbe\',db.movie,label=\'Select year before\'))\n  if form.accepts(request.vars,session):\n    redirect(URL(r=request, f=\'q4s?namen=\'+form.vars.namen+\'&yearbe=\'+form.vars.yearbe))\n  elif form.errors:\n    response.flash=\'Errors in form Please re-enter\'\n  return dict(form=form)\ndef q4s():\n  import datetime\n  sname=str(request.vars.namen)\n  yearbe=str(request.vars.yearbe)\n  rows=db((db.song.singer==sname) & (db.movie.release_date<datetime.date(yearbe,1,1))).select(db.song.name,db.song.singing_actor)\n  return dict(rows=rows)\n\nresponse._vars=response._caller(q4s)\n'
p6
sS'snapshot'
p7
(dp8
S'exception'
p9
(dp10
S'__hash__'
p11
S"<method-wrapper '__hash__' of exceptions.TypeError object at 0x070DAE90>"
p12
sS'__setattr__'
p13
S"<method-wrapper '__setattr__' of exceptions.TypeError object at 0x070DAE90>"
p14
sS'__reduce_ex__'
p15
S'<built-in method __reduce_ex__ of exceptions.TypeError object at 0x070DAE90>'
p16
sS'__getslice__'
p17
S"<method-wrapper '__getslice__' of exceptions.TypeError object at 0x070DAE90>"
p18
sS'__getitem__'
p19
S"<method-wrapper '__getitem__' of exceptions.TypeError object at 0x070DAE90>"
p20
sS'__setstate__'
p21
S'<built-in method __setstate__ of exceptions.TypeError object at 0x070DAE90>'
p22
sS'__reduce__'
p23
S'<built-in method __reduce__ of exceptions.TypeError object at 0x070DAE90>'
p24
sS'__str__'
p25
S"<method-wrapper '__str__' of exceptions.TypeError object at 0x070DAE90>"
p26
sS'args'
p27
S"('an integer is required',)"
p28
sS'__getattribute__'
p29
S"<method-wrapper '__getattribute__' of exceptions.TypeError object at 0x070DAE90>"
p30
sS'__class__'
p31
S"<type 'exceptions.TypeError'>"
p32
sS'__delattr__'
p33
S"<method-wrapper '__delattr__' of exceptions.TypeError object at 0x070DAE90>"
p34
sS'__repr__'
p35
S"<method-wrapper '__repr__' of exceptions.TypeError object at 0x070DAE90>"
p36
sS'__dict__'
p37
S'{}'
p38
sS'__doc__'
p39
S"'Inappropriate argument type.'"
p40
sS'__init__'
p41
S"<method-wrapper '__init__' of exceptions.TypeError object at 0x070DAE90>"
p42
sS'__new__'
p43
S'<built-in method __new__ of type object at 0x1E1CCD78>'
p44
ssS'evalue'
p45
S'an integer is required'
p46
sS'request'
p47
ccopy_reg
_reconstructor
p48
(cgluon.html
BEAUTIFY
p49
c__builtin__
object
p50
NtRp51
(dp52
S'attributes'
p53
(dp54
sS'components'
p55
(lp56
g48
(cgluon.html
TABLE
p57
g50
NtRp58
(dp59
g53
(dp60
S'level'
p61
I5
ssS'parent'
p62
Nsg55
(lp63
g48
(cgluon.html
TR
p64
g50
NtRp65
(dp66
g53
(dp67
sg62
g58
sg55
(lp68
g48
(cgluon.html
TD
p69
g50
NtRp70
(dp71
g53
(dp72
S'_style'
p73
S'font-weight:bold;'
p74
ssg62
g65
sg55
(lp75
S'ajax'
p76
asbag48
(g69
g50
NtRp77
(dp78
g53
(dp79
S'_valign'
p80
S'top'
p81
ssg62
g65
sg55
(lp82
S':'
asbag48
(g69
g50
NtRp83
(dp84
g53
(dp85
sg62
g65
sg55
(lp86
g48
(g49
g50
NtRp87
(dp88
g53
(dp89
g61
I5
ssg62
g83
sg55
(lp90
S'False'
p91
asbasbasbag48
(g64
g50
NtRp92
(dp93
g53
(dp94
sg62
g58
sg55
(lp95
g48
(g69
g50
NtRp96
(dp97
g53
(dp98
g73
g74
ssg62
g92
sg55
(lp99
S'application'
p100
asbag48
(g69
g50
NtRp101
(dp102
g53
(dp103
g80
g81
ssg62
g92
sg55
(lp104
S':'
asbag48
(g69
g50
NtRp105
(dp106
g53
(dp107
sg62
g92
sg55
(lp108
g48
(g49
g50
NtRp109
(dp110
g53
(dp111
g61
I5
ssg62
g105
sg55
(lp112
S'201056161'
p113
asbasbasbag48
(g64
g50
NtRp114
(dp115
g53
(dp116
sg62
g58
sg55
(lp117
g48
(g69
g50
NtRp118
(dp119
g53
(dp120
g73
g74
ssg62
g114
sg55
(lp121
g27
asbag48
(g69
g50
NtRp122
(dp123
g53
(dp124
g80
g81
ssg62
g114
sg55
(lp125
S':'
asbag48
(g69
g50
NtRp126
(dp127
g53
(dp128
sg62
g114
sg55
(lp129
g48
(g49
g50
NtRp130
(dp131
g53
(dp132
g61
I5
ssg62
g126
sg55
(lp133
g48
(g57
g50
NtRp134
(dp135
g53
(dp136
g61
I4
ssg62
Nsg55
(lp137
sbasbasbasbag48
(g64
g50
NtRp138
(dp139
g53
(dp140
sg62
g58
sg55
(lp141
g48
(g69
g50
NtRp142
(dp143
g53
(dp144
g73
g74
ssg62
g138
sg55
(lp145
S'body'
p146
asbag48
(g69
g50
NtRp147
(dp148
g53
(dp149
g80
g81
ssg62
g138
sg55
(lp150
S':'
asbag48
(g69
g50
NtRp151
(dp152
g53
(dp153
sg62
g138
sg55
(lp154
g48
(g49
g50
NtRp155
(dp156
g53
(dp157
g61
I5
ssg62
g151
sg55
(lp158
S'<cStringIO.StringO object at 0x06F63AA0>'
p159
asbasbasbag48
(g64
g50
NtRp160
(dp161
g53
(dp162
sg62
g58
sg55
(lp163
g48
(g69
g50
NtRp164
(dp165
g53
(dp166
g73
g74
ssg62
g160
sg55
(lp167
S'client'
p168
asbag48
(g69
g50
NtRp169
(dp170
g53
(dp171
g80
g81
ssg62
g160
sg55
(lp172
S':'
asbag48
(g69
g50
NtRp173
(dp174
g53
(dp175
sg62
g160
sg55
(lp176
g48
(g49
g50
NtRp177
(dp178
g53
(dp179
g61
I5
ssg62
g173
sg55
(lp180
S'127.0.0.1'
p181
asbasbasbag48
(g64
g50
NtRp182
(dp183
g53
(dp184
sg62
g58
sg55
(lp185
g48
(g69
g50
NtRp186
(dp187
g53
(dp188
g73
g74
ssg62
g182
sg55
(lp189
S'controller'
p190
asbag48
(g69
g50
NtRp191
(dp192
g53
(dp193
g80
g81
ssg62
g182
sg55
(lp194
S':'
asbag48
(g69
g50
NtRp195
(dp196
g53
(dp197
sg62
g182
sg55
(lp198
g48
(g49
g50
NtRp199
(dp200
g53
(dp201
g61
I5
ssg62
g195
sg55
(lp202
S'default'
p203
asbasbasbag48
(g64
g50
NtRp204
(dp205
g53
(dp206
sg62
g58
sg55
(lp207
g48
(g69
g50
NtRp208
(dp209
g53
(dp210
g73
g74
ssg62
g204
sg55
(lp211
S'cookies'
p212
asbag48
(g69
g50
NtRp213
(dp214
g53
(dp215
g80
g81
ssg62
g204
sg55
(lp216
S':'
asbag48
(g69
g50
NtRp217
(dp218
g53
(dp219
sg62
g204
sg55
(lp220
g48
(g49
g50
NtRp221
(dp222
g53
(dp223
g61
I5
ssg62
g217
sg55
(lp224
g48
(g57
g50
NtRp225
(dp226
g53
(dp227
g61
I4
ssg62
Nsg55
(lp228
g48
(g64
g50
NtRp229
(dp230
g53
(dp231
sg62
g225
sg55
(lp232
g48
(g69
g50
NtRp233
(dp234
g53
(dp235
g73
g74
ssg62
g229
sg55
(lp236
S'session_id_201056161'
p237
asbag48
(g69
g50
NtRp238
(dp239
g53
(dp240
g80
g81
ssg62
g229
sg55
(lp241
S':'
asbag48
(g69
g50
NtRp242
(dp243
g53
(dp244
sg62
g229
sg55
(lp245
g48
(g49
g50
NtRp246
(dp247
g53
(dp248
g61
I4
ssg62
g242
sg55
(lp249
g48
(g57
g50
NtRp250
(dp251
g53
(dp252
g61
I3
ssg62
Nsg55
(lp253
g48
(g64
g50
NtRp254
(dp255
g53
(dp256
sg62
g250
sg55
(lp257
g48
(g69
g50
NtRp258
(dp259
g53
(dp260
g73
g74
ssg62
g254
sg55
(lp261
S'comment'
p262
asbag48
(g69
g50
NtRp263
(dp264
g53
(dp265
g80
g81
ssg62
g254
sg55
(lp266
S':'
asbag48
(g69
g50
NtRp267
(dp268
g53
(dp269
sg62
g254
sg55
(lp270
g48
(g49
g50
NtRp271
(dp272
g53
(dp273
g61
I3
ssg62
g267
sg55
(lp274
S''
asbasbasbag48
(g64
g50
NtRp275
(dp276
g53
(dp277
sg62
g250
sg55
(lp278
g48
(g69
g50
NtRp279
(dp280
g53
(dp281
g73
g74
ssg62
g275
sg55
(lp282
S'domain'
p283
asbag48
(g69
g50
NtRp284
(dp285
g53
(dp286
g80
g81
ssg62
g275
sg55
(lp287
S':'
asbag48
(g69
g50
NtRp288
(dp289
g53
(dp290
sg62
g275
sg55
(lp291
g48
(g49
g50
NtRp292
(dp293
g53
(dp294
g61
I3
ssg62
g288
sg55
(lp295
S''
asbasbasbag48
(g64
g50
NtRp296
(dp297
g53
(dp298
sg62
g250
sg55
(lp299
g48
(g69
g50
NtRp300
(dp301
g53
(dp302
g73
g74
ssg62
g296
sg55
(lp303
S'expires'
p304
asbag48
(g69
g50
NtRp305
(dp306
g53
(dp307
g80
g81
ssg62
g296
sg55
(lp308
S':'
asbag48
(g69
g50
NtRp309
(dp310
g53
(dp311
sg62
g296
sg55
(lp312
g48
(g49
g50
NtRp313
(dp314
g53
(dp315
g61
I3
ssg62
g309
sg55
(lp316
S''
asbasbasbag48
(g64
g50
NtRp317
(dp318
g53
(dp319
sg62
g250
sg55
(lp320
g48
(g69
g50
NtRp321
(dp322
g53
(dp323
g73
g74
ssg62
g317
sg55
(lp324
S'max-age'
p325
asbag48
(g69
g50
NtRp326
(dp327
g53
(dp328
g80
g81
ssg62
g317
sg55
(lp329
S':'
asbag48
(g69
g50
NtRp330
(dp331
g53
(dp332
sg62
g317
sg55
(lp333
g48
(g49
g50
NtRp334
(dp335
g53
(dp336
g61
I3
ssg62
g330
sg55
(lp337
S''
asbasbasbag48
(g64
g50
NtRp338
(dp339
g53
(dp340
sg62
g250
sg55
(lp341
g48
(g69
g50
NtRp342
(dp343
g53
(dp344
g73
g74
ssg62
g338
sg55
(lp345
S'path'
p346
asbag48
(g69
g50
NtRp347
(dp348
g53
(dp349
g80
g81
ssg62
g338
sg55
(lp350
S':'
asbag48
(g69
g50
NtRp351
(dp352
g53
(dp353
sg62
g338
sg55
(lp354
g48
(g49
g50
NtRp355
(dp356
g53
(dp357
g61
I3
ssg62
g351
sg55
(lp358
S''
asbasbasbag48
(g64
g50
NtRp359
(dp360
g53
(dp361
sg62
g250
sg55
(lp362
g48
(g69
g50
NtRp363
(dp364
g53
(dp365
g73
g74
ssg62
g359
sg55
(lp366
S'secure'
p367
asbag48
(g69
g50
NtRp368
(dp369
g53
(dp370
g80
g81
ssg62
g359
sg55
(lp371
S':'
asbag48
(g69
g50
NtRp372
(dp373
g53
(dp374
sg62
g359
sg55
(lp375
g48
(g49
g50
NtRp376
(dp377
g53
(dp378
g61
I3
ssg62
g372
sg55
(lp379
S''
asbasbasbag48
(g64
g50
NtRp380
(dp381
g53
(dp382
sg62
g250
sg55
(lp383
g48
(g69
g50
NtRp384
(dp385
g53
(dp386
g73
g74
ssg62
g380
sg55
(lp387
S'version'
p388
asbag48
(g69
g50
NtRp389
(dp390
g53
(dp391
g80
g81
ssg62
g380
sg55
(lp392
S':'
asbag48
(g69
g50
NtRp393
(dp394
g53
(dp395
sg62
g380
sg55
(lp396
g48
(g49
g50
NtRp397
(dp398
g53
(dp399
g61
I3
ssg62
g393
sg55
(lp400
S''
asbasbasbasbasbasbasbag48
(g64
g50
NtRp401
(dp402
g53
(dp403
sg62
g225
sg55
(lp404
g48
(g69
g50
NtRp405
(dp406
g53
(dp407
g73
g74
ssg62
g401
sg55
(lp408
S'session_id_admin'
p409
asbag48
(g69
g50
NtRp410
(dp411
g53
(dp412
g80
g81
ssg62
g401
sg55
(lp413
S':'
asbag48
(g69
g50
NtRp414
(dp415
g53
(dp416
sg62
g401
sg55
(lp417
g48
(g49
g50
NtRp418
(dp419
g53
(dp420
g61
I4
ssg62
g414
sg55
(lp421
g48
(g57
g50
NtRp422
(dp423
g53
(dp424
g61
I3
ssg62
Nsg55
(lp425
g48
(g64
g50
NtRp426
(dp427
g53
(dp428
sg62
g422
sg55
(lp429
g48
(g69
g50
NtRp430
(dp431
g53
(dp432
g73
g74
ssg62
g426
sg55
(lp433
g262
asbag48
(g69
g50
NtRp434
(dp435
g53
(dp436
g80
g81
ssg62
g426
sg55
(lp437
S':'
asbag48
(g69
g50
NtRp438
(dp439
g53
(dp440
sg62
g426
sg55
(lp441
g48
(g49
g50
NtRp442
(dp443
g53
(dp444
g61
I3
ssg62
g438
sg55
(lp445
S''
asbasbasbag48
(g64
g50
NtRp446
(dp447
g53
(dp448
sg62
g422
sg55
(lp449
g48
(g69
g50
NtRp450
(dp451
g53
(dp452
g73
g74
ssg62
g446
sg55
(lp453
g283
asbag48
(g69
g50
NtRp454
(dp455
g53
(dp456
g80
g81
ssg62
g446
sg55
(lp457
S':'
asbag48
(g69
g50
NtRp458
(dp459
g53
(dp460
sg62
g446
sg55
(lp461
g48
(g49
g50
NtRp462
(dp463
g53
(dp464
g61
I3
ssg62
g458
sg55
(lp465
S''
asbasbasbag48
(g64
g50
NtRp466
(dp467
g53
(dp468
sg62
g422
sg55
(lp469
g48
(g69
g50
NtRp470
(dp471
g53
(dp472
g73
g74
ssg62
g466
sg55
(lp473
g304
asbag48
(g69
g50
NtRp474
(dp475
g53
(dp476
g80
g81
ssg62
g466
sg55
(lp477
S':'
asbag48
(g69
g50
NtRp478
(dp479
g53
(dp480
sg62
g466
sg55
(lp481
g48
(g49
g50
NtRp482
(dp483
g53
(dp484
g61
I3
ssg62
g478
sg55
(lp485
S''
asbasbasbag48
(g64
g50
NtRp486
(dp487
g53
(dp488
sg62
g422
sg55
(lp489
g48
(g69
g50
NtRp490
(dp491
g53
(dp492
g73
g74
ssg62
g486
sg55
(lp493
g325
asbag48
(g69
g50
NtRp494
(dp495
g53
(dp496
g80
g81
ssg62
g486
sg55
(lp497
S':'
asbag48
(g69
g50
NtRp498
(dp499
g53
(dp500
sg62
g486
sg55
(lp501
g48
(g49
g50
NtRp502
(dp503
g53
(dp504
g61
I3
ssg62
g498
sg55
(lp505
S''
asbasbasbag48
(g64
g50
NtRp506
(dp507
g53
(dp508
sg62
g422
sg55
(lp509
g48
(g69
g50
NtRp510
(dp511
g53
(dp512
g73
g74
ssg62
g506
sg55
(lp513
g346
asbag48
(g69
g50
NtRp514
(dp515
g53
(dp516
g80
g81
ssg62
g506
sg55
(lp517
S':'
asbag48
(g69
g50
NtRp518
(dp519
g53
(dp520
sg62
g506
sg55
(lp521
g48
(g49
g50
NtRp522
(dp523
g53
(dp524
g61
I3
ssg62
g518
sg55
(lp525
S''
asbasbasbag48
(g64
g50
NtRp526
(dp527
g53
(dp528
sg62
g422
sg55
(lp529
g48
(g69
g50
NtRp530
(dp531
g53
(dp532
g73
g74
ssg62
g526
sg55
(lp533
g367
asbag48
(g69
g50
NtRp534
(dp535
g53
(dp536
g80
g81
ssg62
g526
sg55
(lp537
S':'
asbag48
(g69
g50
NtRp538
(dp539
g53
(dp540
sg62
g526
sg55
(lp541
g48
(g49
g50
NtRp542
(dp543
g53
(dp544
g61
I3
ssg62
g538
sg55
(lp545
S''
asbasbasbag48
(g64
g50
NtRp546
(dp547
g53
(dp548
sg62
g422
sg55
(lp549
g48
(g69
g50
NtRp550
(dp551
g53
(dp552
g73
g74
ssg62
g546
sg55
(lp553
g388
asbag48
(g69
g50
NtRp554
(dp555
g53
(dp556
g80
g81
ssg62
g546
sg55
(lp557
S':'
asbag48
(g69
g50
NtRp558
(dp559
g53
(dp560
sg62
g546
sg55
(lp561
g48
(g49
g50
NtRp562
(dp563
g53
(dp564
g61
I3
ssg62
g558
sg55
(lp565
S''
asbasbasbasbasbasbasbag48
(g64
g50
NtRp566
(dp567
g53
(dp568
sg62
g225
sg55
(lp569
g48
(g69
g50
NtRp570
(dp571
g53
(dp572
g73
g74
ssg62
g566
sg55
(lp573
S'session_id_musicrepo'
p574
asbag48
(g69
g50
NtRp575
(dp576
g53
(dp577
g80
g81
ssg62
g566
sg55
(lp578
S':'
asbag48
(g69
g50
NtRp579
(dp580
g53
(dp581
sg62
g566
sg55
(lp582
g48
(g49
g50
NtRp583
(dp584
g53
(dp585
g61
I4
ssg62
g579
sg55
(lp586
g48
(g57
g50
NtRp587
(dp588
g53
(dp589
g61
I3
ssg62
Nsg55
(lp590
g48
(g64
g50
NtRp591
(dp592
g53
(dp593
sg62
g587
sg55
(lp594
g48
(g69
g50
NtRp595
(dp596
g53
(dp597
g73
g74
ssg62
g591
sg55
(lp598
g262
asbag48
(g69
g50
NtRp599
(dp600
g53
(dp601
g80
g81
ssg62
g591
sg55
(lp602
S':'
asbag48
(g69
g50
NtRp603
(dp604
g53
(dp605
sg62
g591
sg55
(lp606
g48
(g49
g50
NtRp607
(dp608
g53
(dp609
g61
I3
ssg62
g603
sg55
(lp610
S''
asbasbasbag48
(g64
g50
NtRp611
(dp612
g53
(dp613
sg62
g587
sg55
(lp614
g48
(g69
g50
NtRp615
(dp616
g53
(dp617
g73
g74
ssg62
g611
sg55
(lp618
g283
asbag48
(g69
g50
NtRp619
(dp620
g53
(dp621
g80
g81
ssg62
g611
sg55
(lp622
S':'
asbag48
(g69
g50
NtRp623
(dp624
g53
(dp625
sg62
g611
sg55
(lp626
g48
(g49
g50
NtRp627
(dp628
g53
(dp629
g61
I3
ssg62
g623
sg55
(lp630
S''
asbasbasbag48
(g64
g50
NtRp631
(dp632
g53
(dp633
sg62
g587
sg55
(lp634
g48
(g69
g50
NtRp635
(dp636
g53
(dp637
g73
g74
ssg62
g631
sg55
(lp638
g304
asbag48
(g69
g50
NtRp639
(dp640
g53
(dp641
g80
g81
ssg62
g631
sg55
(lp642
S':'
asbag48
(g69
g50
NtRp643
(dp644
g53
(dp645
sg62
g631
sg55
(lp646
g48
(g49
g50
NtRp647
(dp648
g53
(dp649
g61
I3
ssg62
g643
sg55
(lp650
S''
asbasbasbag48
(g64
g50
NtRp651
(dp652
g53
(dp653
sg62
g587
sg55
(lp654
g48
(g69
g50
NtRp655
(dp656
g53
(dp657
g73
g74
ssg62
g651
sg55
(lp658
g325
asbag48
(g69
g50
NtRp659
(dp660
g53
(dp661
g80
g81
ssg62
g651
sg55
(lp662
S':'
asbag48
(g69
g50
NtRp663
(dp664
g53
(dp665
sg62
g651
sg55
(lp666
g48
(g49
g50
NtRp667
(dp668
g53
(dp669
g61
I3
ssg62
g663
sg55
(lp670
S''
asbasbasbag48
(g64
g50
NtRp671
(dp672
g53
(dp673
sg62
g587
sg55
(lp674
g48
(g69
g50
NtRp675
(dp676
g53
(dp677
g73
g74
ssg62
g671
sg55
(lp678
g346
asbag48
(g69
g50
NtRp679
(dp680
g53
(dp681
g80
g81
ssg62
g671
sg55
(lp682
S':'
asbag48
(g69
g50
NtRp683
(dp684
g53
(dp685
sg62
g671
sg55
(lp686
g48
(g49
g50
NtRp687
(dp688
g53
(dp689
g61
I3
ssg62
g683
sg55
(lp690
S''
asbasbasbag48
(g64
g50
NtRp691
(dp692
g53
(dp693
sg62
g587
sg55
(lp694
g48
(g69
g50
NtRp695
(dp696
g53
(dp697
g73
g74
ssg62
g691
sg55
(lp698
g367
asbag48
(g69
g50
NtRp699
(dp700
g53
(dp701
g80
g81
ssg62
g691
sg55
(lp702
S':'
asbag48
(g69
g50
NtRp703
(dp704
g53
(dp705
sg62
g691
sg55
(lp706
g48
(g49
g50
NtRp707
(dp708
g53
(dp709
g61
I3
ssg62
g703
sg55
(lp710
S''
asbasbasbag48
(g64
g50
NtRp711
(dp712
g53
(dp713
sg62
g587
sg55
(lp714
g48
(g69
g50
NtRp715
(dp716
g53
(dp717
g73
g74
ssg62
g711
sg55
(lp718
g388
asbag48
(g69
g50
NtRp719
(dp720
g53
(dp721
g80
g81
ssg62
g711
sg55
(lp722
S':'
asbag48
(g69
g50
NtRp723
(dp724
g53
(dp725
sg62
g711
sg55
(lp726
g48
(g49
g50
NtRp727
(dp728
g53
(dp729
g61
I3
ssg62
g723
sg55
(lp730
S''
asbasbasbasbasbasbasbag48
(g64
g50
NtRp731
(dp732
g53
(dp733
sg62
g225
sg55
(lp734
g48
(g69
g50
NtRp735
(dp736
g53
(dp737
g73
g74
ssg62
g731
sg55
(lp738
S'session_id_welcome'
p739
asbag48
(g69
g50
NtRp740
(dp741
g53
(dp742
g80
g81
ssg62
g731
sg55
(lp743
S':'
asbag48
(g69
g50
NtRp744
(dp745
g53
(dp746
sg62
g731
sg55
(lp747
g48
(g49
g50
NtRp748
(dp749
g53
(dp750
g61
I4
ssg62
g744
sg55
(lp751
g48
(g57
g50
NtRp752
(dp753
g53
(dp754
g61
I3
ssg62
Nsg55
(lp755
g48
(g64
g50
NtRp756
(dp757
g53
(dp758
sg62
g752
sg55
(lp759
g48
(g69
g50
NtRp760
(dp761
g53
(dp762
g73
g74
ssg62
g756
sg55
(lp763
g262
asbag48
(g69
g50
NtRp764
(dp765
g53
(dp766
g80
g81
ssg62
g756
sg55
(lp767
S':'
asbag48
(g69
g50
NtRp768
(dp769
g53
(dp770
sg62
g756
sg55
(lp771
g48
(g49
g50
NtRp772
(dp773
g53
(dp774
g61
I3
ssg62
g768
sg55
(lp775
S''
asbasbasbag48
(g64
g50
NtRp776
(dp777
g53
(dp778
sg62
g752
sg55
(lp779
g48
(g69
g50
NtRp780
(dp781
g53
(dp782
g73
g74
ssg62
g776
sg55
(lp783
g283
asbag48
(g69
g50
NtRp784
(dp785
g53
(dp786
g80
g81
ssg62
g776
sg55
(lp787
S':'
asbag48
(g69
g50
NtRp788
(dp789
g53
(dp790
sg62
g776
sg55
(lp791
g48
(g49
g50
NtRp792
(dp793
g53
(dp794
g61
I3
ssg62
g788
sg55
(lp795
S''
asbasbasbag48
(g64
g50
NtRp796
(dp797
g53
(dp798
sg62
g752
sg55
(lp799
g48
(g69
g50
NtRp800
(dp801
g53
(dp802
g73
g74
ssg62
g796
sg55
(lp803
g304
asbag48
(g69
g50
NtRp804
(dp805
g53
(dp806
g80
g81
ssg62
g796
sg55
(lp807
S':'
asbag48
(g69
g50
NtRp808
(dp809
g53
(dp810
sg62
g796
sg55
(lp811
g48
(g49
g50
NtRp812
(dp813
g53
(dp814
g61
I3
ssg62
g808
sg55
(lp815
S''
asbasbasbag48
(g64
g50
NtRp816
(dp817
g53
(dp818
sg62
g752
sg55
(lp819
g48
(g69
g50
NtRp820
(dp821
g53
(dp822
g73
g74
ssg62
g816
sg55
(lp823
g325
asbag48
(g69
g50
NtRp824
(dp825
g53
(dp826
g80
g81
ssg62
g816
sg55
(lp827
S':'
asbag48
(g69
g50
NtRp828
(dp829
g53
(dp830
sg62
g816
sg55
(lp831
g48
(g49
g50
NtRp832
(dp833
g53
(dp834
g61
I3
ssg62
g828
sg55
(lp835
S''
asbasbasbag48
(g64
g50
NtRp836
(dp837
g53
(dp838
sg62
g752
sg55
(lp839
g48
(g69
g50
NtRp840
(dp841
g53
(dp842
g73
g74
ssg62
g836
sg55
(lp843
g346
asbag48
(g69
g50
NtRp844
(dp845
g53
(dp846
g80
g81
ssg62
g836
sg55
(lp847
S':'
asbag48
(g69
g50
NtRp848
(dp849
g53
(dp850
sg62
g836
sg55
(lp851
g48
(g49
g50
NtRp852
(dp853
g53
(dp854
g61
I3
ssg62
g848
sg55
(lp855
S''
asbasbasbag48
(g64
g50
NtRp856
(dp857
g53
(dp858
sg62
g752
sg55
(lp859
g48
(g69
g50
NtRp860
(dp861
g53
(dp862
g73
g74
ssg62
g856
sg55
(lp863
g367
asbag48
(g69
g50
NtRp864
(dp865
g53
(dp866
g80
g81
ssg62
g856
sg55
(lp867
S':'
asbag48
(g69
g50
NtRp868
(dp869
g53
(dp870
sg62
g856
sg55
(lp871
g48
(g49
g50
NtRp872
(dp873
g53
(dp874
g61
I3
ssg62
g868
sg55
(lp875
S''
asbasbasbag48
(g64
g50
NtRp876
(dp877
g53
(dp878
sg62
g752
sg55
(lp879
g48
(g69
g50
NtRp880
(dp881
g53
(dp882
g73
g74
ssg62
g876
sg55
(lp883
g388
asbag48
(g69
g50
NtRp884
(dp885
g53
(dp886
g80
g81
ssg62
g876
sg55
(lp887
S':'
asbag48
(g69
g50
NtRp888
(dp889
g53
(dp890
sg62
g876
sg55
(lp891
g48
(g49
g50
NtRp892
(dp893
g53
(dp894
g61
I3
ssg62
g888
sg55
(lp895
S''
asbasbasbasbasbasbasbasbasbasbasbag48
(g64
g50
NtRp896
(dp897
g53
(dp898
sg62
g58
sg55
(lp899
g48
(g69
g50
NtRp900
(dp901
g53
(dp902
g73
g74
ssg62
g896
sg55
(lp903
S'env'
p904
asbag48
(g69
g50
NtRp905
(dp906
g53
(dp907
g80
g81
ssg62
g896
sg55
(lp908
S':'
asbag48
(g69
g50
NtRp909
(dp910
g53
(dp911
sg62
g896
sg55
(lp912
g48
(g49
g50
NtRp913
(dp914
g53
(dp915
g61
I5
ssg62
g909
sg55
(lp916
g48
(g57
g50
NtRp917
(dp918
g53
(dp919
g61
I4
ssg62
Nsg55
(lp920
g48
(g64
g50
NtRp921
(dp922
g53
(dp923
sg62
g917
sg55
(lp924
g48
(g69
g50
NtRp925
(dp926
g53
(dp927
g73
g74
ssg62
g921
sg55
(lp928
S'app_folders'
p929
asbag48
(g69
g50
NtRp930
(dp931
g53
(dp932
g80
g81
ssg62
g921
sg55
(lp933
S':'
asbag48
(g69
g50
NtRp934
(dp935
g53
(dp936
sg62
g921
sg55
(lp937
g48
(g49
g50
NtRp938
(dp939
g53
(dp940
g61
I4
ssg62
g934
sg55
(lp941
S"set(['C:\\\\Users\\\\AKSHAY\\\\Desktop\\\\web2py\\\\applications\\\\welcome\\\\', 'C:\\\\Users\\\\AKSHAY\\\\Desktop\\\\web2py\\\\applications\\\\201056161\\\\', 'C:\\\\Users\\\\AKSHAY\\\\Desktop\\\\web2py\\\\applications\\\\examples\\\\', 'C:\\\\Users\\\\AKSHAY\\\\Desktop\\\\web2py\\\\applications\\\\admin\\\\', 'C:\\\\Users\\\\AKSHAY\\\\Desktop\\\\web2py\\\\applications\\\\MusicRepo\\\\'])"
p942
asbasbasbag48
(g64
g50
NtRp943
(dp944
g53
(dp945
sg62
g917
sg55
(lp946
g48
(g69
g50
NtRp947
(dp948
g53
(dp949
g73
g74
ssg62
g943
sg55
(lp950
S'applications_parent'
p951
asbag48
(g69
g50
NtRp952
(dp953
g53
(dp954
g80
g81
ssg62
g943
sg55
(lp955
S':'
asbag48
(g69
g50
NtRp956
(dp957
g53
(dp958
sg62
g943
sg55
(lp959
g48
(g49
g50
NtRp960
(dp961
g53
(dp962
g61
I4
ssg62
g956
sg55
(lp963
S'C:\\Users\\AKSHAY\\Desktop\\web2py'
p964
asbasbasbag48
(g64
g50
NtRp965
(dp966
g53
(dp967
sg62
g917
sg55
(lp968
g48
(g69
g50
NtRp969
(dp970
g53
(dp971
g73
g74
ssg62
g965
sg55
(lp972
S'cmd_args'
p973
asbag48
(g69
g50
NtRp974
(dp975
g53
(dp976
g80
g81
ssg62
g965
sg55
(lp977
S':'
asbag48
(g69
g50
NtRp978
(dp979
g53
(dp980
sg62
g965
sg55
(lp981
g48
(g49
g50
NtRp982
(dp983
g53
(dp984
g61
I4
ssg62
g978
sg55
(lp985
g48
(g57
g50
NtRp986
(dp987
g53
(dp988
g61
I3
ssg62
Nsg55
(lp989
sbasbasbasbag48
(g64
g50
NtRp990
(dp991
g53
(dp992
sg62
g917
sg55
(lp993
g48
(g69
g50
NtRp994
(dp995
g53
(dp996
g73
g74
ssg62
g990
sg55
(lp997
S'cmd_options'
p998
asbag48
(g69
g50
NtRp999
(dp1000
g53
(dp1001
g80
g81
ssg62
g990
sg55
(lp1002
S':'
asbag48
(g69
g50
NtRp1003
(dp1004
g53
(dp1005
sg62
g990
sg55
(lp1006
g48
(g49
g50
NtRp1007
(dp1008
g53
(dp1009
g61
I4
ssg62
g1003
sg55
(lp1010
S"<Values at 0x2fcdfd0: {'verbose': False, 'ip': '127.0.0.1', 'shutdown_timeout': 5, 'taskbar': False, 'port': 8000, 'maxthreads': None, 'softcron': False, 'server_name': 'AKSHAY-PC', 'bpython': False, 'nogui': False, 'nocron': False, 'extcron': False, 'debuglevel': 30, 'test': None, 'folder': 'C:\\\\Users\\\\AKSHAY\\\\Desktop\\\\web2py', 'config': '', 'import_models': False, 'winservice': '', 'shell': None, 'run': '', 'log_filename': 'httpserver.log', 'args': [''], 'profiler_filename': None, 'ssl_private_key': '', 'password': '<ask>', 'request_queue_size': 5, 'ssl_certificate': '', 'cronjob': False, 'plain': False, 'quiet': False, 'interfaces': None, 'minthreads': None, 'timeout': 10, 'numthreads': None, 'nobanner': False, 'pid_filename': 'httpserver.pid'}>"
p1011
asbasbasbag48
(g64
g50
NtRp1012
(dp1013
g53
(dp1014
sg62
g917
sg55
(lp1015
g48
(g69
g50
NtRp1016
(dp1017
g53
(dp1018
g73
g74
ssg62
g1012
sg55
(lp1019
S'db_sessions'
p1020
asbag48
(g69
g50
NtRp1021
(dp1022
g53
(dp1023
g80
g81
ssg62
g1012
sg55
(lp1024
S':'
asbag48
(g69
g50
NtRp1025
(dp1026
g53
(dp1027
sg62
g1012
sg55
(lp1028
g48
(g49
g50
NtRp1029
(dp1030
g53
(dp1031
g61
I4
ssg62
g1025
sg55
(lp1032
S'set([])'
p1033
asbasbasbag48
(g64
g50
NtRp1034
(dp1035
g53
(dp1036
sg62
g917
sg55
(lp1037
g48
(g69
g50
NtRp1038
(dp1039
g53
(dp1040
g73
g74
ssg62
g1034
sg55
(lp1041
S'debugging'
p1042
asbag48
(g69
g50
NtRp1043
(dp1044
g53
(dp1045
g80
g81
ssg62
g1034
sg55
(lp1046
S':'
asbag48
(g69
g50
NtRp1047
(dp1048
g53
(dp1049
sg62
g1034
sg55
(lp1050
g48
(g49
g50
NtRp1051
(dp1052
g53
(dp1053
g61
I4
ssg62
g1047
sg55
(lp1054
g91
asbasbasbag48
(g64
g50
NtRp1055
(dp1056
g53
(dp1057
sg62
g917
sg55
(lp1058
g48
(g69
g50
NtRp1059
(dp1060
g53
(dp1061
g73
g74
ssg62
g1055
sg55
(lp1062
S'gluon_parent'
p1063
asbag48
(g69
g50
NtRp1064
(dp1065
g53
(dp1066
g80
g81
ssg62
g1055
sg55
(lp1067
S':'
asbag48
(g69
g50
NtRp1068
(dp1069
g53
(dp1070
sg62
g1055
sg55
(lp1071
g48
(g49
g50
NtRp1072
(dp1073
g53
(dp1074
g61
I4
ssg62
g1068
sg55
(lp1075
S'C:\\Users\\AKSHAY\\Desktop\\web2py'
p1076
asbasbasbag48
(g64
g50
NtRp1077
(dp1078
g53
(dp1079
sg62
g917
sg55
(lp1080
g48
(g69
g50
NtRp1081
(dp1082
g53
(dp1083
g73
g74
ssg62
g1077
sg55
(lp1084
S'http_accept'
p1085
asbag48
(g69
g50
NtRp1086
(dp1087
g53
(dp1088
g80
g81
ssg62
g1077
sg55
(lp1089
S':'
asbag48
(g69
g50
NtRp1090
(dp1091
g53
(dp1092
sg62
g1077
sg55
(lp1093
g48
(g49
g50
NtRp1094
(dp1095
g53
(dp1096
g61
I4
ssg62
g1090
sg55
(lp1097
S'text/html,application/xhtml+xml,application/xml;q=0.9,*/*;q=0.8'
p1098
asbasbasbag48
(g64
g50
NtRp1099
(dp1100
g53
(dp1101
sg62
g917
sg55
(lp1102
g48
(g69
g50
NtRp1103
(dp1104
g53
(dp1105
g73
g74
ssg62
g1099
sg55
(lp1106
S'http_accept_charset'
p1107
asbag48
(g69
g50
NtRp1108
(dp1109
g53
(dp1110
g80
g81
ssg62
g1099
sg55
(lp1111
S':'
asbag48
(g69
g50
NtRp1112
(dp1113
g53
(dp1114
sg62
g1099
sg55
(lp1115
g48
(g49
g50
NtRp1116
(dp1117
g53
(dp1118
g61
I4
ssg62
g1112
sg55
(lp1119
S'ISO-8859-1,utf-8;q=0.7,*;q=0.3'
p1120
asbasbasbag48
(g64
g50
NtRp1121
(dp1122
g53
(dp1123
sg62
g917
sg55
(lp1124
g48
(g69
g50
NtRp1125
(dp1126
g53
(dp1127
g73
g74
ssg62
g1121
sg55
(lp1128
S'http_accept_encoding'
p1129
asbag48
(g69
g50
NtRp1130
(dp1131
g53
(dp1132
g80
g81
ssg62
g1121
sg55
(lp1133
S':'
asbag48
(g69
g50
NtRp1134
(dp1135
g53
(dp1136
sg62
g1121
sg55
(lp1137
g48
(g49
g50
NtRp1138
(dp1139
g53
(dp1140
g61
I4
ssg62
g1134
sg55
(lp1141
S'gzip,deflate,sdch'
p1142
asbasbasbag48
(g64
g50
NtRp1143
(dp1144
g53
(dp1145
sg62
g917
sg55
(lp1146
g48
(g69
g50
NtRp1147
(dp1148
g53
(dp1149
g73
g74
ssg62
g1143
sg55
(lp1150
S'http_accept_language'
p1151
asbag48
(g69
g50
NtRp1152
(dp1153
g53
(dp1154
g80
g81
ssg62
g1143
sg55
(lp1155
S':'
asbag48
(g69
g50
NtRp1156
(dp1157
g53
(dp1158
sg62
g1143
sg55
(lp1159
g48
(g49
g50
NtRp1160
(dp1161
g53
(dp1162
g61
I4
ssg62
g1156
sg55
(lp1163
S'en-US,en;q=0.8'
p1164
asbasbasbag48
(g64
g50
NtRp1165
(dp1166
g53
(dp1167
sg62
g917
sg55
(lp1168
g48
(g69
g50
NtRp1169
(dp1170
g53
(dp1171
g73
g74
ssg62
g1165
sg55
(lp1172
S'http_cache_control'
p1173
asbag48
(g69
g50
NtRp1174
(dp1175
g53
(dp1176
g80
g81
ssg62
g1165
sg55
(lp1177
S':'
asbag48
(g69
g50
NtRp1178
(dp1179
g53
(dp1180
sg62
g1165
sg55
(lp1181
g48
(g49
g50
NtRp1182
(dp1183
g53
(dp1184
g61
I4
ssg62
g1178
sg55
(lp1185
S'max-age=0'
p1186
asbasbasbag48
(g64
g50
NtRp1187
(dp1188
g53
(dp1189
sg62
g917
sg55
(lp1190
g48
(g69
g50
NtRp1191
(dp1192
g53
(dp1193
g73
g74
ssg62
g1187
sg55
(lp1194
S'http_connection'
p1195
asbag48
(g69
g50
NtRp1196
(dp1197
g53
(dp1198
g80
g81
ssg62
g1187
sg55
(lp1199
S':'
asbag48
(g69
g50
NtRp1200
(dp1201
g53
(dp1202
sg62
g1187
sg55
(lp1203
g48
(g49
g50
NtRp1204
(dp1205
g53
(dp1206
g61
I4
ssg62
g1200
sg55
(lp1207
S'keep-alive'
p1208
asbasbasbag48
(g64
g50
NtRp1209
(dp1210
g53
(dp1211
sg62
g917
sg55
(lp1212
g48
(g69
g50
NtRp1213
(dp1214
g53
(dp1215
g73
g74
ssg62
g1209
sg55
(lp1216
S'http_cookie'
p1217
asbag48
(g69
g50
NtRp1218
(dp1219
g53
(dp1220
g80
g81
ssg62
g1209
sg55
(lp1221
S':'
asbag48
(g69
g50
NtRp1222
(dp1223
g53
(dp1224
sg62
g1209
sg55
(lp1225
g48
(g49
g50
NtRp1226
(dp1227
g53
(dp1228
g61
I4
ssg62
g1222
sg55
(lp1229
S'session_id_musicrepo=127.0.0.1-e029772f-a7db-4b81-ba69-8dddec4e619a; session_id_welcome=127.0.0.1-418cc45f-3159-4c3f-89b5-0ae0f0182eba; session_id_admin=127.0.0.1-0c8b9219-dcb7-4d55-a944-116f9d004722; session_id_201056161=127.0.0.1-bc620865-72d5-47bc-ab09-7dd073242a68'
p1230
asbasbasbag48
(g64
g50
NtRp1231
(dp1232
g53
(dp1233
sg62
g917
sg55
(lp1234
g48
(g69
g50
NtRp1235
(dp1236
g53
(dp1237
g73
g74
ssg62
g1231
sg55
(lp1238
S'http_host'
p1239
asbag48
(g69
g50
NtRp1240
(dp1241
g53
(dp1242
g80
g81
ssg62
g1231
sg55
(lp1243
S':'
asbag48
(g69
g50
NtRp1244
(dp1245
g53
(dp1246
sg62
g1231
sg55
(lp1247
g48
(g49
g50
NtRp1248
(dp1249
g53
(dp1250
g61
I4
ssg62
g1244
sg55
(lp1251
S'127.0.0.1:8000'
p1252
asbasbasbag48
(g64
g50
NtRp1253
(dp1254
g53
(dp1255
sg62
g917
sg55
(lp1256
g48
(g69
g50
NtRp1257
(dp1258
g53
(dp1259
g73
g74
ssg62
g1253
sg55
(lp1260
S'http_referer'
p1261
asbag48
(g69
g50
NtRp1262
(dp1263
g53
(dp1264
g80
g81
ssg62
g1253
sg55
(lp1265
S':'
asbag48
(g69
g50
NtRp1266
(dp1267
g53
(dp1268
sg62
g1253
sg55
(lp1269
g48
(g49
g50
NtRp1270
(dp1271
g53
(dp1272
g61
I4
ssg62
g1266
sg55
(lp1273
S'http://127.0.0.1:8000/201056161/default/q4f'
p1274
asbasbasbag48
(g64
g50
NtRp1275
(dp1276
g53
(dp1277
sg62
g917
sg55
(lp1278
g48
(g69
g50
NtRp1279
(dp1280
g53
(dp1281
g73
g74
ssg62
g1275
sg55
(lp1282
S'http_user_agent'
p1283
asbag48
(g69
g50
NtRp1284
(dp1285
g53
(dp1286
g80
g81
ssg62
g1275
sg55
(lp1287
S':'
asbag48
(g69
g50
NtRp1288
(dp1289
g53
(dp1290
sg62
g1275
sg55
(lp1291
g48
(g49
g50
NtRp1292
(dp1293
g53
(dp1294
g61
I4
ssg62
g1288
sg55
(lp1295
S'Mozilla/5.0 (Windows NT 6.1; WOW64) AppleWebKit/535.1 (KHTML, like Gecko) Chrome/13.0.782.112 Safari/535.1'
p1296
asbasbasbag48
(g64
g50
NtRp1297
(dp1298
g53
(dp1299
sg62
g917
sg55
(lp1300
g48
(g69
g50
NtRp1301
(dp1302
g53
(dp1303
g73
g74
ssg62
g1297
sg55
(lp1304
S'path_info'
p1305
asbag48
(g69
g50
NtRp1306
(dp1307
g53
(dp1308
g80
g81
ssg62
g1297
sg55
(lp1309
S':'
asbag48
(g69
g50
NtRp1310
(dp1311
g53
(dp1312
sg62
g1297
sg55
(lp1313
g48
(g49
g50
NtRp1314
(dp1315
g53
(dp1316
g61
I4
ssg62
g1310
sg55
(lp1317
S'/201056161/default/q4s'
p1318
asbasbasbag48
(g64
g50
NtRp1319
(dp1320
g53
(dp1321
sg62
g917
sg55
(lp1322
g48
(g69
g50
NtRp1323
(dp1324
g53
(dp1325
g73
g74
ssg62
g1319
sg55
(lp1326
S'query_string'
p1327
asbag48
(g69
g50
NtRp1328
(dp1329
g53
(dp1330
g80
g81
ssg62
g1319
sg55
(lp1331
S':'
asbag48
(g69
g50
NtRp1332
(dp1333
g53
(dp1334
sg62
g1319
sg55
(lp1335
g48
(g49
g50
NtRp1336
(dp1337
g53
(dp1338
g61
I4
ssg62
g1332
sg55
(lp1339
S'namen=2&yearbe=2000'
p1340
asbasbasbag48
(g64
g50
NtRp1341
(dp1342
g53
(dp1343
sg62
g917
sg55
(lp1344
g48
(g69
g50
NtRp1345
(dp1346
g53
(dp1347
g73
g74
ssg62
g1341
sg55
(lp1348
S'remote_addr'
p1349
asbag48
(g69
g50
NtRp1350
(dp1351
g53
(dp1352
g80
g81
ssg62
g1341
sg55
(lp1353
S':'
asbag48
(g69
g50
NtRp1354
(dp1355
g53
(dp1356
sg62
g1341
sg55
(lp1357
g48
(g49
g50
NtRp1358
(dp1359
g53
(dp1360
g61
I4
ssg62
g1354
sg55
(lp1361
g181
asbasbasbag48
(g64
g50
NtRp1362
(dp1363
g53
(dp1364
sg62
g917
sg55
(lp1365
g48
(g69
g50
NtRp1366
(dp1367
g53
(dp1368
g73
g74
ssg62
g1362
sg55
(lp1369
S'remote_port'
p1370
asbag48
(g69
g50
NtRp1371
(dp1372
g53
(dp1373
g80
g81
ssg62
g1362
sg55
(lp1374
S':'
asbag48
(g69
g50
NtRp1375
(dp1376
g53
(dp1377
sg62
g1362
sg55
(lp1378
g48
(g49
g50
NtRp1379
(dp1380
g53
(dp1381
g61
I4
ssg62
g1375
sg55
(lp1382
S'55176'
p1383
asbasbasbag48
(g64
g50
NtRp1384
(dp1385
g53
(dp1386
sg62
g917
sg55
(lp1387
g48
(g69
g50
NtRp1388
(dp1389
g53
(dp1390
g73
g74
ssg62
g1384
sg55
(lp1391
S'request_method'
p1392
asbag48
(g69
g50
NtRp1393
(dp1394
g53
(dp1395
g80
g81
ssg62
g1384
sg55
(lp1396
S':'
asbag48
(g69
g50
NtRp1397
(dp1398
g53
(dp1399
sg62
g1384
sg55
(lp1400
g48
(g49
g50
NtRp1401
(dp1402
g53
(dp1403
g61
I4
ssg62
g1397
sg55
(lp1404
S'GET'
p1405
asbasbasbag48
(g64
g50
NtRp1406
(dp1407
g53
(dp1408
sg62
g917
sg55
(lp1409
g48
(g69
g50
NtRp1410
(dp1411
g53
(dp1412
g73
g74
ssg62
g1406
sg55
(lp1413
S'script_name'
p1414
asbag48
(g69
g50
NtRp1415
(dp1416
g53
(dp1417
g80
g81
ssg62
g1406
sg55
(lp1418
S':'
asbag48
(g69
g50
NtRp1419
(dp1420
g53
(dp1421
sg62
g1406
sg55
(lp1422
g48
(g49
g50
NtRp1423
(dp1424
g53
(dp1425
g61
I4
ssg62
g1419
sg55
(lp1426
S''
asbasbasbag48
(g64
g50
NtRp1427
(dp1428
g53
(dp1429
sg62
g917
sg55
(lp1430
g48
(g69
g50
NtRp1431
(dp1432
g53
(dp1433
g73
g74
ssg62
g1427
sg55
(lp1434
S'server_name'
p1435
asbag48
(g69
g50
NtRp1436
(dp1437
g53
(dp1438
g80
g81
ssg62
g1427
sg55
(lp1439
S':'
asbag48
(g69
g50
NtRp1440
(dp1441
g53
(dp1442
sg62
g1427
sg55
(lp1443
g48
(g49
g50
NtRp1444
(dp1445
g53
(dp1446
g61
I4
ssg62
g1440
sg55
(lp1447
S'AKSHAY-PC'
p1448
asbasbasbag48
(g64
g50
NtRp1449
(dp1450
g53
(dp1451
sg62
g917
sg55
(lp1452
g48
(g69
g50
NtRp1453
(dp1454
g53
(dp1455
g73
g74
ssg62
g1449
sg55
(lp1456
S'server_port'
p1457
asbag48
(g69
g50
NtRp1458
(dp1459
g53
(dp1460
g80
g81
ssg62
g1449
sg55
(lp1461
S':'
asbag48
(g69
g50
NtRp1462
(dp1463
g53
(dp1464
sg62
g1449
sg55
(lp1465
g48
(g49
g50
NtRp1466
(dp1467
g53
(dp1468
g61
I4
ssg62
g1462
sg55
(lp1469
S'8000'
p1470
asbasbasbag48
(g64
g50
NtRp1471
(dp1472
g53
(dp1473
sg62
g917
sg55
(lp1474
g48
(g69
g50
NtRp1475
(dp1476
g53
(dp1477
g73
g74
ssg62
g1471
sg55
(lp1478
S'server_protocol'
p1479
asbag48
(g69
g50
NtRp1480
(dp1481
g53
(dp1482
g80
g81
ssg62
g1471
sg55
(lp1483
S':'
asbag48
(g69
g50
NtRp1484
(dp1485
g53
(dp1486
sg62
g1471
sg55
(lp1487
g48
(g49
g50
NtRp1488
(dp1489
g53
(dp1490
g61
I4
ssg62
g1484
sg55
(lp1491
S'HTTP/1.1'
p1492
asbasbasbag48
(g64
g50
NtRp1493
(dp1494
g53
(dp1495
sg62
g917
sg55
(lp1496
g48
(g69
g50
NtRp1497
(dp1498
g53
(dp1499
g73
g74
ssg62
g1493
sg55
(lp1500
S'server_software'
p1501
asbag48
(g69
g50
NtRp1502
(dp1503
g53
(dp1504
g80
g81
ssg62
g1493
sg55
(lp1505
S':'
asbag48
(g69
g50
NtRp1506
(dp1507
g53
(dp1508
sg62
g1493
sg55
(lp1509
g48
(g49
g50
NtRp1510
(dp1511
g53
(dp1512
g61
I4
ssg62
g1506
sg55
(lp1513
S'Rocket 1.2.2'
p1514
asbasbasbag48
(g64
g50
NtRp1515
(dp1516
g53
(dp1517
sg62
g917
sg55
(lp1518
g48
(g69
g50
NtRp1519
(dp1520
g53
(dp1521
g73
g74
ssg62
g1515
sg55
(lp1522
S'web2py_crontype'
p1523
asbag48
(g69
g50
NtRp1524
(dp1525
g53
(dp1526
g80
g81
ssg62
g1515
sg55
(lp1527
S':'
asbag48
(g69
g50
NtRp1528
(dp1529
g53
(dp1530
sg62
g1515
sg55
(lp1531
g48
(g49
g50
NtRp1532
(dp1533
g53
(dp1534
g61
I4
ssg62
g1528
sg55
(lp1535
S'hard'
p1536
asbasbasbag48
(g64
g50
NtRp1537
(dp1538
g53
(dp1539
sg62
g917
sg55
(lp1540
g48
(g69
g50
NtRp1541
(dp1542
g53
(dp1543
g73
g74
ssg62
g1537
sg55
(lp1544
S'web2py_path'
p1545
asbag48
(g69
g50
NtRp1546
(dp1547
g53
(dp1548
g80
g81
ssg62
g1537
sg55
(lp1549
S':'
asbag48
(g69
g50
NtRp1550
(dp1551
g53
(dp1552
sg62
g1537
sg55
(lp1553
g48
(g49
g50
NtRp1554
(dp1555
g53
(dp1556
g61
I4
ssg62
g1550
sg55
(lp1557
g964
asbasbasbag48
(g64
g50
NtRp1558
(dp1559
g53
(dp1560
sg62
g917
sg55
(lp1561
g48
(g69
g50
NtRp1562
(dp1563
g53
(dp1564
g73
g74
ssg62
g1558
sg55
(lp1565
S'web2py_version'
p1566
asbag48
(g69
g50
NtRp1567
(dp1568
g53
(dp1569
g80
g81
ssg62
g1558
sg55
(lp1570
S':'
asbag48
(g69
g50
NtRp1571
(dp1572
g53
(dp1573
sg62
g1558
sg55
(lp1574
g48
(g49
g50
NtRp1575
(dp1576
g53
(dp1577
g61
I4
ssg62
g1571
sg55
(lp1578
S'Version 1.97.1 (2011-06-26 19:25:44)\n'
p1579
asbasbasbag48
(g64
g50
NtRp1580
(dp1581
g53
(dp1582
sg62
g917
sg55
(lp1583
g48
(g69
g50
NtRp1584
(dp1585
g53
(dp1586
g73
g74
ssg62
g1580
sg55
(lp1587
S'wsgi_errors'
p1588
asbag48
(g69
g50
NtRp1589
(dp1590
g53
(dp1591
g80
g81
ssg62
g1580
sg55
(lp1592
S':'
asbag48
(g69
g50
NtRp1593
(dp1594
g53
(dp1595
sg62
g1580
sg55
(lp1596
g48
(g49
g50
NtRp1597
(dp1598
g53
(dp1599
g61
I4
ssg62
g1593
sg55
(lp1600
S"<open file '<stderr>', mode 'w' at 0x002F00B0>"
p1601
asbasbasbag48
(g64
g50
NtRp1602
(dp1603
g53
(dp1604
sg62
g917
sg55
(lp1605
g48
(g69
g50
NtRp1606
(dp1607
g53
(dp1608
g73
g74
ssg62
g1602
sg55
(lp1609
S'wsgi_file_wrapper'
p1610
asbag48
(g69
g50
NtRp1611
(dp1612
g53
(dp1613
g80
g81
ssg62
g1602
sg55
(lp1614
S':'
asbag48
(g69
g50
NtRp1615
(dp1616
g53
(dp1617
sg62
g1602
sg55
(lp1618
g48
(g49
g50
NtRp1619
(dp1620
g53
(dp1621
g61
I4
ssg62
g1615
sg55
(lp1622
S'<class gluon.rocket.FileWrapper at 0x02F82BA0>'
p1623
asbasbasbag48
(g64
g50
NtRp1624
(dp1625
g53
(dp1626
sg62
g917
sg55
(lp1627
g48
(g69
g50
NtRp1628
(dp1629
g53
(dp1630
g73
g74
ssg62
g1624
sg55
(lp1631
S'wsgi_input'
p1632
asbag48
(g69
g50
NtRp1633
(dp1634
g53
(dp1635
g80
g81
ssg62
g1624
sg55
(lp1636
S':'
asbag48
(g69
g50
NtRp1637
(dp1638
g53
(dp1639
sg62
g1624
sg55
(lp1640
g48
(g49
g50
NtRp1641
(dp1642
g53
(dp1643
g61
I4
ssg62
g1637
sg55
(lp1644
S'<socket._fileobject object at 0x06A865B0>'
p1645
asbasbasbag48
(g64
g50
NtRp1646
(dp1647
g53
(dp1648
sg62
g917
sg55
(lp1649
g48
(g69
g50
NtRp1650
(dp1651
g53
(dp1652
g73
g74
ssg62
g1646
sg55
(lp1653
S'wsgi_multiprocess'
p1654
asbag48
(g69
g50
NtRp1655
(dp1656
g53
(dp1657
g80
g81
ssg62
g1646
sg55
(lp1658
S':'
asbag48
(g69
g50
NtRp1659
(dp1660
g53
(dp1661
sg62
g1646
sg55
(lp1662
g48
(g49
g50
NtRp1663
(dp1664
g53
(dp1665
g61
I4
ssg62
g1659
sg55
(lp1666
g91
asbasbasbag48
(g64
g50
NtRp1667
(dp1668
g53
(dp1669
sg62
g917
sg55
(lp1670
g48
(g69
g50
NtRp1671
(dp1672
g53
(dp1673
g73
g74
ssg62
g1667
sg55
(lp1674
S'wsgi_multithread'
p1675
asbag48
(g69
g50
NtRp1676
(dp1677
g53
(dp1678
g80
g81
ssg62
g1667
sg55
(lp1679
S':'
asbag48
(g69
g50
NtRp1680
(dp1681
g53
(dp1682
sg62
g1667
sg55
(lp1683
g48
(g49
g50
NtRp1684
(dp1685
g53
(dp1686
g61
I4
ssg62
g1680
sg55
(lp1687
S'True'
p1688
asbasbasbag48
(g64
g50
NtRp1689
(dp1690
g53
(dp1691
sg62
g917
sg55
(lp1692
g48
(g69
g50
NtRp1693
(dp1694
g53
(dp1695
g73
g74
ssg62
g1689
sg55
(lp1696
S'wsgi_run_once'
p1697
asbag48
(g69
g50
NtRp1698
(dp1699
g53
(dp1700
g80
g81
ssg62
g1689
sg55
(lp1701
S':'
asbag48
(g69
g50
NtRp1702
(dp1703
g53
(dp1704
sg62
g1689
sg55
(lp1705
g48
(g49
g50
NtRp1706
(dp1707
g53
(dp1708
g61
I4
ssg62
g1702
sg55
(lp1709
g91
asbasbasbag48
(g64
g50
NtRp1710
(dp1711
g53
(dp1712
sg62
g917
sg55
(lp1713
g48
(g69
g50
NtRp1714
(dp1715
g53
(dp1716
g73
g74
ssg62
g1710
sg55
(lp1717
S'wsgi_url_scheme'
p1718
asbag48
(g69
g50
NtRp1719
(dp1720
g53
(dp1721
g80
g81
ssg62
g1710
sg55
(lp1722
S':'
asbag48
(g69
g50
NtRp1723
(dp1724
g53
(dp1725
sg62
g1710
sg55
(lp1726
g48
(g49
g50
NtRp1727
(dp1728
g53
(dp1729
g61
I4
ssg62
g1723
sg55
(lp1730
S'http'
p1731
asbasbasbag48
(g64
g50
NtRp1732
(dp1733
g53
(dp1734
sg62
g917
sg55
(lp1735
g48
(g69
g50
NtRp1736
(dp1737
g53
(dp1738
g73
g74
ssg62
g1732
sg55
(lp1739
S'wsgi_version'
p1740
asbag48
(g69
g50
NtRp1741
(dp1742
g53
(dp1743
g80
g81
ssg62
g1732
sg55
(lp1744
S':'
asbag48
(g69
g50
NtRp1745
(dp1746
g53
(dp1747
sg62
g1732
sg55
(lp1748
g48
(g49
g50
NtRp1749
(dp1750
g53
(dp1751
g61
I4
ssg62
g1745
sg55
(lp1752
g48
(g57
g50
NtRp1753
(dp1754
g53
(dp1755
g61
I3
ssg62
Nsg55
(lp1756
g48
(g64
g50
NtRp1757
(dp1758
g53
(dp1759
sg62
g1753
sg55
(lp1760
g48
(g69
g50
NtRp1761
(dp1762
g53
(dp1763
sg62
g1757
sg55
(lp1764
g48
(g49
g50
NtRp1765
(dp1766
g53
(dp1767
g61
I3
ssg62
g1761
sg55
(lp1768
S'1'
asbasbasbag48
(g64
g50
NtRp1769
(dp1770
g53
(dp1771
sg62
g1753
sg55
(lp1772
g48
(g69
g50
NtRp1773
(dp1774
g53
(dp1775
sg62
g1769
sg55
(lp1776
g48
(g49
g50
NtRp1777
(dp1778
g53
(dp1779
g61
I3
ssg62
g1773
sg55
(lp1780
S'0'
asbasbasbasbasbasbasbasbasbasbasbag48
(g64
g50
NtRp1781
(dp1782
g53
(dp1783
sg62
g58
sg55
(lp1784
g48
(g69
g50
NtRp1785
(dp1786
g53
(dp1787
g73
g74
ssg62
g1781
sg55
(lp1788
S'extension'
p1789
asbag48
(g69
g50
NtRp1790
(dp1791
g53
(dp1792
g80
g81
ssg62
g1781
sg55
(lp1793
S':'
asbag48
(g69
g50
NtRp1794
(dp1795
g53
(dp1796
sg62
g1781
sg55
(lp1797
g48
(g49
g50
NtRp1798
(dp1799
g53
(dp1800
g61
I5
ssg62
g1794
sg55
(lp1801
S'html'
p1802
asbasbasbag48
(g64
g50
NtRp1803
(dp1804
g53
(dp1805
sg62
g58
sg55
(lp1806
g48
(g69
g50
NtRp1807
(dp1808
g53
(dp1809
g73
g74
ssg62
g1803
sg55
(lp1810
S'folder'
p1811
asbag48
(g69
g50
NtRp1812
(dp1813
g53
(dp1814
g80
g81
ssg62
g1803
sg55
(lp1815
S':'
asbag48
(g69
g50
NtRp1816
(dp1817
g53
(dp1818
sg62
g1803
sg55
(lp1819
g48
(g49
g50
NtRp1820
(dp1821
g53
(dp1822
g61
I5
ssg62
g1816
sg55
(lp1823
S'C:\\Users\\AKSHAY\\Desktop\\web2py\\applications\\201056161\\'
p1824
asbasbasbag48
(g64
g50
NtRp1825
(dp1826
g53
(dp1827
sg62
g58
sg55
(lp1828
g48
(g69
g50
NtRp1829
(dp1830
g53
(dp1831
g73
g74
ssg62
g1825
sg55
(lp1832
S'function'
p1833
asbag48
(g69
g50
NtRp1834
(dp1835
g53
(dp1836
g80
g81
ssg62
g1825
sg55
(lp1837
S':'
asbag48
(g69
g50
NtRp1838
(dp1839
g53
(dp1840
sg62
g1825
sg55
(lp1841
g48
(g49
g50
NtRp1842
(dp1843
g53
(dp1844
g61
I5
ssg62
g1838
sg55
(lp1845
S'q4s'
p1846
asbasbasbag48
(g64
g50
NtRp1847
(dp1848
g53
(dp1849
sg62
g58
sg55
(lp1850
g48
(g69
g50
NtRp1851
(dp1852
g53
(dp1853
g73
g74
ssg62
g1847
sg55
(lp1854
S'get_vars'
p1855
asbag48
(g69
g50
NtRp1856
(dp1857
g53
(dp1858
g80
g81
ssg62
g1847
sg55
(lp1859
S':'
asbag48
(g69
g50
NtRp1860
(dp1861
g53
(dp1862
sg62
g1847
sg55
(lp1863
g48
(g49
g50
NtRp1864
(dp1865
g53
(dp1866
g61
I5
ssg62
g1860
sg55
(lp1867
g48
(g57
g50
NtRp1868
(dp1869
g53
(dp1870
g61
I4
ssg62
Nsg55
(lp1871
g48
(g64
g50
NtRp1872
(dp1873
g53
(dp1874
sg62
g1868
sg55
(lp1875
g48
(g69
g50
NtRp1876
(dp1877
g53
(dp1878
g73
g74
ssg62
g1872
sg55
(lp1879
S'namen'
p1880
asbag48
(g69
g50
NtRp1881
(dp1882
g53
(dp1883
g80
g81
ssg62
g1872
sg55
(lp1884
S':'
asbag48
(g69
g50
NtRp1885
(dp1886
g53
(dp1887
sg62
g1872
sg55
(lp1888
g48
(g49
g50
NtRp1889
(dp1890
g53
(dp1891
g61
I4
ssg62
g1885
sg55
(lp1892
S'2'
asbasbasbag48
(g64
g50
NtRp1893
(dp1894
g53
(dp1895
sg62
g1868
sg55
(lp1896
g48
(g69
g50
NtRp1897
(dp1898
g53
(dp1899
g73
g74
ssg62
g1893
sg55
(lp1900
S'yearbe'
p1901
asbag48
(g69
g50
NtRp1902
(dp1903
g53
(dp1904
g80
g81
ssg62
g1893
sg55
(lp1905
S':'
asbag48
(g69
g50
NtRp1906
(dp1907
g53
(dp1908
sg62
g1893
sg55
(lp1909
g48
(g49
g50
NtRp1910
(dp1911
g53
(dp1912
g61
I4
ssg62
g1906
sg55
(lp1913
S'2000'
p1914
asbasbasbasbasbasbasbag48
(g64
g50
NtRp1915
(dp1916
g53
(dp1917
sg62
g58
sg55
(lp1918
g48
(g69
g50
NtRp1919
(dp1920
g53
(dp1921
g73
g74
ssg62
g1915
sg55
(lp1922
S'is_https'
p1923
asbag48
(g69
g50
NtRp1924
(dp1925
g53
(dp1926
g80
g81
ssg62
g1915
sg55
(lp1927
S':'
asbag48
(g69
g50
NtRp1928
(dp1929
g53
(dp1930
sg62
g1915
sg55
(lp1931
g48
(g49
g50
NtRp1932
(dp1933
g53
(dp1934
g61
I5
ssg62
g1928
sg55
(lp1935
g91
asbasbasbag48
(g64
g50
NtRp1936
(dp1937
g53
(dp1938
sg62
g58
sg55
(lp1939
g48
(g69
g50
NtRp1940
(dp1941
g53
(dp1942
g73
g74
ssg62
g1936
sg55
(lp1943
S'is_local'
p1944
asbag48
(g69
g50
NtRp1945
(dp1946
g53
(dp1947
g80
g81
ssg62
g1936
sg55
(lp1948
S':'
asbag48
(g69
g50
NtRp1949
(dp1950
g53
(dp1951
sg62
g1936
sg55
(lp1952
g48
(g49
g50
NtRp1953
(dp1954
g53
(dp1955
g61
I5
ssg62
g1949
sg55
(lp1956
g1688
asbasbasbag48
(g64
g50
NtRp1957
(dp1958
g53
(dp1959
sg62
g58
sg55
(lp1960
g48
(g69
g50
NtRp1961
(dp1962
g53
(dp1963
g73
g74
ssg62
g1957
sg55
(lp1964
S'is_restful'
p1965
asbag48
(g69
g50
NtRp1966
(dp1967
g53
(dp1968
g80
g81
ssg62
g1957
sg55
(lp1969
S':'
asbag48
(g69
g50
NtRp1970
(dp1971
g53
(dp1972
sg62
g1957
sg55
(lp1973
g48
(g49
g50
NtRp1974
(dp1975
g53
(dp1976
g61
I5
ssg62
g1970
sg55
(lp1977
g91
asbasbasbag48
(g64
g50
NtRp1978
(dp1979
g53
(dp1980
sg62
g58
sg55
(lp1981
g48
(g69
g50
NtRp1982
(dp1983
g53
(dp1984
g73
g74
ssg62
g1978
sg55
(lp1985
S'now'
p1986
asbag48
(g69
g50
NtRp1987
(dp1988
g53
(dp1989
g80
g81
ssg62
g1978
sg55
(lp1990
S':'
asbag48
(g69
g50
NtRp1991
(dp1992
g53
(dp1993
sg62
g1978
sg55
(lp1994
g48
(g49
g50
NtRp1995
(dp1996
g53
(dp1997
g61
I5
ssg62
g1991
sg55
(lp1998
S'datetime.datetime(2011, 8, 24, 15, 40, 7, 836000)'
p1999
asbasbasbag48
(g64
g50
NtRp2000
(dp2001
g53
(dp2002
sg62
g58
sg55
(lp2003
g48
(g69
g50
NtRp2004
(dp2005
g53
(dp2006
g73
g74
ssg62
g2000
sg55
(lp2007
S'post_vars'
p2008
asbag48
(g69
g50
NtRp2009
(dp2010
g53
(dp2011
g80
g81
ssg62
g2000
sg55
(lp2012
S':'
asbag48
(g69
g50
NtRp2013
(dp2014
g53
(dp2015
sg62
g2000
sg55
(lp2016
g48
(g49
g50
NtRp2017
(dp2018
g53
(dp2019
g61
I5
ssg62
g2013
sg55
(lp2020
g48
(g57
g50
NtRp2021
(dp2022
g53
(dp2023
g61
I4
ssg62
Nsg55
(lp2024
sbasbasbasbag48
(g64
g50
NtRp2025
(dp2026
g53
(dp2027
sg62
g58
sg55
(lp2028
g48
(g69
g50
NtRp2029
(dp2030
g53
(dp2031
g73
g74
ssg62
g2025
sg55
(lp2032
S'url'
p2033
asbag48
(g69
g50
NtRp2034
(dp2035
g53
(dp2036
g80
g81
ssg62
g2025
sg55
(lp2037
S':'
asbag48
(g69
g50
NtRp2038
(dp2039
g53
(dp2040
sg62
g2025
sg55
(lp2041
g48
(g49
g50
NtRp2042
(dp2043
g53
(dp2044
g61
I5
ssg62
g2038
sg55
(lp2045
S'/201056161/default/q4s'
p2046
asbasbasbag48
(g64
g50
NtRp2047
(dp2048
g53
(dp2049
sg62
g58
sg55
(lp2050
g48
(g69
g50
NtRp2051
(dp2052
g53
(dp2053
g73
g74
ssg62
g2047
sg55
(lp2054
S'uuid'
p2055
asbag48
(g69
g50
NtRp2056
(dp2057
g53
(dp2058
g80
g81
ssg62
g2047
sg55
(lp2059
S':'
asbag48
(g69
g50
NtRp2060
(dp2061
g53
(dp2062
sg62
g2047
sg55
(lp2063
g48
(g49
g50
NtRp2064
(dp2065
g53
(dp2066
g61
I5
ssg62
g2060
sg55
(lp2067
S'201056161/127.0.0.1.2011-08-24.15-40-07.28553b07-de33-4c09-a599-ec5507e5e068'
p2068
asbasbasbag48
(g64
g50
NtRp2069
(dp2070
g53
(dp2071
sg62
g58
sg55
(lp2072
g48
(g69
g50
NtRp2073
(dp2074
g53
(dp2075
g73
g74
ssg62
g2069
sg55
(lp2076
S'vars'
p2077
asbag48
(g69
g50
NtRp2078
(dp2079
g53
(dp2080
g80
g81
ssg62
g2069
sg55
(lp2081
S':'
asbag48
(g69
g50
NtRp2082
(dp2083
g53
(dp2084
sg62
g2069
sg55
(lp2085
g48
(g49
g50
NtRp2086
(dp2087
g53
(dp2088
g61
I5
ssg62
g2082
sg55
(lp2089
g48
(g57
g50
NtRp2090
(dp2091
g53
(dp2092
g61
I4
ssg62
Nsg55
(lp2093
g48
(g64
g50
NtRp2094
(dp2095
g53
(dp2096
sg62
g2090
sg55
(lp2097
g48
(g69
g50
NtRp2098
(dp2099
g53
(dp2100
g73
g74
ssg62
g2094
sg55
(lp2101
g1880
asbag48
(g69
g50
NtRp2102
(dp2103
g53
(dp2104
g80
g81
ssg62
g2094
sg55
(lp2105
S':'
asbag48
(g69
g50
NtRp2106
(dp2107
g53
(dp2108
sg62
g2094
sg55
(lp2109
g48
(g49
g50
NtRp2110
(dp2111
g53
(dp2112
g61
I4
ssg62
g2106
sg55
(lp2113
S'2'
asbasbasbag48
(g64
g50
NtRp2114
(dp2115
g53
(dp2116
sg62
g2090
sg55
(lp2117
g48
(g69
g50
NtRp2118
(dp2119
g53
(dp2120
g73
g74
ssg62
g2114
sg55
(lp2121
g1901
asbag48
(g69
g50
NtRp2122
(dp2123
g53
(dp2124
g80
g81
ssg62
g2114
sg55
(lp2125
S':'
asbag48
(g69
g50
NtRp2126
(dp2127
g53
(dp2128
sg62
g2114
sg55
(lp2129
g48
(g49
g50
NtRp2130
(dp2131
g53
(dp2132
g61
I4
ssg62
g2126
sg55
(lp2133
g1914
asbasbasbasbasbasbasbag48
(g64
g50
NtRp2134
(dp2135
g53
(dp2136
sg62
g58
sg55
(lp2137
g48
(g69
g50
NtRp2138
(dp2139
g53
(dp2140
g73
g74
ssg62
g2134
sg55
(lp2141
S'wsgi'
p2142
asbag48
(g69
g50
NtRp2143
(dp2144
g53
(dp2145
g80
g81
ssg62
g2134
sg55
(lp2146
S':'
asbag48
(g69
g50
NtRp2147
(dp2148
g53
(dp2149
sg62
g2134
sg55
(lp2150
g48
(g49
g50
NtRp2151
(dp2152
g53
(dp2153
g61
I5
ssg62
g2147
sg55
(lp2154
g48
(g57
g50
NtRp2155
(dp2156
g53
(dp2157
g61
I4
ssg62
Nsg55
(lp2158
g48
(g64
g50
NtRp2159
(dp2160
g53
(dp2161
sg62
g2155
sg55
(lp2162
g48
(g69
g50
NtRp2163
(dp2164
g53
(dp2165
g73
g74
ssg62
g2159
sg55
(lp2166
S'environ'
p2167
asbag48
(g69
g50
NtRp2168
(dp2169
g53
(dp2170
g80
g81
ssg62
g2159
sg55
(lp2171
S':'
asbag48
(g69
g50
NtRp2172
(dp2173
g53
(dp2174
sg62
g2159
sg55
(lp2175
g48
(g49
g50
NtRp2176
(dp2177
g53
(dp2178
g61
I4
ssg62
g2172
sg55
(lp2179
g48
(g57
g50
NtRp2180
(dp2181
g53
(dp2182
g61
I3
ssg62
Nsg55
(lp2183
g48
(g64
g50
NtRp2184
(dp2185
g53
(dp2186
sg62
g2180
sg55
(lp2187
g48
(g69
g50
NtRp2188
(dp2189
g53
(dp2190
g73
g74
ssg62
g2184
sg55
(lp2191
S'HTTP_ACCEPT'
p2192
asbag48
(g69
g50
NtRp2193
(dp2194
g53
(dp2195
g80
g81
ssg62
g2184
sg55
(lp2196
S':'
asbag48
(g69
g50
NtRp2197
(dp2198
g53
(dp2199
sg62
g2184
sg55
(lp2200
g48
(g49
g50
NtRp2201
(dp2202
g53
(dp2203
g61
I3
ssg62
g2197
sg55
(lp2204
g1098
asbasbasbag48
(g64
g50
NtRp2205
(dp2206
g53
(dp2207
sg62
g2180
sg55
(lp2208
g48
(g69
g50
NtRp2209
(dp2210
g53
(dp2211
g73
g74
ssg62
g2205
sg55
(lp2212
S'HTTP_ACCEPT_CHARSET'
p2213
asbag48
(g69
g50
NtRp2214
(dp2215
g53
(dp2216
g80
g81
ssg62
g2205
sg55
(lp2217
S':'
asbag48
(g69
g50
NtRp2218
(dp2219
g53
(dp2220
sg62
g2205
sg55
(lp2221
g48
(g49
g50
NtRp2222
(dp2223
g53
(dp2224
g61
I3
ssg62
g2218
sg55
(lp2225
g1120
asbasbasbag48
(g64
g50
NtRp2226
(dp2227
g53
(dp2228
sg62
g2180
sg55
(lp2229
g48
(g69
g50
NtRp2230
(dp2231
g53
(dp2232
g73
g74
ssg62
g2226
sg55
(lp2233
S'HTTP_ACCEPT_ENCODING'
p2234
asbag48
(g69
g50
NtRp2235
(dp2236
g53
(dp2237
g80
g81
ssg62
g2226
sg55
(lp2238
S':'
asbag48
(g69
g50
NtRp2239
(dp2240
g53
(dp2241
sg62
g2226
sg55
(lp2242
g48
(g49
g50
NtRp2243
(dp2244
g53
(dp2245
g61
I3
ssg62
g2239
sg55
(lp2246
g1142
asbasbasbag48
(g64
g50
NtRp2247
(dp2248
g53
(dp2249
sg62
g2180
sg55
(lp2250
g48
(g69
g50
NtRp2251
(dp2252
g53
(dp2253
g73
g74
ssg62
g2247
sg55
(lp2254
S'HTTP_ACCEPT_LANGUAGE'
p2255
asbag48
(g69
g50
NtRp2256
(dp2257
g53
(dp2258
g80
g81
ssg62
g2247
sg55
(lp2259
S':'
asbag48
(g69
g50
NtRp2260
(dp2261
g53
(dp2262
sg62
g2247
sg55
(lp2263
g48
(g49
g50
NtRp2264
(dp2265
g53
(dp2266
g61
I3
ssg62
g2260
sg55
(lp2267
g1164
asbasbasbag48
(g64
g50
NtRp2268
(dp2269
g53
(dp2270
sg62
g2180
sg55
(lp2271
g48
(g69
g50
NtRp2272
(dp2273
g53
(dp2274
g73
g74
ssg62
g2268
sg55
(lp2275
S'HTTP_CACHE_CONTROL'
p2276
asbag48
(g69
g50
NtRp2277
(dp2278
g53
(dp2279
g80
g81
ssg62
g2268
sg55
(lp2280
S':'
asbag48
(g69
g50
NtRp2281
(dp2282
g53
(dp2283
sg62
g2268
sg55
(lp2284
g48
(g49
g50
NtRp2285
(dp2286
g53
(dp2287
g61
I3
ssg62
g2281
sg55
(lp2288
g1186
asbasbasbag48
(g64
g50
NtRp2289
(dp2290
g53
(dp2291
sg62
g2180
sg55
(lp2292
g48
(g69
g50
NtRp2293
(dp2294
g53
(dp2295
g73
g74
ssg62
g2289
sg55
(lp2296
S'HTTP_CONNECTION'
p2297
asbag48
(g69
g50
NtRp2298
(dp2299
g53
(dp2300
g80
g81
ssg62
g2289
sg55
(lp2301
S':'
asbag48
(g69
g50
NtRp2302
(dp2303
g53
(dp2304
sg62
g2289
sg55
(lp2305
g48
(g49
g50
NtRp2306
(dp2307
g53
(dp2308
g61
I3
ssg62
g2302
sg55
(lp2309
g1208
asbasbasbag48
(g64
g50
NtRp2310
(dp2311
g53
(dp2312
sg62
g2180
sg55
(lp2313
g48
(g69
g50
NtRp2314
(dp2315
g53
(dp2316
g73
g74
ssg62
g2310
sg55
(lp2317
S'HTTP_COOKIE'
p2318
asbag48
(g69
g50
NtRp2319
(dp2320
g53
(dp2321
g80
g81
ssg62
g2310
sg55
(lp2322
S':'
asbag48
(g69
g50
NtRp2323
(dp2324
g53
(dp2325
sg62
g2310
sg55
(lp2326
g48
(g49
g50
NtRp2327
(dp2328
g53
(dp2329
g61
I3
ssg62
g2323
sg55
(lp2330
g1230
asbasbasbag48
(g64
g50
NtRp2331
(dp2332
g53
(dp2333
sg62
g2180
sg55
(lp2334
g48
(g69
g50
NtRp2335
(dp2336
g53
(dp2337
g73
g74
ssg62
g2331
sg55
(lp2338
S'HTTP_HOST'
p2339
asbag48
(g69
g50
NtRp2340
(dp2341
g53
(dp2342
g80
g81
ssg62
g2331
sg55
(lp2343
S':'
asbag48
(g69
g50
NtRp2344
(dp2345
g53
(dp2346
sg62
g2331
sg55
(lp2347
g48
(g49
g50
NtRp2348
(dp2349
g53
(dp2350
g61
I3
ssg62
g2344
sg55
(lp2351
g1252
asbasbasbag48
(g64
g50
NtRp2352
(dp2353
g53
(dp2354
sg62
g2180
sg55
(lp2355
g48
(g69
g50
NtRp2356
(dp2357
g53
(dp2358
g73
g74
ssg62
g2352
sg55
(lp2359
S'HTTP_REFERER'
p2360
asbag48
(g69
g50
NtRp2361
(dp2362
g53
(dp2363
g80
g81
ssg62
g2352
sg55
(lp2364
S':'
asbag48
(g69
g50
NtRp2365
(dp2366
g53
(dp2367
sg62
g2352
sg55
(lp2368
g48
(g49
g50
NtRp2369
(dp2370
g53
(dp2371
g61
I3
ssg62
g2365
sg55
(lp2372
g1274
asbasbasbag48
(g64
g50
NtRp2373
(dp2374
g53
(dp2375
sg62
g2180
sg55
(lp2376
g48
(g69
g50
NtRp2377
(dp2378
g53
(dp2379
g73
g74
ssg62
g2373
sg55
(lp2380
S'HTTP_USER_AGENT'
p2381
asbag48
(g69
g50
NtRp2382
(dp2383
g53
(dp2384
g80
g81
ssg62
g2373
sg55
(lp2385
S':'
asbag48
(g69
g50
NtRp2386
(dp2387
g53
(dp2388
sg62
g2373
sg55
(lp2389
g48
(g49
g50
NtRp2390
(dp2391
g53
(dp2392
g61
I3
ssg62
g2386
sg55
(lp2393
g1296
asbasbasbag48
(g64
g50
NtRp2394
(dp2395
g53
(dp2396
sg62
g2180
sg55
(lp2397
g48
(g69
g50
NtRp2398
(dp2399
g53
(dp2400
g73
g74
ssg62
g2394
sg55
(lp2401
S'PATH_INFO'
p2402
asbag48
(g69
g50
NtRp2403
(dp2404
g53
(dp2405
g80
g81
ssg62
g2394
sg55
(lp2406
S':'
asbag48
(g69
g50
NtRp2407
(dp2408
g53
(dp2409
sg62
g2394
sg55
(lp2410
g48
(g49
g50
NtRp2411
(dp2412
g53
(dp2413
g61
I3
ssg62
g2407
sg55
(lp2414
g1318
asbasbasbag48
(g64
g50
NtRp2415
(dp2416
g53
(dp2417
sg62
g2180
sg55
(lp2418
g48
(g69
g50
NtRp2419
(dp2420
g53
(dp2421
g73
g74
ssg62
g2415
sg55
(lp2422
S'QUERY_STRING'
p2423
asbag48
(g69
g50
NtRp2424
(dp2425
g53
(dp2426
g80
g81
ssg62
g2415
sg55
(lp2427
S':'
asbag48
(g69
g50
NtRp2428
(dp2429
g53
(dp2430
sg62
g2415
sg55
(lp2431
g48
(g49
g50
NtRp2432
(dp2433
g53
(dp2434
g61
I3
ssg62
g2428
sg55
(lp2435
g1340
asbasbasbag48
(g64
g50
NtRp2436
(dp2437
g53
(dp2438
sg62
g2180
sg55
(lp2439
g48
(g69
g50
NtRp2440
(dp2441
g53
(dp2442
g73
g74
ssg62
g2436
sg55
(lp2443
S'REMOTE_ADDR'
p2444
asbag48
(g69
g50
NtRp2445
(dp2446
g53
(dp2447
g80
g81
ssg62
g2436
sg55
(lp2448
S':'
asbag48
(g69
g50
NtRp2449
(dp2450
g53
(dp2451
sg62
g2436
sg55
(lp2452
g48
(g49
g50
NtRp2453
(dp2454
g53
(dp2455
g61
I3
ssg62
g2449
sg55
(lp2456
g181
asbasbasbag48
(g64
g50
NtRp2457
(dp2458
g53
(dp2459
sg62
g2180
sg55
(lp2460
g48
(g69
g50
NtRp2461
(dp2462
g53
(dp2463
g73
g74
ssg62
g2457
sg55
(lp2464
S'REMOTE_PORT'
p2465
asbag48
(g69
g50
NtRp2466
(dp2467
g53
(dp2468
g80
g81
ssg62
g2457
sg55
(lp2469
S':'
asbag48
(g69
g50
NtRp2470
(dp2471
g53
(dp2472
sg62
g2457
sg55
(lp2473
g48
(g49
g50
NtRp2474
(dp2475
g53
(dp2476
g61
I3
ssg62
g2470
sg55
(lp2477
g1383
asbasbasbag48
(g64
g50
NtRp2478
(dp2479
g53
(dp2480
sg62
g2180
sg55
(lp2481
g48
(g69
g50
NtRp2482
(dp2483
g53
(dp2484
g73
g74
ssg62
g2478
sg55
(lp2485
S'REQUEST_METHOD'
p2486
asbag48
(g69
g50
NtRp2487
(dp2488
g53
(dp2489
g80
g81
ssg62
g2478
sg55
(lp2490
S':'
asbag48
(g69
g50
NtRp2491
(dp2492
g53
(dp2493
sg62
g2478
sg55
(lp2494
g48
(g49
g50
NtRp2495
(dp2496
g53
(dp2497
g61
I3
ssg62
g2491
sg55
(lp2498
g1405
asbasbasbag48
(g64
g50
NtRp2499
(dp2500
g53
(dp2501
sg62
g2180
sg55
(lp2502
g48
(g69
g50
NtRp2503
(dp2504
g53
(dp2505
g73
g74
ssg62
g2499
sg55
(lp2506
S'SCRIPT_NAME'
p2507
asbag48
(g69
g50
NtRp2508
(dp2509
g53
(dp2510
g80
g81
ssg62
g2499
sg55
(lp2511
S':'
asbag48
(g69
g50
NtRp2512
(dp2513
g53
(dp2514
sg62
g2499
sg55
(lp2515
g48
(g49
g50
NtRp2516
(dp2517
g53
(dp2518
g61
I3
ssg62
g2512
sg55
(lp2519
S''
asbasbasbag48
(g64
g50
NtRp2520
(dp2521
g53
(dp2522
sg62
g2180
sg55
(lp2523
g48
(g69
g50
NtRp2524
(dp2525
g53
(dp2526
g73
g74
ssg62
g2520
sg55
(lp2527
S'SERVER_NAME'
p2528
asbag48
(g69
g50
NtRp2529
(dp2530
g53
(dp2531
g80
g81
ssg62
g2520
sg55
(lp2532
S':'
asbag48
(g69
g50
NtRp2533
(dp2534
g53
(dp2535
sg62
g2520
sg55
(lp2536
g48
(g49
g50
NtRp2537
(dp2538
g53
(dp2539
g61
I3
ssg62
g2533
sg55
(lp2540
g1448
asbasbasbag48
(g64
g50
NtRp2541
(dp2542
g53
(dp2543
sg62
g2180
sg55
(lp2544
g48
(g69
g50
NtRp2545
(dp2546
g53
(dp2547
g73
g74
ssg62
g2541
sg55
(lp2548
S'SERVER_PORT'
p2549
asbag48
(g69
g50
NtRp2550
(dp2551
g53
(dp2552
g80
g81
ssg62
g2541
sg55
(lp2553
S':'
asbag48
(g69
g50
NtRp2554
(dp2555
g53
(dp2556
sg62
g2541
sg55
(lp2557
g48
(g49
g50
NtRp2558
(dp2559
g53
(dp2560
g61
I3
ssg62
g2554
sg55
(lp2561
g1470
asbasbasbag48
(g64
g50
NtRp2562
(dp2563
g53
(dp2564
sg62
g2180
sg55
(lp2565
g48
(g69
g50
NtRp2566
(dp2567
g53
(dp2568
g73
g74
ssg62
g2562
sg55
(lp2569
S'SERVER_PROTOCOL'
p2570
asbag48
(g69
g50
NtRp2571
(dp2572
g53
(dp2573
g80
g81
ssg62
g2562
sg55
(lp2574
S':'
asbag48
(g69
g50
NtRp2575
(dp2576
g53
(dp2577
sg62
g2562
sg55
(lp2578
g48
(g49
g50
NtRp2579
(dp2580
g53
(dp2581
g61
I3
ssg62
g2575
sg55
(lp2582
g1492
asbasbasbag48
(g64
g50
NtRp2583
(dp2584
g53
(dp2585
sg62
g2180
sg55
(lp2586
g48
(g69
g50
NtRp2587
(dp2588
g53
(dp2589
g73
g74
ssg62
g2583
sg55
(lp2590
S'SERVER_SOFTWARE'
p2591
asbag48
(g69
g50
NtRp2592
(dp2593
g53
(dp2594
g80
g81
ssg62
g2583
sg55
(lp2595
S':'
asbag48
(g69
g50
NtRp2596
(dp2597
g53
(dp2598
sg62
g2583
sg55
(lp2599
g48
(g49
g50
NtRp2600
(dp2601
g53
(dp2602
g61
I3
ssg62
g2596
sg55
(lp2603
g1514
asbasbasbag48
(g64
g50
NtRp2604
(dp2605
g53
(dp2606
sg62
g2180
sg55
(lp2607
g48
(g69
g50
NtRp2608
(dp2609
g53
(dp2610
g73
g74
ssg62
g2604
sg55
(lp2611
S'wsgi.errors'
p2612
asbag48
(g69
g50
NtRp2613
(dp2614
g53
(dp2615
g80
g81
ssg62
g2604
sg55
(lp2616
S':'
asbag48
(g69
g50
NtRp2617
(dp2618
g53
(dp2619
sg62
g2604
sg55
(lp2620
g48
(g49
g50
NtRp2621
(dp2622
g53
(dp2623
g61
I3
ssg62
g2617
sg55
(lp2624
S"<open file '<stderr>', mode 'w' at 0x002F00B0>"
p2625
asbasbasbag48
(g64
g50
NtRp2626
(dp2627
g53
(dp2628
sg62
g2180
sg55
(lp2629
g48
(g69
g50
NtRp2630
(dp2631
g53
(dp2632
g73
g74
ssg62
g2626
sg55
(lp2633
S'wsgi.file_wrapper'
p2634
asbag48
(g69
g50
NtRp2635
(dp2636
g53
(dp2637
g80
g81
ssg62
g2626
sg55
(lp2638
S':'
asbag48
(g69
g50
NtRp2639
(dp2640
g53
(dp2641
sg62
g2626
sg55
(lp2642
g48
(g49
g50
NtRp2643
(dp2644
g53
(dp2645
g61
I3
ssg62
g2639
sg55
(lp2646
S'<class gluon.rocket.FileWrapper at 0x02F82BA0>'
p2647
asbasbasbag48
(g64
g50
NtRp2648
(dp2649
g53
(dp2650
sg62
g2180
sg55
(lp2651
g48
(g69
g50
NtRp2652
(dp2653
g53
(dp2654
g73
g74
ssg62
g2648
sg55
(lp2655
S'wsgi.input'
p2656
asbag48
(g69
g50
NtRp2657
(dp2658
g53
(dp2659
g80
g81
ssg62
g2648
sg55
(lp2660
S':'
asbag48
(g69
g50
NtRp2661
(dp2662
g53
(dp2663
sg62
g2648
sg55
(lp2664
g48
(g49
g50
NtRp2665
(dp2666
g53
(dp2667
g61
I3
ssg62
g2661
sg55
(lp2668
S'<cStringIO.StringO object at 0x06F63AA0>'
p2669
asbasbasbag48
(g64
g50
NtRp2670
(dp2671
g53
(dp2672
sg62
g2180
sg55
(lp2673
g48
(g69
g50
NtRp2674
(dp2675
g53
(dp2676
g73
g74
ssg62
g2670
sg55
(lp2677
S'wsgi.multiprocess'
p2678
asbag48
(g69
g50
NtRp2679
(dp2680
g53
(dp2681
g80
g81
ssg62
g2670
sg55
(lp2682
S':'
asbag48
(g69
g50
NtRp2683
(dp2684
g53
(dp2685
sg62
g2670
sg55
(lp2686
g48
(g49
g50
NtRp2687
(dp2688
g53
(dp2689
g61
I3
ssg62
g2683
sg55
(lp2690
g91
asbasbasbag48
(g64
g50
NtRp2691
(dp2692
g53
(dp2693
sg62
g2180
sg55
(lp2694
g48
(g69
g50
NtRp2695
(dp2696
g53
(dp2697
g73
g74
ssg62
g2691
sg55
(lp2698
S'wsgi.multithread'
p2699
asbag48
(g69
g50
NtRp2700
(dp2701
g53
(dp2702
g80
g81
ssg62
g2691
sg55
(lp2703
S':'
asbag48
(g69
g50
NtRp2704
(dp2705
g53
(dp2706
sg62
g2691
sg55
(lp2707
g48
(g49
g50
NtRp2708
(dp2709
g53
(dp2710
g61
I3
ssg62
g2704
sg55
(lp2711
g1688
asbasbasbag48
(g64
g50
NtRp2712
(dp2713
g53
(dp2714
sg62
g2180
sg55
(lp2715
g48
(g69
g50
NtRp2716
(dp2717
g53
(dp2718
g73
g74
ssg62
g2712
sg55
(lp2719
S'wsgi.run_once'
p2720
asbag48
(g69
g50
NtRp2721
(dp2722
g53
(dp2723
g80
g81
ssg62
g2712
sg55
(lp2724
S':'
asbag48
(g69
g50
NtRp2725
(dp2726
g53
(dp2727
sg62
g2712
sg55
(lp2728
g48
(g49
g50
NtRp2729
(dp2730
g53
(dp2731
g61
I3
ssg62
g2725
sg55
(lp2732
g91
asbasbasbag48
(g64
g50
NtRp2733
(dp2734
g53
(dp2735
sg62
g2180
sg55
(lp2736
g48
(g69
g50
NtRp2737
(dp2738
g53
(dp2739
g73
g74
ssg62
g2733
sg55
(lp2740
S'wsgi.url_scheme'
p2741
asbag48
(g69
g50
NtRp2742
(dp2743
g53
(dp2744
g80
g81
ssg62
g2733
sg55
(lp2745
S':'
asbag48
(g69
g50
NtRp2746
(dp2747
g53
(dp2748
sg62
g2733
sg55
(lp2749
g48
(g49
g50
NtRp2750
(dp2751
g53
(dp2752
g61
I3
ssg62
g2746
sg55
(lp2753
g1731
asbasbasbag48
(g64
g50
NtRp2754
(dp2755
g53
(dp2756
sg62
g2180
sg55
(lp2757
g48
(g69
g50
NtRp2758
(dp2759
g53
(dp2760
g73
g74
ssg62
g2754
sg55
(lp2761
S'wsgi.version'
p2762
asbag48
(g69
g50
NtRp2763
(dp2764
g53
(dp2765
g80
g81
ssg62
g2754
sg55
(lp2766
S':'
asbag48
(g69
g50
NtRp2767
(dp2768
g53
(dp2769
sg62
g2754
sg55
(lp2770
g48
(g49
g50
NtRp2771
(dp2772
g53
(dp2773
g61
I3
ssg62
g2767
sg55
(lp2774
S'1'
asbasbasbasbasbasbasbasbasbasbasbasbasbsS'frames'
p2775
(lp2776
(dp2777
S'file'
p2778
S'C:\\Users\\AKSHAY\\Desktop\\web2py\\gluon\\restricted.py'
p2779
sS'dump'
p2780
(dp2781
sS'lnum'
p2782
I192
sS'lines'
p2783
(dp2784
sS'call'
p2785
S"(code='# -*- coding: utf-8 -*-\\n# this file is released ...rows=rows)\\n\\nresponse._vars=response._caller(q4s)\\n', environment={'A': <class 'gluon.html.A'>, 'Auth': <class 'gluon.tools.Auth'>, 'B': <class 'gluon.html.B'>, 'BEAUTIFY': <class 'gluon.html.BEAUTIFY'>, 'BODY': <class 'gluon.html.BODY'>, 'BR': <class 'gluon.html.BR'>, 'BUTTON': <class 'gluon.html.BUTTON'>, 'CENTER': <class 'gluon.html.CENTER'>, 'CLEANUP': <class 'gluon.validators.CLEANUP'>, 'CODE': <class 'gluon.html.CODE'>, ...}, layer=r'C:\\Users\\AKSHAY\\Desktop\\web2py\\applications\\201056161\\controllers/default.py')"
p2786
sS'func'
p2787
S'restricted'
p2788
sa(dp2789
g2778
S'C:\\Users\\AKSHAY\\Desktop\\web2py\\applications\\201056161\\controllers\\default.py'
p2790
sg2780
(dp2791
sg2782
I124
sg2783
(dp2792
I113
S"    redirect(URL(r=request, f='q4s?namen='+form.vars.namen+'&yearbe='+form.vars.yearbe))"
p2793
sI114
S'  elif form.errors:'
p2794
sI115
S"    response.flash='Errors in form Please re-enter'"
p2795
sI116
S'  return dict(form=form)'
p2796
sI117
S'def q4s():'
p2797
sI118
S'  import datetime'
p2798
sI119
S'  sname=str(request.vars.namen)'
p2799
sI120
S'  yearbe=str(request.vars.yearbe)'
p2800
sI121
S'  rows=db((db.song.singer==sname) & (db.movie.release_date<datetime.date(yearbe,1,1))).select(db.song.name,db.song.singing_actor)'
p2801
sI122
S'  return dict(rows=rows)'
p2802
ssg2785
S'()'
p2803
sg2787
S'<module>'
p2804
sa(dp2805
g2778
S'C:\\Users\\AKSHAY\\Desktop\\web2py\\gluon\\globals.py'
p2806
sg2780
(dp2807
sg2782
I137
sg2783
(dp2808
sg2785
S'(f=<function q4s at 0x070CB330>)'
p2809
sg2787
S'<lambda>'
p2810
sa(dp2811
g2778
S'C:\\Users\\AKSHAY\\Desktop\\web2py\\applications\\201056161\\controllers\\default.py'
p2812
sg2780
(dp2813
sg2782
I121
sg2783
(dp2814
I113
S"    redirect(URL(r=request, f='q4s?namen='+form.vars.namen+'&yearbe='+form.vars.yearbe))"
p2815
sI114
S'  elif form.errors:'
p2816
sI115
S"    response.flash='Errors in form Please re-enter'"
p2817
sI116
S'  return dict(form=form)'
p2818
sI117
S'def q4s():'
p2819
sI118
S'  import datetime'
p2820
sI119
S'  sname=str(request.vars.namen)'
p2821
sI120
S'  yearbe=str(request.vars.yearbe)'
p2822
sI121
S'  rows=db((db.song.singer==sname) & (db.movie.release_date<datetime.date(yearbe,1,1))).select(db.song.name,db.song.singing_actor)'
p2823
sI122
S'  return dict(rows=rows)'
p2824
ssg2785
S'()'
p2825
sg2787
S'q4s'
p2826
sasS'pyver'
p2827
S'Python 2.5.4: C:\\Users\\AKSHAY\\Desktop\\web2py\\web2py.exe'
p2828
sS'session'
p2829
g48
(g49
g50
NtRp2830
(dp2831
g53
(dp2832
sg55
(lp2833
g48
(g57
g50
NtRp2834
(dp2835
g53
(dp2836
g61
I5
ssg62
Nsg55
(lp2837
g48
(g64
g50
NtRp2838
(dp2839
g53
(dp2840
sg62
g2834
sg55
(lp2841
g48
(g69
g50
NtRp2842
(dp2843
g53
(dp2844
g73
g74
ssg62
g2838
sg55
(lp2845
S'last_query'
p2846
asbag48
(g69
g50
NtRp2847
(dp2848
g53
(dp2849
g80
g81
ssg62
g2838
sg55
(lp2850
S':'
asbag48
(g69
g50
NtRp2851
(dp2852
g53
(dp2853
sg62
g2838
sg55
(lp2854
g48
(g49
g50
NtRp2855
(dp2856
g53
(dp2857
g61
I5
ssg62
g2851
sg55
(lp2858
S'db.song.id>0'
p2859
asbasbasbasbasbsS'etype'
p2860
S"<type 'exceptions.TypeError'>"
p2861
sS'date'
p2862
S'Wed Aug 24 15:40:07 2011'
p2863
sS'response'
p2864
g48
(g49
g50
NtRp2865
(dp2866
g53
(dp2867
sg55
(lp2868
g48
(g57
g50
NtRp2869
(dp2870
g53
(dp2871
g61
I5
ssg62
Nsg55
(lp2872
g48
(g64
g50
NtRp2873
(dp2874
g53
(dp2875
sg62
g2869
sg55
(lp2876
g48
(g69
g50
NtRp2877
(dp2878
g53
(dp2879
g73
g74
ssg62
g2873
sg55
(lp2880
g146
asbag48
(g69
g50
NtRp2881
(dp2882
g53
(dp2883
g80
g81
ssg62
g2873
sg55
(lp2884
S':'
asbag48
(g69
g50
NtRp2885
(dp2886
g53
(dp2887
sg62
g2873
sg55
(lp2888
g48
(g49
g50
NtRp2889
(dp2890
g53
(dp2891
g61
I5
ssg62
g2885
sg55
(lp2892
S'<cStringIO.StringO object at 0x06F632E0>'
p2893
asbasbasbag48
(g64
g50
NtRp2894
(dp2895
g53
(dp2896
sg62
g2869
sg55
(lp2897
g48
(g69
g50
NtRp2898
(dp2899
g53
(dp2900
g73
g74
ssg62
g2894
sg55
(lp2901
g212
asbag48
(g69
g50
NtRp2902
(dp2903
g53
(dp2904
g80
g81
ssg62
g2894
sg55
(lp2905
S':'
asbag48
(g69
g50
NtRp2906
(dp2907
g53
(dp2908
sg62
g2894
sg55
(lp2909
g48
(g49
g50
NtRp2910
(dp2911
g53
(dp2912
g61
I5
ssg62
g2906
sg55
(lp2913
g48
(g57
g50
NtRp2914
(dp2915
g53
(dp2916
g61
I4
ssg62
Nsg55
(lp2917
g48
(g64
g50
NtRp2918
(dp2919
g53
(dp2920
sg62
g2914
sg55
(lp2921
g48
(g69
g50
NtRp2922
(dp2923
g53
(dp2924
g73
g74
ssg62
g2918
sg55
(lp2925
S'session_id_201056161'
p2926
asbag48
(g69
g50
NtRp2927
(dp2928
g53
(dp2929
g80
g81
ssg62
g2918
sg55
(lp2930
S':'
asbag48
(g69
g50
NtRp2931
(dp2932
g53
(dp2933
sg62
g2918
sg55
(lp2934
g48
(g49
g50
NtRp2935
(dp2936
g53
(dp2937
g61
I4
ssg62
g2931
sg55
(lp2938
g48
(g57
g50
NtRp2939
(dp2940
g53
(dp2941
g61
I3
ssg62
Nsg55
(lp2942
g48
(g64
g50
NtRp2943
(dp2944
g53
(dp2945
sg62
g2939
sg55
(lp2946
g48
(g69
g50
NtRp2947
(dp2948
g53
(dp2949
g73
g74
ssg62
g2943
sg55
(lp2950
g262
asbag48
(g69
g50
NtRp2951
(dp2952
g53
(dp2953
g80
g81
ssg62
g2943
sg55
(lp2954
S':'
asbag48
(g69
g50
NtRp2955
(dp2956
g53
(dp2957
sg62
g2943
sg55
(lp2958
g48
(g49
g50
NtRp2959
(dp2960
g53
(dp2961
g61
I3
ssg62
g2955
sg55
(lp2962
S''
asbasbasbag48
(g64
g50
NtRp2963
(dp2964
g53
(dp2965
sg62
g2939
sg55
(lp2966
g48
(g69
g50
NtRp2967
(dp2968
g53
(dp2969
g73
g74
ssg62
g2963
sg55
(lp2970
g283
asbag48
(g69
g50
NtRp2971
(dp2972
g53
(dp2973
g80
g81
ssg62
g2963
sg55
(lp2974
S':'
asbag48
(g69
g50
NtRp2975
(dp2976
g53
(dp2977
sg62
g2963
sg55
(lp2978
g48
(g49
g50
NtRp2979
(dp2980
g53
(dp2981
g61
I3
ssg62
g2975
sg55
(lp2982
S''
asbasbasbag48
(g64
g50
NtRp2983
(dp2984
g53
(dp2985
sg62
g2939
sg55
(lp2986
g48
(g69
g50
NtRp2987
(dp2988
g53
(dp2989
g73
g74
ssg62
g2983
sg55
(lp2990
g304
asbag48
(g69
g50
NtRp2991
(dp2992
g53
(dp2993
g80
g81
ssg62
g2983
sg55
(lp2994
S':'
asbag48
(g69
g50
NtRp2995
(dp2996
g53
(dp2997
sg62
g2983
sg55
(lp2998
g48
(g49
g50
NtRp2999
(dp3000
g53
(dp3001
g61
I3
ssg62
g2995
sg55
(lp3002
S''
asbasbasbag48
(g64
g50
NtRp3003
(dp3004
g53
(dp3005
sg62
g2939
sg55
(lp3006
g48
(g69
g50
NtRp3007
(dp3008
g53
(dp3009
g73
g74
ssg62
g3003
sg55
(lp3010
g325
asbag48
(g69
g50
NtRp3011
(dp3012
g53
(dp3013
g80
g81
ssg62
g3003
sg55
(lp3014
S':'
asbag48
(g69
g50
NtRp3015
(dp3016
g53
(dp3017
sg62
g3003
sg55
(lp3018
g48
(g49
g50
NtRp3019
(dp3020
g53
(dp3021
g61
I3
ssg62
g3015
sg55
(lp3022
S''
asbasbasbag48
(g64
g50
NtRp3023
(dp3024
g53
(dp3025
sg62
g2939
sg55
(lp3026
g48
(g69
g50
NtRp3027
(dp3028
g53
(dp3029
g73
g74
ssg62
g3023
sg55
(lp3030
g346
asbag48
(g69
g50
NtRp3031
(dp3032
g53
(dp3033
g80
g81
ssg62
g3023
sg55
(lp3034
S':'
asbag48
(g69
g50
NtRp3035
(dp3036
g53
(dp3037
sg62
g3023
sg55
(lp3038
g48
(g49
g50
NtRp3039
(dp3040
g53
(dp3041
g61
I3
ssg62
g3035
sg55
(lp3042
S'/'
asbasbasbag48
(g64
g50
NtRp3043
(dp3044
g53
(dp3045
sg62
g2939
sg55
(lp3046
g48
(g69
g50
NtRp3047
(dp3048
g53
(dp3049
g73
g74
ssg62
g3043
sg55
(lp3050
g367
asbag48
(g69
g50
NtRp3051
(dp3052
g53
(dp3053
g80
g81
ssg62
g3043
sg55
(lp3054
S':'
asbag48
(g69
g50
NtRp3055
(dp3056
g53
(dp3057
sg62
g3043
sg55
(lp3058
g48
(g49
g50
NtRp3059
(dp3060
g53
(dp3061
g61
I3
ssg62
g3055
sg55
(lp3062
S''
asbasbasbag48
(g64
g50
NtRp3063
(dp3064
g53
(dp3065
sg62
g2939
sg55
(lp3066
g48
(g69
g50
NtRp3067
(dp3068
g53
(dp3069
g73
g74
ssg62
g3063
sg55
(lp3070
g388
asbag48
(g69
g50
NtRp3071
(dp3072
g53
(dp3073
g80
g81
ssg62
g3063
sg55
(lp3074
S':'
asbag48
(g69
g50
NtRp3075
(dp3076
g53
(dp3077
sg62
g3063
sg55
(lp3078
g48
(g49
g50
NtRp3079
(dp3080
g53
(dp3081
g61
I3
ssg62
g3075
sg55
(lp3082
S''
asbasbasbasbasbasbasbasbasbasbasbag48
(g64
g50
NtRp3083
(dp3084
g53
(dp3085
sg62
g2869
sg55
(lp3086
g48
(g69
g50
NtRp3087
(dp3088
g53
(dp3089
g73
g74
ssg62
g3083
sg55
(lp3090
S'files'
p3091
asbag48
(g69
g50
NtRp3092
(dp3093
g53
(dp3094
g80
g81
ssg62
g3083
sg55
(lp3095
S':'
asbag48
(g69
g50
NtRp3096
(dp3097
g53
(dp3098
sg62
g3083
sg55
(lp3099
g48
(g49
g50
NtRp3100
(dp3101
g53
(dp3102
g61
I5
ssg62
g3096
sg55
(lp3103
g48
(g57
g50
NtRp3104
(dp3105
g53
(dp3106
g61
I4
ssg62
Nsg55
(lp3107
sbasbasbasbag48
(g64
g50
NtRp3108
(dp3109
g53
(dp3110
sg62
g2869
sg55
(lp3111
g48
(g69
g50
NtRp3112
(dp3113
g53
(dp3114
g73
g74
ssg62
g3108
sg55
(lp3115
S'flash'
p3116
asbag48
(g69
g50
NtRp3117
(dp3118
g53
(dp3119
g80
g81
ssg62
g3108
sg55
(lp3120
S':'
asbag48
(g69
g50
NtRp3121
(dp3122
g53
(dp3123
sg62
g3108
sg55
(lp3124
g48
(g49
g50
NtRp3125
(dp3126
g53
(dp3127
g61
I5
ssg62
g3121
sg55
(lp3128
S''
asbasbasbag48
(g64
g50
NtRp3129
(dp3130
g53
(dp3131
sg62
g2869
sg55
(lp3132
g48
(g69
g50
NtRp3133
(dp3134
g53
(dp3135
g73
g74
ssg62
g3129
sg55
(lp3136
S'generic_patterns'
p3137
asbag48
(g69
g50
NtRp3138
(dp3139
g53
(dp3140
g80
g81
ssg62
g3129
sg55
(lp3141
S':'
asbag48
(g69
g50
NtRp3142
(dp3143
g53
(dp3144
sg62
g3129
sg55
(lp3145
g48
(g49
g50
NtRp3146
(dp3147
g53
(dp3148
g61
I5
ssg62
g3142
sg55
(lp3149
g48
(g57
g50
NtRp3150
(dp3151
g53
(dp3152
g61
I4
ssg62
Nsg55
(lp3153
g48
(g64
g50
NtRp3154
(dp3155
g53
(dp3156
sg62
g3150
sg55
(lp3157
g48
(g69
g50
NtRp3158
(dp3159
g53
(dp3160
sg62
g3154
sg55
(lp3161
g48
(g49
g50
NtRp3162
(dp3163
g53
(dp3164
g61
I4
ssg62
g3158
sg55
(lp3165
S'*'
asbasbasbasbasbasbasbag48
(g64
g50
NtRp3166
(dp3167
g53
(dp3168
sg62
g2869
sg55
(lp3169
g48
(g69
g50
NtRp3170
(dp3171
g53
(dp3172
g73
g74
ssg62
g3166
sg55
(lp3173
S'headers'
p3174
asbag48
(g69
g50
NtRp3175
(dp3176
g53
(dp3177
g80
g81
ssg62
g3166
sg55
(lp3178
S':'
asbag48
(g69
g50
NtRp3179
(dp3180
g53
(dp3181
sg62
g3166
sg55
(lp3182
g48
(g49
g50
NtRp3183
(dp3184
g53
(dp3185
g61
I5
ssg62
g3179
sg55
(lp3186
g48
(g57
g50
NtRp3187
(dp3188
g53
(dp3189
g61
I4
ssg62
Nsg55
(lp3190
g48
(g64
g50
NtRp3191
(dp3192
g53
(dp3193
sg62
g3187
sg55
(lp3194
g48
(g69
g50
NtRp3195
(dp3196
g53
(dp3197
g73
g74
ssg62
g3191
sg55
(lp3198
S'Cache-Control'
p3199
asbag48
(g69
g50
NtRp3200
(dp3201
g53
(dp3202
g80
g81
ssg62
g3191
sg55
(lp3203
S':'
asbag48
(g69
g50
NtRp3204
(dp3205
g53
(dp3206
sg62
g3191
sg55
(lp3207
g48
(g49
g50
NtRp3208
(dp3209
g53
(dp3210
g61
I4
ssg62
g3204
sg55
(lp3211
S'no-store, no-cache, must-revalidate, post-check=0, pre-check=0'
p3212
asbasbasbag48
(g64
g50
NtRp3213
(dp3214
g53
(dp3215
sg62
g3187
sg55
(lp3216
g48
(g69
g50
NtRp3217
(dp3218
g53
(dp3219
g73
g74
ssg62
g3213
sg55
(lp3220
S'Content-Type'
p3221
asbag48
(g69
g50
NtRp3222
(dp3223
g53
(dp3224
g80
g81
ssg62
g3213
sg55
(lp3225
S':'
asbag48
(g69
g50
NtRp3226
(dp3227
g53
(dp3228
sg62
g3213
sg55
(lp3229
g48
(g49
g50
NtRp3230
(dp3231
g53
(dp3232
g61
I4
ssg62
g3226
sg55
(lp3233
S'text/html; charset=utf-8'
p3234
asbasbasbag48
(g64
g50
NtRp3235
(dp3236
g53
(dp3237
sg62
g3187
sg55
(lp3238
g48
(g69
g50
NtRp3239
(dp3240
g53
(dp3241
g73
g74
ssg62
g3235
sg55
(lp3242
S'Expires'
p3243
asbag48
(g69
g50
NtRp3244
(dp3245
g53
(dp3246
g80
g81
ssg62
g3235
sg55
(lp3247
S':'
asbag48
(g69
g50
NtRp3248
(dp3249
g53
(dp3250
sg62
g3235
sg55
(lp3251
g48
(g49
g50
NtRp3252
(dp3253
g53
(dp3254
g61
I4
ssg62
g3248
sg55
(lp3255
S'Wed, 24 Aug 2011 10:10:07 GMT'
p3256
asbasbasbag48
(g64
g50
NtRp3257
(dp3258
g53
(dp3259
sg62
g3187
sg55
(lp3260
g48
(g69
g50
NtRp3261
(dp3262
g53
(dp3263
g73
g74
ssg62
g3257
sg55
(lp3264
S'Pragma'
p3265
asbag48
(g69
g50
NtRp3266
(dp3267
g53
(dp3268
g80
g81
ssg62
g3257
sg55
(lp3269
S':'
asbag48
(g69
g50
NtRp3270
(dp3271
g53
(dp3272
sg62
g3257
sg55
(lp3273
g48
(g49
g50
NtRp3274
(dp3275
g53
(dp3276
g61
I4
ssg62
g3270
sg55
(lp3277
S'no-cache'
p3278
asbasbasbag48
(g64
g50
NtRp3279
(dp3280
g53
(dp3281
sg62
g3187
sg55
(lp3282
g48
(g69
g50
NtRp3283
(dp3284
g53
(dp3285
g73
g74
ssg62
g3279
sg55
(lp3286
S'X-Powered-By'
p3287
asbag48
(g69
g50
NtRp3288
(dp3289
g53
(dp3290
g80
g81
ssg62
g3279
sg55
(lp3291
S':'
asbag48
(g69
g50
NtRp3292
(dp3293
g53
(dp3294
sg62
g3279
sg55
(lp3295
g48
(g49
g50
NtRp3296
(dp3297
g53
(dp3298
g61
I4
ssg62
g3292
sg55
(lp3299
S'web2py'
p3300
asbasbasbasbasbasbasbag48
(g64
g50
NtRp3301
(dp3302
g53
(dp3303
sg62
g2869
sg55
(lp3304
g48
(g69
g50
NtRp3305
(dp3306
g53
(dp3307
g73
g74
ssg62
g3301
sg55
(lp3308
S'menu'
p3309
asbag48
(g69
g50
NtRp3310
(dp3311
g53
(dp3312
g80
g81
ssg62
g3301
sg55
(lp3313
S':'
asbag48
(g69
g50
NtRp3314
(dp3315
g53
(dp3316
sg62
g3301
sg55
(lp3317
g48
(g49
g50
NtRp3318
(dp3319
g53
(dp3320
g61
I5
ssg62
g3314
sg55
(lp3321
g48
(g57
g50
NtRp3322
(dp3323
g53
(dp3324
g61
I4
ssg62
Nsg55
(lp3325
g48
(g64
g50
NtRp3326
(dp3327
g53
(dp3328
sg62
g3322
sg55
(lp3329
g48
(g69
g50
NtRp3330
(dp3331
g53
(dp3332
sg62
g3326
sg55
(lp3333
g48
(g49
g50
NtRp3334
(dp3335
g53
(dp3336
g61
I4
ssg62
g3330
sg55
(lp3337
g48
(g57
g50
NtRp3338
(dp3339
g53
(dp3340
g61
I3
ssg62
Nsg55
(lp3341
g48
(g64
g50
NtRp3342
(dp3343
g53
(dp3344
sg62
g3338
sg55
(lp3345
g48
(g69
g50
NtRp3346
(dp3347
g53
(dp3348
sg62
g3342
sg55
(lp3349
g48
(g49
g50
NtRp3350
(dp3351
g53
(dp3352
g61
I3
ssg62
g3346
sg55
(lp3353
cgluon.languages
lazyT_unpickle
p3354
(S's\x04\x00\x00\x00Home'
tRp3355
asbasbasbag48
(g64
g50
NtRp3356
(dp3357
g53
(dp3358
sg62
g3338
sg55
(lp3359
g48
(g69
g50
NtRp3360
(dp3361
g53
(dp3362
sg62
g3356
sg55
(lp3363
g48
(g49
g50
NtRp3364
(dp3365
g53
(dp3366
g61
I3
ssg62
g3360
sg55
(lp3367
g91
asbasbasbag48
(g64
g50
NtRp3368
(dp3369
g53
(dp3370
sg62
g3338
sg55
(lp3371
g48
(g69
g50
NtRp3372
(dp3373
g53
(dp3374
sg62
g3368
sg55
(lp3375
g48
(g49
g50
NtRp3376
(dp3377
g53
(dp3378
g61
I3
ssg62
g3372
sg55
(lp3379
S'/201056161/default/index'
p3380
asbasbasbag48
(g64
g50
NtRp3381
(dp3382
g53
(dp3383
sg62
g3338
sg55
(lp3384
g48
(g69
g50
NtRp3385
(dp3386
g53
(dp3387
sg62
g3381
sg55
(lp3388
g48
(g49
g50
NtRp3389
(dp3390
g53
(dp3391
g61
I3
ssg62
g3385
sg55
(lp3392
g48
(g57
g50
NtRp3393
(dp3394
g53
(dp3395
g61
I2
ssg62
Nsg55
(lp3396
sbasbasbasbasbasbasbasbag48
(g64
g50
NtRp3397
(dp3398
g53
(dp3399
sg62
g3322
sg55
(lp3400
g48
(g69
g50
NtRp3401
(dp3402
g53
(dp3403
sg62
g3397
sg55
(lp3404
g48
(g49
g50
NtRp3405
(dp3406
g53
(dp3407
g61
I4
ssg62
g3401
sg55
(lp3408
g48
(g57
g50
NtRp3409
(dp3410
g53
(dp3411
g61
I3
ssg62
Nsg55
(lp3412
g48
(g64
g50
NtRp3413
(dp3414
g53
(dp3415
sg62
g3409
sg55
(lp3416
g48
(g69
g50
NtRp3417
(dp3418
g53
(dp3419
sg62
g3413
sg55
(lp3420
g48
(g49
g50
NtRp3421
(dp3422
g53
(dp3423
g61
I3
ssg62
g3417
sg55
(lp3424
g3354
(S's\x08\x00\x00\x00This App'
tRp3425
asbasbasbag48
(g64
g50
NtRp3426
(dp3427
g53
(dp3428
sg62
g3409
sg55
(lp3429
g48
(g69
g50
NtRp3430
(dp3431
g53
(dp3432
sg62
g3426
sg55
(lp3433
g48
(g49
g50
NtRp3434
(dp3435
g53
(dp3436
g61
I3
ssg62
g3430
sg55
(lp3437
g91
asbasbasbag48
(g64
g50
NtRp3438
(dp3439
g53
(dp3440
sg62
g3409
sg55
(lp3441
g48
(g69
g50
NtRp3442
(dp3443
g53
(dp3444
sg62
g3438
sg55
(lp3445
g48
(g49
g50
NtRp3446
(dp3447
g53
(dp3448
g61
I3
ssg62
g3442
sg55
(lp3449
S'/admin/default/design/201056161'
p3450
asbasbasbag48
(g64
g50
NtRp3451
(dp3452
g53
(dp3453
sg62
g3409
sg55
(lp3454
g48
(g69
g50
NtRp3455
(dp3456
g53
(dp3457
sg62
g3451
sg55
(lp3458
g48
(g49
g50
NtRp3459
(dp3460
g53
(dp3461
g61
I3
ssg62
g3455
sg55
(lp3462
g48
(g57
g50
NtRp3463
(dp3464
g53
(dp3465
g61
I2
ssg62
Nsg55
(lp3466
g48
(g64
g50
NtRp3467
(dp3468
g53
(dp3469
sg62
g3463
sg55
(lp3470
g48
(g69
g50
NtRp3471
(dp3472
g53
(dp3473
sg62
g3467
sg55
(lp3474
g48
(g49
g50
NtRp3475
(dp3476
g53
(dp3477
g61
I2
ssg62
g3471
sg55
(lp3478
g48
(g57
g50
NtRp3479
(dp3480
g53
(dp3481
g61
I1
ssg62
Nsg55
(lp3482
g48
(g64
g50
NtRp3483
(dp3484
g53
(dp3485
sg62
g3479
sg55
(lp3486
g48
(g69
g50
NtRp3487
(dp3488
g53
(dp3489
sg62
g3483
sg55
(lp3490
g48
(g49
g50
NtRp3491
(dp3492
g53
(dp3493
g61
I1
ssg62
g3487
sg55
(lp3494
g3354
(S's\n\x00\x00\x00Controller'
tRp3495
asbasbasbag48
(g64
g50
NtRp3496
(dp3497
g53
(dp3498
sg62
g3479
sg55
(lp3499
g48
(g69
g50
NtRp3500
(dp3501
g53
(dp3502
sg62
g3496
sg55
(lp3503
g48
(g49
g50
NtRp3504
(dp3505
g53
(dp3506
g61
I1
ssg62
g3500
sg55
(lp3507
I00
asbasbasbag48
(g64
g50
NtRp3508
(dp3509
g53
(dp3510
sg62
g3479
sg55
(lp3511
g48
(g69
g50
NtRp3512
(dp3513
g53
(dp3514
sg62
g3508
sg55
(lp3515
g48
(g49
g50
NtRp3516
(dp3517
g53
(dp3518
g61
I1
ssg62
g3512
sg55
(lp3519
S'/admin/default/edit/201056161/controllers/default.py'
p3520
asbasbasbasbasbasbasbag48
(g64
g50
NtRp3521
(dp3522
g53
(dp3523
sg62
g3463
sg55
(lp3524
g48
(g69
g50
NtRp3525
(dp3526
g53
(dp3527
sg62
g3521
sg55
(lp3528
g48
(g49
g50
NtRp3529
(dp3530
g53
(dp3531
g61
I2
ssg62
g3525
sg55
(lp3532
g48
(g57
g50
NtRp3533
(dp3534
g53
(dp3535
g61
I1
ssg62
Nsg55
(lp3536
g48
(g64
g50
NtRp3537
(dp3538
g53
(dp3539
sg62
g3533
sg55
(lp3540
g48
(g69
g50
NtRp3541
(dp3542
g53
(dp3543
sg62
g3537
sg55
(lp3544
g48
(g49
g50
NtRp3545
(dp3546
g53
(dp3547
g61
I1
ssg62
g3541
sg55
(lp3548
g3354
(S's\x04\x00\x00\x00View'
tRp3549
asbasbasbag48
(g64
g50
NtRp3550
(dp3551
g53
(dp3552
sg62
g3533
sg55
(lp3553
g48
(g69
g50
NtRp3554
(dp3555
g53
(dp3556
sg62
g3550
sg55
(lp3557
g48
(g49
g50
NtRp3558
(dp3559
g53
(dp3560
g61
I1
ssg62
g3554
sg55
(lp3561
I00
asbasbasbag48
(g64
g50
NtRp3562
(dp3563
g53
(dp3564
sg62
g3533
sg55
(lp3565
g48
(g69
g50
NtRp3566
(dp3567
g53
(dp3568
sg62
g3562
sg55
(lp3569
g48
(g49
g50
NtRp3570
(dp3571
g53
(dp3572
g61
I1
ssg62
g3566
sg55
(lp3573
S'/admin/default/edit/201056161/views/default/q4s.html'
p3574
asbasbasbasbasbasbasbag48
(g64
g50
NtRp3575
(dp3576
g53
(dp3577
sg62
g3463
sg55
(lp3578
g48
(g69
g50
NtRp3579
(dp3580
g53
(dp3581
sg62
g3575
sg55
(lp3582
g48
(g49
g50
NtRp3583
(dp3584
g53
(dp3585
g61
I2
ssg62
g3579
sg55
(lp3586
g48
(g57
g50
NtRp3587
(dp3588
g53
(dp3589
g61
I1
ssg62
Nsg55
(lp3590
g48
(g64
g50
NtRp3591
(dp3592
g53
(dp3593
sg62
g3587
sg55
(lp3594
g48
(g69
g50
NtRp3595
(dp3596
g53
(dp3597
sg62
g3591
sg55
(lp3598
g48
(g49
g50
NtRp3599
(dp3600
g53
(dp3601
g61
I1
ssg62
g3595
sg55
(lp3602
g3354
(S's\x06\x00\x00\x00Layout'
tRp3603
asbasbasbag48
(g64
g50
NtRp3604
(dp3605
g53
(dp3606
sg62
g3587
sg55
(lp3607
g48
(g69
g50
NtRp3608
(dp3609
g53
(dp3610
sg62
g3604
sg55
(lp3611
g48
(g49
g50
NtRp3612
(dp3613
g53
(dp3614
g61
I1
ssg62
g3608
sg55
(lp3615
I00
asbasbasbag48
(g64
g50
NtRp3616
(dp3617
g53
(dp3618
sg62
g3587
sg55
(lp3619
g48
(g69
g50
NtRp3620
(dp3621
g53
(dp3622
sg62
g3616
sg55
(lp3623
g48
(g49
g50
NtRp3624
(dp3625
g53
(dp3626
g61
I1
ssg62
g3620
sg55
(lp3627
S'/admin/default/edit/201056161/views/layout.html'
p3628
asbasbasbasbasbasbasbag48
(g64
g50
NtRp3629
(dp3630
g53
(dp3631
sg62
g3463
sg55
(lp3632
g48
(g69
g50
NtRp3633
(dp3634
g53
(dp3635
sg62
g3629
sg55
(lp3636
g48
(g49
g50
NtRp3637
(dp3638
g53
(dp3639
g61
I2
ssg62
g3633
sg55
(lp3640
g48
(g57
g50
NtRp3641
(dp3642
g53
(dp3643
g61
I1
ssg62
Nsg55
(lp3644
g48
(g64
g50
NtRp3645
(dp3646
g53
(dp3647
sg62
g3641
sg55
(lp3648
g48
(g69
g50
NtRp3649
(dp3650
g53
(dp3651
sg62
g3645
sg55
(lp3652
g48
(g49
g50
NtRp3653
(dp3654
g53
(dp3655
g61
I1
ssg62
g3649
sg55
(lp3656
g3354
(S's\n\x00\x00\x00Stylesheet'
tRp3657
asbasbasbag48
(g64
g50
NtRp3658
(dp3659
g53
(dp3660
sg62
g3641
sg55
(lp3661
g48
(g69
g50
NtRp3662
(dp3663
g53
(dp3664
sg62
g3658
sg55
(lp3665
g48
(g49
g50
NtRp3666
(dp3667
g53
(dp3668
g61
I1
ssg62
g3662
sg55
(lp3669
I00
asbasbasbag48
(g64
g50
NtRp3670
(dp3671
g53
(dp3672
sg62
g3641
sg55
(lp3673
g48
(g69
g50
NtRp3674
(dp3675
g53
(dp3676
sg62
g3670
sg55
(lp3677
g48
(g49
g50
NtRp3678
(dp3679
g53
(dp3680
g61
I1
ssg62
g3674
sg55
(lp3681
S'/admin/default/edit/201056161/static/base.css'
p3682
asbasbasbasbasbasbasbag48
(g64
g50
NtRp3683
(dp3684
g53
(dp3685
sg62
g3463
sg55
(lp3686
g48
(g69
g50
NtRp3687
(dp3688
g53
(dp3689
sg62
g3683
sg55
(lp3690
g48
(g49
g50
NtRp3691
(dp3692
g53
(dp3693
g61
I2
ssg62
g3687
sg55
(lp3694
g48
(g57
g50
NtRp3695
(dp3696
g53
(dp3697
g61
I1
ssg62
Nsg55
(lp3698
g48
(g64
g50
NtRp3699
(dp3700
g53
(dp3701
sg62
g3695
sg55
(lp3702
g48
(g69
g50
NtRp3703
(dp3704
g53
(dp3705
sg62
g3699
sg55
(lp3706
g48
(g49
g50
NtRp3707
(dp3708
g53
(dp3709
g61
I1
ssg62
g3703
sg55
(lp3710
g3354
(S's\x08\x00\x00\x00DB Model'
tRp3711
asbasbasbag48
(g64
g50
NtRp3712
(dp3713
g53
(dp3714
sg62
g3695
sg55
(lp3715
g48
(g69
g50
NtRp3716
(dp3717
g53
(dp3718
sg62
g3712
sg55
(lp3719
g48
(g49
g50
NtRp3720
(dp3721
g53
(dp3722
g61
I1
ssg62
g3716
sg55
(lp3723
I00
asbasbasbag48
(g64
g50
NtRp3724
(dp3725
g53
(dp3726
sg62
g3695
sg55
(lp3727
g48
(g69
g50
NtRp3728
(dp3729
g53
(dp3730
sg62
g3724
sg55
(lp3731
g48
(g49
g50
NtRp3732
(dp3733
g53
(dp3734
g61
I1
ssg62
g3728
sg55
(lp3735
S'/admin/default/edit/201056161/models/db.py'
p3736
asbasbasbasbasbasbasbag48
(g64
g50
NtRp3737
(dp3738
g53
(dp3739
sg62
g3463
sg55
(lp3740
g48
(g69
g50
NtRp3741
(dp3742
g53
(dp3743
sg62
g3737
sg55
(lp3744
g48
(g49
g50
NtRp3745
(dp3746
g53
(dp3747
g61
I2
ssg62
g3741
sg55
(lp3748
g48
(g57
g50
NtRp3749
(dp3750
g53
(dp3751
g61
I1
ssg62
Nsg55
(lp3752
g48
(g64
g50
NtRp3753
(dp3754
g53
(dp3755
sg62
g3749
sg55
(lp3756
g48
(g69
g50
NtRp3757
(dp3758
g53
(dp3759
sg62
g3753
sg55
(lp3760
g48
(g49
g50
NtRp3761
(dp3762
g53
(dp3763
g61
I1
ssg62
g3757
sg55
(lp3764
g3354
(S's\n\x00\x00\x00Menu Model'
tRp3765
asbasbasbag48
(g64
g50
NtRp3766
(dp3767
g53
(dp3768
sg62
g3749
sg55
(lp3769
g48
(g69
g50
NtRp3770
(dp3771
g53
(dp3772
sg62
g3766
sg55
(lp3773
g48
(g49
g50
NtRp3774
(dp3775
g53
(dp3776
g61
I1
ssg62
g3770
sg55
(lp3777
I00
asbasbasbag48
(g64
g50
NtRp3778
(dp3779
g53
(dp3780
sg62
g3749
sg55
(lp3781
g48
(g69
g50
NtRp3782
(dp3783
g53
(dp3784
sg62
g3778
sg55
(lp3785
g48
(g49
g50
NtRp3786
(dp3787
g53
(dp3788
g61
I1
ssg62
g3782
sg55
(lp3789
S'/admin/default/edit/201056161/models/menu.py'
p3790
asbasbasbasbasbasbasbag48
(g64
g50
NtRp3791
(dp3792
g53
(dp3793
sg62
g3463
sg55
(lp3794
g48
(g69
g50
NtRp3795
(dp3796
g53
(dp3797
sg62
g3791
sg55
(lp3798
g48
(g49
g50
NtRp3799
(dp3800
g53
(dp3801
g61
I2
ssg62
g3795
sg55
(lp3802
g48
(g57
g50
NtRp3803
(dp3804
g53
(dp3805
g61
I1
ssg62
Nsg55
(lp3806
g48
(g64
g50
NtRp3807
(dp3808
g53
(dp3809
sg62
g3803
sg55
(lp3810
g48
(g69
g50
NtRp3811
(dp3812
g53
(dp3813
sg62
g3807
sg55
(lp3814
g48
(g49
g50
NtRp3815
(dp3816
g53
(dp3817
g61
I1
ssg62
g3811
sg55
(lp3818
g3354
(S's\x08\x00\x00\x00Database'
tRp3819
asbasbasbag48
(g64
g50
NtRp3820
(dp3821
g53
(dp3822
sg62
g3803
sg55
(lp3823
g48
(g69
g50
NtRp3824
(dp3825
g53
(dp3826
sg62
g3820
sg55
(lp3827
g48
(g49
g50
NtRp3828
(dp3829
g53
(dp3830
g61
I1
ssg62
g3824
sg55
(lp3831
I00
asbasbasbag48
(g64
g50
NtRp3832
(dp3833
g53
(dp3834
sg62
g3803
sg55
(lp3835
g48
(g69
g50
NtRp3836
(dp3837
g53
(dp3838
sg62
g3832
sg55
(lp3839
g48
(g49
g50
NtRp3840
(dp3841
g53
(dp3842
g61
I1
ssg62
g3836
sg55
(lp3843
S'/201056161/appadmin/index'
p3844
asbasbasbasbasbasbasbag48
(g64
g50
NtRp3845
(dp3846
g53
(dp3847
sg62
g3463
sg55
(lp3848
g48
(g69
g50
NtRp3849
(dp3850
g53
(dp3851
sg62
g3845
sg55
(lp3852
g48
(g49
g50
NtRp3853
(dp3854
g53
(dp3855
g61
I2
ssg62
g3849
sg55
(lp3856
g48
(g57
g50
NtRp3857
(dp3858
g53
(dp3859
g61
I1
ssg62
Nsg55
(lp3860
g48
(g64
g50
NtRp3861
(dp3862
g53
(dp3863
sg62
g3857
sg55
(lp3864
g48
(g69
g50
NtRp3865
(dp3866
g53
(dp3867
sg62
g3861
sg55
(lp3868
g48
(g49
g50
NtRp3869
(dp3870
g53
(dp3871
g61
I1
ssg62
g3865
sg55
(lp3872
g3354
(S's\x06\x00\x00\x00Errors'
tRp3873
asbasbasbag48
(g64
g50
NtRp3874
(dp3875
g53
(dp3876
sg62
g3857
sg55
(lp3877
g48
(g69
g50
NtRp3878
(dp3879
g53
(dp3880
sg62
g3874
sg55
(lp3881
g48
(g49
g50
NtRp3882
(dp3883
g53
(dp3884
g61
I1
ssg62
g3878
sg55
(lp3885
I00
asbasbasbag48
(g64
g50
NtRp3886
(dp3887
g53
(dp3888
sg62
g3857
sg55
(lp3889
g48
(g69
g50
NtRp3890
(dp3891
g53
(dp3892
sg62
g3886
sg55
(lp3893
g48
(g49
g50
NtRp3894
(dp3895
g53
(dp3896
g61
I1
ssg62
g3890
sg55
(lp3897
S'/admin/default/errors/201056161'
p3898
asbasbasbasbasbasbasbag48
(g64
g50
NtRp3899
(dp3900
g53
(dp3901
sg62
g3463
sg55
(lp3902
g48
(g69
g50
NtRp3903
(dp3904
g53
(dp3905
sg62
g3899
sg55
(lp3906
g48
(g49
g50
NtRp3907
(dp3908
g53
(dp3909
g61
I2
ssg62
g3903
sg55
(lp3910
g48
(g57
g50
NtRp3911
(dp3912
g53
(dp3913
g61
I1
ssg62
Nsg55
(lp3914
g48
(g64
g50
NtRp3915
(dp3916
g53
(dp3917
sg62
g3911
sg55
(lp3918
g48
(g69
g50
NtRp3919
(dp3920
g53
(dp3921
sg62
g3915
sg55
(lp3922
g48
(g49
g50
NtRp3923
(dp3924
g53
(dp3925
g61
I1
ssg62
g3919
sg55
(lp3926
g3354
(S's\x05\x00\x00\x00About'
tRp3927
asbasbasbag48
(g64
g50
NtRp3928
(dp3929
g53
(dp3930
sg62
g3911
sg55
(lp3931
g48
(g69
g50
NtRp3932
(dp3933
g53
(dp3934
sg62
g3928
sg55
(lp3935
g48
(g49
g50
NtRp3936
(dp3937
g53
(dp3938
g61
I1
ssg62
g3932
sg55
(lp3939
I00
asbasbasbag48
(g64
g50
NtRp3940
(dp3941
g53
(dp3942
sg62
g3911
sg55
(lp3943
g48
(g69
g50
NtRp3944
(dp3945
g53
(dp3946
sg62
g3940
sg55
(lp3947
g48
(g49
g50
NtRp3948
(dp3949
g53
(dp3950
g61
I1
ssg62
g3944
sg55
(lp3951
S'/admin/default/about/201056161'
p3952
asbasbasbasbasbasbasbasbasbasbasbasbasbasbasbag48
(g64
g50
NtRp3953
(dp3954
g53
(dp3955
sg62
g3322
sg55
(lp3956
g48
(g69
g50
NtRp3957
(dp3958
g53
(dp3959
sg62
g3953
sg55
(lp3960
g48
(g49
g50
NtRp3961
(dp3962
g53
(dp3963
g61
I4
ssg62
g3957
sg55
(lp3964
g48
(g57
g50
NtRp3965
(dp3966
g53
(dp3967
g61
I3
ssg62
Nsg55
(lp3968
g48
(g64
g50
NtRp3969
(dp3970
g53
(dp3971
sg62
g3965
sg55
(lp3972
g48
(g69
g50
NtRp3973
(dp3974
g53
(dp3975
sg62
g3969
sg55
(lp3976
g48
(g49
g50
NtRp3977
(dp3978
g53
(dp3979
g61
I3
ssg62
g3973
sg55
(lp3980
g3354
(S's\t\x00\x00\x00Resources'
tRp3981
asbasbasbag48
(g64
g50
NtRp3982
(dp3983
g53
(dp3984
sg62
g3965
sg55
(lp3985
g48
(g69
g50
NtRp3986
(dp3987
g53
(dp3988
sg62
g3982
sg55
(lp3989
g48
(g49
g50
NtRp3990
(dp3991
g53
(dp3992
g61
I3
ssg62
g3986
sg55
(lp3993
g91
asbasbasbag48
(g64
g50
NtRp3994
(dp3995
g53
(dp3996
sg62
g3965
sg55
(lp3997
g48
(g69
g50
NtRp3998
(dp3999
g53
(dp4000
sg62
g3994
sg55
(lp4001
g48
(g49
g50
NtRp4002
(dp4003
g53
(dp4004
g61
I3
ssg62
g3998
sg55
(lp4005
S'None'
p4006
asbasbasbag48
(g64
g50
NtRp4007
(dp4008
g53
(dp4009
sg62
g3965
sg55
(lp4010
g48
(g69
g50
NtRp4011
(dp4012
g53
(dp4013
sg62
g4007
sg55
(lp4014
g48
(g49
g50
NtRp4015
(dp4016
g53
(dp4017
g61
I3
ssg62
g4011
sg55
(lp4018
g48
(g57
g50
NtRp4019
(dp4020
g53
(dp4021
g61
I2
ssg62
Nsg55
(lp4022
g48
(g64
g50
NtRp4023
(dp4024
g53
(dp4025
sg62
g4019
sg55
(lp4026
g48
(g69
g50
NtRp4027
(dp4028
g53
(dp4029
sg62
g4023
sg55
(lp4030
g48
(g49
g50
NtRp4031
(dp4032
g53
(dp4033
g61
I2
ssg62
g4027
sg55
(lp4034
g48
(g57
g50
NtRp4035
(dp4036
g53
(dp4037
g61
I1
ssg62
Nsg55
(lp4038
g48
(g64
g50
NtRp4039
(dp4040
g53
(dp4041
sg62
g4035
sg55
(lp4042
g48
(g69
g50
NtRp4043
(dp4044
g53
(dp4045
sg62
g4039
sg55
(lp4046
g48
(g49
g50
NtRp4047
(dp4048
g53
(dp4049
g61
I1
ssg62
g4043
sg55
(lp4050
g3354
(S's\r\x00\x00\x00Documentation'
tRp4051
asbasbasbag48
(g64
g50
NtRp4052
(dp4053
g53
(dp4054
sg62
g4035
sg55
(lp4055
g48
(g69
g50
NtRp4056
(dp4057
g53
(dp4058
sg62
g4052
sg55
(lp4059
g48
(g49
g50
NtRp4060
(dp4061
g53
(dp4062
g61
I1
ssg62
g4056
sg55
(lp4063
I00
asbasbasbag48
(g64
g50
NtRp4064
(dp4065
g53
(dp4066
sg62
g4035
sg55
(lp4067
g48
(g69
g50
NtRp4068
(dp4069
g53
(dp4070
sg62
g4064
sg55
(lp4071
g48
(g49
g50
NtRp4072
(dp4073
g53
(dp4074
g61
I1
ssg62
g4068
sg55
(lp4075
S'http://www.web2py.com/book'
p4076
asbasbasbag48
(g64
g50
NtRp4077
(dp4078
g53
(dp4079
sg62
g4035
sg55
(lp4080
g48
(g69
g50
NtRp4081
(dp4082
g53
(dp4083
sg62
g4077
sg55
(lp4084
g48
(g49
g50
NtRp4085
(dp4086
g53
(dp4087
g61
I1
ssg62
g4081
sg55
(lp4088
(lp4089
(g3354
(S's\x07\x00\x00\x00Preface'
tRp4090
I00
S'http://www.web2py.com/book/default/chapter/00'
tp4091
a(g3354
(S's\x0c\x00\x00\x00Introduction'
tRp4092
I00
S'http://www.web2py.com/book/default/chapter/01'
tp4093
a(g3354
(S's\x06\x00\x00\x00Python'
tRp4094
I00
S'http://www.web2py.com/book/default/chapter/02'
tp4095
a(g3354
(S's\x08\x00\x00\x00Overview'
tRp4096
I00
S'http://www.web2py.com/book/default/chapter/03'
tp4097
a(g3354
(S's\x08\x00\x00\x00The Core'
tRp4098
I00
S'http://www.web2py.com/book/default/chapter/04'
tp4099
a(g3354
(S's\t\x00\x00\x00The Views'
tRp4100
I00
S'http://www.web2py.com/book/default/chapter/05'
tp4101
a(g3354
(S's\x08\x00\x00\x00Database'
tRp4102
I00
S'http://www.web2py.com/book/default/chapter/06'
tp4103
a(g3354
(S's\x14\x00\x00\x00Forms and Validators'
tRp4104
I00
S'http://www.web2py.com/book/default/chapter/07'
tp4105
a(g3354
(S's\x0e\x00\x00\x00Access Control'
tRp4106
I00
S'http://www.web2py.com/book/default/chapter/08'
tp4107
a(g3354
(S's\x08\x00\x00\x00Services'
tRp4108
I00
S'http://www.web2py.com/book/default/chapter/09'
tp4109
a(g3354
(S's\x0c\x00\x00\x00Ajax Recipes'
tRp4110
I00
S'http://www.web2py.com/book/default/chapter/10'
tp4111
a(g3354
(S's\x12\x00\x00\x00Deployment Recipes'
tRp4112
I00
S'http://www.web2py.com/book/default/chapter/11'
tp4113
a(g3354
(S's\r\x00\x00\x00Other Recipes'
tRp4114
I00
S'http://www.web2py.com/book/default/chapter/12'
tp4115
a(g3354
(S's\r\x00\x00\x00Buy this book'
tRp4116
I00
S'http://stores.lulu.com/web2py'
tp4117
aasbasbasbasbasbasbasbag48
(g64
g50
NtRp4118
(dp4119
g53
(dp4120
sg62
g4019
sg55
(lp4121
g48
(g69
g50
NtRp4122
(dp4123
g53
(dp4124
sg62
g4118
sg55
(lp4125
g48
(g49
g50
NtRp4126
(dp4127
g53
(dp4128
g61
I2
ssg62
g4122
sg55
(lp4129
g48
(g57
g50
NtRp4130
(dp4131
g53
(dp4132
g61
I1
ssg62
Nsg55
(lp4133
g48
(g64
g50
NtRp4134
(dp4135
g53
(dp4136
sg62
g4130
sg55
(lp4137
g48
(g69
g50
NtRp4138
(dp4139
g53
(dp4140
sg62
g4134
sg55
(lp4141
g48
(g49
g50
NtRp4142
(dp4143
g53
(dp4144
g61
I1
ssg62
g4138
sg55
(lp4145
g3354
(S's\t\x00\x00\x00Community'
tRp4146
asbasbasbag48
(g64
g50
NtRp4147
(dp4148
g53
(dp4149
sg62
g4130
sg55
(lp4150
g48
(g69
g50
NtRp4151
(dp4152
g53
(dp4153
sg62
g4147
sg55
(lp4154
g48
(g49
g50
NtRp4155
(dp4156
g53
(dp4157
g61
I1
ssg62
g4151
sg55
(lp4158
I00
asbasbasbag48
(g64
g50
NtRp4159
(dp4160
g53
(dp4161
sg62
g4130
sg55
(lp4162
g48
(g69
g50
NtRp4163
(dp4164
g53
(dp4165
sg62
g4159
sg55
(lp4166
g48
(g49
g50
NtRp4167
(dp4168
g53
(dp4169
g61
I1
ssg62
g4163
sg55
(lp4170
Nasbasbasbag48
(g64
g50
NtRp4171
(dp4172
g53
(dp4173
sg62
g4130
sg55
(lp4174
g48
(g69
g50
NtRp4175
(dp4176
g53
(dp4177
sg62
g4171
sg55
(lp4178
g48
(g49
g50
NtRp4179
(dp4180
g53
(dp4181
g61
I1
ssg62
g4175
sg55
(lp4182
(lp4183
(g3354
(S's\x06\x00\x00\x00Groups'
tRp4184
I00
S'http://www.web2py.com/examples/default/usergroups'
tp4185
a(g3354
(S's\x07\x00\x00\x00Twitter'
tRp4186
I00
S'http://twitter.com/web2py'
tp4187
a(g3354
(S's\t\x00\x00\x00Live chat'
tRp4188
I00
S'http://mibbit.com/?channel=%23web2py&server=irc.mibbit.net'
tp4189
a(g3354
(S's\n\x00\x00\x00User Voice'
tRp4190
I00
S'http://web2py.uservoice.com/'
tp4191
aasbasbasbasbasbasbasbag48
(g64
g50
NtRp4192
(dp4193
g53
(dp4194
sg62
g4019
sg55
(lp4195
g48
(g69
g50
NtRp4196
(dp4197
g53
(dp4198
sg62
g4192
sg55
(lp4199
g48
(g49
g50
NtRp4200
(dp4201
g53
(dp4202
g61
I2
ssg62
g4196
sg55
(lp4203
g48
(g57
g50
NtRp4204
(dp4205
g53
(dp4206
g61
I1
ssg62
Nsg55
(lp4207
g48
(g64
g50
NtRp4208
(dp4209
g53
(dp4210
sg62
g4204
sg55
(lp4211
g48
(g69
g50
NtRp4212
(dp4213
g53
(dp4214
sg62
g4208
sg55
(lp4215
g48
(g49
g50
NtRp4216
(dp4217
g53
(dp4218
g61
I1
ssg62
g4212
sg55
(lp4219
g3354
(S's\x06\x00\x00\x00Web2py'
tRp4220
asbasbasbag48
(g64
g50
NtRp4221
(dp4222
g53
(dp4223
sg62
g4204
sg55
(lp4224
g48
(g69
g50
NtRp4225
(dp4226
g53
(dp4227
sg62
g4221
sg55
(lp4228
g48
(g49
g50
NtRp4229
(dp4230
g53
(dp4231
g61
I1
ssg62
g4225
sg55
(lp4232
I00
asbasbasbag48
(g64
g50
NtRp4233
(dp4234
g53
(dp4235
sg62
g4204
sg55
(lp4236
g48
(g69
g50
NtRp4237
(dp4238
g53
(dp4239
sg62
g4233
sg55
(lp4240
g48
(g49
g50
NtRp4241
(dp4242
g53
(dp4243
g61
I1
ssg62
g4237
sg55
(lp4244
S'http://www.web2py.com'
p4245
asbasbasbag48
(g64
g50
NtRp4246
(dp4247
g53
(dp4248
sg62
g4204
sg55
(lp4249
g48
(g69
g50
NtRp4250
(dp4251
g53
(dp4252
sg62
g4246
sg55
(lp4253
g48
(g49
g50
NtRp4254
(dp4255
g53
(dp4256
g61
I1
ssg62
g4250
sg55
(lp4257
(lp4258
(g3354
(S's\x08\x00\x00\x00Download'
tRp4259
I00
S'http://www.web2py.com/examples/default/download'
tp4260
a(g3354
(S's\x07\x00\x00\x00Support'
tRp4261
I00
S'http://www.web2py.com/examples/default/support'
tp4262
a(g3354
(S's\x0e\x00\x00\x00Quick Examples'
tRp4263
I00
S'http://web2py.com/examples/default/examples'
tp4264
a(g3354
(S's\x03\x00\x00\x00FAQ'
tRp4265
I00
S'http://web2py.com/AlterEgo'
tp4266
a(g3354
(S's\x11\x00\x00\x00Free Applications'
tRp4267
I00
S'http://web2py.com/appliances'
tp4268
a(g3354
(S's\x07\x00\x00\x00Plugins'
tRp4269
I00
S'http://web2py.com/plugins'
tp4270
a(g3354
(S's\x07\x00\x00\x00Recipes'
tRp4271
I00
S'http://web2pyslices.com/'
tp4272
a(g3354
(S's\x04\x00\x00\x00Demo'
tRp4273
I00
S'http://web2py.com/demo_admin'
tp4274
a(g3354
(S's\x08\x00\x00\x00Semantic'
tRp4275
I00
S'http://web2py.com/semantic'
tp4276
a(g3354
(S's\x07\x00\x00\x00Layouts'
tRp4277
I00
S'http://web2py.com/layouts'
tp4278
a(g3354
(S's\x06\x00\x00\x00Videos'
tRp4279
I00
S'http://www.web2py.com/examples/default/videos/'
tp4280
aasbasbasbasbasbasbasbasbasbasbasbasbasbasbasbasbasbasbasbag48
(g64
g50
NtRp4281
(dp4282
g53
(dp4283
sg62
g2869
sg55
(lp4284
g48
(g69
g50
NtRp4285
(dp4286
g53
(dp4287
g73
g74
ssg62
g4281
sg55
(lp4288
S'meta'
p4289
asbag48
(g69
g50
NtRp4290
(dp4291
g53
(dp4292
g80
g81
ssg62
g4281
sg55
(lp4293
S':'
asbag48
(g69
g50
NtRp4294
(dp4295
g53
(dp4296
sg62
g4281
sg55
(lp4297
g48
(g49
g50
NtRp4298
(dp4299
g53
(dp4300
g61
I5
ssg62
g4294
sg55
(lp4301
g48
(g57
g50
NtRp4302
(dp4303
g53
(dp4304
g61
I4
ssg62
Nsg55
(lp4305
g48
(g64
g50
NtRp4306
(dp4307
g53
(dp4308
sg62
g4302
sg55
(lp4309
g48
(g69
g50
NtRp4310
(dp4311
g53
(dp4312
g73
g74
ssg62
g4306
sg55
(lp4313
S'author'
p4314
asbag48
(g69
g50
NtRp4315
(dp4316
g53
(dp4317
g80
g81
ssg62
g4306
sg55
(lp4318
S':'
asbag48
(g69
g50
NtRp4319
(dp4320
g53
(dp4321
sg62
g4306
sg55
(lp4322
g48
(g49
g50
NtRp4323
(dp4324
g53
(dp4325
g61
I4
ssg62
g4319
sg55
(lp4326
S'you'
p4327
asbasbasbag48
(g64
g50
NtRp4328
(dp4329
g53
(dp4330
sg62
g4302
sg55
(lp4331
g48
(g69
g50
NtRp4332
(dp4333
g53
(dp4334
g73
g74
ssg62
g4328
sg55
(lp4335
S'copyright'
p4336
asbag48
(g69
g50
NtRp4337
(dp4338
g53
(dp4339
g80
g81
ssg62
g4328
sg55
(lp4340
S':'
asbag48
(g69
g50
NtRp4341
(dp4342
g53
(dp4343
sg62
g4328
sg55
(lp4344
g48
(g49
g50
NtRp4345
(dp4346
g53
(dp4347
g61
I4
ssg62
g4341
sg55
(lp4348
S'Copyright 2007-2010'
p4349
asbasbasbag48
(g64
g50
NtRp4350
(dp4351
g53
(dp4352
sg62
g4302
sg55
(lp4353
g48
(g69
g50
NtRp4354
(dp4355
g53
(dp4356
g73
g74
ssg62
g4350
sg55
(lp4357
S'description'
p4358
asbag48
(g69
g50
NtRp4359
(dp4360
g53
(dp4361
g80
g81
ssg62
g4350
sg55
(lp4362
S':'
asbag48
(g69
g50
NtRp4363
(dp4364
g53
(dp4365
sg62
g4350
sg55
(lp4366
g48
(g49
g50
NtRp4367
(dp4368
g53
(dp4369
g61
I4
ssg62
g4363
sg55
(lp4370
S'Free and open source full-stack enterprise framework for agile development of fast, scalable, secure and portable database-driven web-based applications. Written and programmable in Python'
p4371
asbasbasbag48
(g64
g50
NtRp4372
(dp4373
g53
(dp4374
sg62
g4302
sg55
(lp4375
g48
(g69
g50
NtRp4376
(dp4377
g53
(dp4378
g73
g74
ssg62
g4372
sg55
(lp4379
S'generator'
p4380
asbag48
(g69
g50
NtRp4381
(dp4382
g53
(dp4383
g80
g81
ssg62
g4372
sg55
(lp4384
S':'
asbag48
(g69
g50
NtRp4385
(dp4386
g53
(dp4387
sg62
g4372
sg55
(lp4388
g48
(g49
g50
NtRp4389
(dp4390
g53
(dp4391
g61
I4
ssg62
g4385
sg55
(lp4392
S'Web2py Enterprise Framework'
p4393
asbasbasbag48
(g64
g50
NtRp4394
(dp4395
g53
(dp4396
sg62
g4302
sg55
(lp4397
g48
(g69
g50
NtRp4398
(dp4399
g53
(dp4400
g73
g74
ssg62
g4394
sg55
(lp4401
S'keywords'
p4402
asbag48
(g69
g50
NtRp4403
(dp4404
g53
(dp4405
g80
g81
ssg62
g4394
sg55
(lp4406
S':'
asbag48
(g69
g50
NtRp4407
(dp4408
g53
(dp4409
sg62
g4394
sg55
(lp4410
g48
(g49
g50
NtRp4411
(dp4412
g53
(dp4413
g61
I4
ssg62
g4407
sg55
(lp4414
S'web2py, python, framework'
p4415
asbasbasbasbasbasbasbag48
(g64
g50
NtRp4416
(dp4417
g53
(dp4418
sg62
g2869
sg55
(lp4419
g48
(g69
g50
NtRp4420
(dp4421
g53
(dp4422
g73
g74
ssg62
g4416
sg55
(lp4423
S'postprocessing'
p4424
asbag48
(g69
g50
NtRp4425
(dp4426
g53
(dp4427
g80
g81
ssg62
g4416
sg55
(lp4428
S':'
asbag48
(g69
g50
NtRp4429
(dp4430
g53
(dp4431
sg62
g4416
sg55
(lp4432
g48
(g49
g50
NtRp4433
(dp4434
g53
(dp4435
g61
I5
ssg62
g4429
sg55
(lp4436
g48
(g57
g50
NtRp4437
(dp4438
g53
(dp4439
g61
I4
ssg62
Nsg55
(lp4440
sbasbasbasbag48
(g64
g50
NtRp4441
(dp4442
g53
(dp4443
sg62
g2869
sg55
(lp4444
g48
(g69
g50
NtRp4445
(dp4446
g53
(dp4447
g73
g74
ssg62
g4441
sg55
(lp4448
S'session_file'
p4449
asbag48
(g69
g50
NtRp4450
(dp4451
g53
(dp4452
g80
g81
ssg62
g4441
sg55
(lp4453
S':'
asbag48
(g69
g50
NtRp4454
(dp4455
g53
(dp4456
sg62
g4441
sg55
(lp4457
g48
(g49
g50
NtRp4458
(dp4459
g53
(dp4460
g61
I5
ssg62
g4454
sg55
(lp4461
S"<open file 'C:\\Users\\AKSHAY\\Desktop\\web2py\\applications\\201056161\\sessions\\127.0.0.1-bc620865-72d5-47bc-ab09-7dd073242a68', mode 'rb+' at 0x031C89F8>"
p4462
asbasbasbag48
(g64
g50
NtRp4463
(dp4464
g53
(dp4465
sg62
g2869
sg55
(lp4466
g48
(g69
g50
NtRp4467
(dp4468
g53
(dp4469
g73
g74
ssg62
g4463
sg55
(lp4470
S'session_filename'
p4471
asbag48
(g69
g50
NtRp4472
(dp4473
g53
(dp4474
g80
g81
ssg62
g4463
sg55
(lp4475
S':'
asbag48
(g69
g50
NtRp4476
(dp4477
g53
(dp4478
sg62
g4463
sg55
(lp4479
g48
(g49
g50
NtRp4480
(dp4481
g53
(dp4482
g61
I5
ssg62
g4476
sg55
(lp4483
S'C:\\Users\\AKSHAY\\Desktop\\web2py\\applications\\201056161\\sessions\\127.0.0.1-bc620865-72d5-47bc-ab09-7dd073242a68'
p4484
asbasbasbag48
(g64
g50
NtRp4485
(dp4486
g53
(dp4487
sg62
g2869
sg55
(lp4488
g48
(g69
g50
NtRp4489
(dp4490
g53
(dp4491
g73
g74
ssg62
g4485
sg55
(lp4492
S'session_id'
p4493
asbag48
(g69
g50
NtRp4494
(dp4495
g53
(dp4496
g80
g81
ssg62
g4485
sg55
(lp4497
S':'
asbag48
(g69
g50
NtRp4498
(dp4499
g53
(dp4500
sg62
g4485
sg55
(lp4501
g48
(g49
g50
NtRp4502
(dp4503
g53
(dp4504
g61
I5
ssg62
g4498
sg55
(lp4505
S'127.0.0.1-bc620865-72d5-47bc-ab09-7dd073242a68'
p4506
asbasbasbag48
(g64
g50
NtRp4507
(dp4508
g53
(dp4509
sg62
g2869
sg55
(lp4510
g48
(g69
g50
NtRp4511
(dp4512
g53
(dp4513
g73
g74
ssg62
g4507
sg55
(lp4514
S'session_id_name'
p4515
asbag48
(g69
g50
NtRp4516
(dp4517
g53
(dp4518
g80
g81
ssg62
g4507
sg55
(lp4519
S':'
asbag48
(g69
g50
NtRp4520
(dp4521
g53
(dp4522
sg62
g4507
sg55
(lp4523
g48
(g49
g50
NtRp4524
(dp4525
g53
(dp4526
g61
I5
ssg62
g4520
sg55
(lp4527
g2926
asbasbasbag48
(g64
g50
NtRp4528
(dp4529
g53
(dp4530
sg62
g2869
sg55
(lp4531
g48
(g69
g50
NtRp4532
(dp4533
g53
(dp4534
g73
g74
ssg62
g4528
sg55
(lp4535
S'session_locked'
p4536
asbag48
(g69
g50
NtRp4537
(dp4538
g53
(dp4539
g80
g81
ssg62
g4528
sg55
(lp4540
S':'
asbag48
(g69
g50
NtRp4541
(dp4542
g53
(dp4543
sg62
g4528
sg55
(lp4544
g48
(g49
g50
NtRp4545
(dp4546
g53
(dp4547
g61
I5
ssg62
g4541
sg55
(lp4548
g1688
asbasbasbag48
(g64
g50
NtRp4549
(dp4550
g53
(dp4551
sg62
g2869
sg55
(lp4552
g48
(g69
g50
NtRp4553
(dp4554
g53
(dp4555
g73
g74
ssg62
g4549
sg55
(lp4556
S'session_new'
p4557
asbag48
(g69
g50
NtRp4558
(dp4559
g53
(dp4560
g80
g81
ssg62
g4549
sg55
(lp4561
S':'
asbag48
(g69
g50
NtRp4562
(dp4563
g53
(dp4564
sg62
g4549
sg55
(lp4565
g48
(g49
g50
NtRp4566
(dp4567
g53
(dp4568
g61
I5
ssg62
g4562
sg55
(lp4569
g91
asbasbasbag48
(g64
g50
NtRp4570
(dp4571
g53
(dp4572
sg62
g2869
sg55
(lp4573
g48
(g69
g50
NtRp4574
(dp4575
g53
(dp4576
g73
g74
ssg62
g4570
sg55
(lp4577
S'status'
p4578
asbag48
(g69
g50
NtRp4579
(dp4580
g53
(dp4581
g80
g81
ssg62
g4570
sg55
(lp4582
S':'
asbag48
(g69
g50
NtRp4583
(dp4584
g53
(dp4585
sg62
g4570
sg55
(lp4586
g48
(g49
g50
NtRp4587
(dp4588
g53
(dp4589
g61
I5
ssg62
g4583
sg55
(lp4590
S'200'
p4591
asbasbasbag48
(g64
g50
NtRp4592
(dp4593
g53
(dp4594
sg62
g2869
sg55
(lp4595
g48
(g69
g50
NtRp4596
(dp4597
g53
(dp4598
g73
g74
ssg62
g4592
sg55
(lp4599
S'subtitle'
p4600
asbag48
(g69
g50
NtRp4601
(dp4602
g53
(dp4603
g80
g81
ssg62
g4592
sg55
(lp4604
S':'
asbag48
(g69
g50
NtRp4605
(dp4606
g53
(dp4607
sg62
g4592
sg55
(lp4608
g48
(g49
g50
NtRp4609
(dp4610
g53
(dp4611
g61
I5
ssg62
g4605
sg55
(lp4612
g3354
(S's\r\x00\x00\x00customize me!'
tRp4613
asbasbasbag48
(g64
g50
NtRp4614
(dp4615
g53
(dp4616
sg62
g2869
sg55
(lp4617
g48
(g69
g50
NtRp4618
(dp4619
g53
(dp4620
g73
g74
ssg62
g4614
sg55
(lp4621
S'title'
p4622
asbag48
(g69
g50
NtRp4623
(dp4624
g53
(dp4625
g80
g81
ssg62
g4614
sg55
(lp4626
S':'
asbag48
(g69
g50
NtRp4627
(dp4628
g53
(dp4629
sg62
g4614
sg55
(lp4630
g48
(g49
g50
NtRp4631
(dp4632
g53
(dp4633
g61
I5
ssg62
g4627
sg55
(lp4634
g113
asbasbasbag48
(g64
g50
NtRp4635
(dp4636
g53
(dp4637
sg62
g2869
sg55
(lp4638
g48
(g69
g50
NtRp4639
(dp4640
g53
(dp4641
g73
g74
ssg62
g4635
sg55
(lp4642
g2055
asbag48
(g69
g50
NtRp4643
(dp4644
g53
(dp4645
g80
g81
ssg62
g4635
sg55
(lp4646
S':'
asbag48
(g69
g50
NtRp4647
(dp4648
g53
(dp4649
sg62
g4635
sg55
(lp4650
g48
(g49
g50
NtRp4651
(dp4652
g53
(dp4653
g61
I5
ssg62
g4647
sg55
(lp4654
g2068
asbasbasbag48
(g64
g50
NtRp4655
(dp4656
g53
(dp4657
sg62
g2869
sg55
(lp4658
g48
(g69
g50
NtRp4659
(dp4660
g53
(dp4661
g73
g74
ssg62
g4655
sg55
(lp4662
S'view'
p4663
asbag48
(g69
g50
NtRp4664
(dp4665
g53
(dp4666
g80
g81
ssg62
g4655
sg55
(lp4667
S':'
asbag48
(g69
g50
NtRp4668
(dp4669
g53
(dp4670
sg62
g4655
sg55
(lp4671
g48
(g49
g50
NtRp4672
(dp4673
g53
(dp4674
g61
I5
ssg62
g4668
sg55
(lp4675
S'default/q4s.html'
p4676
asbasbasbasbasbsS'locals'
p4677
(dp4678
S'yearbe'
p4679
S"'2000'"
p4680
sS'sname'
p4681
S"'2'"
p4682
sS'datetime'
p4683
S"<module 'datetime' (built-in)>"
p4684
sssS'traceback'
p4685
S'Traceback (most recent call last):\n  File "gluon/restricted.py", line 192, in restricted\n  File "C:\\Users\\AKSHAY\\Desktop\\web2py\\applications\\201056161\\controllers/default.py", line 124, in <module>\n  File "gluon/globals.py", line 137, in <lambda>\n  File "C:\\Users\\AKSHAY\\Desktop\\web2py\\applications\\201056161\\controllers/default.py", line 121, in q4s\nTypeError: an integer is required\n'
p4686
s.