(dp1
S'output'
p2
S''
sS'layer'
p3
S'C:\\Users\\AKSHAY\\Desktop\\web2py\\applications\\201056161\\controllers/default.py'
p4
sS'code'
p5
S'# -*- coding: utf-8 -*-\n# this file is released under public domain and you can use without limitations\n\n#########################################################################\n## This is a samples controller\n## - index is the default action of any application\n## - user is required for authentication and authorization\n## - download is for downloading files uploaded in the db (does streaming)\n## - call exposes all registered services (none by default)\n#########################################################################\n\ndef index():\n    return dict()\n\ndef user():\n    """\n    exposes:\n    http://..../[app]/default/user/login\n    http://..../[app]/default/user/logout\n    http://..../[app]/default/user/register\n    http://..../[app]/default/user/profile\n    http://..../[app]/default/user/retrieve_password\n    http://..../[app]/default/user/change_password\n    use @auth.requires_login()\n        @auth.requires_membership(\'group name\')\n        @auth.requires_permission(\'read\',\'table name\',record_id)\n    to decorate functions that need access control\n    """\n    return dict(form=auth())\n\n\ndef download():\n    """\n    allows downloading of uploaded files\n    http://..../[app]/default/download/[filename]\n    """\n    return response.download(request,db)\n\n\ndef call():\n    """\n    exposes services. for example:\n    http://..../[app]/default/call/jsonrpc\n    decorate with @services.jsonrpc the functions to expose\n    supports xml, json, xmlrpc, jsonrpc, amfrpc, rss, csv\n    """\n    return service()\n\n\n@auth.requires_signature()\ndef data():\n    """\n    http://..../[app]/default/data/tables\n    http://..../[app]/default/data/create/[table]\n    http://..../[app]/default/data/read/[table]/[id]\n    http://..../[app]/default/data/update/[table]/[id]\n    http://..../[app]/default/data/delete/[table]/[id[\n    http://..../[app]/default/data/select/[table]\n    http://..../[app]/default/data/search/[table]\n    but URLs bust be signed, i.e. linked with\n      A(\'table\',_href=URL(\'data/tables\',user_signature=True))\n    or with the signed load operator\n      LOAD(\'default\',\'data.load\',args=\'tables\',ajax=True,user_signature=True)\n    """\n    return dict(form=crud())\ndef q1f():\n#  form=SQLFORM.factory(db.Field(\'id\',db.artist,requires=IS_IN_DB(db,\'artist.id\'),required=True,label=\'Select Singer id\'))#  form=SQLFORM(db.query) #form=FORM(INPUT(_name=\'singer\',requires=IS_NOT_EMPTY()),INPUT(_type=\'submit\')) #\n  form = SQLFORM.factory(db.Field(\'idn\',db.artist,requires=IS_IN_DB(db,\'artist.id\',\'artist.id\'),label=\'Select id of Artist\'))\n  if form.accepts(request.vars,session):\n    redirect(URL(r=request, f=\'q1s?idn=\'+form.vars.idn))\n  elif form.errors:\n    response.flash=\'Errors in form Please re-enter\'\n  return dict(form=form)  \ndef q1s():\n  sname = int(request.vars.idn)\n  rows=db(db.song.singer==sname).select(db.song.name)\n  """count=1\n  for row in rows:\n    count+=1\n    if count==2:\n      snames=str(row.artist_name)\n  rows1=db(db.song.singer is snames).select(db.song.name)"""\n  return dict(rows=rows)\ndef q2f():\n  form = SQLFORM.factory(db.Field(\'namen\',db.artist,requires=IS_IN_DB(db,\'artist.id\',\'artist.artist_name\'),label=\'Select artist name\'))\n  if form.accepts(request.vars,session):\n    redirect(URL(r=request, f=\'q2s?namen=\'+form.vars.namen))\n  elif form.errors:\n    response.flash=\'Errors in form Please re-enter\'\n  return dict(form=form)  \ndef q2s():\n  sname=str(request.vars.namen)\n  #here whatever be always sname will be referred by id ! \n  rows=db(db.song.singer==sname).select(db.song.name)\n  return dict(rows=rows)\ndef q3f():\n  form = SQLFORM.factory(db.Field(\'namen\',db.artist,requires=IS_IN_DB(db,\'artist.id\',\'artist.artist_name\'),label=\'Select Artist\'),\n                         db.Field(\'movien\',db.movie,requires=IS_IN_DB(db,\'movie.id\',\'movie.name\'),label=\'Select movie\'))\n  if form.accepts(request.vars,session):\n    redirect(URL(r=request, f=\'q3s?namen=\'+form.vars.namen+\'&movien=\'+form.vars.movien))\n  elif form.errors:\n    response.flash=\'Errors in form Please re-enter\'\n  return dict(form=form)                         \ndef q3s():\n  sname=str(request.vars.namen)\n  movien=str(request.vars.movien)\n  rows=db((db.song.singer==sname) & (db.song.movie==movien)).select(db.song.name)\n  return dict(rows=rows)\ndef q4f():\n  form = SQLFORM.factory(db.Field(\'namen\',db.artist,requires=IS_IN_DB(db,\'artist.id\',\'artist.artist_name\'),label=\'Select Artist\'),\n                         db.Field(\'yearbe\',db.movie,label=\'Select year before\'))\n  if form.accepts(request.vars,session):\n    redirect(URL(r=request, f=\'q4s?namen=\'+form.vars.namen+\'&yearbe=\'+form.vars.yearbe))\n  elif form.errors:\n    response.flash=\'Errors in form Please re-enter\'\n  return dict(form=form)\ndef q4s():\n  import datetime\n  sname=str(request.vars.namen)\n  yearbe=int(request.vars.yearbe)\n  rows=db((db.song.singer==sname) & (db.movie.release_date<datetime.date(yearbe,1,1))).select(db.song.name,db.song.singing_actor)\n  return dict(rows=rows)\ndef q5f():\n  form = SQLFORM.factory(db.Field(\'namen\',db.rating,requires=IS_IN_DB(db,\'song.id\',\'song.name\'),label=\'Select song name to check if rating is more than 4\'))\n  if form.accepts(request.vars,session):\n    redirect(URL(r=request, f=\'q5s?namen=\'+form.vars.namen))\n  elif form.errors:\n    response.flash=\'Errors in form Please re-enter\'\n  return dict(form=form)\ndef q5s():\n  sname=int(request.vars.namen)\n  rows=db(db.rating.song_n==sname).select(db.rating.ratingn)\n  count=0\n  sum=0\n  for row in rows:\n    count+=1\n    sum+=int(row.ratingn)\n  if count:  \n    avg=sum/count\n  return dict(avg=avg)\ndef insong():\n  form = SQLFORM(db.song)\n  if form.accepts(request.vars,session):\n      #redirect(URL(r=request, f=\'student_details?rollno=%d\' % form.vars.rollno))\n      response.flash=\'New Song Record Inserted\'\n  elif form.errors:\n      response.flash=\'Errors in form\'\n  return dict(form=form)\ndef new():\n  form = SQLFORM.factory(db.Field(\'namen\',db.artist,requires=IS_IN_DB(db,\'artist.id\',\'artist.artist_name\'),label=\'Select Artist\'),\n                         db.Field(\'movien\',db.movie,requires=IS_NULL_OR(IS_IN_DB(db,\'movie.id\',\'movie.name\'))))\n  if form.accepts(request.vars,session):\n    redirect(URL(r=request, f=\'new2?namen=\'+form.vars.namen+\'&movien=\'+form.vars.movien))\n  elif form.errors:\n    response.flash=\'Errors in form Please re-enter\'\n  return dict(form=form)     \ndef new2():\n  if len(request.vars.movien)==0:\n    sname=str(request.vars.namen)\n    #here whatever be always sname will be referred by id ! \n    rows=db(db.song.singer==sname).select(db.song.name)\n    return dict(rows=rows)\n  else:\n    sname=str(request.vars.namen)\n    movien=str(request.vars.movien)\n    rows=db((db.song.singer==sname) & (db.song.movie==movien)).select(db.song.name)\n    return dict(rows=rows)\n\nresponse._vars=response._caller(new)\n'
p6
sS'snapshot'
p7
(dp8
S'exception'
p9
(dp10
S'__hash__'
p11
S"<method-wrapper '__hash__' of exceptions.TypeError object at 0x0718CC38>"
p12
sS'__setattr__'
p13
S"<method-wrapper '__setattr__' of exceptions.TypeError object at 0x0718CC38>"
p14
sS'__reduce_ex__'
p15
S'<built-in method __reduce_ex__ of exceptions.TypeError object at 0x0718CC38>'
p16
sS'__getslice__'
p17
S"<method-wrapper '__getslice__' of exceptions.TypeError object at 0x0718CC38>"
p18
sS'__getitem__'
p19
S"<method-wrapper '__getitem__' of exceptions.TypeError object at 0x0718CC38>"
p20
sS'__setstate__'
p21
S'<built-in method __setstate__ of exceptions.TypeError object at 0x0718CC38>'
p22
sS'__reduce__'
p23
S'<built-in method __reduce__ of exceptions.TypeError object at 0x0718CC38>'
p24
sS'__str__'
p25
S"<method-wrapper '__str__' of exceptions.TypeError object at 0x0718CC38>"
p26
sS'args'
p27
S'("cannot concatenate \'str\' and \'NoneType\' objects",)'
p28
sS'__getattribute__'
p29
S"<method-wrapper '__getattribute__' of exceptions.TypeError object at 0x0718CC38>"
p30
sS'__class__'
p31
S"<type 'exceptions.TypeError'>"
p32
sS'__delattr__'
p33
S"<method-wrapper '__delattr__' of exceptions.TypeError object at 0x0718CC38>"
p34
sS'__repr__'
p35
S"<method-wrapper '__repr__' of exceptions.TypeError object at 0x0718CC38>"
p36
sS'__dict__'
p37
S'{}'
p38
sS'__doc__'
p39
S"'Inappropriate argument type.'"
p40
sS'__init__'
p41
S"<method-wrapper '__init__' of exceptions.TypeError object at 0x0718CC38>"
p42
sS'__new__'
p43
S'<built-in method __new__ of type object at 0x1E1CCD78>'
p44
ssS'evalue'
p45
S"cannot concatenate 'str' and 'NoneType' objects"
p46
sS'request'
p47
ccopy_reg
_reconstructor
p48
(cgluon.html
BEAUTIFY
p49
c__builtin__
object
p50
NtRp51
(dp52
S'attributes'
p53
(dp54
sS'components'
p55
(lp56
g48
(cgluon.html
TABLE
p57
g50
NtRp58
(dp59
g53
(dp60
S'level'
p61
I5
ssS'parent'
p62
Nsg55
(lp63
g48
(cgluon.html
TR
p64
g50
NtRp65
(dp66
g53
(dp67
sg62
g58
sg55
(lp68
g48
(cgluon.html
TD
p69
g50
NtRp70
(dp71
g53
(dp72
S'_style'
p73
S'font-weight:bold;'
p74
ssg62
g65
sg55
(lp75
S'ajax'
p76
asbag48
(g69
g50
NtRp77
(dp78
g53
(dp79
S'_valign'
p80
S'top'
p81
ssg62
g65
sg55
(lp82
S':'
asbag48
(g69
g50
NtRp83
(dp84
g53
(dp85
sg62
g65
sg55
(lp86
g48
(g49
g50
NtRp87
(dp88
g53
(dp89
g61
I5
ssg62
g83
sg55
(lp90
S'False'
p91
asbasbasbag48
(g64
g50
NtRp92
(dp93
g53
(dp94
sg62
g58
sg55
(lp95
g48
(g69
g50
NtRp96
(dp97
g53
(dp98
g73
g74
ssg62
g92
sg55
(lp99
S'application'
p100
asbag48
(g69
g50
NtRp101
(dp102
g53
(dp103
g80
g81
ssg62
g92
sg55
(lp104
S':'
asbag48
(g69
g50
NtRp105
(dp106
g53
(dp107
sg62
g92
sg55
(lp108
g48
(g49
g50
NtRp109
(dp110
g53
(dp111
g61
I5
ssg62
g105
sg55
(lp112
S'201056161'
p113
asbasbasbag48
(g64
g50
NtRp114
(dp115
g53
(dp116
sg62
g58
sg55
(lp117
g48
(g69
g50
NtRp118
(dp119
g53
(dp120
g73
g74
ssg62
g114
sg55
(lp121
g27
asbag48
(g69
g50
NtRp122
(dp123
g53
(dp124
g80
g81
ssg62
g114
sg55
(lp125
S':'
asbag48
(g69
g50
NtRp126
(dp127
g53
(dp128
sg62
g114
sg55
(lp129
g48
(g49
g50
NtRp130
(dp131
g53
(dp132
g61
I5
ssg62
g126
sg55
(lp133
g48
(g57
g50
NtRp134
(dp135
g53
(dp136
g61
I4
ssg62
Nsg55
(lp137
sbasbasbasbag48
(g64
g50
NtRp138
(dp139
g53
(dp140
sg62
g58
sg55
(lp141
g48
(g69
g50
NtRp142
(dp143
g53
(dp144
g73
g74
ssg62
g138
sg55
(lp145
S'body'
p146
asbag48
(g69
g50
NtRp147
(dp148
g53
(dp149
g80
g81
ssg62
g138
sg55
(lp150
S':'
asbag48
(g69
g50
NtRp151
(dp152
g53
(dp153
sg62
g138
sg55
(lp154
g48
(g49
g50
NtRp155
(dp156
g53
(dp157
g61
I5
ssg62
g151
sg55
(lp158
S"<open file '<fdopen>', mode 'w+b' at 0x06F5AA88>"
p159
asbasbasbag48
(g64
g50
NtRp160
(dp161
g53
(dp162
sg62
g58
sg55
(lp163
g48
(g69
g50
NtRp164
(dp165
g53
(dp166
g73
g74
ssg62
g160
sg55
(lp167
S'client'
p168
asbag48
(g69
g50
NtRp169
(dp170
g53
(dp171
g80
g81
ssg62
g160
sg55
(lp172
S':'
asbag48
(g69
g50
NtRp173
(dp174
g53
(dp175
sg62
g160
sg55
(lp176
g48
(g49
g50
NtRp177
(dp178
g53
(dp179
g61
I5
ssg62
g173
sg55
(lp180
S'127.0.0.1'
p181
asbasbasbag48
(g64
g50
NtRp182
(dp183
g53
(dp184
sg62
g58
sg55
(lp185
g48
(g69
g50
NtRp186
(dp187
g53
(dp188
g73
g74
ssg62
g182
sg55
(lp189
S'controller'
p190
asbag48
(g69
g50
NtRp191
(dp192
g53
(dp193
g80
g81
ssg62
g182
sg55
(lp194
S':'
asbag48
(g69
g50
NtRp195
(dp196
g53
(dp197
sg62
g182
sg55
(lp198
g48
(g49
g50
NtRp199
(dp200
g53
(dp201
g61
I5
ssg62
g195
sg55
(lp202
S'default'
p203
asbasbasbag48
(g64
g50
NtRp204
(dp205
g53
(dp206
sg62
g58
sg55
(lp207
g48
(g69
g50
NtRp208
(dp209
g53
(dp210
g73
g74
ssg62
g204
sg55
(lp211
S'cookies'
p212
asbag48
(g69
g50
NtRp213
(dp214
g53
(dp215
g80
g81
ssg62
g204
sg55
(lp216
S':'
asbag48
(g69
g50
NtRp217
(dp218
g53
(dp219
sg62
g204
sg55
(lp220
g48
(g49
g50
NtRp221
(dp222
g53
(dp223
g61
I5
ssg62
g217
sg55
(lp224
g48
(g57
g50
NtRp225
(dp226
g53
(dp227
g61
I4
ssg62
Nsg55
(lp228
g48
(g64
g50
NtRp229
(dp230
g53
(dp231
sg62
g225
sg55
(lp232
g48
(g69
g50
NtRp233
(dp234
g53
(dp235
g73
g74
ssg62
g229
sg55
(lp236
S'session_id_201056161'
p237
asbag48
(g69
g50
NtRp238
(dp239
g53
(dp240
g80
g81
ssg62
g229
sg55
(lp241
S':'
asbag48
(g69
g50
NtRp242
(dp243
g53
(dp244
sg62
g229
sg55
(lp245
g48
(g49
g50
NtRp246
(dp247
g53
(dp248
g61
I4
ssg62
g242
sg55
(lp249
g48
(g57
g50
NtRp250
(dp251
g53
(dp252
g61
I3
ssg62
Nsg55
(lp253
g48
(g64
g50
NtRp254
(dp255
g53
(dp256
sg62
g250
sg55
(lp257
g48
(g69
g50
NtRp258
(dp259
g53
(dp260
g73
g74
ssg62
g254
sg55
(lp261
S'comment'
p262
asbag48
(g69
g50
NtRp263
(dp264
g53
(dp265
g80
g81
ssg62
g254
sg55
(lp266
S':'
asbag48
(g69
g50
NtRp267
(dp268
g53
(dp269
sg62
g254
sg55
(lp270
g48
(g49
g50
NtRp271
(dp272
g53
(dp273
g61
I3
ssg62
g267
sg55
(lp274
S''
asbasbasbag48
(g64
g50
NtRp275
(dp276
g53
(dp277
sg62
g250
sg55
(lp278
g48
(g69
g50
NtRp279
(dp280
g53
(dp281
g73
g74
ssg62
g275
sg55
(lp282
S'domain'
p283
asbag48
(g69
g50
NtRp284
(dp285
g53
(dp286
g80
g81
ssg62
g275
sg55
(lp287
S':'
asbag48
(g69
g50
NtRp288
(dp289
g53
(dp290
sg62
g275
sg55
(lp291
g48
(g49
g50
NtRp292
(dp293
g53
(dp294
g61
I3
ssg62
g288
sg55
(lp295
S''
asbasbasbag48
(g64
g50
NtRp296
(dp297
g53
(dp298
sg62
g250
sg55
(lp299
g48
(g69
g50
NtRp300
(dp301
g53
(dp302
g73
g74
ssg62
g296
sg55
(lp303
S'expires'
p304
asbag48
(g69
g50
NtRp305
(dp306
g53
(dp307
g80
g81
ssg62
g296
sg55
(lp308
S':'
asbag48
(g69
g50
NtRp309
(dp310
g53
(dp311
sg62
g296
sg55
(lp312
g48
(g49
g50
NtRp313
(dp314
g53
(dp315
g61
I3
ssg62
g309
sg55
(lp316
S''
asbasbasbag48
(g64
g50
NtRp317
(dp318
g53
(dp319
sg62
g250
sg55
(lp320
g48
(g69
g50
NtRp321
(dp322
g53
(dp323
g73
g74
ssg62
g317
sg55
(lp324
S'max-age'
p325
asbag48
(g69
g50
NtRp326
(dp327
g53
(dp328
g80
g81
ssg62
g317
sg55
(lp329
S':'
asbag48
(g69
g50
NtRp330
(dp331
g53
(dp332
sg62
g317
sg55
(lp333
g48
(g49
g50
NtRp334
(dp335
g53
(dp336
g61
I3
ssg62
g330
sg55
(lp337
S''
asbasbasbag48
(g64
g50
NtRp338
(dp339
g53
(dp340
sg62
g250
sg55
(lp341
g48
(g69
g50
NtRp342
(dp343
g53
(dp344
g73
g74
ssg62
g338
sg55
(lp345
S'path'
p346
asbag48
(g69
g50
NtRp347
(dp348
g53
(dp349
g80
g81
ssg62
g338
sg55
(lp350
S':'
asbag48
(g69
g50
NtRp351
(dp352
g53
(dp353
sg62
g338
sg55
(lp354
g48
(g49
g50
NtRp355
(dp356
g53
(dp357
g61
I3
ssg62
g351
sg55
(lp358
S''
asbasbasbag48
(g64
g50
NtRp359
(dp360
g53
(dp361
sg62
g250
sg55
(lp362
g48
(g69
g50
NtRp363
(dp364
g53
(dp365
g73
g74
ssg62
g359
sg55
(lp366
S'secure'
p367
asbag48
(g69
g50
NtRp368
(dp369
g53
(dp370
g80
g81
ssg62
g359
sg55
(lp371
S':'
asbag48
(g69
g50
NtRp372
(dp373
g53
(dp374
sg62
g359
sg55
(lp375
g48
(g49
g50
NtRp376
(dp377
g53
(dp378
g61
I3
ssg62
g372
sg55
(lp379
S''
asbasbasbag48
(g64
g50
NtRp380
(dp381
g53
(dp382
sg62
g250
sg55
(lp383
g48
(g69
g50
NtRp384
(dp385
g53
(dp386
g73
g74
ssg62
g380
sg55
(lp387
S'version'
p388
asbag48
(g69
g50
NtRp389
(dp390
g53
(dp391
g80
g81
ssg62
g380
sg55
(lp392
S':'
asbag48
(g69
g50
NtRp393
(dp394
g53
(dp395
sg62
g380
sg55
(lp396
g48
(g49
g50
NtRp397
(dp398
g53
(dp399
g61
I3
ssg62
g393
sg55
(lp400
S''
asbasbasbasbasbasbasbag48
(g64
g50
NtRp401
(dp402
g53
(dp403
sg62
g225
sg55
(lp404
g48
(g69
g50
NtRp405
(dp406
g53
(dp407
g73
g74
ssg62
g401
sg55
(lp408
S'session_id_admin'
p409
asbag48
(g69
g50
NtRp410
(dp411
g53
(dp412
g80
g81
ssg62
g401
sg55
(lp413
S':'
asbag48
(g69
g50
NtRp414
(dp415
g53
(dp416
sg62
g401
sg55
(lp417
g48
(g49
g50
NtRp418
(dp419
g53
(dp420
g61
I4
ssg62
g414
sg55
(lp421
g48
(g57
g50
NtRp422
(dp423
g53
(dp424
g61
I3
ssg62
Nsg55
(lp425
g48
(g64
g50
NtRp426
(dp427
g53
(dp428
sg62
g422
sg55
(lp429
g48
(g69
g50
NtRp430
(dp431
g53
(dp432
g73
g74
ssg62
g426
sg55
(lp433
g262
asbag48
(g69
g50
NtRp434
(dp435
g53
(dp436
g80
g81
ssg62
g426
sg55
(lp437
S':'
asbag48
(g69
g50
NtRp438
(dp439
g53
(dp440
sg62
g426
sg55
(lp441
g48
(g49
g50
NtRp442
(dp443
g53
(dp444
g61
I3
ssg62
g438
sg55
(lp445
S''
asbasbasbag48
(g64
g50
NtRp446
(dp447
g53
(dp448
sg62
g422
sg55
(lp449
g48
(g69
g50
NtRp450
(dp451
g53
(dp452
g73
g74
ssg62
g446
sg55
(lp453
g283
asbag48
(g69
g50
NtRp454
(dp455
g53
(dp456
g80
g81
ssg62
g446
sg55
(lp457
S':'
asbag48
(g69
g50
NtRp458
(dp459
g53
(dp460
sg62
g446
sg55
(lp461
g48
(g49
g50
NtRp462
(dp463
g53
(dp464
g61
I3
ssg62
g458
sg55
(lp465
S''
asbasbasbag48
(g64
g50
NtRp466
(dp467
g53
(dp468
sg62
g422
sg55
(lp469
g48
(g69
g50
NtRp470
(dp471
g53
(dp472
g73
g74
ssg62
g466
sg55
(lp473
g304
asbag48
(g69
g50
NtRp474
(dp475
g53
(dp476
g80
g81
ssg62
g466
sg55
(lp477
S':'
asbag48
(g69
g50
NtRp478
(dp479
g53
(dp480
sg62
g466
sg55
(lp481
g48
(g49
g50
NtRp482
(dp483
g53
(dp484
g61
I3
ssg62
g478
sg55
(lp485
S''
asbasbasbag48
(g64
g50
NtRp486
(dp487
g53
(dp488
sg62
g422
sg55
(lp489
g48
(g69
g50
NtRp490
(dp491
g53
(dp492
g73
g74
ssg62
g486
sg55
(lp493
g325
asbag48
(g69
g50
NtRp494
(dp495
g53
(dp496
g80
g81
ssg62
g486
sg55
(lp497
S':'
asbag48
(g69
g50
NtRp498
(dp499
g53
(dp500
sg62
g486
sg55
(lp501
g48
(g49
g50
NtRp502
(dp503
g53
(dp504
g61
I3
ssg62
g498
sg55
(lp505
S''
asbasbasbag48
(g64
g50
NtRp506
(dp507
g53
(dp508
sg62
g422
sg55
(lp509
g48
(g69
g50
NtRp510
(dp511
g53
(dp512
g73
g74
ssg62
g506
sg55
(lp513
g346
asbag48
(g69
g50
NtRp514
(dp515
g53
(dp516
g80
g81
ssg62
g506
sg55
(lp517
S':'
asbag48
(g69
g50
NtRp518
(dp519
g53
(dp520
sg62
g506
sg55
(lp521
g48
(g49
g50
NtRp522
(dp523
g53
(dp524
g61
I3
ssg62
g518
sg55
(lp525
S''
asbasbasbag48
(g64
g50
NtRp526
(dp527
g53
(dp528
sg62
g422
sg55
(lp529
g48
(g69
g50
NtRp530
(dp531
g53
(dp532
g73
g74
ssg62
g526
sg55
(lp533
g367
asbag48
(g69
g50
NtRp534
(dp535
g53
(dp536
g80
g81
ssg62
g526
sg55
(lp537
S':'
asbag48
(g69
g50
NtRp538
(dp539
g53
(dp540
sg62
g526
sg55
(lp541
g48
(g49
g50
NtRp542
(dp543
g53
(dp544
g61
I3
ssg62
g538
sg55
(lp545
S''
asbasbasbag48
(g64
g50
NtRp546
(dp547
g53
(dp548
sg62
g422
sg55
(lp549
g48
(g69
g50
NtRp550
(dp551
g53
(dp552
g73
g74
ssg62
g546
sg55
(lp553
g388
asbag48
(g69
g50
NtRp554
(dp555
g53
(dp556
g80
g81
ssg62
g546
sg55
(lp557
S':'
asbag48
(g69
g50
NtRp558
(dp559
g53
(dp560
sg62
g546
sg55
(lp561
g48
(g49
g50
NtRp562
(dp563
g53
(dp564
g61
I3
ssg62
g558
sg55
(lp565
S''
asbasbasbasbasbasbasbag48
(g64
g50
NtRp566
(dp567
g53
(dp568
sg62
g225
sg55
(lp569
g48
(g69
g50
NtRp570
(dp571
g53
(dp572
g73
g74
ssg62
g566
sg55
(lp573
S'session_id_welcome'
p574
asbag48
(g69
g50
NtRp575
(dp576
g53
(dp577
g80
g81
ssg62
g566
sg55
(lp578
S':'
asbag48
(g69
g50
NtRp579
(dp580
g53
(dp581
sg62
g566
sg55
(lp582
g48
(g49
g50
NtRp583
(dp584
g53
(dp585
g61
I4
ssg62
g579
sg55
(lp586
g48
(g57
g50
NtRp587
(dp588
g53
(dp589
g61
I3
ssg62
Nsg55
(lp590
g48
(g64
g50
NtRp591
(dp592
g53
(dp593
sg62
g587
sg55
(lp594
g48
(g69
g50
NtRp595
(dp596
g53
(dp597
g73
g74
ssg62
g591
sg55
(lp598
g262
asbag48
(g69
g50
NtRp599
(dp600
g53
(dp601
g80
g81
ssg62
g591
sg55
(lp602
S':'
asbag48
(g69
g50
NtRp603
(dp604
g53
(dp605
sg62
g591
sg55
(lp606
g48
(g49
g50
NtRp607
(dp608
g53
(dp609
g61
I3
ssg62
g603
sg55
(lp610
S''
asbasbasbag48
(g64
g50
NtRp611
(dp612
g53
(dp613
sg62
g587
sg55
(lp614
g48
(g69
g50
NtRp615
(dp616
g53
(dp617
g73
g74
ssg62
g611
sg55
(lp618
g283
asbag48
(g69
g50
NtRp619
(dp620
g53
(dp621
g80
g81
ssg62
g611
sg55
(lp622
S':'
asbag48
(g69
g50
NtRp623
(dp624
g53
(dp625
sg62
g611
sg55
(lp626
g48
(g49
g50
NtRp627
(dp628
g53
(dp629
g61
I3
ssg62
g623
sg55
(lp630
S''
asbasbasbag48
(g64
g50
NtRp631
(dp632
g53
(dp633
sg62
g587
sg55
(lp634
g48
(g69
g50
NtRp635
(dp636
g53
(dp637
g73
g74
ssg62
g631
sg55
(lp638
g304
asbag48
(g69
g50
NtRp639
(dp640
g53
(dp641
g80
g81
ssg62
g631
sg55
(lp642
S':'
asbag48
(g69
g50
NtRp643
(dp644
g53
(dp645
sg62
g631
sg55
(lp646
g48
(g49
g50
NtRp647
(dp648
g53
(dp649
g61
I3
ssg62
g643
sg55
(lp650
S''
asbasbasbag48
(g64
g50
NtRp651
(dp652
g53
(dp653
sg62
g587
sg55
(lp654
g48
(g69
g50
NtRp655
(dp656
g53
(dp657
g73
g74
ssg62
g651
sg55
(lp658
g325
asbag48
(g69
g50
NtRp659
(dp660
g53
(dp661
g80
g81
ssg62
g651
sg55
(lp662
S':'
asbag48
(g69
g50
NtRp663
(dp664
g53
(dp665
sg62
g651
sg55
(lp666
g48
(g49
g50
NtRp667
(dp668
g53
(dp669
g61
I3
ssg62
g663
sg55
(lp670
S''
asbasbasbag48
(g64
g50
NtRp671
(dp672
g53
(dp673
sg62
g587
sg55
(lp674
g48
(g69
g50
NtRp675
(dp676
g53
(dp677
g73
g74
ssg62
g671
sg55
(lp678
g346
asbag48
(g69
g50
NtRp679
(dp680
g53
(dp681
g80
g81
ssg62
g671
sg55
(lp682
S':'
asbag48
(g69
g50
NtRp683
(dp684
g53
(dp685
sg62
g671
sg55
(lp686
g48
(g49
g50
NtRp687
(dp688
g53
(dp689
g61
I3
ssg62
g683
sg55
(lp690
S''
asbasbasbag48
(g64
g50
NtRp691
(dp692
g53
(dp693
sg62
g587
sg55
(lp694
g48
(g69
g50
NtRp695
(dp696
g53
(dp697
g73
g74
ssg62
g691
sg55
(lp698
g367
asbag48
(g69
g50
NtRp699
(dp700
g53
(dp701
g80
g81
ssg62
g691
sg55
(lp702
S':'
asbag48
(g69
g50
NtRp703
(dp704
g53
(dp705
sg62
g691
sg55
(lp706
g48
(g49
g50
NtRp707
(dp708
g53
(dp709
g61
I3
ssg62
g703
sg55
(lp710
S''
asbasbasbag48
(g64
g50
NtRp711
(dp712
g53
(dp713
sg62
g587
sg55
(lp714
g48
(g69
g50
NtRp715
(dp716
g53
(dp717
g73
g74
ssg62
g711
sg55
(lp718
g388
asbag48
(g69
g50
NtRp719
(dp720
g53
(dp721
g80
g81
ssg62
g711
sg55
(lp722
S':'
asbag48
(g69
g50
NtRp723
(dp724
g53
(dp725
sg62
g711
sg55
(lp726
g48
(g49
g50
NtRp727
(dp728
g53
(dp729
g61
I3
ssg62
g723
sg55
(lp730
S''
asbasbasbasbasbasbasbasbasbasbasbag48
(g64
g50
NtRp731
(dp732
g53
(dp733
sg62
g58
sg55
(lp734
g48
(g69
g50
NtRp735
(dp736
g53
(dp737
g73
g74
ssg62
g731
sg55
(lp738
S'env'
p739
asbag48
(g69
g50
NtRp740
(dp741
g53
(dp742
g80
g81
ssg62
g731
sg55
(lp743
S':'
asbag48
(g69
g50
NtRp744
(dp745
g53
(dp746
sg62
g731
sg55
(lp747
g48
(g49
g50
NtRp748
(dp749
g53
(dp750
g61
I5
ssg62
g744
sg55
(lp751
g48
(g57
g50
NtRp752
(dp753
g53
(dp754
g61
I4
ssg62
Nsg55
(lp755
g48
(g64
g50
NtRp756
(dp757
g53
(dp758
sg62
g752
sg55
(lp759
g48
(g69
g50
NtRp760
(dp761
g53
(dp762
g73
g74
ssg62
g756
sg55
(lp763
S'app_folders'
p764
asbag48
(g69
g50
NtRp765
(dp766
g53
(dp767
g80
g81
ssg62
g756
sg55
(lp768
S':'
asbag48
(g69
g50
NtRp769
(dp770
g53
(dp771
sg62
g756
sg55
(lp772
g48
(g49
g50
NtRp773
(dp774
g53
(dp775
g61
I4
ssg62
g769
sg55
(lp776
S"set(['C:\\\\Users\\\\AKSHAY\\\\Desktop\\\\web2py\\\\applications\\\\welcome\\\\', 'C:\\\\Users\\\\AKSHAY\\\\Desktop\\\\web2py\\\\applications\\\\201056161\\\\', 'C:\\\\Users\\\\AKSHAY\\\\Desktop\\\\web2py\\\\applications\\\\examples\\\\', 'C:\\\\Users\\\\AKSHAY\\\\Desktop\\\\web2py\\\\applications\\\\admin\\\\', 'C:\\\\Users\\\\AKSHAY\\\\Desktop\\\\web2py\\\\applications\\\\MusicRepo\\\\'])"
p777
asbasbasbag48
(g64
g50
NtRp778
(dp779
g53
(dp780
sg62
g752
sg55
(lp781
g48
(g69
g50
NtRp782
(dp783
g53
(dp784
g73
g74
ssg62
g778
sg55
(lp785
S'applications_parent'
p786
asbag48
(g69
g50
NtRp787
(dp788
g53
(dp789
g80
g81
ssg62
g778
sg55
(lp790
S':'
asbag48
(g69
g50
NtRp791
(dp792
g53
(dp793
sg62
g778
sg55
(lp794
g48
(g49
g50
NtRp795
(dp796
g53
(dp797
g61
I4
ssg62
g791
sg55
(lp798
S'C:\\Users\\AKSHAY\\Desktop\\web2py'
p799
asbasbasbag48
(g64
g50
NtRp800
(dp801
g53
(dp802
sg62
g752
sg55
(lp803
g48
(g69
g50
NtRp804
(dp805
g53
(dp806
g73
g74
ssg62
g800
sg55
(lp807
S'cmd_args'
p808
asbag48
(g69
g50
NtRp809
(dp810
g53
(dp811
g80
g81
ssg62
g800
sg55
(lp812
S':'
asbag48
(g69
g50
NtRp813
(dp814
g53
(dp815
sg62
g800
sg55
(lp816
g48
(g49
g50
NtRp817
(dp818
g53
(dp819
g61
I4
ssg62
g813
sg55
(lp820
g48
(g57
g50
NtRp821
(dp822
g53
(dp823
g61
I3
ssg62
Nsg55
(lp824
sbasbasbasbag48
(g64
g50
NtRp825
(dp826
g53
(dp827
sg62
g752
sg55
(lp828
g48
(g69
g50
NtRp829
(dp830
g53
(dp831
g73
g74
ssg62
g825
sg55
(lp832
S'cmd_options'
p833
asbag48
(g69
g50
NtRp834
(dp835
g53
(dp836
g80
g81
ssg62
g825
sg55
(lp837
S':'
asbag48
(g69
g50
NtRp838
(dp839
g53
(dp840
sg62
g825
sg55
(lp841
g48
(g49
g50
NtRp842
(dp843
g53
(dp844
g61
I4
ssg62
g838
sg55
(lp845
S"<Values at 0x317dfd0: {'verbose': False, 'ip': '127.0.0.1', 'shutdown_timeout': 5, 'taskbar': False, 'port': 8000, 'maxthreads': None, 'softcron': False, 'server_name': 'AKSHAY-PC', 'bpython': False, 'nogui': False, 'nocron': False, 'extcron': False, 'debuglevel': 30, 'test': None, 'folder': 'C:\\\\Users\\\\AKSHAY\\\\Desktop\\\\web2py', 'config': '', 'import_models': False, 'winservice': '', 'shell': None, 'run': '', 'log_filename': 'httpserver.log', 'args': [''], 'profiler_filename': None, 'ssl_private_key': '', 'password': '<ask>', 'request_queue_size': 5, 'ssl_certificate': '', 'cronjob': False, 'plain': False, 'quiet': False, 'interfaces': None, 'minthreads': None, 'timeout': 10, 'numthreads': None, 'nobanner': False, 'pid_filename': 'httpserver.pid'}>"
p846
asbasbasbag48
(g64
g50
NtRp847
(dp848
g53
(dp849
sg62
g752
sg55
(lp850
g48
(g69
g50
NtRp851
(dp852
g53
(dp853
g73
g74
ssg62
g847
sg55
(lp854
S'content_length'
p855
asbag48
(g69
g50
NtRp856
(dp857
g53
(dp858
g80
g81
ssg62
g847
sg55
(lp859
S':'
asbag48
(g69
g50
NtRp860
(dp861
g53
(dp862
sg62
g847
sg55
(lp863
g48
(g49
g50
NtRp864
(dp865
g53
(dp866
g61
I4
ssg62
g860
sg55
(lp867
S'472'
p868
asbasbasbag48
(g64
g50
NtRp869
(dp870
g53
(dp871
sg62
g752
sg55
(lp872
g48
(g69
g50
NtRp873
(dp874
g53
(dp875
g73
g74
ssg62
g869
sg55
(lp876
S'content_type'
p877
asbag48
(g69
g50
NtRp878
(dp879
g53
(dp880
g80
g81
ssg62
g869
sg55
(lp881
S':'
asbag48
(g69
g50
NtRp882
(dp883
g53
(dp884
sg62
g869
sg55
(lp885
g48
(g49
g50
NtRp886
(dp887
g53
(dp888
g61
I4
ssg62
g882
sg55
(lp889
S'multipart/form-data; boundary=----WebKitFormBoundaryqUeNrBcloyQ2qQyM'
p890
asbasbasbag48
(g64
g50
NtRp891
(dp892
g53
(dp893
sg62
g752
sg55
(lp894
g48
(g69
g50
NtRp895
(dp896
g53
(dp897
g73
g74
ssg62
g891
sg55
(lp898
S'db_sessions'
p899
asbag48
(g69
g50
NtRp900
(dp901
g53
(dp902
g80
g81
ssg62
g891
sg55
(lp903
S':'
asbag48
(g69
g50
NtRp904
(dp905
g53
(dp906
sg62
g891
sg55
(lp907
g48
(g49
g50
NtRp908
(dp909
g53
(dp910
g61
I4
ssg62
g904
sg55
(lp911
S'set([])'
p912
asbasbasbag48
(g64
g50
NtRp913
(dp914
g53
(dp915
sg62
g752
sg55
(lp916
g48
(g69
g50
NtRp917
(dp918
g53
(dp919
g73
g74
ssg62
g913
sg55
(lp920
S'debugging'
p921
asbag48
(g69
g50
NtRp922
(dp923
g53
(dp924
g80
g81
ssg62
g913
sg55
(lp925
S':'
asbag48
(g69
g50
NtRp926
(dp927
g53
(dp928
sg62
g913
sg55
(lp929
g48
(g49
g50
NtRp930
(dp931
g53
(dp932
g61
I4
ssg62
g926
sg55
(lp933
g91
asbasbasbag48
(g64
g50
NtRp934
(dp935
g53
(dp936
sg62
g752
sg55
(lp937
g48
(g69
g50
NtRp938
(dp939
g53
(dp940
g73
g74
ssg62
g934
sg55
(lp941
S'gluon_parent'
p942
asbag48
(g69
g50
NtRp943
(dp944
g53
(dp945
g80
g81
ssg62
g934
sg55
(lp946
S':'
asbag48
(g69
g50
NtRp947
(dp948
g53
(dp949
sg62
g934
sg55
(lp950
g48
(g49
g50
NtRp951
(dp952
g53
(dp953
g61
I4
ssg62
g947
sg55
(lp954
S'C:\\Users\\AKSHAY\\Desktop\\web2py'
p955
asbasbasbag48
(g64
g50
NtRp956
(dp957
g53
(dp958
sg62
g752
sg55
(lp959
g48
(g69
g50
NtRp960
(dp961
g53
(dp962
g73
g74
ssg62
g956
sg55
(lp963
S'http_accept'
p964
asbag48
(g69
g50
NtRp965
(dp966
g53
(dp967
g80
g81
ssg62
g956
sg55
(lp968
S':'
asbag48
(g69
g50
NtRp969
(dp970
g53
(dp971
sg62
g956
sg55
(lp972
g48
(g49
g50
NtRp973
(dp974
g53
(dp975
g61
I4
ssg62
g969
sg55
(lp976
S'text/html,application/xhtml+xml,application/xml;q=0.9,*/*;q=0.8'
p977
asbasbasbag48
(g64
g50
NtRp978
(dp979
g53
(dp980
sg62
g752
sg55
(lp981
g48
(g69
g50
NtRp982
(dp983
g53
(dp984
g73
g74
ssg62
g978
sg55
(lp985
S'http_accept_charset'
p986
asbag48
(g69
g50
NtRp987
(dp988
g53
(dp989
g80
g81
ssg62
g978
sg55
(lp990
S':'
asbag48
(g69
g50
NtRp991
(dp992
g53
(dp993
sg62
g978
sg55
(lp994
g48
(g49
g50
NtRp995
(dp996
g53
(dp997
g61
I4
ssg62
g991
sg55
(lp998
S'ISO-8859-1,utf-8;q=0.7,*;q=0.3'
p999
asbasbasbag48
(g64
g50
NtRp1000
(dp1001
g53
(dp1002
sg62
g752
sg55
(lp1003
g48
(g69
g50
NtRp1004
(dp1005
g53
(dp1006
g73
g74
ssg62
g1000
sg55
(lp1007
S'http_accept_encoding'
p1008
asbag48
(g69
g50
NtRp1009
(dp1010
g53
(dp1011
g80
g81
ssg62
g1000
sg55
(lp1012
S':'
asbag48
(g69
g50
NtRp1013
(dp1014
g53
(dp1015
sg62
g1000
sg55
(lp1016
g48
(g49
g50
NtRp1017
(dp1018
g53
(dp1019
g61
I4
ssg62
g1013
sg55
(lp1020
S'gzip,deflate,sdch'
p1021
asbasbasbag48
(g64
g50
NtRp1022
(dp1023
g53
(dp1024
sg62
g752
sg55
(lp1025
g48
(g69
g50
NtRp1026
(dp1027
g53
(dp1028
g73
g74
ssg62
g1022
sg55
(lp1029
S'http_accept_language'
p1030
asbag48
(g69
g50
NtRp1031
(dp1032
g53
(dp1033
g80
g81
ssg62
g1022
sg55
(lp1034
S':'
asbag48
(g69
g50
NtRp1035
(dp1036
g53
(dp1037
sg62
g1022
sg55
(lp1038
g48
(g49
g50
NtRp1039
(dp1040
g53
(dp1041
g61
I4
ssg62
g1035
sg55
(lp1042
S'en-US,en;q=0.8'
p1043
asbasbasbag48
(g64
g50
NtRp1044
(dp1045
g53
(dp1046
sg62
g752
sg55
(lp1047
g48
(g69
g50
NtRp1048
(dp1049
g53
(dp1050
g73
g74
ssg62
g1044
sg55
(lp1051
S'http_cache_control'
p1052
asbag48
(g69
g50
NtRp1053
(dp1054
g53
(dp1055
g80
g81
ssg62
g1044
sg55
(lp1056
S':'
asbag48
(g69
g50
NtRp1057
(dp1058
g53
(dp1059
sg62
g1044
sg55
(lp1060
g48
(g49
g50
NtRp1061
(dp1062
g53
(dp1063
g61
I4
ssg62
g1057
sg55
(lp1064
S'max-age=0'
p1065
asbasbasbag48
(g64
g50
NtRp1066
(dp1067
g53
(dp1068
sg62
g752
sg55
(lp1069
g48
(g69
g50
NtRp1070
(dp1071
g53
(dp1072
g73
g74
ssg62
g1066
sg55
(lp1073
S'http_connection'
p1074
asbag48
(g69
g50
NtRp1075
(dp1076
g53
(dp1077
g80
g81
ssg62
g1066
sg55
(lp1078
S':'
asbag48
(g69
g50
NtRp1079
(dp1080
g53
(dp1081
sg62
g1066
sg55
(lp1082
g48
(g49
g50
NtRp1083
(dp1084
g53
(dp1085
g61
I4
ssg62
g1079
sg55
(lp1086
S'keep-alive'
p1087
asbasbasbag48
(g64
g50
NtRp1088
(dp1089
g53
(dp1090
sg62
g752
sg55
(lp1091
g48
(g69
g50
NtRp1092
(dp1093
g53
(dp1094
g73
g74
ssg62
g1088
sg55
(lp1095
S'http_content_length'
p1096
asbag48
(g69
g50
NtRp1097
(dp1098
g53
(dp1099
g80
g81
ssg62
g1088
sg55
(lp1100
S':'
asbag48
(g69
g50
NtRp1101
(dp1102
g53
(dp1103
sg62
g1088
sg55
(lp1104
g48
(g49
g50
NtRp1105
(dp1106
g53
(dp1107
g61
I4
ssg62
g1101
sg55
(lp1108
g868
asbasbasbag48
(g64
g50
NtRp1109
(dp1110
g53
(dp1111
sg62
g752
sg55
(lp1112
g48
(g69
g50
NtRp1113
(dp1114
g53
(dp1115
g73
g74
ssg62
g1109
sg55
(lp1116
S'http_content_type'
p1117
asbag48
(g69
g50
NtRp1118
(dp1119
g53
(dp1120
g80
g81
ssg62
g1109
sg55
(lp1121
S':'
asbag48
(g69
g50
NtRp1122
(dp1123
g53
(dp1124
sg62
g1109
sg55
(lp1125
g48
(g49
g50
NtRp1126
(dp1127
g53
(dp1128
g61
I4
ssg62
g1122
sg55
(lp1129
g890
asbasbasbag48
(g64
g50
NtRp1130
(dp1131
g53
(dp1132
sg62
g752
sg55
(lp1133
g48
(g69
g50
NtRp1134
(dp1135
g53
(dp1136
g73
g74
ssg62
g1130
sg55
(lp1137
S'http_cookie'
p1138
asbag48
(g69
g50
NtRp1139
(dp1140
g53
(dp1141
g80
g81
ssg62
g1130
sg55
(lp1142
S':'
asbag48
(g69
g50
NtRp1143
(dp1144
g53
(dp1145
sg62
g1130
sg55
(lp1146
g48
(g49
g50
NtRp1147
(dp1148
g53
(dp1149
g61
I4
ssg62
g1143
sg55
(lp1150
S'session_id_welcome=127.0.0.1-59771078-5064-4769-bad5-36c10b98c15f; session_id_admin=127.0.0.1-0f74329a-39f0-47c2-95cf-7f42bb528a7b; session_id_201056161=127.0.0.1-3bc821ac-4d59-41c6-8699-b3e43edfc478'
p1151
asbasbasbag48
(g64
g50
NtRp1152
(dp1153
g53
(dp1154
sg62
g752
sg55
(lp1155
g48
(g69
g50
NtRp1156
(dp1157
g53
(dp1158
g73
g74
ssg62
g1152
sg55
(lp1159
S'http_host'
p1160
asbag48
(g69
g50
NtRp1161
(dp1162
g53
(dp1163
g80
g81
ssg62
g1152
sg55
(lp1164
S':'
asbag48
(g69
g50
NtRp1165
(dp1166
g53
(dp1167
sg62
g1152
sg55
(lp1168
g48
(g49
g50
NtRp1169
(dp1170
g53
(dp1171
g61
I4
ssg62
g1165
sg55
(lp1172
S'127.0.0.1:8000'
p1173
asbasbasbag48
(g64
g50
NtRp1174
(dp1175
g53
(dp1176
sg62
g752
sg55
(lp1177
g48
(g69
g50
NtRp1178
(dp1179
g53
(dp1180
g73
g74
ssg62
g1174
sg55
(lp1181
S'http_origin'
p1182
asbag48
(g69
g50
NtRp1183
(dp1184
g53
(dp1185
g80
g81
ssg62
g1174
sg55
(lp1186
S':'
asbag48
(g69
g50
NtRp1187
(dp1188
g53
(dp1189
sg62
g1174
sg55
(lp1190
g48
(g49
g50
NtRp1191
(dp1192
g53
(dp1193
g61
I4
ssg62
g1187
sg55
(lp1194
S'http://127.0.0.1:8000'
p1195
asbasbasbag48
(g64
g50
NtRp1196
(dp1197
g53
(dp1198
sg62
g752
sg55
(lp1199
g48
(g69
g50
NtRp1200
(dp1201
g53
(dp1202
g73
g74
ssg62
g1196
sg55
(lp1203
S'http_referer'
p1204
asbag48
(g69
g50
NtRp1205
(dp1206
g53
(dp1207
g80
g81
ssg62
g1196
sg55
(lp1208
S':'
asbag48
(g69
g50
NtRp1209
(dp1210
g53
(dp1211
sg62
g1196
sg55
(lp1212
g48
(g49
g50
NtRp1213
(dp1214
g53
(dp1215
g61
I4
ssg62
g1209
sg55
(lp1216
S'http://127.0.0.1:8000/201056161/default/new'
p1217
asbasbasbag48
(g64
g50
NtRp1218
(dp1219
g53
(dp1220
sg62
g752
sg55
(lp1221
g48
(g69
g50
NtRp1222
(dp1223
g53
(dp1224
g73
g74
ssg62
g1218
sg55
(lp1225
S'http_user_agent'
p1226
asbag48
(g69
g50
NtRp1227
(dp1228
g53
(dp1229
g80
g81
ssg62
g1218
sg55
(lp1230
S':'
asbag48
(g69
g50
NtRp1231
(dp1232
g53
(dp1233
sg62
g1218
sg55
(lp1234
g48
(g49
g50
NtRp1235
(dp1236
g53
(dp1237
g61
I4
ssg62
g1231
sg55
(lp1238
S'Mozilla/5.0 (Windows NT 6.1; WOW64) AppleWebKit/535.1 (KHTML, like Gecko) Chrome/13.0.782.218 Safari/535.1'
p1239
asbasbasbag48
(g64
g50
NtRp1240
(dp1241
g53
(dp1242
sg62
g752
sg55
(lp1243
g48
(g69
g50
NtRp1244
(dp1245
g53
(dp1246
g73
g74
ssg62
g1240
sg55
(lp1247
S'path_info'
p1248
asbag48
(g69
g50
NtRp1249
(dp1250
g53
(dp1251
g80
g81
ssg62
g1240
sg55
(lp1252
S':'
asbag48
(g69
g50
NtRp1253
(dp1254
g53
(dp1255
sg62
g1240
sg55
(lp1256
g48
(g49
g50
NtRp1257
(dp1258
g53
(dp1259
g61
I4
ssg62
g1253
sg55
(lp1260
S'/201056161/default/new'
p1261
asbasbasbag48
(g64
g50
NtRp1262
(dp1263
g53
(dp1264
sg62
g752
sg55
(lp1265
g48
(g69
g50
NtRp1266
(dp1267
g53
(dp1268
g73
g74
ssg62
g1262
sg55
(lp1269
S'query_string'
p1270
asbag48
(g69
g50
NtRp1271
(dp1272
g53
(dp1273
g80
g81
ssg62
g1262
sg55
(lp1274
S':'
asbag48
(g69
g50
NtRp1275
(dp1276
g53
(dp1277
sg62
g1262
sg55
(lp1278
g48
(g49
g50
NtRp1279
(dp1280
g53
(dp1281
g61
I4
ssg62
g1275
sg55
(lp1282
S''
asbasbasbag48
(g64
g50
NtRp1283
(dp1284
g53
(dp1285
sg62
g752
sg55
(lp1286
g48
(g69
g50
NtRp1287
(dp1288
g53
(dp1289
g73
g74
ssg62
g1283
sg55
(lp1290
S'remote_addr'
p1291
asbag48
(g69
g50
NtRp1292
(dp1293
g53
(dp1294
g80
g81
ssg62
g1283
sg55
(lp1295
S':'
asbag48
(g69
g50
NtRp1296
(dp1297
g53
(dp1298
sg62
g1283
sg55
(lp1299
g48
(g49
g50
NtRp1300
(dp1301
g53
(dp1302
g61
I4
ssg62
g1296
sg55
(lp1303
g181
asbasbasbag48
(g64
g50
NtRp1304
(dp1305
g53
(dp1306
sg62
g752
sg55
(lp1307
g48
(g69
g50
NtRp1308
(dp1309
g53
(dp1310
g73
g74
ssg62
g1304
sg55
(lp1311
S'remote_port'
p1312
asbag48
(g69
g50
NtRp1313
(dp1314
g53
(dp1315
g80
g81
ssg62
g1304
sg55
(lp1316
S':'
asbag48
(g69
g50
NtRp1317
(dp1318
g53
(dp1319
sg62
g1304
sg55
(lp1320
g48
(g49
g50
NtRp1321
(dp1322
g53
(dp1323
g61
I4
ssg62
g1317
sg55
(lp1324
S'51301'
p1325
asbasbasbag48
(g64
g50
NtRp1326
(dp1327
g53
(dp1328
sg62
g752
sg55
(lp1329
g48
(g69
g50
NtRp1330
(dp1331
g53
(dp1332
g73
g74
ssg62
g1326
sg55
(lp1333
S'request_method'
p1334
asbag48
(g69
g50
NtRp1335
(dp1336
g53
(dp1337
g80
g81
ssg62
g1326
sg55
(lp1338
S':'
asbag48
(g69
g50
NtRp1339
(dp1340
g53
(dp1341
sg62
g1326
sg55
(lp1342
g48
(g49
g50
NtRp1343
(dp1344
g53
(dp1345
g61
I4
ssg62
g1339
sg55
(lp1346
S'POST'
p1347
asbasbasbag48
(g64
g50
NtRp1348
(dp1349
g53
(dp1350
sg62
g752
sg55
(lp1351
g48
(g69
g50
NtRp1352
(dp1353
g53
(dp1354
g73
g74
ssg62
g1348
sg55
(lp1355
S'script_name'
p1356
asbag48
(g69
g50
NtRp1357
(dp1358
g53
(dp1359
g80
g81
ssg62
g1348
sg55
(lp1360
S':'
asbag48
(g69
g50
NtRp1361
(dp1362
g53
(dp1363
sg62
g1348
sg55
(lp1364
g48
(g49
g50
NtRp1365
(dp1366
g53
(dp1367
g61
I4
ssg62
g1361
sg55
(lp1368
S''
asbasbasbag48
(g64
g50
NtRp1369
(dp1370
g53
(dp1371
sg62
g752
sg55
(lp1372
g48
(g69
g50
NtRp1373
(dp1374
g53
(dp1375
g73
g74
ssg62
g1369
sg55
(lp1376
S'server_name'
p1377
asbag48
(g69
g50
NtRp1378
(dp1379
g53
(dp1380
g80
g81
ssg62
g1369
sg55
(lp1381
S':'
asbag48
(g69
g50
NtRp1382
(dp1383
g53
(dp1384
sg62
g1369
sg55
(lp1385
g48
(g49
g50
NtRp1386
(dp1387
g53
(dp1388
g61
I4
ssg62
g1382
sg55
(lp1389
S'AKSHAY-PC'
p1390
asbasbasbag48
(g64
g50
NtRp1391
(dp1392
g53
(dp1393
sg62
g752
sg55
(lp1394
g48
(g69
g50
NtRp1395
(dp1396
g53
(dp1397
g73
g74
ssg62
g1391
sg55
(lp1398
S'server_port'
p1399
asbag48
(g69
g50
NtRp1400
(dp1401
g53
(dp1402
g80
g81
ssg62
g1391
sg55
(lp1403
S':'
asbag48
(g69
g50
NtRp1404
(dp1405
g53
(dp1406
sg62
g1391
sg55
(lp1407
g48
(g49
g50
NtRp1408
(dp1409
g53
(dp1410
g61
I4
ssg62
g1404
sg55
(lp1411
S'8000'
p1412
asbasbasbag48
(g64
g50
NtRp1413
(dp1414
g53
(dp1415
sg62
g752
sg55
(lp1416
g48
(g69
g50
NtRp1417
(dp1418
g53
(dp1419
g73
g74
ssg62
g1413
sg55
(lp1420
S'server_protocol'
p1421
asbag48
(g69
g50
NtRp1422
(dp1423
g53
(dp1424
g80
g81
ssg62
g1413
sg55
(lp1425
S':'
asbag48
(g69
g50
NtRp1426
(dp1427
g53
(dp1428
sg62
g1413
sg55
(lp1429
g48
(g49
g50
NtRp1430
(dp1431
g53
(dp1432
g61
I4
ssg62
g1426
sg55
(lp1433
S'HTTP/1.1'
p1434
asbasbasbag48
(g64
g50
NtRp1435
(dp1436
g53
(dp1437
sg62
g752
sg55
(lp1438
g48
(g69
g50
NtRp1439
(dp1440
g53
(dp1441
g73
g74
ssg62
g1435
sg55
(lp1442
S'server_software'
p1443
asbag48
(g69
g50
NtRp1444
(dp1445
g53
(dp1446
g80
g81
ssg62
g1435
sg55
(lp1447
S':'
asbag48
(g69
g50
NtRp1448
(dp1449
g53
(dp1450
sg62
g1435
sg55
(lp1451
g48
(g49
g50
NtRp1452
(dp1453
g53
(dp1454
g61
I4
ssg62
g1448
sg55
(lp1455
S'Rocket 1.2.2'
p1456
asbasbasbag48
(g64
g50
NtRp1457
(dp1458
g53
(dp1459
sg62
g752
sg55
(lp1460
g48
(g69
g50
NtRp1461
(dp1462
g53
(dp1463
g73
g74
ssg62
g1457
sg55
(lp1464
S'web2py_crontype'
p1465
asbag48
(g69
g50
NtRp1466
(dp1467
g53
(dp1468
g80
g81
ssg62
g1457
sg55
(lp1469
S':'
asbag48
(g69
g50
NtRp1470
(dp1471
g53
(dp1472
sg62
g1457
sg55
(lp1473
g48
(g49
g50
NtRp1474
(dp1475
g53
(dp1476
g61
I4
ssg62
g1470
sg55
(lp1477
S'hard'
p1478
asbasbasbag48
(g64
g50
NtRp1479
(dp1480
g53
(dp1481
sg62
g752
sg55
(lp1482
g48
(g69
g50
NtRp1483
(dp1484
g53
(dp1485
g73
g74
ssg62
g1479
sg55
(lp1486
S'web2py_path'
p1487
asbag48
(g69
g50
NtRp1488
(dp1489
g53
(dp1490
g80
g81
ssg62
g1479
sg55
(lp1491
S':'
asbag48
(g69
g50
NtRp1492
(dp1493
g53
(dp1494
sg62
g1479
sg55
(lp1495
g48
(g49
g50
NtRp1496
(dp1497
g53
(dp1498
g61
I4
ssg62
g1492
sg55
(lp1499
g799
asbasbasbag48
(g64
g50
NtRp1500
(dp1501
g53
(dp1502
sg62
g752
sg55
(lp1503
g48
(g69
g50
NtRp1504
(dp1505
g53
(dp1506
g73
g74
ssg62
g1500
sg55
(lp1507
S'web2py_version'
p1508
asbag48
(g69
g50
NtRp1509
(dp1510
g53
(dp1511
g80
g81
ssg62
g1500
sg55
(lp1512
S':'
asbag48
(g69
g50
NtRp1513
(dp1514
g53
(dp1515
sg62
g1500
sg55
(lp1516
g48
(g49
g50
NtRp1517
(dp1518
g53
(dp1519
g61
I4
ssg62
g1513
sg55
(lp1520
S'Version 1.97.1 (2011-06-26 19:25:44)\n'
p1521
asbasbasbag48
(g64
g50
NtRp1522
(dp1523
g53
(dp1524
sg62
g752
sg55
(lp1525
g48
(g69
g50
NtRp1526
(dp1527
g53
(dp1528
g73
g74
ssg62
g1522
sg55
(lp1529
S'wsgi_errors'
p1530
asbag48
(g69
g50
NtRp1531
(dp1532
g53
(dp1533
g80
g81
ssg62
g1522
sg55
(lp1534
S':'
asbag48
(g69
g50
NtRp1535
(dp1536
g53
(dp1537
sg62
g1522
sg55
(lp1538
g48
(g49
g50
NtRp1539
(dp1540
g53
(dp1541
g61
I4
ssg62
g1535
sg55
(lp1542
S"<open file '<stderr>', mode 'w' at 0x002500B0>"
p1543
asbasbasbag48
(g64
g50
NtRp1544
(dp1545
g53
(dp1546
sg62
g752
sg55
(lp1547
g48
(g69
g50
NtRp1548
(dp1549
g53
(dp1550
g73
g74
ssg62
g1544
sg55
(lp1551
S'wsgi_file_wrapper'
p1552
asbag48
(g69
g50
NtRp1553
(dp1554
g53
(dp1555
g80
g81
ssg62
g1544
sg55
(lp1556
S':'
asbag48
(g69
g50
NtRp1557
(dp1558
g53
(dp1559
sg62
g1544
sg55
(lp1560
g48
(g49
g50
NtRp1561
(dp1562
g53
(dp1563
g61
I4
ssg62
g1557
sg55
(lp1564
S'<class gluon.rocket.FileWrapper at 0x03132BA0>'
p1565
asbasbasbag48
(g64
g50
NtRp1566
(dp1567
g53
(dp1568
sg62
g752
sg55
(lp1569
g48
(g69
g50
NtRp1570
(dp1571
g53
(dp1572
g73
g74
ssg62
g1566
sg55
(lp1573
S'wsgi_input'
p1574
asbag48
(g69
g50
NtRp1575
(dp1576
g53
(dp1577
g80
g81
ssg62
g1566
sg55
(lp1578
S':'
asbag48
(g69
g50
NtRp1579
(dp1580
g53
(dp1581
sg62
g1566
sg55
(lp1582
g48
(g49
g50
NtRp1583
(dp1584
g53
(dp1585
g61
I4
ssg62
g1579
sg55
(lp1586
S'<socket._fileobject object at 0x06C35730>'
p1587
asbasbasbag48
(g64
g50
NtRp1588
(dp1589
g53
(dp1590
sg62
g752
sg55
(lp1591
g48
(g69
g50
NtRp1592
(dp1593
g53
(dp1594
g73
g74
ssg62
g1588
sg55
(lp1595
S'wsgi_multiprocess'
p1596
asbag48
(g69
g50
NtRp1597
(dp1598
g53
(dp1599
g80
g81
ssg62
g1588
sg55
(lp1600
S':'
asbag48
(g69
g50
NtRp1601
(dp1602
g53
(dp1603
sg62
g1588
sg55
(lp1604
g48
(g49
g50
NtRp1605
(dp1606
g53
(dp1607
g61
I4
ssg62
g1601
sg55
(lp1608
g91
asbasbasbag48
(g64
g50
NtRp1609
(dp1610
g53
(dp1611
sg62
g752
sg55
(lp1612
g48
(g69
g50
NtRp1613
(dp1614
g53
(dp1615
g73
g74
ssg62
g1609
sg55
(lp1616
S'wsgi_multithread'
p1617
asbag48
(g69
g50
NtRp1618
(dp1619
g53
(dp1620
g80
g81
ssg62
g1609
sg55
(lp1621
S':'
asbag48
(g69
g50
NtRp1622
(dp1623
g53
(dp1624
sg62
g1609
sg55
(lp1625
g48
(g49
g50
NtRp1626
(dp1627
g53
(dp1628
g61
I4
ssg62
g1622
sg55
(lp1629
S'True'
p1630
asbasbasbag48
(g64
g50
NtRp1631
(dp1632
g53
(dp1633
sg62
g752
sg55
(lp1634
g48
(g69
g50
NtRp1635
(dp1636
g53
(dp1637
g73
g74
ssg62
g1631
sg55
(lp1638
S'wsgi_run_once'
p1639
asbag48
(g69
g50
NtRp1640
(dp1641
g53
(dp1642
g80
g81
ssg62
g1631
sg55
(lp1643
S':'
asbag48
(g69
g50
NtRp1644
(dp1645
g53
(dp1646
sg62
g1631
sg55
(lp1647
g48
(g49
g50
NtRp1648
(dp1649
g53
(dp1650
g61
I4
ssg62
g1644
sg55
(lp1651
g91
asbasbasbag48
(g64
g50
NtRp1652
(dp1653
g53
(dp1654
sg62
g752
sg55
(lp1655
g48
(g69
g50
NtRp1656
(dp1657
g53
(dp1658
g73
g74
ssg62
g1652
sg55
(lp1659
S'wsgi_url_scheme'
p1660
asbag48
(g69
g50
NtRp1661
(dp1662
g53
(dp1663
g80
g81
ssg62
g1652
sg55
(lp1664
S':'
asbag48
(g69
g50
NtRp1665
(dp1666
g53
(dp1667
sg62
g1652
sg55
(lp1668
g48
(g49
g50
NtRp1669
(dp1670
g53
(dp1671
g61
I4
ssg62
g1665
sg55
(lp1672
S'http'
p1673
asbasbasbag48
(g64
g50
NtRp1674
(dp1675
g53
(dp1676
sg62
g752
sg55
(lp1677
g48
(g69
g50
NtRp1678
(dp1679
g53
(dp1680
g73
g74
ssg62
g1674
sg55
(lp1681
S'wsgi_version'
p1682
asbag48
(g69
g50
NtRp1683
(dp1684
g53
(dp1685
g80
g81
ssg62
g1674
sg55
(lp1686
S':'
asbag48
(g69
g50
NtRp1687
(dp1688
g53
(dp1689
sg62
g1674
sg55
(lp1690
g48
(g49
g50
NtRp1691
(dp1692
g53
(dp1693
g61
I4
ssg62
g1687
sg55
(lp1694
g48
(g57
g50
NtRp1695
(dp1696
g53
(dp1697
g61
I3
ssg62
Nsg55
(lp1698
g48
(g64
g50
NtRp1699
(dp1700
g53
(dp1701
sg62
g1695
sg55
(lp1702
g48
(g69
g50
NtRp1703
(dp1704
g53
(dp1705
sg62
g1699
sg55
(lp1706
g48
(g49
g50
NtRp1707
(dp1708
g53
(dp1709
g61
I3
ssg62
g1703
sg55
(lp1710
S'1'
asbasbasbag48
(g64
g50
NtRp1711
(dp1712
g53
(dp1713
sg62
g1695
sg55
(lp1714
g48
(g69
g50
NtRp1715
(dp1716
g53
(dp1717
sg62
g1711
sg55
(lp1718
g48
(g49
g50
NtRp1719
(dp1720
g53
(dp1721
g61
I3
ssg62
g1715
sg55
(lp1722
S'0'
asbasbasbasbasbasbasbasbasbasbasbag48
(g64
g50
NtRp1723
(dp1724
g53
(dp1725
sg62
g58
sg55
(lp1726
g48
(g69
g50
NtRp1727
(dp1728
g53
(dp1729
g73
g74
ssg62
g1723
sg55
(lp1730
S'extension'
p1731
asbag48
(g69
g50
NtRp1732
(dp1733
g53
(dp1734
g80
g81
ssg62
g1723
sg55
(lp1735
S':'
asbag48
(g69
g50
NtRp1736
(dp1737
g53
(dp1738
sg62
g1723
sg55
(lp1739
g48
(g49
g50
NtRp1740
(dp1741
g53
(dp1742
g61
I5
ssg62
g1736
sg55
(lp1743
S'html'
p1744
asbasbasbag48
(g64
g50
NtRp1745
(dp1746
g53
(dp1747
sg62
g58
sg55
(lp1748
g48
(g69
g50
NtRp1749
(dp1750
g53
(dp1751
g73
g74
ssg62
g1745
sg55
(lp1752
S'folder'
p1753
asbag48
(g69
g50
NtRp1754
(dp1755
g53
(dp1756
g80
g81
ssg62
g1745
sg55
(lp1757
S':'
asbag48
(g69
g50
NtRp1758
(dp1759
g53
(dp1760
sg62
g1745
sg55
(lp1761
g48
(g49
g50
NtRp1762
(dp1763
g53
(dp1764
g61
I5
ssg62
g1758
sg55
(lp1765
S'C:\\Users\\AKSHAY\\Desktop\\web2py\\applications\\201056161\\'
p1766
asbasbasbag48
(g64
g50
NtRp1767
(dp1768
g53
(dp1769
sg62
g58
sg55
(lp1770
g48
(g69
g50
NtRp1771
(dp1772
g53
(dp1773
g73
g74
ssg62
g1767
sg55
(lp1774
S'function'
p1775
asbag48
(g69
g50
NtRp1776
(dp1777
g53
(dp1778
g80
g81
ssg62
g1767
sg55
(lp1779
S':'
asbag48
(g69
g50
NtRp1780
(dp1781
g53
(dp1782
sg62
g1767
sg55
(lp1783
g48
(g49
g50
NtRp1784
(dp1785
g53
(dp1786
g61
I5
ssg62
g1780
sg55
(lp1787
S'new'
p1788
asbasbasbag48
(g64
g50
NtRp1789
(dp1790
g53
(dp1791
sg62
g58
sg55
(lp1792
g48
(g69
g50
NtRp1793
(dp1794
g53
(dp1795
g73
g74
ssg62
g1789
sg55
(lp1796
S'get_vars'
p1797
asbag48
(g69
g50
NtRp1798
(dp1799
g53
(dp1800
g80
g81
ssg62
g1789
sg55
(lp1801
S':'
asbag48
(g69
g50
NtRp1802
(dp1803
g53
(dp1804
sg62
g1789
sg55
(lp1805
g48
(g49
g50
NtRp1806
(dp1807
g53
(dp1808
g61
I5
ssg62
g1802
sg55
(lp1809
g48
(g57
g50
NtRp1810
(dp1811
g53
(dp1812
g61
I4
ssg62
Nsg55
(lp1813
sbasbasbasbag48
(g64
g50
NtRp1814
(dp1815
g53
(dp1816
sg62
g58
sg55
(lp1817
g48
(g69
g50
NtRp1818
(dp1819
g53
(dp1820
g73
g74
ssg62
g1814
sg55
(lp1821
S'is_https'
p1822
asbag48
(g69
g50
NtRp1823
(dp1824
g53
(dp1825
g80
g81
ssg62
g1814
sg55
(lp1826
S':'
asbag48
(g69
g50
NtRp1827
(dp1828
g53
(dp1829
sg62
g1814
sg55
(lp1830
g48
(g49
g50
NtRp1831
(dp1832
g53
(dp1833
g61
I5
ssg62
g1827
sg55
(lp1834
g91
asbasbasbag48
(g64
g50
NtRp1835
(dp1836
g53
(dp1837
sg62
g58
sg55
(lp1838
g48
(g69
g50
NtRp1839
(dp1840
g53
(dp1841
g73
g74
ssg62
g1835
sg55
(lp1842
S'is_local'
p1843
asbag48
(g69
g50
NtRp1844
(dp1845
g53
(dp1846
g80
g81
ssg62
g1835
sg55
(lp1847
S':'
asbag48
(g69
g50
NtRp1848
(dp1849
g53
(dp1850
sg62
g1835
sg55
(lp1851
g48
(g49
g50
NtRp1852
(dp1853
g53
(dp1854
g61
I5
ssg62
g1848
sg55
(lp1855
g1630
asbasbasbag48
(g64
g50
NtRp1856
(dp1857
g53
(dp1858
sg62
g58
sg55
(lp1859
g48
(g69
g50
NtRp1860
(dp1861
g53
(dp1862
g73
g74
ssg62
g1856
sg55
(lp1863
S'is_restful'
p1864
asbag48
(g69
g50
NtRp1865
(dp1866
g53
(dp1867
g80
g81
ssg62
g1856
sg55
(lp1868
S':'
asbag48
(g69
g50
NtRp1869
(dp1870
g53
(dp1871
sg62
g1856
sg55
(lp1872
g48
(g49
g50
NtRp1873
(dp1874
g53
(dp1875
g61
I5
ssg62
g1869
sg55
(lp1876
g91
asbasbasbag48
(g64
g50
NtRp1877
(dp1878
g53
(dp1879
sg62
g58
sg55
(lp1880
g48
(g69
g50
NtRp1881
(dp1882
g53
(dp1883
g73
g74
ssg62
g1877
sg55
(lp1884
S'now'
p1885
asbag48
(g69
g50
NtRp1886
(dp1887
g53
(dp1888
g80
g81
ssg62
g1877
sg55
(lp1889
S':'
asbag48
(g69
g50
NtRp1890
(dp1891
g53
(dp1892
sg62
g1877
sg55
(lp1893
g48
(g49
g50
NtRp1894
(dp1895
g53
(dp1896
g61
I5
ssg62
g1890
sg55
(lp1897
S'datetime.datetime(2011, 9, 7, 2, 32, 5, 166000)'
p1898
asbasbasbag48
(g64
g50
NtRp1899
(dp1900
g53
(dp1901
sg62
g58
sg55
(lp1902
g48
(g69
g50
NtRp1903
(dp1904
g53
(dp1905
g73
g74
ssg62
g1899
sg55
(lp1906
S'post_vars'
p1907
asbag48
(g69
g50
NtRp1908
(dp1909
g53
(dp1910
g80
g81
ssg62
g1899
sg55
(lp1911
S':'
asbag48
(g69
g50
NtRp1912
(dp1913
g53
(dp1914
sg62
g1899
sg55
(lp1915
g48
(g49
g50
NtRp1916
(dp1917
g53
(dp1918
g61
I5
ssg62
g1912
sg55
(lp1919
g48
(g57
g50
NtRp1920
(dp1921
g53
(dp1922
g61
I4
ssg62
Nsg55
(lp1923
g48
(g64
g50
NtRp1924
(dp1925
g53
(dp1926
sg62
g1920
sg55
(lp1927
g48
(g69
g50
NtRp1928
(dp1929
g53
(dp1930
g73
g74
ssg62
g1924
sg55
(lp1931
S'movien'
p1932
asbag48
(g69
g50
NtRp1933
(dp1934
g53
(dp1935
g80
g81
ssg62
g1924
sg55
(lp1936
S':'
asbag48
(g69
g50
NtRp1937
(dp1938
g53
(dp1939
sg62
g1924
sg55
(lp1940
g48
(g49
g50
NtRp1941
(dp1942
g53
(dp1943
g61
I4
ssg62
g1937
sg55
(lp1944
S''
asbasbasbag48
(g64
g50
NtRp1945
(dp1946
g53
(dp1947
sg62
g1920
sg55
(lp1948
g48
(g69
g50
NtRp1949
(dp1950
g53
(dp1951
g73
g74
ssg62
g1945
sg55
(lp1952
S'namen'
p1953
asbag48
(g69
g50
NtRp1954
(dp1955
g53
(dp1956
g80
g81
ssg62
g1945
sg55
(lp1957
S':'
asbag48
(g69
g50
NtRp1958
(dp1959
g53
(dp1960
sg62
g1945
sg55
(lp1961
g48
(g49
g50
NtRp1962
(dp1963
g53
(dp1964
g61
I4
ssg62
g1958
sg55
(lp1965
S'7'
asbasbasbasbasbasbasbag48
(g64
g50
NtRp1966
(dp1967
g53
(dp1968
sg62
g58
sg55
(lp1969
g48
(g69
g50
NtRp1970
(dp1971
g53
(dp1972
g73
g74
ssg62
g1966
sg55
(lp1973
S'url'
p1974
asbag48
(g69
g50
NtRp1975
(dp1976
g53
(dp1977
g80
g81
ssg62
g1966
sg55
(lp1978
S':'
asbag48
(g69
g50
NtRp1979
(dp1980
g53
(dp1981
sg62
g1966
sg55
(lp1982
g48
(g49
g50
NtRp1983
(dp1984
g53
(dp1985
g61
I5
ssg62
g1979
sg55
(lp1986
S'/201056161/default/new'
p1987
asbasbasbag48
(g64
g50
NtRp1988
(dp1989
g53
(dp1990
sg62
g58
sg55
(lp1991
g48
(g69
g50
NtRp1992
(dp1993
g53
(dp1994
g73
g74
ssg62
g1988
sg55
(lp1995
S'uuid'
p1996
asbag48
(g69
g50
NtRp1997
(dp1998
g53
(dp1999
g80
g81
ssg62
g1988
sg55
(lp2000
S':'
asbag48
(g69
g50
NtRp2001
(dp2002
g53
(dp2003
sg62
g1988
sg55
(lp2004
g48
(g49
g50
NtRp2005
(dp2006
g53
(dp2007
g61
I5
ssg62
g2001
sg55
(lp2008
S'201056161/127.0.0.1.2011-09-07.02-32-05.cb63bc51-8396-4675-bb33-a2f45489d333'
p2009
asbasbasbag48
(g64
g50
NtRp2010
(dp2011
g53
(dp2012
sg62
g58
sg55
(lp2013
g48
(g69
g50
NtRp2014
(dp2015
g53
(dp2016
g73
g74
ssg62
g2010
sg55
(lp2017
S'vars'
p2018
asbag48
(g69
g50
NtRp2019
(dp2020
g53
(dp2021
g80
g81
ssg62
g2010
sg55
(lp2022
S':'
asbag48
(g69
g50
NtRp2023
(dp2024
g53
(dp2025
sg62
g2010
sg55
(lp2026
g48
(g49
g50
NtRp2027
(dp2028
g53
(dp2029
g61
I5
ssg62
g2023
sg55
(lp2030
g48
(g57
g50
NtRp2031
(dp2032
g53
(dp2033
g61
I4
ssg62
Nsg55
(lp2034
g48
(g64
g50
NtRp2035
(dp2036
g53
(dp2037
sg62
g2031
sg55
(lp2038
g48
(g69
g50
NtRp2039
(dp2040
g53
(dp2041
g73
g74
ssg62
g2035
sg55
(lp2042
g1932
asbag48
(g69
g50
NtRp2043
(dp2044
g53
(dp2045
g80
g81
ssg62
g2035
sg55
(lp2046
S':'
asbag48
(g69
g50
NtRp2047
(dp2048
g53
(dp2049
sg62
g2035
sg55
(lp2050
g48
(g49
g50
NtRp2051
(dp2052
g53
(dp2053
g61
I4
ssg62
g2047
sg55
(lp2054
S''
asbasbasbag48
(g64
g50
NtRp2055
(dp2056
g53
(dp2057
sg62
g2031
sg55
(lp2058
g48
(g69
g50
NtRp2059
(dp2060
g53
(dp2061
g73
g74
ssg62
g2055
sg55
(lp2062
g1953
asbag48
(g69
g50
NtRp2063
(dp2064
g53
(dp2065
g80
g81
ssg62
g2055
sg55
(lp2066
S':'
asbag48
(g69
g50
NtRp2067
(dp2068
g53
(dp2069
sg62
g2055
sg55
(lp2070
g48
(g49
g50
NtRp2071
(dp2072
g53
(dp2073
g61
I4
ssg62
g2067
sg55
(lp2074
S'7'
asbasbasbasbasbasbasbag48
(g64
g50
NtRp2075
(dp2076
g53
(dp2077
sg62
g58
sg55
(lp2078
g48
(g69
g50
NtRp2079
(dp2080
g53
(dp2081
g73
g74
ssg62
g2075
sg55
(lp2082
S'wsgi'
p2083
asbag48
(g69
g50
NtRp2084
(dp2085
g53
(dp2086
g80
g81
ssg62
g2075
sg55
(lp2087
S':'
asbag48
(g69
g50
NtRp2088
(dp2089
g53
(dp2090
sg62
g2075
sg55
(lp2091
g48
(g49
g50
NtRp2092
(dp2093
g53
(dp2094
g61
I5
ssg62
g2088
sg55
(lp2095
g48
(g57
g50
NtRp2096
(dp2097
g53
(dp2098
g61
I4
ssg62
Nsg55
(lp2099
g48
(g64
g50
NtRp2100
(dp2101
g53
(dp2102
sg62
g2096
sg55
(lp2103
g48
(g69
g50
NtRp2104
(dp2105
g53
(dp2106
g73
g74
ssg62
g2100
sg55
(lp2107
S'environ'
p2108
asbag48
(g69
g50
NtRp2109
(dp2110
g53
(dp2111
g80
g81
ssg62
g2100
sg55
(lp2112
S':'
asbag48
(g69
g50
NtRp2113
(dp2114
g53
(dp2115
sg62
g2100
sg55
(lp2116
g48
(g49
g50
NtRp2117
(dp2118
g53
(dp2119
g61
I4
ssg62
g2113
sg55
(lp2120
g48
(g57
g50
NtRp2121
(dp2122
g53
(dp2123
g61
I3
ssg62
Nsg55
(lp2124
g48
(g64
g50
NtRp2125
(dp2126
g53
(dp2127
sg62
g2121
sg55
(lp2128
g48
(g69
g50
NtRp2129
(dp2130
g53
(dp2131
g73
g74
ssg62
g2125
sg55
(lp2132
S'CONTENT_LENGTH'
p2133
asbag48
(g69
g50
NtRp2134
(dp2135
g53
(dp2136
g80
g81
ssg62
g2125
sg55
(lp2137
S':'
asbag48
(g69
g50
NtRp2138
(dp2139
g53
(dp2140
sg62
g2125
sg55
(lp2141
g48
(g49
g50
NtRp2142
(dp2143
g53
(dp2144
g61
I3
ssg62
g2138
sg55
(lp2145
g868
asbasbasbag48
(g64
g50
NtRp2146
(dp2147
g53
(dp2148
sg62
g2121
sg55
(lp2149
g48
(g69
g50
NtRp2150
(dp2151
g53
(dp2152
g73
g74
ssg62
g2146
sg55
(lp2153
S'CONTENT_TYPE'
p2154
asbag48
(g69
g50
NtRp2155
(dp2156
g53
(dp2157
g80
g81
ssg62
g2146
sg55
(lp2158
S':'
asbag48
(g69
g50
NtRp2159
(dp2160
g53
(dp2161
sg62
g2146
sg55
(lp2162
g48
(g49
g50
NtRp2163
(dp2164
g53
(dp2165
g61
I3
ssg62
g2159
sg55
(lp2166
g890
asbasbasbag48
(g64
g50
NtRp2167
(dp2168
g53
(dp2169
sg62
g2121
sg55
(lp2170
g48
(g69
g50
NtRp2171
(dp2172
g53
(dp2173
g73
g74
ssg62
g2167
sg55
(lp2174
S'HTTP_ACCEPT'
p2175
asbag48
(g69
g50
NtRp2176
(dp2177
g53
(dp2178
g80
g81
ssg62
g2167
sg55
(lp2179
S':'
asbag48
(g69
g50
NtRp2180
(dp2181
g53
(dp2182
sg62
g2167
sg55
(lp2183
g48
(g49
g50
NtRp2184
(dp2185
g53
(dp2186
g61
I3
ssg62
g2180
sg55
(lp2187
g977
asbasbasbag48
(g64
g50
NtRp2188
(dp2189
g53
(dp2190
sg62
g2121
sg55
(lp2191
g48
(g69
g50
NtRp2192
(dp2193
g53
(dp2194
g73
g74
ssg62
g2188
sg55
(lp2195
S'HTTP_ACCEPT_CHARSET'
p2196
asbag48
(g69
g50
NtRp2197
(dp2198
g53
(dp2199
g80
g81
ssg62
g2188
sg55
(lp2200
S':'
asbag48
(g69
g50
NtRp2201
(dp2202
g53
(dp2203
sg62
g2188
sg55
(lp2204
g48
(g49
g50
NtRp2205
(dp2206
g53
(dp2207
g61
I3
ssg62
g2201
sg55
(lp2208
g999
asbasbasbag48
(g64
g50
NtRp2209
(dp2210
g53
(dp2211
sg62
g2121
sg55
(lp2212
g48
(g69
g50
NtRp2213
(dp2214
g53
(dp2215
g73
g74
ssg62
g2209
sg55
(lp2216
S'HTTP_ACCEPT_ENCODING'
p2217
asbag48
(g69
g50
NtRp2218
(dp2219
g53
(dp2220
g80
g81
ssg62
g2209
sg55
(lp2221
S':'
asbag48
(g69
g50
NtRp2222
(dp2223
g53
(dp2224
sg62
g2209
sg55
(lp2225
g48
(g49
g50
NtRp2226
(dp2227
g53
(dp2228
g61
I3
ssg62
g2222
sg55
(lp2229
g1021
asbasbasbag48
(g64
g50
NtRp2230
(dp2231
g53
(dp2232
sg62
g2121
sg55
(lp2233
g48
(g69
g50
NtRp2234
(dp2235
g53
(dp2236
g73
g74
ssg62
g2230
sg55
(lp2237
S'HTTP_ACCEPT_LANGUAGE'
p2238
asbag48
(g69
g50
NtRp2239
(dp2240
g53
(dp2241
g80
g81
ssg62
g2230
sg55
(lp2242
S':'
asbag48
(g69
g50
NtRp2243
(dp2244
g53
(dp2245
sg62
g2230
sg55
(lp2246
g48
(g49
g50
NtRp2247
(dp2248
g53
(dp2249
g61
I3
ssg62
g2243
sg55
(lp2250
g1043
asbasbasbag48
(g64
g50
NtRp2251
(dp2252
g53
(dp2253
sg62
g2121
sg55
(lp2254
g48
(g69
g50
NtRp2255
(dp2256
g53
(dp2257
g73
g74
ssg62
g2251
sg55
(lp2258
S'HTTP_CACHE_CONTROL'
p2259
asbag48
(g69
g50
NtRp2260
(dp2261
g53
(dp2262
g80
g81
ssg62
g2251
sg55
(lp2263
S':'
asbag48
(g69
g50
NtRp2264
(dp2265
g53
(dp2266
sg62
g2251
sg55
(lp2267
g48
(g49
g50
NtRp2268
(dp2269
g53
(dp2270
g61
I3
ssg62
g2264
sg55
(lp2271
g1065
asbasbasbag48
(g64
g50
NtRp2272
(dp2273
g53
(dp2274
sg62
g2121
sg55
(lp2275
g48
(g69
g50
NtRp2276
(dp2277
g53
(dp2278
g73
g74
ssg62
g2272
sg55
(lp2279
S'HTTP_CONNECTION'
p2280
asbag48
(g69
g50
NtRp2281
(dp2282
g53
(dp2283
g80
g81
ssg62
g2272
sg55
(lp2284
S':'
asbag48
(g69
g50
NtRp2285
(dp2286
g53
(dp2287
sg62
g2272
sg55
(lp2288
g48
(g49
g50
NtRp2289
(dp2290
g53
(dp2291
g61
I3
ssg62
g2285
sg55
(lp2292
g1087
asbasbasbag48
(g64
g50
NtRp2293
(dp2294
g53
(dp2295
sg62
g2121
sg55
(lp2296
g48
(g69
g50
NtRp2297
(dp2298
g53
(dp2299
g73
g74
ssg62
g2293
sg55
(lp2300
S'HTTP_CONTENT_LENGTH'
p2301
asbag48
(g69
g50
NtRp2302
(dp2303
g53
(dp2304
g80
g81
ssg62
g2293
sg55
(lp2305
S':'
asbag48
(g69
g50
NtRp2306
(dp2307
g53
(dp2308
sg62
g2293
sg55
(lp2309
g48
(g49
g50
NtRp2310
(dp2311
g53
(dp2312
g61
I3
ssg62
g2306
sg55
(lp2313
g868
asbasbasbag48
(g64
g50
NtRp2314
(dp2315
g53
(dp2316
sg62
g2121
sg55
(lp2317
g48
(g69
g50
NtRp2318
(dp2319
g53
(dp2320
g73
g74
ssg62
g2314
sg55
(lp2321
S'HTTP_CONTENT_TYPE'
p2322
asbag48
(g69
g50
NtRp2323
(dp2324
g53
(dp2325
g80
g81
ssg62
g2314
sg55
(lp2326
S':'
asbag48
(g69
g50
NtRp2327
(dp2328
g53
(dp2329
sg62
g2314
sg55
(lp2330
g48
(g49
g50
NtRp2331
(dp2332
g53
(dp2333
g61
I3
ssg62
g2327
sg55
(lp2334
g890
asbasbasbag48
(g64
g50
NtRp2335
(dp2336
g53
(dp2337
sg62
g2121
sg55
(lp2338
g48
(g69
g50
NtRp2339
(dp2340
g53
(dp2341
g73
g74
ssg62
g2335
sg55
(lp2342
S'HTTP_COOKIE'
p2343
asbag48
(g69
g50
NtRp2344
(dp2345
g53
(dp2346
g80
g81
ssg62
g2335
sg55
(lp2347
S':'
asbag48
(g69
g50
NtRp2348
(dp2349
g53
(dp2350
sg62
g2335
sg55
(lp2351
g48
(g49
g50
NtRp2352
(dp2353
g53
(dp2354
g61
I3
ssg62
g2348
sg55
(lp2355
g1151
asbasbasbag48
(g64
g50
NtRp2356
(dp2357
g53
(dp2358
sg62
g2121
sg55
(lp2359
g48
(g69
g50
NtRp2360
(dp2361
g53
(dp2362
g73
g74
ssg62
g2356
sg55
(lp2363
S'HTTP_HOST'
p2364
asbag48
(g69
g50
NtRp2365
(dp2366
g53
(dp2367
g80
g81
ssg62
g2356
sg55
(lp2368
S':'
asbag48
(g69
g50
NtRp2369
(dp2370
g53
(dp2371
sg62
g2356
sg55
(lp2372
g48
(g49
g50
NtRp2373
(dp2374
g53
(dp2375
g61
I3
ssg62
g2369
sg55
(lp2376
g1173
asbasbasbag48
(g64
g50
NtRp2377
(dp2378
g53
(dp2379
sg62
g2121
sg55
(lp2380
g48
(g69
g50
NtRp2381
(dp2382
g53
(dp2383
g73
g74
ssg62
g2377
sg55
(lp2384
S'HTTP_ORIGIN'
p2385
asbag48
(g69
g50
NtRp2386
(dp2387
g53
(dp2388
g80
g81
ssg62
g2377
sg55
(lp2389
S':'
asbag48
(g69
g50
NtRp2390
(dp2391
g53
(dp2392
sg62
g2377
sg55
(lp2393
g48
(g49
g50
NtRp2394
(dp2395
g53
(dp2396
g61
I3
ssg62
g2390
sg55
(lp2397
g1195
asbasbasbag48
(g64
g50
NtRp2398
(dp2399
g53
(dp2400
sg62
g2121
sg55
(lp2401
g48
(g69
g50
NtRp2402
(dp2403
g53
(dp2404
g73
g74
ssg62
g2398
sg55
(lp2405
S'HTTP_REFERER'
p2406
asbag48
(g69
g50
NtRp2407
(dp2408
g53
(dp2409
g80
g81
ssg62
g2398
sg55
(lp2410
S':'
asbag48
(g69
g50
NtRp2411
(dp2412
g53
(dp2413
sg62
g2398
sg55
(lp2414
g48
(g49
g50
NtRp2415
(dp2416
g53
(dp2417
g61
I3
ssg62
g2411
sg55
(lp2418
g1217
asbasbasbag48
(g64
g50
NtRp2419
(dp2420
g53
(dp2421
sg62
g2121
sg55
(lp2422
g48
(g69
g50
NtRp2423
(dp2424
g53
(dp2425
g73
g74
ssg62
g2419
sg55
(lp2426
S'HTTP_USER_AGENT'
p2427
asbag48
(g69
g50
NtRp2428
(dp2429
g53
(dp2430
g80
g81
ssg62
g2419
sg55
(lp2431
S':'
asbag48
(g69
g50
NtRp2432
(dp2433
g53
(dp2434
sg62
g2419
sg55
(lp2435
g48
(g49
g50
NtRp2436
(dp2437
g53
(dp2438
g61
I3
ssg62
g2432
sg55
(lp2439
g1239
asbasbasbag48
(g64
g50
NtRp2440
(dp2441
g53
(dp2442
sg62
g2121
sg55
(lp2443
g48
(g69
g50
NtRp2444
(dp2445
g53
(dp2446
g73
g74
ssg62
g2440
sg55
(lp2447
S'PATH_INFO'
p2448
asbag48
(g69
g50
NtRp2449
(dp2450
g53
(dp2451
g80
g81
ssg62
g2440
sg55
(lp2452
S':'
asbag48
(g69
g50
NtRp2453
(dp2454
g53
(dp2455
sg62
g2440
sg55
(lp2456
g48
(g49
g50
NtRp2457
(dp2458
g53
(dp2459
g61
I3
ssg62
g2453
sg55
(lp2460
g1261
asbasbasbag48
(g64
g50
NtRp2461
(dp2462
g53
(dp2463
sg62
g2121
sg55
(lp2464
g48
(g69
g50
NtRp2465
(dp2466
g53
(dp2467
g73
g74
ssg62
g2461
sg55
(lp2468
S'QUERY_STRING'
p2469
asbag48
(g69
g50
NtRp2470
(dp2471
g53
(dp2472
g80
g81
ssg62
g2461
sg55
(lp2473
S':'
asbag48
(g69
g50
NtRp2474
(dp2475
g53
(dp2476
sg62
g2461
sg55
(lp2477
g48
(g49
g50
NtRp2478
(dp2479
g53
(dp2480
g61
I3
ssg62
g2474
sg55
(lp2481
S''
asbasbasbag48
(g64
g50
NtRp2482
(dp2483
g53
(dp2484
sg62
g2121
sg55
(lp2485
g48
(g69
g50
NtRp2486
(dp2487
g53
(dp2488
g73
g74
ssg62
g2482
sg55
(lp2489
S'REMOTE_ADDR'
p2490
asbag48
(g69
g50
NtRp2491
(dp2492
g53
(dp2493
g80
g81
ssg62
g2482
sg55
(lp2494
S':'
asbag48
(g69
g50
NtRp2495
(dp2496
g53
(dp2497
sg62
g2482
sg55
(lp2498
g48
(g49
g50
NtRp2499
(dp2500
g53
(dp2501
g61
I3
ssg62
g2495
sg55
(lp2502
g181
asbasbasbag48
(g64
g50
NtRp2503
(dp2504
g53
(dp2505
sg62
g2121
sg55
(lp2506
g48
(g69
g50
NtRp2507
(dp2508
g53
(dp2509
g73
g74
ssg62
g2503
sg55
(lp2510
S'REMOTE_PORT'
p2511
asbag48
(g69
g50
NtRp2512
(dp2513
g53
(dp2514
g80
g81
ssg62
g2503
sg55
(lp2515
S':'
asbag48
(g69
g50
NtRp2516
(dp2517
g53
(dp2518
sg62
g2503
sg55
(lp2519
g48
(g49
g50
NtRp2520
(dp2521
g53
(dp2522
g61
I3
ssg62
g2516
sg55
(lp2523
g1325
asbasbasbag48
(g64
g50
NtRp2524
(dp2525
g53
(dp2526
sg62
g2121
sg55
(lp2527
g48
(g69
g50
NtRp2528
(dp2529
g53
(dp2530
g73
g74
ssg62
g2524
sg55
(lp2531
S'REQUEST_METHOD'
p2532
asbag48
(g69
g50
NtRp2533
(dp2534
g53
(dp2535
g80
g81
ssg62
g2524
sg55
(lp2536
S':'
asbag48
(g69
g50
NtRp2537
(dp2538
g53
(dp2539
sg62
g2524
sg55
(lp2540
g48
(g49
g50
NtRp2541
(dp2542
g53
(dp2543
g61
I3
ssg62
g2537
sg55
(lp2544
g1347
asbasbasbag48
(g64
g50
NtRp2545
(dp2546
g53
(dp2547
sg62
g2121
sg55
(lp2548
g48
(g69
g50
NtRp2549
(dp2550
g53
(dp2551
g73
g74
ssg62
g2545
sg55
(lp2552
S'SCRIPT_NAME'
p2553
asbag48
(g69
g50
NtRp2554
(dp2555
g53
(dp2556
g80
g81
ssg62
g2545
sg55
(lp2557
S':'
asbag48
(g69
g50
NtRp2558
(dp2559
g53
(dp2560
sg62
g2545
sg55
(lp2561
g48
(g49
g50
NtRp2562
(dp2563
g53
(dp2564
g61
I3
ssg62
g2558
sg55
(lp2565
S''
asbasbasbag48
(g64
g50
NtRp2566
(dp2567
g53
(dp2568
sg62
g2121
sg55
(lp2569
g48
(g69
g50
NtRp2570
(dp2571
g53
(dp2572
g73
g74
ssg62
g2566
sg55
(lp2573
S'SERVER_NAME'
p2574
asbag48
(g69
g50
NtRp2575
(dp2576
g53
(dp2577
g80
g81
ssg62
g2566
sg55
(lp2578
S':'
asbag48
(g69
g50
NtRp2579
(dp2580
g53
(dp2581
sg62
g2566
sg55
(lp2582
g48
(g49
g50
NtRp2583
(dp2584
g53
(dp2585
g61
I3
ssg62
g2579
sg55
(lp2586
g1390
asbasbasbag48
(g64
g50
NtRp2587
(dp2588
g53
(dp2589
sg62
g2121
sg55
(lp2590
g48
(g69
g50
NtRp2591
(dp2592
g53
(dp2593
g73
g74
ssg62
g2587
sg55
(lp2594
S'SERVER_PORT'
p2595
asbag48
(g69
g50
NtRp2596
(dp2597
g53
(dp2598
g80
g81
ssg62
g2587
sg55
(lp2599
S':'
asbag48
(g69
g50
NtRp2600
(dp2601
g53
(dp2602
sg62
g2587
sg55
(lp2603
g48
(g49
g50
NtRp2604
(dp2605
g53
(dp2606
g61
I3
ssg62
g2600
sg55
(lp2607
g1412
asbasbasbag48
(g64
g50
NtRp2608
(dp2609
g53
(dp2610
sg62
g2121
sg55
(lp2611
g48
(g69
g50
NtRp2612
(dp2613
g53
(dp2614
g73
g74
ssg62
g2608
sg55
(lp2615
S'SERVER_PROTOCOL'
p2616
asbag48
(g69
g50
NtRp2617
(dp2618
g53
(dp2619
g80
g81
ssg62
g2608
sg55
(lp2620
S':'
asbag48
(g69
g50
NtRp2621
(dp2622
g53
(dp2623
sg62
g2608
sg55
(lp2624
g48
(g49
g50
NtRp2625
(dp2626
g53
(dp2627
g61
I3
ssg62
g2621
sg55
(lp2628
g1434
asbasbasbag48
(g64
g50
NtRp2629
(dp2630
g53
(dp2631
sg62
g2121
sg55
(lp2632
g48
(g69
g50
NtRp2633
(dp2634
g53
(dp2635
g73
g74
ssg62
g2629
sg55
(lp2636
S'SERVER_SOFTWARE'
p2637
asbag48
(g69
g50
NtRp2638
(dp2639
g53
(dp2640
g80
g81
ssg62
g2629
sg55
(lp2641
S':'
asbag48
(g69
g50
NtRp2642
(dp2643
g53
(dp2644
sg62
g2629
sg55
(lp2645
g48
(g49
g50
NtRp2646
(dp2647
g53
(dp2648
g61
I3
ssg62
g2642
sg55
(lp2649
g1456
asbasbasbag48
(g64
g50
NtRp2650
(dp2651
g53
(dp2652
sg62
g2121
sg55
(lp2653
g48
(g69
g50
NtRp2654
(dp2655
g53
(dp2656
g73
g74
ssg62
g2650
sg55
(lp2657
S'wsgi.errors'
p2658
asbag48
(g69
g50
NtRp2659
(dp2660
g53
(dp2661
g80
g81
ssg62
g2650
sg55
(lp2662
S':'
asbag48
(g69
g50
NtRp2663
(dp2664
g53
(dp2665
sg62
g2650
sg55
(lp2666
g48
(g49
g50
NtRp2667
(dp2668
g53
(dp2669
g61
I3
ssg62
g2663
sg55
(lp2670
S"<open file '<stderr>', mode 'w' at 0x002500B0>"
p2671
asbasbasbag48
(g64
g50
NtRp2672
(dp2673
g53
(dp2674
sg62
g2121
sg55
(lp2675
g48
(g69
g50
NtRp2676
(dp2677
g53
(dp2678
g73
g74
ssg62
g2672
sg55
(lp2679
S'wsgi.file_wrapper'
p2680
asbag48
(g69
g50
NtRp2681
(dp2682
g53
(dp2683
g80
g81
ssg62
g2672
sg55
(lp2684
S':'
asbag48
(g69
g50
NtRp2685
(dp2686
g53
(dp2687
sg62
g2672
sg55
(lp2688
g48
(g49
g50
NtRp2689
(dp2690
g53
(dp2691
g61
I3
ssg62
g2685
sg55
(lp2692
S'<class gluon.rocket.FileWrapper at 0x03132BA0>'
p2693
asbasbasbag48
(g64
g50
NtRp2694
(dp2695
g53
(dp2696
sg62
g2121
sg55
(lp2697
g48
(g69
g50
NtRp2698
(dp2699
g53
(dp2700
g73
g74
ssg62
g2694
sg55
(lp2701
S'wsgi.input'
p2702
asbag48
(g69
g50
NtRp2703
(dp2704
g53
(dp2705
g80
g81
ssg62
g2694
sg55
(lp2706
S':'
asbag48
(g69
g50
NtRp2707
(dp2708
g53
(dp2709
sg62
g2694
sg55
(lp2710
g48
(g49
g50
NtRp2711
(dp2712
g53
(dp2713
g61
I3
ssg62
g2707
sg55
(lp2714
S"<open file '<fdopen>', mode 'w+b' at 0x06F5AA88>"
p2715
asbasbasbag48
(g64
g50
NtRp2716
(dp2717
g53
(dp2718
sg62
g2121
sg55
(lp2719
g48
(g69
g50
NtRp2720
(dp2721
g53
(dp2722
g73
g74
ssg62
g2716
sg55
(lp2723
S'wsgi.multiprocess'
p2724
asbag48
(g69
g50
NtRp2725
(dp2726
g53
(dp2727
g80
g81
ssg62
g2716
sg55
(lp2728
S':'
asbag48
(g69
g50
NtRp2729
(dp2730
g53
(dp2731
sg62
g2716
sg55
(lp2732
g48
(g49
g50
NtRp2733
(dp2734
g53
(dp2735
g61
I3
ssg62
g2729
sg55
(lp2736
g91
asbasbasbag48
(g64
g50
NtRp2737
(dp2738
g53
(dp2739
sg62
g2121
sg55
(lp2740
g48
(g69
g50
NtRp2741
(dp2742
g53
(dp2743
g73
g74
ssg62
g2737
sg55
(lp2744
S'wsgi.multithread'
p2745
asbag48
(g69
g50
NtRp2746
(dp2747
g53
(dp2748
g80
g81
ssg62
g2737
sg55
(lp2749
S':'
asbag48
(g69
g50
NtRp2750
(dp2751
g53
(dp2752
sg62
g2737
sg55
(lp2753
g48
(g49
g50
NtRp2754
(dp2755
g53
(dp2756
g61
I3
ssg62
g2750
sg55
(lp2757
g1630
asbasbasbag48
(g64
g50
NtRp2758
(dp2759
g53
(dp2760
sg62
g2121
sg55
(lp2761
g48
(g69
g50
NtRp2762
(dp2763
g53
(dp2764
g73
g74
ssg62
g2758
sg55
(lp2765
S'wsgi.run_once'
p2766
asbag48
(g69
g50
NtRp2767
(dp2768
g53
(dp2769
g80
g81
ssg62
g2758
sg55
(lp2770
S':'
asbag48
(g69
g50
NtRp2771
(dp2772
g53
(dp2773
sg62
g2758
sg55
(lp2774
g48
(g49
g50
NtRp2775
(dp2776
g53
(dp2777
g61
I3
ssg62
g2771
sg55
(lp2778
g91
asbasbasbag48
(g64
g50
NtRp2779
(dp2780
g53
(dp2781
sg62
g2121
sg55
(lp2782
g48
(g69
g50
NtRp2783
(dp2784
g53
(dp2785
g73
g74
ssg62
g2779
sg55
(lp2786
S'wsgi.url_scheme'
p2787
asbag48
(g69
g50
NtRp2788
(dp2789
g53
(dp2790
g80
g81
ssg62
g2779
sg55
(lp2791
S':'
asbag48
(g69
g50
NtRp2792
(dp2793
g53
(dp2794
sg62
g2779
sg55
(lp2795
g48
(g49
g50
NtRp2796
(dp2797
g53
(dp2798
g61
I3
ssg62
g2792
sg55
(lp2799
g1673
asbasbasbag48
(g64
g50
NtRp2800
(dp2801
g53
(dp2802
sg62
g2121
sg55
(lp2803
g48
(g69
g50
NtRp2804
(dp2805
g53
(dp2806
g73
g74
ssg62
g2800
sg55
(lp2807
S'wsgi.version'
p2808
asbag48
(g69
g50
NtRp2809
(dp2810
g53
(dp2811
g80
g81
ssg62
g2800
sg55
(lp2812
S':'
asbag48
(g69
g50
NtRp2813
(dp2814
g53
(dp2815
sg62
g2800
sg55
(lp2816
g48
(g49
g50
NtRp2817
(dp2818
g53
(dp2819
g61
I3
ssg62
g2813
sg55
(lp2820
S'1'
asbasbasbasbasbasbasbasbasbasbasbasbasbsS'frames'
p2821
(lp2822
(dp2823
S'file'
p2824
S'C:\\Users\\AKSHAY\\Desktop\\web2py\\gluon\\restricted.py'
p2825
sS'dump'
p2826
(dp2827
sS'lnum'
p2828
I192
sS'lines'
p2829
(dp2830
sS'call'
p2831
S"(code='# -*- coding: utf-8 -*-\\n# this file is released ...rows=rows)\\n\\nresponse._vars=response._caller(new)\\n', environment={'A': <class 'gluon.html.A'>, 'Auth': <class 'gluon.tools.Auth'>, 'B': <class 'gluon.html.B'>, 'BEAUTIFY': <class 'gluon.html.BEAUTIFY'>, 'BODY': <class 'gluon.html.BODY'>, 'BR': <class 'gluon.html.BR'>, 'BUTTON': <class 'gluon.html.BUTTON'>, 'CENTER': <class 'gluon.html.CENTER'>, 'CLEANUP': <class 'gluon.validators.CLEANUP'>, 'CODE': <class 'gluon.html.CODE'>, ...}, layer=r'C:\\Users\\AKSHAY\\Desktop\\web2py\\applications\\201056161\\controllers/default.py')"
p2832
sS'func'
p2833
S'restricted'
p2834
sa(dp2835
g2824
S'C:\\Users\\AKSHAY\\Desktop\\web2py\\applications\\201056161\\controllers\\default.py'
p2836
sg2826
(dp2837
sg2828
I169
sg2829
(dp2838
I160
S'    #here whatever be always sname will be referred by id !'
p2839
sI161
S'    rows=db(db.song.singer==sname).select(db.song.name)'
p2840
sI162
S'    return dict(rows=rows)'
p2841
sI163
S'  else:'
p2842
sI164
S'    sname=str(request.vars.namen)'
p2843
sI165
S'    movien=str(request.vars.movien)'
p2844
sI166
S'    rows=db((db.song.singer==sname) & (db.song.movie==movien)).select(db.song.name)'
p2845
sI167
S'    return dict(rows=rows)'
p2846
sI158
S'  if len(request.vars.movien)==0:'
p2847
sI159
S'    sname=str(request.vars.namen)'
p2848
ssg2831
S'()'
p2849
sg2833
S'<module>'
p2850
sa(dp2851
g2824
S'C:\\Users\\AKSHAY\\Desktop\\web2py\\gluon\\globals.py'
p2852
sg2826
(dp2853
sg2828
I137
sg2829
(dp2854
sg2831
S'(f=<function new at 0x06C298B0>)'
p2855
sg2833
S'<lambda>'
p2856
sa(dp2857
g2824
S'C:\\Users\\AKSHAY\\Desktop\\web2py\\applications\\201056161\\controllers\\default.py'
p2858
sg2826
(dp2859
sg2828
I153
sg2829
(dp2860
I148
S'  return dict(form=form)'
p2861
sI149
S'def new():'
p2862
sI150
S"  form = SQLFORM.factory(db.Field('namen',db.artist,requires=IS_IN_DB(db,'artist.id','artist.artist_name'),label='Select Artist'),"
p2863
sI151
S"                         db.Field('movien',db.movie,requires=IS_NULL_OR(IS_IN_DB(db,'movie.id','movie.name'))))"
p2864
sI152
S'  if form.accepts(request.vars,session):'
p2865
sI153
S"    redirect(URL(r=request, f='new2?namen='+form.vars.namen+'&movien='+form.vars.movien))"
p2866
sI154
S'  elif form.errors:'
p2867
sI155
S"    response.flash='Errors in form Please re-enter'"
p2868
sI156
S'  return dict(form=form)'
p2869
sI157
S'def new2():'
p2870
ssg2831
S'()'
p2871
sg2833
S'new'
p2872
sasS'pyver'
p2873
S'Python 2.5.4: C:\\Users\\AKSHAY\\Desktop\\web2py\\web2py.exe'
p2874
sS'session'
p2875
g48
(g49
g50
NtRp2876
(dp2877
g53
(dp2878
sg55
(lp2879
g48
(g57
g50
NtRp2880
(dp2881
g53
(dp2882
g61
I5
ssg62
Nsg55
(lp2883
sbasbsS'etype'
p2884
S"<type 'exceptions.TypeError'>"
p2885
sS'date'
p2886
S'Wed Sep 07 02:32:05 2011'
p2887
sS'response'
p2888
g48
(g49
g50
NtRp2889
(dp2890
g53
(dp2891
sg55
(lp2892
g48
(g57
g50
NtRp2893
(dp2894
g53
(dp2895
g61
I5
ssg62
Nsg55
(lp2896
g48
(g64
g50
NtRp2897
(dp2898
g53
(dp2899
sg62
g2893
sg55
(lp2900
g48
(g69
g50
NtRp2901
(dp2902
g53
(dp2903
g73
g74
ssg62
g2897
sg55
(lp2904
g146
asbag48
(g69
g50
NtRp2905
(dp2906
g53
(dp2907
g80
g81
ssg62
g2897
sg55
(lp2908
S':'
asbag48
(g69
g50
NtRp2909
(dp2910
g53
(dp2911
sg62
g2897
sg55
(lp2912
g48
(g49
g50
NtRp2913
(dp2914
g53
(dp2915
g61
I5
ssg62
g2909
sg55
(lp2916
S'<cStringIO.StringO object at 0x06B827A0>'
p2917
asbasbasbag48
(g64
g50
NtRp2918
(dp2919
g53
(dp2920
sg62
g2893
sg55
(lp2921
g48
(g69
g50
NtRp2922
(dp2923
g53
(dp2924
g73
g74
ssg62
g2918
sg55
(lp2925
g212
asbag48
(g69
g50
NtRp2926
(dp2927
g53
(dp2928
g80
g81
ssg62
g2918
sg55
(lp2929
S':'
asbag48
(g69
g50
NtRp2930
(dp2931
g53
(dp2932
sg62
g2918
sg55
(lp2933
g48
(g49
g50
NtRp2934
(dp2935
g53
(dp2936
g61
I5
ssg62
g2930
sg55
(lp2937
g48
(g57
g50
NtRp2938
(dp2939
g53
(dp2940
g61
I4
ssg62
Nsg55
(lp2941
g48
(g64
g50
NtRp2942
(dp2943
g53
(dp2944
sg62
g2938
sg55
(lp2945
g48
(g69
g50
NtRp2946
(dp2947
g53
(dp2948
g73
g74
ssg62
g2942
sg55
(lp2949
S'session_id_201056161'
p2950
asbag48
(g69
g50
NtRp2951
(dp2952
g53
(dp2953
g80
g81
ssg62
g2942
sg55
(lp2954
S':'
asbag48
(g69
g50
NtRp2955
(dp2956
g53
(dp2957
sg62
g2942
sg55
(lp2958
g48
(g49
g50
NtRp2959
(dp2960
g53
(dp2961
g61
I4
ssg62
g2955
sg55
(lp2962
g48
(g57
g50
NtRp2963
(dp2964
g53
(dp2965
g61
I3
ssg62
Nsg55
(lp2966
g48
(g64
g50
NtRp2967
(dp2968
g53
(dp2969
sg62
g2963
sg55
(lp2970
g48
(g69
g50
NtRp2971
(dp2972
g53
(dp2973
g73
g74
ssg62
g2967
sg55
(lp2974
g262
asbag48
(g69
g50
NtRp2975
(dp2976
g53
(dp2977
g80
g81
ssg62
g2967
sg55
(lp2978
S':'
asbag48
(g69
g50
NtRp2979
(dp2980
g53
(dp2981
sg62
g2967
sg55
(lp2982
g48
(g49
g50
NtRp2983
(dp2984
g53
(dp2985
g61
I3
ssg62
g2979
sg55
(lp2986
S''
asbasbasbag48
(g64
g50
NtRp2987
(dp2988
g53
(dp2989
sg62
g2963
sg55
(lp2990
g48
(g69
g50
NtRp2991
(dp2992
g53
(dp2993
g73
g74
ssg62
g2987
sg55
(lp2994
g283
asbag48
(g69
g50
NtRp2995
(dp2996
g53
(dp2997
g80
g81
ssg62
g2987
sg55
(lp2998
S':'
asbag48
(g69
g50
NtRp2999
(dp3000
g53
(dp3001
sg62
g2987
sg55
(lp3002
g48
(g49
g50
NtRp3003
(dp3004
g53
(dp3005
g61
I3
ssg62
g2999
sg55
(lp3006
S''
asbasbasbag48
(g64
g50
NtRp3007
(dp3008
g53
(dp3009
sg62
g2963
sg55
(lp3010
g48
(g69
g50
NtRp3011
(dp3012
g53
(dp3013
g73
g74
ssg62
g3007
sg55
(lp3014
g304
asbag48
(g69
g50
NtRp3015
(dp3016
g53
(dp3017
g80
g81
ssg62
g3007
sg55
(lp3018
S':'
asbag48
(g69
g50
NtRp3019
(dp3020
g53
(dp3021
sg62
g3007
sg55
(lp3022
g48
(g49
g50
NtRp3023
(dp3024
g53
(dp3025
g61
I3
ssg62
g3019
sg55
(lp3026
S''
asbasbasbag48
(g64
g50
NtRp3027
(dp3028
g53
(dp3029
sg62
g2963
sg55
(lp3030
g48
(g69
g50
NtRp3031
(dp3032
g53
(dp3033
g73
g74
ssg62
g3027
sg55
(lp3034
g325
asbag48
(g69
g50
NtRp3035
(dp3036
g53
(dp3037
g80
g81
ssg62
g3027
sg55
(lp3038
S':'
asbag48
(g69
g50
NtRp3039
(dp3040
g53
(dp3041
sg62
g3027
sg55
(lp3042
g48
(g49
g50
NtRp3043
(dp3044
g53
(dp3045
g61
I3
ssg62
g3039
sg55
(lp3046
S''
asbasbasbag48
(g64
g50
NtRp3047
(dp3048
g53
(dp3049
sg62
g2963
sg55
(lp3050
g48
(g69
g50
NtRp3051
(dp3052
g53
(dp3053
g73
g74
ssg62
g3047
sg55
(lp3054
g346
asbag48
(g69
g50
NtRp3055
(dp3056
g53
(dp3057
g80
g81
ssg62
g3047
sg55
(lp3058
S':'
asbag48
(g69
g50
NtRp3059
(dp3060
g53
(dp3061
sg62
g3047
sg55
(lp3062
g48
(g49
g50
NtRp3063
(dp3064
g53
(dp3065
g61
I3
ssg62
g3059
sg55
(lp3066
S'/'
asbasbasbag48
(g64
g50
NtRp3067
(dp3068
g53
(dp3069
sg62
g2963
sg55
(lp3070
g48
(g69
g50
NtRp3071
(dp3072
g53
(dp3073
g73
g74
ssg62
g3067
sg55
(lp3074
g367
asbag48
(g69
g50
NtRp3075
(dp3076
g53
(dp3077
g80
g81
ssg62
g3067
sg55
(lp3078
S':'
asbag48
(g69
g50
NtRp3079
(dp3080
g53
(dp3081
sg62
g3067
sg55
(lp3082
g48
(g49
g50
NtRp3083
(dp3084
g53
(dp3085
g61
I3
ssg62
g3079
sg55
(lp3086
S''
asbasbasbag48
(g64
g50
NtRp3087
(dp3088
g53
(dp3089
sg62
g2963
sg55
(lp3090
g48
(g69
g50
NtRp3091
(dp3092
g53
(dp3093
g73
g74
ssg62
g3087
sg55
(lp3094
g388
asbag48
(g69
g50
NtRp3095
(dp3096
g53
(dp3097
g80
g81
ssg62
g3087
sg55
(lp3098
S':'
asbag48
(g69
g50
NtRp3099
(dp3100
g53
(dp3101
sg62
g3087
sg55
(lp3102
g48
(g49
g50
NtRp3103
(dp3104
g53
(dp3105
g61
I3
ssg62
g3099
sg55
(lp3106
S''
asbasbasbasbasbasbasbasbasbasbasbag48
(g64
g50
NtRp3107
(dp3108
g53
(dp3109
sg62
g2893
sg55
(lp3110
g48
(g69
g50
NtRp3111
(dp3112
g53
(dp3113
g73
g74
ssg62
g3107
sg55
(lp3114
S'files'
p3115
asbag48
(g69
g50
NtRp3116
(dp3117
g53
(dp3118
g80
g81
ssg62
g3107
sg55
(lp3119
S':'
asbag48
(g69
g50
NtRp3120
(dp3121
g53
(dp3122
sg62
g3107
sg55
(lp3123
g48
(g49
g50
NtRp3124
(dp3125
g53
(dp3126
g61
I5
ssg62
g3120
sg55
(lp3127
g48
(g57
g50
NtRp3128
(dp3129
g53
(dp3130
g61
I4
ssg62
Nsg55
(lp3131
sbasbasbasbag48
(g64
g50
NtRp3132
(dp3133
g53
(dp3134
sg62
g2893
sg55
(lp3135
g48
(g69
g50
NtRp3136
(dp3137
g53
(dp3138
g73
g74
ssg62
g3132
sg55
(lp3139
S'flash'
p3140
asbag48
(g69
g50
NtRp3141
(dp3142
g53
(dp3143
g80
g81
ssg62
g3132
sg55
(lp3144
S':'
asbag48
(g69
g50
NtRp3145
(dp3146
g53
(dp3147
sg62
g3132
sg55
(lp3148
g48
(g49
g50
NtRp3149
(dp3150
g53
(dp3151
g61
I5
ssg62
g3145
sg55
(lp3152
S''
asbasbasbag48
(g64
g50
NtRp3153
(dp3154
g53
(dp3155
sg62
g2893
sg55
(lp3156
g48
(g69
g50
NtRp3157
(dp3158
g53
(dp3159
g73
g74
ssg62
g3153
sg55
(lp3160
S'generic_patterns'
p3161
asbag48
(g69
g50
NtRp3162
(dp3163
g53
(dp3164
g80
g81
ssg62
g3153
sg55
(lp3165
S':'
asbag48
(g69
g50
NtRp3166
(dp3167
g53
(dp3168
sg62
g3153
sg55
(lp3169
g48
(g49
g50
NtRp3170
(dp3171
g53
(dp3172
g61
I5
ssg62
g3166
sg55
(lp3173
g48
(g57
g50
NtRp3174
(dp3175
g53
(dp3176
g61
I4
ssg62
Nsg55
(lp3177
g48
(g64
g50
NtRp3178
(dp3179
g53
(dp3180
sg62
g3174
sg55
(lp3181
g48
(g69
g50
NtRp3182
(dp3183
g53
(dp3184
sg62
g3178
sg55
(lp3185
g48
(g49
g50
NtRp3186
(dp3187
g53
(dp3188
g61
I4
ssg62
g3182
sg55
(lp3189
S'*'
asbasbasbasbasbasbasbag48
(g64
g50
NtRp3190
(dp3191
g53
(dp3192
sg62
g2893
sg55
(lp3193
g48
(g69
g50
NtRp3194
(dp3195
g53
(dp3196
g73
g74
ssg62
g3190
sg55
(lp3197
S'headers'
p3198
asbag48
(g69
g50
NtRp3199
(dp3200
g53
(dp3201
g80
g81
ssg62
g3190
sg55
(lp3202
S':'
asbag48
(g69
g50
NtRp3203
(dp3204
g53
(dp3205
sg62
g3190
sg55
(lp3206
g48
(g49
g50
NtRp3207
(dp3208
g53
(dp3209
g61
I5
ssg62
g3203
sg55
(lp3210
g48
(g57
g50
NtRp3211
(dp3212
g53
(dp3213
g61
I4
ssg62
Nsg55
(lp3214
g48
(g64
g50
NtRp3215
(dp3216
g53
(dp3217
sg62
g3211
sg55
(lp3218
g48
(g69
g50
NtRp3219
(dp3220
g53
(dp3221
g73
g74
ssg62
g3215
sg55
(lp3222
S'Cache-Control'
p3223
asbag48
(g69
g50
NtRp3224
(dp3225
g53
(dp3226
g80
g81
ssg62
g3215
sg55
(lp3227
S':'
asbag48
(g69
g50
NtRp3228
(dp3229
g53
(dp3230
sg62
g3215
sg55
(lp3231
g48
(g49
g50
NtRp3232
(dp3233
g53
(dp3234
g61
I4
ssg62
g3228
sg55
(lp3235
S'no-store, no-cache, must-revalidate, post-check=0, pre-check=0'
p3236
asbasbasbag48
(g64
g50
NtRp3237
(dp3238
g53
(dp3239
sg62
g3211
sg55
(lp3240
g48
(g69
g50
NtRp3241
(dp3242
g53
(dp3243
g73
g74
ssg62
g3237
sg55
(lp3244
S'Content-Type'
p3245
asbag48
(g69
g50
NtRp3246
(dp3247
g53
(dp3248
g80
g81
ssg62
g3237
sg55
(lp3249
S':'
asbag48
(g69
g50
NtRp3250
(dp3251
g53
(dp3252
sg62
g3237
sg55
(lp3253
g48
(g49
g50
NtRp3254
(dp3255
g53
(dp3256
g61
I4
ssg62
g3250
sg55
(lp3257
S'text/html; charset=utf-8'
p3258
asbasbasbag48
(g64
g50
NtRp3259
(dp3260
g53
(dp3261
sg62
g3211
sg55
(lp3262
g48
(g69
g50
NtRp3263
(dp3264
g53
(dp3265
g73
g74
ssg62
g3259
sg55
(lp3266
S'Expires'
p3267
asbag48
(g69
g50
NtRp3268
(dp3269
g53
(dp3270
g80
g81
ssg62
g3259
sg55
(lp3271
S':'
asbag48
(g69
g50
NtRp3272
(dp3273
g53
(dp3274
sg62
g3259
sg55
(lp3275
g48
(g49
g50
NtRp3276
(dp3277
g53
(dp3278
g61
I4
ssg62
g3272
sg55
(lp3279
S'Tue, 06 Sep 2011 21:02:05 GMT'
p3280
asbasbasbag48
(g64
g50
NtRp3281
(dp3282
g53
(dp3283
sg62
g3211
sg55
(lp3284
g48
(g69
g50
NtRp3285
(dp3286
g53
(dp3287
g73
g74
ssg62
g3281
sg55
(lp3288
S'Pragma'
p3289
asbag48
(g69
g50
NtRp3290
(dp3291
g53
(dp3292
g80
g81
ssg62
g3281
sg55
(lp3293
S':'
asbag48
(g69
g50
NtRp3294
(dp3295
g53
(dp3296
sg62
g3281
sg55
(lp3297
g48
(g49
g50
NtRp3298
(dp3299
g53
(dp3300
g61
I4
ssg62
g3294
sg55
(lp3301
S'no-cache'
p3302
asbasbasbag48
(g64
g50
NtRp3303
(dp3304
g53
(dp3305
sg62
g3211
sg55
(lp3306
g48
(g69
g50
NtRp3307
(dp3308
g53
(dp3309
g73
g74
ssg62
g3303
sg55
(lp3310
S'X-Powered-By'
p3311
asbag48
(g69
g50
NtRp3312
(dp3313
g53
(dp3314
g80
g81
ssg62
g3303
sg55
(lp3315
S':'
asbag48
(g69
g50
NtRp3316
(dp3317
g53
(dp3318
sg62
g3303
sg55
(lp3319
g48
(g49
g50
NtRp3320
(dp3321
g53
(dp3322
g61
I4
ssg62
g3316
sg55
(lp3323
S'web2py'
p3324
asbasbasbasbasbasbasbag48
(g64
g50
NtRp3325
(dp3326
g53
(dp3327
sg62
g2893
sg55
(lp3328
g48
(g69
g50
NtRp3329
(dp3330
g53
(dp3331
g73
g74
ssg62
g3325
sg55
(lp3332
S'menu'
p3333
asbag48
(g69
g50
NtRp3334
(dp3335
g53
(dp3336
g80
g81
ssg62
g3325
sg55
(lp3337
S':'
asbag48
(g69
g50
NtRp3338
(dp3339
g53
(dp3340
sg62
g3325
sg55
(lp3341
g48
(g49
g50
NtRp3342
(dp3343
g53
(dp3344
g61
I5
ssg62
g3338
sg55
(lp3345
g48
(g57
g50
NtRp3346
(dp3347
g53
(dp3348
g61
I4
ssg62
Nsg55
(lp3349
g48
(g64
g50
NtRp3350
(dp3351
g53
(dp3352
sg62
g3346
sg55
(lp3353
g48
(g69
g50
NtRp3354
(dp3355
g53
(dp3356
sg62
g3350
sg55
(lp3357
g48
(g49
g50
NtRp3358
(dp3359
g53
(dp3360
g61
I4
ssg62
g3354
sg55
(lp3361
g48
(g57
g50
NtRp3362
(dp3363
g53
(dp3364
g61
I3
ssg62
Nsg55
(lp3365
g48
(g64
g50
NtRp3366
(dp3367
g53
(dp3368
sg62
g3362
sg55
(lp3369
g48
(g69
g50
NtRp3370
(dp3371
g53
(dp3372
sg62
g3366
sg55
(lp3373
g48
(g49
g50
NtRp3374
(dp3375
g53
(dp3376
g61
I3
ssg62
g3370
sg55
(lp3377
cgluon.languages
lazyT_unpickle
p3378
(S's\x04\x00\x00\x00Home'
tRp3379
asbasbasbag48
(g64
g50
NtRp3380
(dp3381
g53
(dp3382
sg62
g3362
sg55
(lp3383
g48
(g69
g50
NtRp3384
(dp3385
g53
(dp3386
sg62
g3380
sg55
(lp3387
g48
(g49
g50
NtRp3388
(dp3389
g53
(dp3390
g61
I3
ssg62
g3384
sg55
(lp3391
g91
asbasbasbag48
(g64
g50
NtRp3392
(dp3393
g53
(dp3394
sg62
g3362
sg55
(lp3395
g48
(g69
g50
NtRp3396
(dp3397
g53
(dp3398
sg62
g3392
sg55
(lp3399
g48
(g49
g50
NtRp3400
(dp3401
g53
(dp3402
g61
I3
ssg62
g3396
sg55
(lp3403
S'/201056161/default/index'
p3404
asbasbasbag48
(g64
g50
NtRp3405
(dp3406
g53
(dp3407
sg62
g3362
sg55
(lp3408
g48
(g69
g50
NtRp3409
(dp3410
g53
(dp3411
sg62
g3405
sg55
(lp3412
g48
(g49
g50
NtRp3413
(dp3414
g53
(dp3415
g61
I3
ssg62
g3409
sg55
(lp3416
g48
(g57
g50
NtRp3417
(dp3418
g53
(dp3419
g61
I2
ssg62
Nsg55
(lp3420
sbasbasbasbasbasbasbasbag48
(g64
g50
NtRp3421
(dp3422
g53
(dp3423
sg62
g3346
sg55
(lp3424
g48
(g69
g50
NtRp3425
(dp3426
g53
(dp3427
sg62
g3421
sg55
(lp3428
g48
(g49
g50
NtRp3429
(dp3430
g53
(dp3431
g61
I4
ssg62
g3425
sg55
(lp3432
g48
(g57
g50
NtRp3433
(dp3434
g53
(dp3435
g61
I3
ssg62
Nsg55
(lp3436
g48
(g64
g50
NtRp3437
(dp3438
g53
(dp3439
sg62
g3433
sg55
(lp3440
g48
(g69
g50
NtRp3441
(dp3442
g53
(dp3443
sg62
g3437
sg55
(lp3444
g48
(g49
g50
NtRp3445
(dp3446
g53
(dp3447
g61
I3
ssg62
g3441
sg55
(lp3448
g3378
(S's\x08\x00\x00\x00This App'
tRp3449
asbasbasbag48
(g64
g50
NtRp3450
(dp3451
g53
(dp3452
sg62
g3433
sg55
(lp3453
g48
(g69
g50
NtRp3454
(dp3455
g53
(dp3456
sg62
g3450
sg55
(lp3457
g48
(g49
g50
NtRp3458
(dp3459
g53
(dp3460
g61
I3
ssg62
g3454
sg55
(lp3461
g91
asbasbasbag48
(g64
g50
NtRp3462
(dp3463
g53
(dp3464
sg62
g3433
sg55
(lp3465
g48
(g69
g50
NtRp3466
(dp3467
g53
(dp3468
sg62
g3462
sg55
(lp3469
g48
(g49
g50
NtRp3470
(dp3471
g53
(dp3472
g61
I3
ssg62
g3466
sg55
(lp3473
S'/admin/default/design/201056161'
p3474
asbasbasbag48
(g64
g50
NtRp3475
(dp3476
g53
(dp3477
sg62
g3433
sg55
(lp3478
g48
(g69
g50
NtRp3479
(dp3480
g53
(dp3481
sg62
g3475
sg55
(lp3482
g48
(g49
g50
NtRp3483
(dp3484
g53
(dp3485
g61
I3
ssg62
g3479
sg55
(lp3486
g48
(g57
g50
NtRp3487
(dp3488
g53
(dp3489
g61
I2
ssg62
Nsg55
(lp3490
g48
(g64
g50
NtRp3491
(dp3492
g53
(dp3493
sg62
g3487
sg55
(lp3494
g48
(g69
g50
NtRp3495
(dp3496
g53
(dp3497
sg62
g3491
sg55
(lp3498
g48
(g49
g50
NtRp3499
(dp3500
g53
(dp3501
g61
I2
ssg62
g3495
sg55
(lp3502
g48
(g57
g50
NtRp3503
(dp3504
g53
(dp3505
g61
I1
ssg62
Nsg55
(lp3506
g48
(g64
g50
NtRp3507
(dp3508
g53
(dp3509
sg62
g3503
sg55
(lp3510
g48
(g69
g50
NtRp3511
(dp3512
g53
(dp3513
sg62
g3507
sg55
(lp3514
g48
(g49
g50
NtRp3515
(dp3516
g53
(dp3517
g61
I1
ssg62
g3511
sg55
(lp3518
g3378
(S's\n\x00\x00\x00Controller'
tRp3519
asbasbasbag48
(g64
g50
NtRp3520
(dp3521
g53
(dp3522
sg62
g3503
sg55
(lp3523
g48
(g69
g50
NtRp3524
(dp3525
g53
(dp3526
sg62
g3520
sg55
(lp3527
g48
(g49
g50
NtRp3528
(dp3529
g53
(dp3530
g61
I1
ssg62
g3524
sg55
(lp3531
I00
asbasbasbag48
(g64
g50
NtRp3532
(dp3533
g53
(dp3534
sg62
g3503
sg55
(lp3535
g48
(g69
g50
NtRp3536
(dp3537
g53
(dp3538
sg62
g3532
sg55
(lp3539
g48
(g49
g50
NtRp3540
(dp3541
g53
(dp3542
g61
I1
ssg62
g3536
sg55
(lp3543
S'/admin/default/edit/201056161/controllers/default.py'
p3544
asbasbasbasbasbasbasbag48
(g64
g50
NtRp3545
(dp3546
g53
(dp3547
sg62
g3487
sg55
(lp3548
g48
(g69
g50
NtRp3549
(dp3550
g53
(dp3551
sg62
g3545
sg55
(lp3552
g48
(g49
g50
NtRp3553
(dp3554
g53
(dp3555
g61
I2
ssg62
g3549
sg55
(lp3556
g48
(g57
g50
NtRp3557
(dp3558
g53
(dp3559
g61
I1
ssg62
Nsg55
(lp3560
g48
(g64
g50
NtRp3561
(dp3562
g53
(dp3563
sg62
g3557
sg55
(lp3564
g48
(g69
g50
NtRp3565
(dp3566
g53
(dp3567
sg62
g3561
sg55
(lp3568
g48
(g49
g50
NtRp3569
(dp3570
g53
(dp3571
g61
I1
ssg62
g3565
sg55
(lp3572
g3378
(S's\x04\x00\x00\x00View'
tRp3573
asbasbasbag48
(g64
g50
NtRp3574
(dp3575
g53
(dp3576
sg62
g3557
sg55
(lp3577
g48
(g69
g50
NtRp3578
(dp3579
g53
(dp3580
sg62
g3574
sg55
(lp3581
g48
(g49
g50
NtRp3582
(dp3583
g53
(dp3584
g61
I1
ssg62
g3578
sg55
(lp3585
I00
asbasbasbag48
(g64
g50
NtRp3586
(dp3587
g53
(dp3588
sg62
g3557
sg55
(lp3589
g48
(g69
g50
NtRp3590
(dp3591
g53
(dp3592
sg62
g3586
sg55
(lp3593
g48
(g49
g50
NtRp3594
(dp3595
g53
(dp3596
g61
I1
ssg62
g3590
sg55
(lp3597
S'/admin/default/edit/201056161/views/default/new.html'
p3598
asbasbasbasbasbasbasbag48
(g64
g50
NtRp3599
(dp3600
g53
(dp3601
sg62
g3487
sg55
(lp3602
g48
(g69
g50
NtRp3603
(dp3604
g53
(dp3605
sg62
g3599
sg55
(lp3606
g48
(g49
g50
NtRp3607
(dp3608
g53
(dp3609
g61
I2
ssg62
g3603
sg55
(lp3610
g48
(g57
g50
NtRp3611
(dp3612
g53
(dp3613
g61
I1
ssg62
Nsg55
(lp3614
g48
(g64
g50
NtRp3615
(dp3616
g53
(dp3617
sg62
g3611
sg55
(lp3618
g48
(g69
g50
NtRp3619
(dp3620
g53
(dp3621
sg62
g3615
sg55
(lp3622
g48
(g49
g50
NtRp3623
(dp3624
g53
(dp3625
g61
I1
ssg62
g3619
sg55
(lp3626
g3378
(S's\x06\x00\x00\x00Layout'
tRp3627
asbasbasbag48
(g64
g50
NtRp3628
(dp3629
g53
(dp3630
sg62
g3611
sg55
(lp3631
g48
(g69
g50
NtRp3632
(dp3633
g53
(dp3634
sg62
g3628
sg55
(lp3635
g48
(g49
g50
NtRp3636
(dp3637
g53
(dp3638
g61
I1
ssg62
g3632
sg55
(lp3639
I00
asbasbasbag48
(g64
g50
NtRp3640
(dp3641
g53
(dp3642
sg62
g3611
sg55
(lp3643
g48
(g69
g50
NtRp3644
(dp3645
g53
(dp3646
sg62
g3640
sg55
(lp3647
g48
(g49
g50
NtRp3648
(dp3649
g53
(dp3650
g61
I1
ssg62
g3644
sg55
(lp3651
S'/admin/default/edit/201056161/views/layout.html'
p3652
asbasbasbasbasbasbasbag48
(g64
g50
NtRp3653
(dp3654
g53
(dp3655
sg62
g3487
sg55
(lp3656
g48
(g69
g50
NtRp3657
(dp3658
g53
(dp3659
sg62
g3653
sg55
(lp3660
g48
(g49
g50
NtRp3661
(dp3662
g53
(dp3663
g61
I2
ssg62
g3657
sg55
(lp3664
g48
(g57
g50
NtRp3665
(dp3666
g53
(dp3667
g61
I1
ssg62
Nsg55
(lp3668
g48
(g64
g50
NtRp3669
(dp3670
g53
(dp3671
sg62
g3665
sg55
(lp3672
g48
(g69
g50
NtRp3673
(dp3674
g53
(dp3675
sg62
g3669
sg55
(lp3676
g48
(g49
g50
NtRp3677
(dp3678
g53
(dp3679
g61
I1
ssg62
g3673
sg55
(lp3680
g3378
(S's\n\x00\x00\x00Stylesheet'
tRp3681
asbasbasbag48
(g64
g50
NtRp3682
(dp3683
g53
(dp3684
sg62
g3665
sg55
(lp3685
g48
(g69
g50
NtRp3686
(dp3687
g53
(dp3688
sg62
g3682
sg55
(lp3689
g48
(g49
g50
NtRp3690
(dp3691
g53
(dp3692
g61
I1
ssg62
g3686
sg55
(lp3693
I00
asbasbasbag48
(g64
g50
NtRp3694
(dp3695
g53
(dp3696
sg62
g3665
sg55
(lp3697
g48
(g69
g50
NtRp3698
(dp3699
g53
(dp3700
sg62
g3694
sg55
(lp3701
g48
(g49
g50
NtRp3702
(dp3703
g53
(dp3704
g61
I1
ssg62
g3698
sg55
(lp3705
S'/admin/default/edit/201056161/static/base.css'
p3706
asbasbasbasbasbasbasbag48
(g64
g50
NtRp3707
(dp3708
g53
(dp3709
sg62
g3487
sg55
(lp3710
g48
(g69
g50
NtRp3711
(dp3712
g53
(dp3713
sg62
g3707
sg55
(lp3714
g48
(g49
g50
NtRp3715
(dp3716
g53
(dp3717
g61
I2
ssg62
g3711
sg55
(lp3718
g48
(g57
g50
NtRp3719
(dp3720
g53
(dp3721
g61
I1
ssg62
Nsg55
(lp3722
g48
(g64
g50
NtRp3723
(dp3724
g53
(dp3725
sg62
g3719
sg55
(lp3726
g48
(g69
g50
NtRp3727
(dp3728
g53
(dp3729
sg62
g3723
sg55
(lp3730
g48
(g49
g50
NtRp3731
(dp3732
g53
(dp3733
g61
I1
ssg62
g3727
sg55
(lp3734
g3378
(S's\x08\x00\x00\x00DB Model'
tRp3735
asbasbasbag48
(g64
g50
NtRp3736
(dp3737
g53
(dp3738
sg62
g3719
sg55
(lp3739
g48
(g69
g50
NtRp3740
(dp3741
g53
(dp3742
sg62
g3736
sg55
(lp3743
g48
(g49
g50
NtRp3744
(dp3745
g53
(dp3746
g61
I1
ssg62
g3740
sg55
(lp3747
I00
asbasbasbag48
(g64
g50
NtRp3748
(dp3749
g53
(dp3750
sg62
g3719
sg55
(lp3751
g48
(g69
g50
NtRp3752
(dp3753
g53
(dp3754
sg62
g3748
sg55
(lp3755
g48
(g49
g50
NtRp3756
(dp3757
g53
(dp3758
g61
I1
ssg62
g3752
sg55
(lp3759
S'/admin/default/edit/201056161/models/db.py'
p3760
asbasbasbasbasbasbasbag48
(g64
g50
NtRp3761
(dp3762
g53
(dp3763
sg62
g3487
sg55
(lp3764
g48
(g69
g50
NtRp3765
(dp3766
g53
(dp3767
sg62
g3761
sg55
(lp3768
g48
(g49
g50
NtRp3769
(dp3770
g53
(dp3771
g61
I2
ssg62
g3765
sg55
(lp3772
g48
(g57
g50
NtRp3773
(dp3774
g53
(dp3775
g61
I1
ssg62
Nsg55
(lp3776
g48
(g64
g50
NtRp3777
(dp3778
g53
(dp3779
sg62
g3773
sg55
(lp3780
g48
(g69
g50
NtRp3781
(dp3782
g53
(dp3783
sg62
g3777
sg55
(lp3784
g48
(g49
g50
NtRp3785
(dp3786
g53
(dp3787
g61
I1
ssg62
g3781
sg55
(lp3788
g3378
(S's\n\x00\x00\x00Menu Model'
tRp3789
asbasbasbag48
(g64
g50
NtRp3790
(dp3791
g53
(dp3792
sg62
g3773
sg55
(lp3793
g48
(g69
g50
NtRp3794
(dp3795
g53
(dp3796
sg62
g3790
sg55
(lp3797
g48
(g49
g50
NtRp3798
(dp3799
g53
(dp3800
g61
I1
ssg62
g3794
sg55
(lp3801
I00
asbasbasbag48
(g64
g50
NtRp3802
(dp3803
g53
(dp3804
sg62
g3773
sg55
(lp3805
g48
(g69
g50
NtRp3806
(dp3807
g53
(dp3808
sg62
g3802
sg55
(lp3809
g48
(g49
g50
NtRp3810
(dp3811
g53
(dp3812
g61
I1
ssg62
g3806
sg55
(lp3813
S'/admin/default/edit/201056161/models/menu.py'
p3814
asbasbasbasbasbasbasbag48
(g64
g50
NtRp3815
(dp3816
g53
(dp3817
sg62
g3487
sg55
(lp3818
g48
(g69
g50
NtRp3819
(dp3820
g53
(dp3821
sg62
g3815
sg55
(lp3822
g48
(g49
g50
NtRp3823
(dp3824
g53
(dp3825
g61
I2
ssg62
g3819
sg55
(lp3826
g48
(g57
g50
NtRp3827
(dp3828
g53
(dp3829
g61
I1
ssg62
Nsg55
(lp3830
g48
(g64
g50
NtRp3831
(dp3832
g53
(dp3833
sg62
g3827
sg55
(lp3834
g48
(g69
g50
NtRp3835
(dp3836
g53
(dp3837
sg62
g3831
sg55
(lp3838
g48
(g49
g50
NtRp3839
(dp3840
g53
(dp3841
g61
I1
ssg62
g3835
sg55
(lp3842
g3378
(S's\x08\x00\x00\x00Database'
tRp3843
asbasbasbag48
(g64
g50
NtRp3844
(dp3845
g53
(dp3846
sg62
g3827
sg55
(lp3847
g48
(g69
g50
NtRp3848
(dp3849
g53
(dp3850
sg62
g3844
sg55
(lp3851
g48
(g49
g50
NtRp3852
(dp3853
g53
(dp3854
g61
I1
ssg62
g3848
sg55
(lp3855
I00
asbasbasbag48
(g64
g50
NtRp3856
(dp3857
g53
(dp3858
sg62
g3827
sg55
(lp3859
g48
(g69
g50
NtRp3860
(dp3861
g53
(dp3862
sg62
g3856
sg55
(lp3863
g48
(g49
g50
NtRp3864
(dp3865
g53
(dp3866
g61
I1
ssg62
g3860
sg55
(lp3867
S'/201056161/appadmin/index'
p3868
asbasbasbasbasbasbasbag48
(g64
g50
NtRp3869
(dp3870
g53
(dp3871
sg62
g3487
sg55
(lp3872
g48
(g69
g50
NtRp3873
(dp3874
g53
(dp3875
sg62
g3869
sg55
(lp3876
g48
(g49
g50
NtRp3877
(dp3878
g53
(dp3879
g61
I2
ssg62
g3873
sg55
(lp3880
g48
(g57
g50
NtRp3881
(dp3882
g53
(dp3883
g61
I1
ssg62
Nsg55
(lp3884
g48
(g64
g50
NtRp3885
(dp3886
g53
(dp3887
sg62
g3881
sg55
(lp3888
g48
(g69
g50
NtRp3889
(dp3890
g53
(dp3891
sg62
g3885
sg55
(lp3892
g48
(g49
g50
NtRp3893
(dp3894
g53
(dp3895
g61
I1
ssg62
g3889
sg55
(lp3896
g3378
(S's\x06\x00\x00\x00Errors'
tRp3897
asbasbasbag48
(g64
g50
NtRp3898
(dp3899
g53
(dp3900
sg62
g3881
sg55
(lp3901
g48
(g69
g50
NtRp3902
(dp3903
g53
(dp3904
sg62
g3898
sg55
(lp3905
g48
(g49
g50
NtRp3906
(dp3907
g53
(dp3908
g61
I1
ssg62
g3902
sg55
(lp3909
I00
asbasbasbag48
(g64
g50
NtRp3910
(dp3911
g53
(dp3912
sg62
g3881
sg55
(lp3913
g48
(g69
g50
NtRp3914
(dp3915
g53
(dp3916
sg62
g3910
sg55
(lp3917
g48
(g49
g50
NtRp3918
(dp3919
g53
(dp3920
g61
I1
ssg62
g3914
sg55
(lp3921
S'/admin/default/errors/201056161'
p3922
asbasbasbasbasbasbasbag48
(g64
g50
NtRp3923
(dp3924
g53
(dp3925
sg62
g3487
sg55
(lp3926
g48
(g69
g50
NtRp3927
(dp3928
g53
(dp3929
sg62
g3923
sg55
(lp3930
g48
(g49
g50
NtRp3931
(dp3932
g53
(dp3933
g61
I2
ssg62
g3927
sg55
(lp3934
g48
(g57
g50
NtRp3935
(dp3936
g53
(dp3937
g61
I1
ssg62
Nsg55
(lp3938
g48
(g64
g50
NtRp3939
(dp3940
g53
(dp3941
sg62
g3935
sg55
(lp3942
g48
(g69
g50
NtRp3943
(dp3944
g53
(dp3945
sg62
g3939
sg55
(lp3946
g48
(g49
g50
NtRp3947
(dp3948
g53
(dp3949
g61
I1
ssg62
g3943
sg55
(lp3950
g3378
(S's\x05\x00\x00\x00About'
tRp3951
asbasbasbag48
(g64
g50
NtRp3952
(dp3953
g53
(dp3954
sg62
g3935
sg55
(lp3955
g48
(g69
g50
NtRp3956
(dp3957
g53
(dp3958
sg62
g3952
sg55
(lp3959
g48
(g49
g50
NtRp3960
(dp3961
g53
(dp3962
g61
I1
ssg62
g3956
sg55
(lp3963
I00
asbasbasbag48
(g64
g50
NtRp3964
(dp3965
g53
(dp3966
sg62
g3935
sg55
(lp3967
g48
(g69
g50
NtRp3968
(dp3969
g53
(dp3970
sg62
g3964
sg55
(lp3971
g48
(g49
g50
NtRp3972
(dp3973
g53
(dp3974
g61
I1
ssg62
g3968
sg55
(lp3975
S'/admin/default/about/201056161'
p3976
asbasbasbasbasbasbasbasbasbasbasbasbasbasbasbag48
(g64
g50
NtRp3977
(dp3978
g53
(dp3979
sg62
g3346
sg55
(lp3980
g48
(g69
g50
NtRp3981
(dp3982
g53
(dp3983
sg62
g3977
sg55
(lp3984
g48
(g49
g50
NtRp3985
(dp3986
g53
(dp3987
g61
I4
ssg62
g3981
sg55
(lp3988
g48
(g57
g50
NtRp3989
(dp3990
g53
(dp3991
g61
I3
ssg62
Nsg55
(lp3992
g48
(g64
g50
NtRp3993
(dp3994
g53
(dp3995
sg62
g3989
sg55
(lp3996
g48
(g69
g50
NtRp3997
(dp3998
g53
(dp3999
sg62
g3993
sg55
(lp4000
g48
(g49
g50
NtRp4001
(dp4002
g53
(dp4003
g61
I3
ssg62
g3997
sg55
(lp4004
g3378
(S's\t\x00\x00\x00Resources'
tRp4005
asbasbasbag48
(g64
g50
NtRp4006
(dp4007
g53
(dp4008
sg62
g3989
sg55
(lp4009
g48
(g69
g50
NtRp4010
(dp4011
g53
(dp4012
sg62
g4006
sg55
(lp4013
g48
(g49
g50
NtRp4014
(dp4015
g53
(dp4016
g61
I3
ssg62
g4010
sg55
(lp4017
g91
asbasbasbag48
(g64
g50
NtRp4018
(dp4019
g53
(dp4020
sg62
g3989
sg55
(lp4021
g48
(g69
g50
NtRp4022
(dp4023
g53
(dp4024
sg62
g4018
sg55
(lp4025
g48
(g49
g50
NtRp4026
(dp4027
g53
(dp4028
g61
I3
ssg62
g4022
sg55
(lp4029
S'None'
p4030
asbasbasbag48
(g64
g50
NtRp4031
(dp4032
g53
(dp4033
sg62
g3989
sg55
(lp4034
g48
(g69
g50
NtRp4035
(dp4036
g53
(dp4037
sg62
g4031
sg55
(lp4038
g48
(g49
g50
NtRp4039
(dp4040
g53
(dp4041
g61
I3
ssg62
g4035
sg55
(lp4042
g48
(g57
g50
NtRp4043
(dp4044
g53
(dp4045
g61
I2
ssg62
Nsg55
(lp4046
g48
(g64
g50
NtRp4047
(dp4048
g53
(dp4049
sg62
g4043
sg55
(lp4050
g48
(g69
g50
NtRp4051
(dp4052
g53
(dp4053
sg62
g4047
sg55
(lp4054
g48
(g49
g50
NtRp4055
(dp4056
g53
(dp4057
g61
I2
ssg62
g4051
sg55
(lp4058
g48
(g57
g50
NtRp4059
(dp4060
g53
(dp4061
g61
I1
ssg62
Nsg55
(lp4062
g48
(g64
g50
NtRp4063
(dp4064
g53
(dp4065
sg62
g4059
sg55
(lp4066
g48
(g69
g50
NtRp4067
(dp4068
g53
(dp4069
sg62
g4063
sg55
(lp4070
g48
(g49
g50
NtRp4071
(dp4072
g53
(dp4073
g61
I1
ssg62
g4067
sg55
(lp4074
g3378
(S's\r\x00\x00\x00Documentation'
tRp4075
asbasbasbag48
(g64
g50
NtRp4076
(dp4077
g53
(dp4078
sg62
g4059
sg55
(lp4079
g48
(g69
g50
NtRp4080
(dp4081
g53
(dp4082
sg62
g4076
sg55
(lp4083
g48
(g49
g50
NtRp4084
(dp4085
g53
(dp4086
g61
I1
ssg62
g4080
sg55
(lp4087
I00
asbasbasbag48
(g64
g50
NtRp4088
(dp4089
g53
(dp4090
sg62
g4059
sg55
(lp4091
g48
(g69
g50
NtRp4092
(dp4093
g53
(dp4094
sg62
g4088
sg55
(lp4095
g48
(g49
g50
NtRp4096
(dp4097
g53
(dp4098
g61
I1
ssg62
g4092
sg55
(lp4099
S'http://www.web2py.com/book'
p4100
asbasbasbag48
(g64
g50
NtRp4101
(dp4102
g53
(dp4103
sg62
g4059
sg55
(lp4104
g48
(g69
g50
NtRp4105
(dp4106
g53
(dp4107
sg62
g4101
sg55
(lp4108
g48
(g49
g50
NtRp4109
(dp4110
g53
(dp4111
g61
I1
ssg62
g4105
sg55
(lp4112
(lp4113
(g3378
(S's\x07\x00\x00\x00Preface'
tRp4114
I00
S'http://www.web2py.com/book/default/chapter/00'
tp4115
a(g3378
(S's\x0c\x00\x00\x00Introduction'
tRp4116
I00
S'http://www.web2py.com/book/default/chapter/01'
tp4117
a(g3378
(S's\x06\x00\x00\x00Python'
tRp4118
I00
S'http://www.web2py.com/book/default/chapter/02'
tp4119
a(g3378
(S's\x08\x00\x00\x00Overview'
tRp4120
I00
S'http://www.web2py.com/book/default/chapter/03'
tp4121
a(g3378
(S's\x08\x00\x00\x00The Core'
tRp4122
I00
S'http://www.web2py.com/book/default/chapter/04'
tp4123
a(g3378
(S's\t\x00\x00\x00The Views'
tRp4124
I00
S'http://www.web2py.com/book/default/chapter/05'
tp4125
a(g3378
(S's\x08\x00\x00\x00Database'
tRp4126
I00
S'http://www.web2py.com/book/default/chapter/06'
tp4127
a(g3378
(S's\x14\x00\x00\x00Forms and Validators'
tRp4128
I00
S'http://www.web2py.com/book/default/chapter/07'
tp4129
a(g3378
(S's\x0e\x00\x00\x00Access Control'
tRp4130
I00
S'http://www.web2py.com/book/default/chapter/08'
tp4131
a(g3378
(S's\x08\x00\x00\x00Services'
tRp4132
I00
S'http://www.web2py.com/book/default/chapter/09'
tp4133
a(g3378
(S's\x0c\x00\x00\x00Ajax Recipes'
tRp4134
I00
S'http://www.web2py.com/book/default/chapter/10'
tp4135
a(g3378
(S's\x12\x00\x00\x00Deployment Recipes'
tRp4136
I00
S'http://www.web2py.com/book/default/chapter/11'
tp4137
a(g3378
(S's\r\x00\x00\x00Other Recipes'
tRp4138
I00
S'http://www.web2py.com/book/default/chapter/12'
tp4139
a(g3378
(S's\r\x00\x00\x00Buy this book'
tRp4140
I00
S'http://stores.lulu.com/web2py'
tp4141
aasbasbasbasbasbasbasbag48
(g64
g50
NtRp4142
(dp4143
g53
(dp4144
sg62
g4043
sg55
(lp4145
g48
(g69
g50
NtRp4146
(dp4147
g53
(dp4148
sg62
g4142
sg55
(lp4149
g48
(g49
g50
NtRp4150
(dp4151
g53
(dp4152
g61
I2
ssg62
g4146
sg55
(lp4153
g48
(g57
g50
NtRp4154
(dp4155
g53
(dp4156
g61
I1
ssg62
Nsg55
(lp4157
g48
(g64
g50
NtRp4158
(dp4159
g53
(dp4160
sg62
g4154
sg55
(lp4161
g48
(g69
g50
NtRp4162
(dp4163
g53
(dp4164
sg62
g4158
sg55
(lp4165
g48
(g49
g50
NtRp4166
(dp4167
g53
(dp4168
g61
I1
ssg62
g4162
sg55
(lp4169
g3378
(S's\t\x00\x00\x00Community'
tRp4170
asbasbasbag48
(g64
g50
NtRp4171
(dp4172
g53
(dp4173
sg62
g4154
sg55
(lp4174
g48
(g69
g50
NtRp4175
(dp4176
g53
(dp4177
sg62
g4171
sg55
(lp4178
g48
(g49
g50
NtRp4179
(dp4180
g53
(dp4181
g61
I1
ssg62
g4175
sg55
(lp4182
I00
asbasbasbag48
(g64
g50
NtRp4183
(dp4184
g53
(dp4185
sg62
g4154
sg55
(lp4186
g48
(g69
g50
NtRp4187
(dp4188
g53
(dp4189
sg62
g4183
sg55
(lp4190
g48
(g49
g50
NtRp4191
(dp4192
g53
(dp4193
g61
I1
ssg62
g4187
sg55
(lp4194
Nasbasbasbag48
(g64
g50
NtRp4195
(dp4196
g53
(dp4197
sg62
g4154
sg55
(lp4198
g48
(g69
g50
NtRp4199
(dp4200
g53
(dp4201
sg62
g4195
sg55
(lp4202
g48
(g49
g50
NtRp4203
(dp4204
g53
(dp4205
g61
I1
ssg62
g4199
sg55
(lp4206
(lp4207
(g3378
(S's\x06\x00\x00\x00Groups'
tRp4208
I00
S'http://www.web2py.com/examples/default/usergroups'
tp4209
a(g3378
(S's\x07\x00\x00\x00Twitter'
tRp4210
I00
S'http://twitter.com/web2py'
tp4211
a(g3378
(S's\t\x00\x00\x00Live chat'
tRp4212
I00
S'http://mibbit.com/?channel=%23web2py&server=irc.mibbit.net'
tp4213
a(g3378
(S's\n\x00\x00\x00User Voice'
tRp4214
I00
S'http://web2py.uservoice.com/'
tp4215
aasbasbasbasbasbasbasbag48
(g64
g50
NtRp4216
(dp4217
g53
(dp4218
sg62
g4043
sg55
(lp4219
g48
(g69
g50
NtRp4220
(dp4221
g53
(dp4222
sg62
g4216
sg55
(lp4223
g48
(g49
g50
NtRp4224
(dp4225
g53
(dp4226
g61
I2
ssg62
g4220
sg55
(lp4227
g48
(g57
g50
NtRp4228
(dp4229
g53
(dp4230
g61
I1
ssg62
Nsg55
(lp4231
g48
(g64
g50
NtRp4232
(dp4233
g53
(dp4234
sg62
g4228
sg55
(lp4235
g48
(g69
g50
NtRp4236
(dp4237
g53
(dp4238
sg62
g4232
sg55
(lp4239
g48
(g49
g50
NtRp4240
(dp4241
g53
(dp4242
g61
I1
ssg62
g4236
sg55
(lp4243
g3378
(S's\x06\x00\x00\x00Web2py'
tRp4244
asbasbasbag48
(g64
g50
NtRp4245
(dp4246
g53
(dp4247
sg62
g4228
sg55
(lp4248
g48
(g69
g50
NtRp4249
(dp4250
g53
(dp4251
sg62
g4245
sg55
(lp4252
g48
(g49
g50
NtRp4253
(dp4254
g53
(dp4255
g61
I1
ssg62
g4249
sg55
(lp4256
I00
asbasbasbag48
(g64
g50
NtRp4257
(dp4258
g53
(dp4259
sg62
g4228
sg55
(lp4260
g48
(g69
g50
NtRp4261
(dp4262
g53
(dp4263
sg62
g4257
sg55
(lp4264
g48
(g49
g50
NtRp4265
(dp4266
g53
(dp4267
g61
I1
ssg62
g4261
sg55
(lp4268
S'http://www.web2py.com'
p4269
asbasbasbag48
(g64
g50
NtRp4270
(dp4271
g53
(dp4272
sg62
g4228
sg55
(lp4273
g48
(g69
g50
NtRp4274
(dp4275
g53
(dp4276
sg62
g4270
sg55
(lp4277
g48
(g49
g50
NtRp4278
(dp4279
g53
(dp4280
g61
I1
ssg62
g4274
sg55
(lp4281
(lp4282
(g3378
(S's\x08\x00\x00\x00Download'
tRp4283
I00
S'http://www.web2py.com/examples/default/download'
tp4284
a(g3378
(S's\x07\x00\x00\x00Support'
tRp4285
I00
S'http://www.web2py.com/examples/default/support'
tp4286
a(g3378
(S's\x0e\x00\x00\x00Quick Examples'
tRp4287
I00
S'http://web2py.com/examples/default/examples'
tp4288
a(g3378
(S's\x03\x00\x00\x00FAQ'
tRp4289
I00
S'http://web2py.com/AlterEgo'
tp4290
a(g3378
(S's\x11\x00\x00\x00Free Applications'
tRp4291
I00
S'http://web2py.com/appliances'
tp4292
a(g3378
(S's\x07\x00\x00\x00Plugins'
tRp4293
I00
S'http://web2py.com/plugins'
tp4294
a(g3378
(S's\x07\x00\x00\x00Recipes'
tRp4295
I00
S'http://web2pyslices.com/'
tp4296
a(g3378
(S's\x04\x00\x00\x00Demo'
tRp4297
I00
S'http://web2py.com/demo_admin'
tp4298
a(g3378
(S's\x08\x00\x00\x00Semantic'
tRp4299
I00
S'http://web2py.com/semantic'
tp4300
a(g3378
(S's\x07\x00\x00\x00Layouts'
tRp4301
I00
S'http://web2py.com/layouts'
tp4302
a(g3378
(S's\x06\x00\x00\x00Videos'
tRp4303
I00
S'http://www.web2py.com/examples/default/videos/'
tp4304
aasbasbasbasbasbasbasbasbasbasbasbasbasbasbasbasbasbasbasbag48
(g64
g50
NtRp4305
(dp4306
g53
(dp4307
sg62
g2893
sg55
(lp4308
g48
(g69
g50
NtRp4309
(dp4310
g53
(dp4311
g73
g74
ssg62
g4305
sg55
(lp4312
S'meta'
p4313
asbag48
(g69
g50
NtRp4314
(dp4315
g53
(dp4316
g80
g81
ssg62
g4305
sg55
(lp4317
S':'
asbag48
(g69
g50
NtRp4318
(dp4319
g53
(dp4320
sg62
g4305
sg55
(lp4321
g48
(g49
g50
NtRp4322
(dp4323
g53
(dp4324
g61
I5
ssg62
g4318
sg55
(lp4325
g48
(g57
g50
NtRp4326
(dp4327
g53
(dp4328
g61
I4
ssg62
Nsg55
(lp4329
g48
(g64
g50
NtRp4330
(dp4331
g53
(dp4332
sg62
g4326
sg55
(lp4333
g48
(g69
g50
NtRp4334
(dp4335
g53
(dp4336
g73
g74
ssg62
g4330
sg55
(lp4337
S'author'
p4338
asbag48
(g69
g50
NtRp4339
(dp4340
g53
(dp4341
g80
g81
ssg62
g4330
sg55
(lp4342
S':'
asbag48
(g69
g50
NtRp4343
(dp4344
g53
(dp4345
sg62
g4330
sg55
(lp4346
g48
(g49
g50
NtRp4347
(dp4348
g53
(dp4349
g61
I4
ssg62
g4343
sg55
(lp4350
S'you'
p4351
asbasbasbag48
(g64
g50
NtRp4352
(dp4353
g53
(dp4354
sg62
g4326
sg55
(lp4355
g48
(g69
g50
NtRp4356
(dp4357
g53
(dp4358
g73
g74
ssg62
g4352
sg55
(lp4359
S'copyright'
p4360
asbag48
(g69
g50
NtRp4361
(dp4362
g53
(dp4363
g80
g81
ssg62
g4352
sg55
(lp4364
S':'
asbag48
(g69
g50
NtRp4365
(dp4366
g53
(dp4367
sg62
g4352
sg55
(lp4368
g48
(g49
g50
NtRp4369
(dp4370
g53
(dp4371
g61
I4
ssg62
g4365
sg55
(lp4372
S'Copyright 2007-2010'
p4373
asbasbasbag48
(g64
g50
NtRp4374
(dp4375
g53
(dp4376
sg62
g4326
sg55
(lp4377
g48
(g69
g50
NtRp4378
(dp4379
g53
(dp4380
g73
g74
ssg62
g4374
sg55
(lp4381
S'description'
p4382
asbag48
(g69
g50
NtRp4383
(dp4384
g53
(dp4385
g80
g81
ssg62
g4374
sg55
(lp4386
S':'
asbag48
(g69
g50
NtRp4387
(dp4388
g53
(dp4389
sg62
g4374
sg55
(lp4390
g48
(g49
g50
NtRp4391
(dp4392
g53
(dp4393
g61
I4
ssg62
g4387
sg55
(lp4394
S'Free and open source full-stack enterprise framework for agile development of fast, scalable, secure and portable database-driven web-based applications. Written and programmable in Python'
p4395
asbasbasbag48
(g64
g50
NtRp4396
(dp4397
g53
(dp4398
sg62
g4326
sg55
(lp4399
g48
(g69
g50
NtRp4400
(dp4401
g53
(dp4402
g73
g74
ssg62
g4396
sg55
(lp4403
S'generator'
p4404
asbag48
(g69
g50
NtRp4405
(dp4406
g53
(dp4407
g80
g81
ssg62
g4396
sg55
(lp4408
S':'
asbag48
(g69
g50
NtRp4409
(dp4410
g53
(dp4411
sg62
g4396
sg55
(lp4412
g48
(g49
g50
NtRp4413
(dp4414
g53
(dp4415
g61
I4
ssg62
g4409
sg55
(lp4416
S'Web2py Enterprise Framework'
p4417
asbasbasbag48
(g64
g50
NtRp4418
(dp4419
g53
(dp4420
sg62
g4326
sg55
(lp4421
g48
(g69
g50
NtRp4422
(dp4423
g53
(dp4424
g73
g74
ssg62
g4418
sg55
(lp4425
S'keywords'
p4426
asbag48
(g69
g50
NtRp4427
(dp4428
g53
(dp4429
g80
g81
ssg62
g4418
sg55
(lp4430
S':'
asbag48
(g69
g50
NtRp4431
(dp4432
g53
(dp4433
sg62
g4418
sg55
(lp4434
g48
(g49
g50
NtRp4435
(dp4436
g53
(dp4437
g61
I4
ssg62
g4431
sg55
(lp4438
S'web2py, python, framework'
p4439
asbasbasbasbasbasbasbag48
(g64
g50
NtRp4440
(dp4441
g53
(dp4442
sg62
g2893
sg55
(lp4443
g48
(g69
g50
NtRp4444
(dp4445
g53
(dp4446
g73
g74
ssg62
g4440
sg55
(lp4447
S'postprocessing'
p4448
asbag48
(g69
g50
NtRp4449
(dp4450
g53
(dp4451
g80
g81
ssg62
g4440
sg55
(lp4452
S':'
asbag48
(g69
g50
NtRp4453
(dp4454
g53
(dp4455
sg62
g4440
sg55
(lp4456
g48
(g49
g50
NtRp4457
(dp4458
g53
(dp4459
g61
I5
ssg62
g4453
sg55
(lp4460
g48
(g57
g50
NtRp4461
(dp4462
g53
(dp4463
g61
I4
ssg62
Nsg55
(lp4464
sbasbasbasbag48
(g64
g50
NtRp4465
(dp4466
g53
(dp4467
sg62
g2893
sg55
(lp4468
g48
(g69
g50
NtRp4469
(dp4470
g53
(dp4471
g73
g74
ssg62
g4465
sg55
(lp4472
S'session_file'
p4473
asbag48
(g69
g50
NtRp4474
(dp4475
g53
(dp4476
g80
g81
ssg62
g4465
sg55
(lp4477
S':'
asbag48
(g69
g50
NtRp4478
(dp4479
g53
(dp4480
sg62
g4465
sg55
(lp4481
g48
(g49
g50
NtRp4482
(dp4483
g53
(dp4484
g61
I5
ssg62
g4478
sg55
(lp4485
S"<open file 'C:\\Users\\AKSHAY\\Desktop\\web2py\\applications\\201056161\\sessions\\127.0.0.1-3bc821ac-4d59-41c6-8699-b3e43edfc478', mode 'rb+' at 0x071A4D10>"
p4486
asbasbasbag48
(g64
g50
NtRp4487
(dp4488
g53
(dp4489
sg62
g2893
sg55
(lp4490
g48
(g69
g50
NtRp4491
(dp4492
g53
(dp4493
g73
g74
ssg62
g4487
sg55
(lp4494
S'session_filename'
p4495
asbag48
(g69
g50
NtRp4496
(dp4497
g53
(dp4498
g80
g81
ssg62
g4487
sg55
(lp4499
S':'
asbag48
(g69
g50
NtRp4500
(dp4501
g53
(dp4502
sg62
g4487
sg55
(lp4503
g48
(g49
g50
NtRp4504
(dp4505
g53
(dp4506
g61
I5
ssg62
g4500
sg55
(lp4507
S'C:\\Users\\AKSHAY\\Desktop\\web2py\\applications\\201056161\\sessions\\127.0.0.1-3bc821ac-4d59-41c6-8699-b3e43edfc478'
p4508
asbasbasbag48
(g64
g50
NtRp4509
(dp4510
g53
(dp4511
sg62
g2893
sg55
(lp4512
g48
(g69
g50
NtRp4513
(dp4514
g53
(dp4515
g73
g74
ssg62
g4509
sg55
(lp4516
S'session_id'
p4517
asbag48
(g69
g50
NtRp4518
(dp4519
g53
(dp4520
g80
g81
ssg62
g4509
sg55
(lp4521
S':'
asbag48
(g69
g50
NtRp4522
(dp4523
g53
(dp4524
sg62
g4509
sg55
(lp4525
g48
(g49
g50
NtRp4526
(dp4527
g53
(dp4528
g61
I5
ssg62
g4522
sg55
(lp4529
S'127.0.0.1-3bc821ac-4d59-41c6-8699-b3e43edfc478'
p4530
asbasbasbag48
(g64
g50
NtRp4531
(dp4532
g53
(dp4533
sg62
g2893
sg55
(lp4534
g48
(g69
g50
NtRp4535
(dp4536
g53
(dp4537
g73
g74
ssg62
g4531
sg55
(lp4538
S'session_id_name'
p4539
asbag48
(g69
g50
NtRp4540
(dp4541
g53
(dp4542
g80
g81
ssg62
g4531
sg55
(lp4543
S':'
asbag48
(g69
g50
NtRp4544
(dp4545
g53
(dp4546
sg62
g4531
sg55
(lp4547
g48
(g49
g50
NtRp4548
(dp4549
g53
(dp4550
g61
I5
ssg62
g4544
sg55
(lp4551
g2950
asbasbasbag48
(g64
g50
NtRp4552
(dp4553
g53
(dp4554
sg62
g2893
sg55
(lp4555
g48
(g69
g50
NtRp4556
(dp4557
g53
(dp4558
g73
g74
ssg62
g4552
sg55
(lp4559
S'session_locked'
p4560
asbag48
(g69
g50
NtRp4561
(dp4562
g53
(dp4563
g80
g81
ssg62
g4552
sg55
(lp4564
S':'
asbag48
(g69
g50
NtRp4565
(dp4566
g53
(dp4567
sg62
g4552
sg55
(lp4568
g48
(g49
g50
NtRp4569
(dp4570
g53
(dp4571
g61
I5
ssg62
g4565
sg55
(lp4572
g1630
asbasbasbag48
(g64
g50
NtRp4573
(dp4574
g53
(dp4575
sg62
g2893
sg55
(lp4576
g48
(g69
g50
NtRp4577
(dp4578
g53
(dp4579
g73
g74
ssg62
g4573
sg55
(lp4580
S'session_new'
p4581
asbag48
(g69
g50
NtRp4582
(dp4583
g53
(dp4584
g80
g81
ssg62
g4573
sg55
(lp4585
S':'
asbag48
(g69
g50
NtRp4586
(dp4587
g53
(dp4588
sg62
g4573
sg55
(lp4589
g48
(g49
g50
NtRp4590
(dp4591
g53
(dp4592
g61
I5
ssg62
g4586
sg55
(lp4593
g91
asbasbasbag48
(g64
g50
NtRp4594
(dp4595
g53
(dp4596
sg62
g2893
sg55
(lp4597
g48
(g69
g50
NtRp4598
(dp4599
g53
(dp4600
g73
g74
ssg62
g4594
sg55
(lp4601
S'status'
p4602
asbag48
(g69
g50
NtRp4603
(dp4604
g53
(dp4605
g80
g81
ssg62
g4594
sg55
(lp4606
S':'
asbag48
(g69
g50
NtRp4607
(dp4608
g53
(dp4609
sg62
g4594
sg55
(lp4610
g48
(g49
g50
NtRp4611
(dp4612
g53
(dp4613
g61
I5
ssg62
g4607
sg55
(lp4614
S'200'
p4615
asbasbasbag48
(g64
g50
NtRp4616
(dp4617
g53
(dp4618
sg62
g2893
sg55
(lp4619
g48
(g69
g50
NtRp4620
(dp4621
g53
(dp4622
g73
g74
ssg62
g4616
sg55
(lp4623
S'subtitle'
p4624
asbag48
(g69
g50
NtRp4625
(dp4626
g53
(dp4627
g80
g81
ssg62
g4616
sg55
(lp4628
S':'
asbag48
(g69
g50
NtRp4629
(dp4630
g53
(dp4631
sg62
g4616
sg55
(lp4632
g48
(g49
g50
NtRp4633
(dp4634
g53
(dp4635
g61
I5
ssg62
g4629
sg55
(lp4636
g3378
(S's\r\x00\x00\x00customize me!'
tRp4637
asbasbasbag48
(g64
g50
NtRp4638
(dp4639
g53
(dp4640
sg62
g2893
sg55
(lp4641
g48
(g69
g50
NtRp4642
(dp4643
g53
(dp4644
g73
g74
ssg62
g4638
sg55
(lp4645
S'title'
p4646
asbag48
(g69
g50
NtRp4647
(dp4648
g53
(dp4649
g80
g81
ssg62
g4638
sg55
(lp4650
S':'
asbag48
(g69
g50
NtRp4651
(dp4652
g53
(dp4653
sg62
g4638
sg55
(lp4654
g48
(g49
g50
NtRp4655
(dp4656
g53
(dp4657
g61
I5
ssg62
g4651
sg55
(lp4658
g113
asbasbasbag48
(g64
g50
NtRp4659
(dp4660
g53
(dp4661
sg62
g2893
sg55
(lp4662
g48
(g69
g50
NtRp4663
(dp4664
g53
(dp4665
g73
g74
ssg62
g4659
sg55
(lp4666
g1996
asbag48
(g69
g50
NtRp4667
(dp4668
g53
(dp4669
g80
g81
ssg62
g4659
sg55
(lp4670
S':'
asbag48
(g69
g50
NtRp4671
(dp4672
g53
(dp4673
sg62
g4659
sg55
(lp4674
g48
(g49
g50
NtRp4675
(dp4676
g53
(dp4677
g61
I5
ssg62
g4671
sg55
(lp4678
g2009
asbasbasbag48
(g64
g50
NtRp4679
(dp4680
g53
(dp4681
sg62
g2893
sg55
(lp4682
g48
(g69
g50
NtRp4683
(dp4684
g53
(dp4685
g73
g74
ssg62
g4679
sg55
(lp4686
S'view'
p4687
asbag48
(g69
g50
NtRp4688
(dp4689
g53
(dp4690
g80
g81
ssg62
g4679
sg55
(lp4691
S':'
asbag48
(g69
g50
NtRp4692
(dp4693
g53
(dp4694
sg62
g4679
sg55
(lp4695
g48
(g49
g50
NtRp4696
(dp4697
g53
(dp4698
g61
I5
ssg62
g4692
sg55
(lp4699
S'default/new.html'
p4700
asbasbasbasbasbsS'locals'
p4701
(dp4702
S'form'
p4703
S'<gluon.sqlhtml.SQLFORM object at 0x031E87B0>'
p4704
sssS'traceback'
p4705
S'Traceback (most recent call last):\n  File "gluon/restricted.py", line 192, in restricted\n  File "C:\\Users\\AKSHAY\\Desktop\\web2py\\applications\\201056161\\controllers/default.py", line 169, in <module>\n  File "gluon/globals.py", line 137, in <lambda>\n  File "C:\\Users\\AKSHAY\\Desktop\\web2py\\applications\\201056161\\controllers/default.py", line 153, in new\nTypeError: cannot concatenate \'str\' and \'NoneType\' objects\n'
p4706
s.