(dp1
S'output'
p2
S''
sS'layer'
p3
S'C:\\Users\\AKSHAY\\Desktop\\web2py\\applications\\201056161\\views\\default/song_details.html'
p4
sS'code'
p5
S'response.write(\'<!DOCTYPE html>\\n<html lang="\', escape=False)\nresponse.write(T.accepted_language or \'en\')\nresponse.write(\'" class="no-js"><!-- no-js need it for modernzr -->\\n  <head>\\n    \\n    <meta charset="utf-8" />\\t  \\t\\n    <!-- www.phpied.com/conditional-comments-block-downloads/ -->\\n    <!--[if IE]><![endif]-->    \\n    <!-- Always force latest IE rendering engine \\n\\t (even in intranet) & Chrome Frame \\n\\t Remove this if you use the .htaccess -->\\n    <meta http-equiv="X-UA-Compatible" content="IE=edge,chrome=1">\\n    \\n    <title>\', escape=False)\nresponse.write(response.title or request.application)\nresponse.write(\'</title>\\n    \\n    <!-- http://dev.w3.org/html5/markup/meta.name.html -->\\n    <meta name="application-name" content="\', escape=False)\nresponse.write(request.application)\nresponse.write(\'" />\\t\\n    \\n    <!-- Speaking of Google, don\\\'t forget to set your site up: \\n\\t http://google.com/webmasters -->\\n    <meta name="google-site-verification" content="" />\\n    \\n    <!--  Mobile Viewport Fix\\n\\t  j.mp/mobileviewport & davidbcalhoun.com/2010/viewport-metatag \\n\\t  device-width: Occupy full width of the screen in its current orientation\\n\\t  initial-scale = 1.0 retains dimensions instead of zooming out if page height > device height\\n\\t  maximum-scale = 1.0 retains dimensions instead of zooming in if page width < device width\\n      -->\\n    <meta name="viewport" content="width=device-width, initial-scale=1.0, maximum-scale=1.0">\\n    \\n    <!-- Place favicon.ico and apple-touch-icon.png in the root of your domain and delete these references -->\\n    <link rel="shortcut icon" href="\', escape=False)\nresponse.write(URL(\'static\',\'favicon.ico\'))\nresponse.write(\'" type="image/x-icon">\\n    <link rel="apple-touch-icon" href="\', escape=False)\nresponse.write(URL(\'static\',\'favicon.png\'))\nresponse.write(\'">\\n\\n    <!-- For the less-enabled mobile browsers like Opera Mini -->\\n    <link rel="stylesheet" media="handheld" href="\', escape=False)\nresponse.write(URL(\'static\',\'css/handheld.css\'))\nresponse.write(\'">\\n    \\n    <!-- All JavaScript at the bottom, except for Modernizr which enables HTML5 elements & feature detects -->\\n    <script src="\', escape=False)\nresponse.write(URL(\'static\',\'js/modernizr-1.7.min.js\'))\nresponse.write(\'"></script>\\n    \\n    \', escape=False)\n#------  require CSS and JS files for this page (read info in base.css) ------\nresponse.write(\'\\n    \', escape=False)\nresponse.files.append(URL(\'static\',\'css/base.css\'))\nresponse.write(\'\\n    \', escape=False)\nresponse.files.append(URL(\'static\',\'css/superfish.css\'))\nresponse.write(\'\\n    \', escape=False)\nresponse.files.append(URL(\'static\',\'js/superfish.js\'))\nresponse.write(\'\\n    \', escape=False)\n#------ include web2py specific js code (jquery, calendar, form stuff) ------\nresponse.write(\'\\n    \', escape=False)\nresponse.files.insert(0,URL(\'static\',\'js/jquery.js\'))\nresponse.files.insert(1,URL(\'static\',\'css/calendar.css\'))\nresponse.files.insert(2,URL(\'static\',\'js/calendar.js\'))\nfor _item in response.meta or []:\n    response.write(\'\\n     <meta name="\', escape=False)\n    response.write(_item)\n    response.write(\'" content="\', escape=False)\n    response.write(response.meta[_item])\n    response.write(\'" />\', escape=False)\n    pass\nfor _k,_file in enumerate(response.files or []):\n    if _file in response.files[:_k]:\n        continue\n    _file0=_file.lower().split(\'?\')[0]\n    if _file0.endswith(\'.css\'):\n        response.write(\'\\n     <link href="\', escape=False)\n        response.write(_file)\n        response.write(\'" rel="stylesheet" type="text/css" />\', escape=False)\n    elif _file0.endswith(\'.js\'):\n        response.write(\'\\n     <script src="\', escape=False)\n        response.write(_file)\n        response.write(\'" type="text/javascript"></script>\', escape=False)\n        pass\n    pass\nresponse.write(\'\\n    <script type="text/javascript"><!--\\n    // These variables are used by the web2py_ajax_init function in web2py_ajax.js (which is loaded below).\\n    var w2p_ajax_confirm_message = "\', escape=False)\nresponse.write(T(\'Are you sure you want to delete this object?\'))\nresponse.write(\'";\\n    var w2p_ajax_date_format = "\', escape=False)\nresponse.write(T(\'%Y-%m-%d\'))\nresponse.write(\'";\\n    var w2p_ajax_datetime_format = "\', escape=False)\nresponse.write(T(\'%Y-%m-%d %H:%M:%S\'))\nresponse.write(\'";\\n    //--></script>\\n    <script src="\', escape=False)\nresponse.write(URL(\'static\',\'js/web2py_ajax.js\'))\nresponse.write(\'" type="text/javascript"></script>\\n\', escape=False)\nresponse.write(\'\\n\\n    \', escape=False)\n#using sidebars need to know what sidebar you want to use\n#prior of using it, because of static width size of content, you can use\n#left_sidebar, right_sidebar, both or none (False left and right)\nleft_sidebar_enabled = globals().get(\'left_sidebar_enabled\',False)\nright_sidebar_enabled = globals().get(\'right_sidebar_enabled\',False)\nif left_sidebar_enabled and right_sidebar_enabled: width_content=\'63%\'\nelif left_sidebar_enabled != right_sidebar_enabled: width_content=\'740px\'\nelse: width_content=\'100%\'\nif left_sidebar_enabled: left_sidebar_style = \'style="display: block;"\'\nelse: left_sidebar_style = \'style="display: none;"\'\nif right_sidebar_enabled: right_sidebar_style = \'style="display: block;"\'\nelse: right_sidebar_style = \'style="display: none;"\'\nstyle_content = \'style="width: %s"\' % width_content\nresponse.write(\'\\n  </head>\\n  \\n  <!-- paulirish.com/2008/conditional-stylesheets-vs-css-hacks-answer-neither/ -->\\t\\n  <!--[if lt IE 7 ]> <body class="ie6"> <![endif]-->\\n  <!--[if IE 7 ]>    <body class="ie7"> <![endif]-->\\n  <!--[if IE 8 ]>    <body class="ie8"> <![endif]-->\\n  <!--[if IE 9 ]>    <body class="ie9"> <![endif]-->\\n  <!--[if (gt IE 9)|!(IE)]><!--> <body> <!--<![endif]-->\\n    \\n    <div class="flash">\', escape=False)\nresponse.write(response.flash or \'\')\nresponse.write(\'</div> <!-- notification div -->\\n    \\n    <div id="container">\\t      \\t\\t      \\t\\n      \\n      <div id="wrapper">\\t\\t\\n\\t\\n\\t<div id="header"> <!-- header and login nav -->\\n\\t  \', escape=False)\nresponse.write(\' <!-- this is default header -->\\n\\t  \', escape=False)\ntry:\n    response.write(auth.navbar(action=URL(\'default\',\'user\')))\nexcept:pass\nresponse.write(\'\\t\\t          \\n\\t  <h1><span id="appname">\', escape=False)\nresponse.write(request.application.capitalize())\nresponse.write(\'</span>App</h1>\\n\\t  <div style="clear: both;"></div><!-- Clear the divs -->\\n\\t  \', escape=False)\nresponse.write(\'\\t\\t\\t\\t  \\t\\t\\t\\t\\t  \\n\\t</div><!-- header  -->\\n\\t\\n\\t<div id="statusbar"><!-- statusbar is menu zone -->\\n\\t  \', escape=False)\nresponse.write(\' <!-- this is default statusbar -->\\n\\t  \', escape=False)\n#------ superfish menu ------\nresponse.write(\'\\n\\t  \', escape=False)\nresponse.write(MENU(response.menu,_class=\'sf-menu\'))\nresponse.write(\'\\n\\t  <script type="text/javascript">\\n\\t    jQuery(document).ready(function(){\\n\\t    jQuery(\\\'ul.sf-menu\\\').superfish();});\\n\\t  </script>\\n\\t  <div style="clear: both;"></div><!-- Clear the divs -->\\t\\n\\t  \', escape=False)\nresponse.write(\'\\t\\t\\t\\t\\n\\t</div><!-- statusbar -->\\n\\t\\n\\t<div id="page"> <!-- Here my central body -->\\t  \\n\\n\\t  \', escape=False)\nif left_sidebar_enabled:\n    response.write(\'\\n          <div id="left_sidebar" \', escape=False)\n    response.write(XML(left_sidebar_style))\n    response.write(\' >\\n            <div style="padding: 4px;">\\n\\t      \', escape=False)\n    response.write(\'Content Left Sidebar\', escape=False)\n    response.write(\'\\t\\t  \\n            </div>\\n          </div><!-- left_sidebar -->\\n\\t  \', escape=False)\n    pass\nresponse.write(\'\\n\\n\\t  <!-- content -->\\n\\t  <div id="content" \', escape=False)\nresponse.write(XML(style_content))\nresponse.write(\' >\\n\\t    \', escape=False)\nresponse.write(\'\\r\\n\', escape=False)\nresponse.write(records.length)\nresponse.write(\'\\r\\n<br/>\\r\\n\', escape=False)\nresponse.write(records.singer)\nresponse.write(\'\\r\\n<br/>\\r\\n\', escape=False)\nresponse.write(records.composer)\nresponse.write(\'\\r\\n<br/>\\r\\n\', escape=False)\nresponse.write(records.movie)\nresponse.write(\'\\r\\n<br/>\\r\\n\', escape=False)\nresponse.write(records.singing_actor)\nresponse.write(\'\\r\\n\', escape=False)\nresponse.write(\'\\t\\n\\t  </div>\\n\\t  <!-- content -->\\n\\n\\t  \', escape=False)\nif right_sidebar_enabled:\n    response.write(\'\\n          <div id="right_sidebar" \', escape=False)\n    response.write(XML(right_sidebar_style))\n    response.write(\' >\\n            <div style="padding: 4px;">\\n              \', escape=False)\n    response.write(\'Content Right Sidebar\', escape=False)\n    response.write(\'\\n            </div>\\n\\t  </div><!-- right_sidebar -->\\n          \', escape=False)\n    pass\nresponse.write(\'\\n\\n\\n\\t  <div style="clear: both;"></div><!-- Clear the divs -->\\n\\t  \\n\\t</div><!-- page -->\\t\\t\\t\\t\\t\\t\\t\\n\\t\\n\\t<div id="footer">\\n\\t  \', escape=False)\nresponse.write(\' <!-- this is default footer -->\\n\\t  <a href="http://www.web2py.com/" style="float: left; padding-right: 6px;">\\n\\t    <img src="\', escape=False)\nresponse.write(URL(\'static\',\'images/poweredby.png\'))\nresponse.write(\'"/>\\n\\t  </a>\\n\\t  \', escape=False)\nresponse.write(T(\'Copyright\'))\nresponse.write(\' &#169; 2010\\t\\t\\t\\t\\n\\t  <div style="clear: both;"></div><!-- Clear the divs -->\\n\\t  \', escape=False)\nresponse.write(\'\\n\\n\\t</div><!-- footer -->\\t\\t\\t\\n      </div><!-- wrapper -->\\n    </div><!-- container -->\\t\\t\\n    \\n    <!--[if lt IE 7 ]>\\n\\t<script src="\', escape=False)\nresponse.write(URL(\'static\',\'js/dd_belatedpng.js\'))\nresponse.write(\'"></script>\\n\\t<script> DD_belatedPNG.fix(\\\'img, .png_bg\\\'); //fix any <img> or .png_bg background-images </script>\\n\\t<![endif]-->\\n    \\n    <!-- asynchronous google analytics: mathiasbynens.be/notes/async-analytics-snippet \\n\\t change the UA-XXXXX-X to be your site\\\'s ID -->\\n    <!--   \\n\\t   <script>\\n\\t     var _gaq = [[\\\'_setAccount\\\', \\\'UA-XXXXX-X\\\'], [\\\'_trackPageview\\\']];\\n\\t     (function(d, t) {\\n\\t     var g = d.createElement(t),\\n\\t     s = d.getElementsByTagName(t)[0];\\n\\t     g.async = true;\\n\\t     g.src = \\\'//www.google-analytics.com/ga.js\\\';\\n\\t     s.parentNode.insertBefore(g, s);\\n\\t     })(document, \\\'script\\\');\\n\\t   </script>\\n\\t   -->    \\n  </body>\\n</html>\\n\', escape=False)'
p6
sS'snapshot'
p7
(dp8
S'exception'
p9
(dp10
S'__hash__'
p11
S"<method-wrapper '__hash__' of exceptions.AttributeError object at 0x06CD4760>"
p12
sS'__setattr__'
p13
S"<method-wrapper '__setattr__' of exceptions.AttributeError object at 0x06CD4760>"
p14
sS'__reduce_ex__'
p15
S'<built-in method __reduce_ex__ of exceptions.AttributeError object at 0x06CD4760>'
p16
sS'__getslice__'
p17
S"<method-wrapper '__getslice__' of exceptions.AttributeError object at 0x06CD4760>"
p18
sS'__getitem__'
p19
S"<method-wrapper '__getitem__' of exceptions.AttributeError object at 0x06CD4760>"
p20
sS'__setstate__'
p21
S'<built-in method __setstate__ of exceptions.AttributeError object at 0x06CD4760>'
p22
sS'__reduce__'
p23
S'<built-in method __reduce__ of exceptions.AttributeError object at 0x06CD4760>'
p24
sS'__str__'
p25
S"<method-wrapper '__str__' of exceptions.AttributeError object at 0x06CD4760>"
p26
sS'args'
p27
S'("\'Rows\' object has no attribute \'length\'",)'
p28
sS'__getattribute__'
p29
S"<method-wrapper '__getattribute__' of exceptions.AttributeError object at 0x06CD4760>"
p30
sS'__class__'
p31
S"<type 'exceptions.AttributeError'>"
p32
sS'__delattr__'
p33
S"<method-wrapper '__delattr__' of exceptions.AttributeError object at 0x06CD4760>"
p34
sS'__repr__'
p35
S"<method-wrapper '__repr__' of exceptions.AttributeError object at 0x06CD4760>"
p36
sS'__dict__'
p37
S'{}'
p38
sS'__doc__'
p39
S"'Attribute not found.'"
p40
sS'__init__'
p41
S"<method-wrapper '__init__' of exceptions.AttributeError object at 0x06CD4760>"
p42
sS'__new__'
p43
S'<built-in method __new__ of type object at 0x1E1CDA68>'
p44
ssS'evalue'
p45
S"'Rows' object has no attribute 'length'"
p46
sS'request'
p47
ccopy_reg
_reconstructor
p48
(cgluon.html
BEAUTIFY
p49
c__builtin__
object
p50
NtRp51
(dp52
S'attributes'
p53
(dp54
sS'components'
p55
(lp56
g48
(cgluon.html
TABLE
p57
g50
NtRp58
(dp59
g53
(dp60
S'level'
p61
I5
ssS'parent'
p62
Nsg55
(lp63
g48
(cgluon.html
TR
p64
g50
NtRp65
(dp66
g53
(dp67
sg62
g58
sg55
(lp68
g48
(cgluon.html
TD
p69
g50
NtRp70
(dp71
g53
(dp72
S'_style'
p73
S'font-weight:bold;'
p74
ssg62
g65
sg55
(lp75
S'ajax'
p76
asbag48
(g69
g50
NtRp77
(dp78
g53
(dp79
S'_valign'
p80
S'top'
p81
ssg62
g65
sg55
(lp82
S':'
asbag48
(g69
g50
NtRp83
(dp84
g53
(dp85
sg62
g65
sg55
(lp86
g48
(g49
g50
NtRp87
(dp88
g53
(dp89
g61
I5
ssg62
g83
sg55
(lp90
S'False'
p91
asbasbasbag48
(g64
g50
NtRp92
(dp93
g53
(dp94
sg62
g58
sg55
(lp95
g48
(g69
g50
NtRp96
(dp97
g53
(dp98
g73
g74
ssg62
g92
sg55
(lp99
S'application'
p100
asbag48
(g69
g50
NtRp101
(dp102
g53
(dp103
g80
g81
ssg62
g92
sg55
(lp104
S':'
asbag48
(g69
g50
NtRp105
(dp106
g53
(dp107
sg62
g92
sg55
(lp108
g48
(g49
g50
NtRp109
(dp110
g53
(dp111
g61
I5
ssg62
g105
sg55
(lp112
S'201056161'
p113
asbasbasbag48
(g64
g50
NtRp114
(dp115
g53
(dp116
sg62
g58
sg55
(lp117
g48
(g69
g50
NtRp118
(dp119
g53
(dp120
g73
g74
ssg62
g114
sg55
(lp121
g27
asbag48
(g69
g50
NtRp122
(dp123
g53
(dp124
g80
g81
ssg62
g114
sg55
(lp125
S':'
asbag48
(g69
g50
NtRp126
(dp127
g53
(dp128
sg62
g114
sg55
(lp129
g48
(g49
g50
NtRp130
(dp131
g53
(dp132
g61
I5
ssg62
g126
sg55
(lp133
g48
(g57
g50
NtRp134
(dp135
g53
(dp136
g61
I4
ssg62
Nsg55
(lp137
sbasbasbasbag48
(g64
g50
NtRp138
(dp139
g53
(dp140
sg62
g58
sg55
(lp141
g48
(g69
g50
NtRp142
(dp143
g53
(dp144
g73
g74
ssg62
g138
sg55
(lp145
S'body'
p146
asbag48
(g69
g50
NtRp147
(dp148
g53
(dp149
g80
g81
ssg62
g138
sg55
(lp150
S':'
asbag48
(g69
g50
NtRp151
(dp152
g53
(dp153
sg62
g138
sg55
(lp154
g48
(g49
g50
NtRp155
(dp156
g53
(dp157
g61
I5
ssg62
g151
sg55
(lp158
S'<cStringIO.StringO object at 0x074E8440>'
p159
asbasbasbag48
(g64
g50
NtRp160
(dp161
g53
(dp162
sg62
g58
sg55
(lp163
g48
(g69
g50
NtRp164
(dp165
g53
(dp166
g73
g74
ssg62
g160
sg55
(lp167
S'client'
p168
asbag48
(g69
g50
NtRp169
(dp170
g53
(dp171
g80
g81
ssg62
g160
sg55
(lp172
S':'
asbag48
(g69
g50
NtRp173
(dp174
g53
(dp175
sg62
g160
sg55
(lp176
g48
(g49
g50
NtRp177
(dp178
g53
(dp179
g61
I5
ssg62
g173
sg55
(lp180
S'127.0.0.1'
p181
asbasbasbag48
(g64
g50
NtRp182
(dp183
g53
(dp184
sg62
g58
sg55
(lp185
g48
(g69
g50
NtRp186
(dp187
g53
(dp188
g73
g74
ssg62
g182
sg55
(lp189
S'controller'
p190
asbag48
(g69
g50
NtRp191
(dp192
g53
(dp193
g80
g81
ssg62
g182
sg55
(lp194
S':'
asbag48
(g69
g50
NtRp195
(dp196
g53
(dp197
sg62
g182
sg55
(lp198
g48
(g49
g50
NtRp199
(dp200
g53
(dp201
g61
I5
ssg62
g195
sg55
(lp202
S'default'
p203
asbasbasbag48
(g64
g50
NtRp204
(dp205
g53
(dp206
sg62
g58
sg55
(lp207
g48
(g69
g50
NtRp208
(dp209
g53
(dp210
g73
g74
ssg62
g204
sg55
(lp211
S'cookies'
p212
asbag48
(g69
g50
NtRp213
(dp214
g53
(dp215
g80
g81
ssg62
g204
sg55
(lp216
S':'
asbag48
(g69
g50
NtRp217
(dp218
g53
(dp219
sg62
g204
sg55
(lp220
g48
(g49
g50
NtRp221
(dp222
g53
(dp223
g61
I5
ssg62
g217
sg55
(lp224
g48
(g57
g50
NtRp225
(dp226
g53
(dp227
g61
I4
ssg62
Nsg55
(lp228
g48
(g64
g50
NtRp229
(dp230
g53
(dp231
sg62
g225
sg55
(lp232
g48
(g69
g50
NtRp233
(dp234
g53
(dp235
g73
g74
ssg62
g229
sg55
(lp236
S'session_id_201056161'
p237
asbag48
(g69
g50
NtRp238
(dp239
g53
(dp240
g80
g81
ssg62
g229
sg55
(lp241
S':'
asbag48
(g69
g50
NtRp242
(dp243
g53
(dp244
sg62
g229
sg55
(lp245
g48
(g49
g50
NtRp246
(dp247
g53
(dp248
g61
I4
ssg62
g242
sg55
(lp249
g48
(g57
g50
NtRp250
(dp251
g53
(dp252
g61
I3
ssg62
Nsg55
(lp253
g48
(g64
g50
NtRp254
(dp255
g53
(dp256
sg62
g250
sg55
(lp257
g48
(g69
g50
NtRp258
(dp259
g53
(dp260
g73
g74
ssg62
g254
sg55
(lp261
S'comment'
p262
asbag48
(g69
g50
NtRp263
(dp264
g53
(dp265
g80
g81
ssg62
g254
sg55
(lp266
S':'
asbag48
(g69
g50
NtRp267
(dp268
g53
(dp269
sg62
g254
sg55
(lp270
g48
(g49
g50
NtRp271
(dp272
g53
(dp273
g61
I3
ssg62
g267
sg55
(lp274
S''
asbasbasbag48
(g64
g50
NtRp275
(dp276
g53
(dp277
sg62
g250
sg55
(lp278
g48
(g69
g50
NtRp279
(dp280
g53
(dp281
g73
g74
ssg62
g275
sg55
(lp282
S'domain'
p283
asbag48
(g69
g50
NtRp284
(dp285
g53
(dp286
g80
g81
ssg62
g275
sg55
(lp287
S':'
asbag48
(g69
g50
NtRp288
(dp289
g53
(dp290
sg62
g275
sg55
(lp291
g48
(g49
g50
NtRp292
(dp293
g53
(dp294
g61
I3
ssg62
g288
sg55
(lp295
S''
asbasbasbag48
(g64
g50
NtRp296
(dp297
g53
(dp298
sg62
g250
sg55
(lp299
g48
(g69
g50
NtRp300
(dp301
g53
(dp302
g73
g74
ssg62
g296
sg55
(lp303
S'expires'
p304
asbag48
(g69
g50
NtRp305
(dp306
g53
(dp307
g80
g81
ssg62
g296
sg55
(lp308
S':'
asbag48
(g69
g50
NtRp309
(dp310
g53
(dp311
sg62
g296
sg55
(lp312
g48
(g49
g50
NtRp313
(dp314
g53
(dp315
g61
I3
ssg62
g309
sg55
(lp316
S''
asbasbasbag48
(g64
g50
NtRp317
(dp318
g53
(dp319
sg62
g250
sg55
(lp320
g48
(g69
g50
NtRp321
(dp322
g53
(dp323
g73
g74
ssg62
g317
sg55
(lp324
S'max-age'
p325
asbag48
(g69
g50
NtRp326
(dp327
g53
(dp328
g80
g81
ssg62
g317
sg55
(lp329
S':'
asbag48
(g69
g50
NtRp330
(dp331
g53
(dp332
sg62
g317
sg55
(lp333
g48
(g49
g50
NtRp334
(dp335
g53
(dp336
g61
I3
ssg62
g330
sg55
(lp337
S''
asbasbasbag48
(g64
g50
NtRp338
(dp339
g53
(dp340
sg62
g250
sg55
(lp341
g48
(g69
g50
NtRp342
(dp343
g53
(dp344
g73
g74
ssg62
g338
sg55
(lp345
S'path'
p346
asbag48
(g69
g50
NtRp347
(dp348
g53
(dp349
g80
g81
ssg62
g338
sg55
(lp350
S':'
asbag48
(g69
g50
NtRp351
(dp352
g53
(dp353
sg62
g338
sg55
(lp354
g48
(g49
g50
NtRp355
(dp356
g53
(dp357
g61
I3
ssg62
g351
sg55
(lp358
S''
asbasbasbag48
(g64
g50
NtRp359
(dp360
g53
(dp361
sg62
g250
sg55
(lp362
g48
(g69
g50
NtRp363
(dp364
g53
(dp365
g73
g74
ssg62
g359
sg55
(lp366
S'secure'
p367
asbag48
(g69
g50
NtRp368
(dp369
g53
(dp370
g80
g81
ssg62
g359
sg55
(lp371
S':'
asbag48
(g69
g50
NtRp372
(dp373
g53
(dp374
sg62
g359
sg55
(lp375
g48
(g49
g50
NtRp376
(dp377
g53
(dp378
g61
I3
ssg62
g372
sg55
(lp379
S''
asbasbasbag48
(g64
g50
NtRp380
(dp381
g53
(dp382
sg62
g250
sg55
(lp383
g48
(g69
g50
NtRp384
(dp385
g53
(dp386
g73
g74
ssg62
g380
sg55
(lp387
S'version'
p388
asbag48
(g69
g50
NtRp389
(dp390
g53
(dp391
g80
g81
ssg62
g380
sg55
(lp392
S':'
asbag48
(g69
g50
NtRp393
(dp394
g53
(dp395
sg62
g380
sg55
(lp396
g48
(g49
g50
NtRp397
(dp398
g53
(dp399
g61
I3
ssg62
g393
sg55
(lp400
S''
asbasbasbasbasbasbasbag48
(g64
g50
NtRp401
(dp402
g53
(dp403
sg62
g225
sg55
(lp404
g48
(g69
g50
NtRp405
(dp406
g53
(dp407
g73
g74
ssg62
g401
sg55
(lp408
S'session_id_admin'
p409
asbag48
(g69
g50
NtRp410
(dp411
g53
(dp412
g80
g81
ssg62
g401
sg55
(lp413
S':'
asbag48
(g69
g50
NtRp414
(dp415
g53
(dp416
sg62
g401
sg55
(lp417
g48
(g49
g50
NtRp418
(dp419
g53
(dp420
g61
I4
ssg62
g414
sg55
(lp421
g48
(g57
g50
NtRp422
(dp423
g53
(dp424
g61
I3
ssg62
Nsg55
(lp425
g48
(g64
g50
NtRp426
(dp427
g53
(dp428
sg62
g422
sg55
(lp429
g48
(g69
g50
NtRp430
(dp431
g53
(dp432
g73
g74
ssg62
g426
sg55
(lp433
g262
asbag48
(g69
g50
NtRp434
(dp435
g53
(dp436
g80
g81
ssg62
g426
sg55
(lp437
S':'
asbag48
(g69
g50
NtRp438
(dp439
g53
(dp440
sg62
g426
sg55
(lp441
g48
(g49
g50
NtRp442
(dp443
g53
(dp444
g61
I3
ssg62
g438
sg55
(lp445
S''
asbasbasbag48
(g64
g50
NtRp446
(dp447
g53
(dp448
sg62
g422
sg55
(lp449
g48
(g69
g50
NtRp450
(dp451
g53
(dp452
g73
g74
ssg62
g446
sg55
(lp453
g283
asbag48
(g69
g50
NtRp454
(dp455
g53
(dp456
g80
g81
ssg62
g446
sg55
(lp457
S':'
asbag48
(g69
g50
NtRp458
(dp459
g53
(dp460
sg62
g446
sg55
(lp461
g48
(g49
g50
NtRp462
(dp463
g53
(dp464
g61
I3
ssg62
g458
sg55
(lp465
S''
asbasbasbag48
(g64
g50
NtRp466
(dp467
g53
(dp468
sg62
g422
sg55
(lp469
g48
(g69
g50
NtRp470
(dp471
g53
(dp472
g73
g74
ssg62
g466
sg55
(lp473
g304
asbag48
(g69
g50
NtRp474
(dp475
g53
(dp476
g80
g81
ssg62
g466
sg55
(lp477
S':'
asbag48
(g69
g50
NtRp478
(dp479
g53
(dp480
sg62
g466
sg55
(lp481
g48
(g49
g50
NtRp482
(dp483
g53
(dp484
g61
I3
ssg62
g478
sg55
(lp485
S''
asbasbasbag48
(g64
g50
NtRp486
(dp487
g53
(dp488
sg62
g422
sg55
(lp489
g48
(g69
g50
NtRp490
(dp491
g53
(dp492
g73
g74
ssg62
g486
sg55
(lp493
g325
asbag48
(g69
g50
NtRp494
(dp495
g53
(dp496
g80
g81
ssg62
g486
sg55
(lp497
S':'
asbag48
(g69
g50
NtRp498
(dp499
g53
(dp500
sg62
g486
sg55
(lp501
g48
(g49
g50
NtRp502
(dp503
g53
(dp504
g61
I3
ssg62
g498
sg55
(lp505
S''
asbasbasbag48
(g64
g50
NtRp506
(dp507
g53
(dp508
sg62
g422
sg55
(lp509
g48
(g69
g50
NtRp510
(dp511
g53
(dp512
g73
g74
ssg62
g506
sg55
(lp513
g346
asbag48
(g69
g50
NtRp514
(dp515
g53
(dp516
g80
g81
ssg62
g506
sg55
(lp517
S':'
asbag48
(g69
g50
NtRp518
(dp519
g53
(dp520
sg62
g506
sg55
(lp521
g48
(g49
g50
NtRp522
(dp523
g53
(dp524
g61
I3
ssg62
g518
sg55
(lp525
S''
asbasbasbag48
(g64
g50
NtRp526
(dp527
g53
(dp528
sg62
g422
sg55
(lp529
g48
(g69
g50
NtRp530
(dp531
g53
(dp532
g73
g74
ssg62
g526
sg55
(lp533
g367
asbag48
(g69
g50
NtRp534
(dp535
g53
(dp536
g80
g81
ssg62
g526
sg55
(lp537
S':'
asbag48
(g69
g50
NtRp538
(dp539
g53
(dp540
sg62
g526
sg55
(lp541
g48
(g49
g50
NtRp542
(dp543
g53
(dp544
g61
I3
ssg62
g538
sg55
(lp545
S''
asbasbasbag48
(g64
g50
NtRp546
(dp547
g53
(dp548
sg62
g422
sg55
(lp549
g48
(g69
g50
NtRp550
(dp551
g53
(dp552
g73
g74
ssg62
g546
sg55
(lp553
g388
asbag48
(g69
g50
NtRp554
(dp555
g53
(dp556
g80
g81
ssg62
g546
sg55
(lp557
S':'
asbag48
(g69
g50
NtRp558
(dp559
g53
(dp560
sg62
g546
sg55
(lp561
g48
(g49
g50
NtRp562
(dp563
g53
(dp564
g61
I3
ssg62
g558
sg55
(lp565
S''
asbasbasbasbasbasbasbag48
(g64
g50
NtRp566
(dp567
g53
(dp568
sg62
g225
sg55
(lp569
g48
(g69
g50
NtRp570
(dp571
g53
(dp572
g73
g74
ssg62
g566
sg55
(lp573
S'session_id_welcome'
p574
asbag48
(g69
g50
NtRp575
(dp576
g53
(dp577
g80
g81
ssg62
g566
sg55
(lp578
S':'
asbag48
(g69
g50
NtRp579
(dp580
g53
(dp581
sg62
g566
sg55
(lp582
g48
(g49
g50
NtRp583
(dp584
g53
(dp585
g61
I4
ssg62
g579
sg55
(lp586
g48
(g57
g50
NtRp587
(dp588
g53
(dp589
g61
I3
ssg62
Nsg55
(lp590
g48
(g64
g50
NtRp591
(dp592
g53
(dp593
sg62
g587
sg55
(lp594
g48
(g69
g50
NtRp595
(dp596
g53
(dp597
g73
g74
ssg62
g591
sg55
(lp598
g262
asbag48
(g69
g50
NtRp599
(dp600
g53
(dp601
g80
g81
ssg62
g591
sg55
(lp602
S':'
asbag48
(g69
g50
NtRp603
(dp604
g53
(dp605
sg62
g591
sg55
(lp606
g48
(g49
g50
NtRp607
(dp608
g53
(dp609
g61
I3
ssg62
g603
sg55
(lp610
S''
asbasbasbag48
(g64
g50
NtRp611
(dp612
g53
(dp613
sg62
g587
sg55
(lp614
g48
(g69
g50
NtRp615
(dp616
g53
(dp617
g73
g74
ssg62
g611
sg55
(lp618
g283
asbag48
(g69
g50
NtRp619
(dp620
g53
(dp621
g80
g81
ssg62
g611
sg55
(lp622
S':'
asbag48
(g69
g50
NtRp623
(dp624
g53
(dp625
sg62
g611
sg55
(lp626
g48
(g49
g50
NtRp627
(dp628
g53
(dp629
g61
I3
ssg62
g623
sg55
(lp630
S''
asbasbasbag48
(g64
g50
NtRp631
(dp632
g53
(dp633
sg62
g587
sg55
(lp634
g48
(g69
g50
NtRp635
(dp636
g53
(dp637
g73
g74
ssg62
g631
sg55
(lp638
g304
asbag48
(g69
g50
NtRp639
(dp640
g53
(dp641
g80
g81
ssg62
g631
sg55
(lp642
S':'
asbag48
(g69
g50
NtRp643
(dp644
g53
(dp645
sg62
g631
sg55
(lp646
g48
(g49
g50
NtRp647
(dp648
g53
(dp649
g61
I3
ssg62
g643
sg55
(lp650
S''
asbasbasbag48
(g64
g50
NtRp651
(dp652
g53
(dp653
sg62
g587
sg55
(lp654
g48
(g69
g50
NtRp655
(dp656
g53
(dp657
g73
g74
ssg62
g651
sg55
(lp658
g325
asbag48
(g69
g50
NtRp659
(dp660
g53
(dp661
g80
g81
ssg62
g651
sg55
(lp662
S':'
asbag48
(g69
g50
NtRp663
(dp664
g53
(dp665
sg62
g651
sg55
(lp666
g48
(g49
g50
NtRp667
(dp668
g53
(dp669
g61
I3
ssg62
g663
sg55
(lp670
S''
asbasbasbag48
(g64
g50
NtRp671
(dp672
g53
(dp673
sg62
g587
sg55
(lp674
g48
(g69
g50
NtRp675
(dp676
g53
(dp677
g73
g74
ssg62
g671
sg55
(lp678
g346
asbag48
(g69
g50
NtRp679
(dp680
g53
(dp681
g80
g81
ssg62
g671
sg55
(lp682
S':'
asbag48
(g69
g50
NtRp683
(dp684
g53
(dp685
sg62
g671
sg55
(lp686
g48
(g49
g50
NtRp687
(dp688
g53
(dp689
g61
I3
ssg62
g683
sg55
(lp690
S''
asbasbasbag48
(g64
g50
NtRp691
(dp692
g53
(dp693
sg62
g587
sg55
(lp694
g48
(g69
g50
NtRp695
(dp696
g53
(dp697
g73
g74
ssg62
g691
sg55
(lp698
g367
asbag48
(g69
g50
NtRp699
(dp700
g53
(dp701
g80
g81
ssg62
g691
sg55
(lp702
S':'
asbag48
(g69
g50
NtRp703
(dp704
g53
(dp705
sg62
g691
sg55
(lp706
g48
(g49
g50
NtRp707
(dp708
g53
(dp709
g61
I3
ssg62
g703
sg55
(lp710
S''
asbasbasbag48
(g64
g50
NtRp711
(dp712
g53
(dp713
sg62
g587
sg55
(lp714
g48
(g69
g50
NtRp715
(dp716
g53
(dp717
g73
g74
ssg62
g711
sg55
(lp718
g388
asbag48
(g69
g50
NtRp719
(dp720
g53
(dp721
g80
g81
ssg62
g711
sg55
(lp722
S':'
asbag48
(g69
g50
NtRp723
(dp724
g53
(dp725
sg62
g711
sg55
(lp726
g48
(g49
g50
NtRp727
(dp728
g53
(dp729
g61
I3
ssg62
g723
sg55
(lp730
S''
asbasbasbasbasbasbasbasbasbasbasbag48
(g64
g50
NtRp731
(dp732
g53
(dp733
sg62
g58
sg55
(lp734
g48
(g69
g50
NtRp735
(dp736
g53
(dp737
g73
g74
ssg62
g731
sg55
(lp738
S'env'
p739
asbag48
(g69
g50
NtRp740
(dp741
g53
(dp742
g80
g81
ssg62
g731
sg55
(lp743
S':'
asbag48
(g69
g50
NtRp744
(dp745
g53
(dp746
sg62
g731
sg55
(lp747
g48
(g49
g50
NtRp748
(dp749
g53
(dp750
g61
I5
ssg62
g744
sg55
(lp751
g48
(g57
g50
NtRp752
(dp753
g53
(dp754
g61
I4
ssg62
Nsg55
(lp755
g48
(g64
g50
NtRp756
(dp757
g53
(dp758
sg62
g752
sg55
(lp759
g48
(g69
g50
NtRp760
(dp761
g53
(dp762
g73
g74
ssg62
g756
sg55
(lp763
S'app_folders'
p764
asbag48
(g69
g50
NtRp765
(dp766
g53
(dp767
g80
g81
ssg62
g756
sg55
(lp768
S':'
asbag48
(g69
g50
NtRp769
(dp770
g53
(dp771
sg62
g756
sg55
(lp772
g48
(g49
g50
NtRp773
(dp774
g53
(dp775
g61
I4
ssg62
g769
sg55
(lp776
S"set(['C:\\\\Users\\\\AKSHAY\\\\Desktop\\\\web2py\\\\applications\\\\welcome\\\\', 'C:\\\\Users\\\\AKSHAY\\\\Desktop\\\\web2py\\\\applications\\\\201056161\\\\', 'C:\\\\Users\\\\AKSHAY\\\\Desktop\\\\web2py\\\\applications\\\\examples\\\\', 'C:\\\\Users\\\\AKSHAY\\\\Desktop\\\\web2py\\\\applications\\\\admin\\\\', 'C:\\\\Users\\\\AKSHAY\\\\Desktop\\\\web2py\\\\applications\\\\MusicRepo\\\\'])"
p777
asbasbasbag48
(g64
g50
NtRp778
(dp779
g53
(dp780
sg62
g752
sg55
(lp781
g48
(g69
g50
NtRp782
(dp783
g53
(dp784
g73
g74
ssg62
g778
sg55
(lp785
S'applications_parent'
p786
asbag48
(g69
g50
NtRp787
(dp788
g53
(dp789
g80
g81
ssg62
g778
sg55
(lp790
S':'
asbag48
(g69
g50
NtRp791
(dp792
g53
(dp793
sg62
g778
sg55
(lp794
g48
(g49
g50
NtRp795
(dp796
g53
(dp797
g61
I4
ssg62
g791
sg55
(lp798
S'C:\\Users\\AKSHAY\\Desktop\\web2py'
p799
asbasbasbag48
(g64
g50
NtRp800
(dp801
g53
(dp802
sg62
g752
sg55
(lp803
g48
(g69
g50
NtRp804
(dp805
g53
(dp806
g73
g74
ssg62
g800
sg55
(lp807
S'cmd_args'
p808
asbag48
(g69
g50
NtRp809
(dp810
g53
(dp811
g80
g81
ssg62
g800
sg55
(lp812
S':'
asbag48
(g69
g50
NtRp813
(dp814
g53
(dp815
sg62
g800
sg55
(lp816
g48
(g49
g50
NtRp817
(dp818
g53
(dp819
g61
I4
ssg62
g813
sg55
(lp820
g48
(g57
g50
NtRp821
(dp822
g53
(dp823
g61
I3
ssg62
Nsg55
(lp824
sbasbasbasbag48
(g64
g50
NtRp825
(dp826
g53
(dp827
sg62
g752
sg55
(lp828
g48
(g69
g50
NtRp829
(dp830
g53
(dp831
g73
g74
ssg62
g825
sg55
(lp832
S'cmd_options'
p833
asbag48
(g69
g50
NtRp834
(dp835
g53
(dp836
g80
g81
ssg62
g825
sg55
(lp837
S':'
asbag48
(g69
g50
NtRp838
(dp839
g53
(dp840
sg62
g825
sg55
(lp841
g48
(g49
g50
NtRp842
(dp843
g53
(dp844
g61
I4
ssg62
g838
sg55
(lp845
S"<Values at 0x317dfd0: {'verbose': False, 'ip': '127.0.0.1', 'shutdown_timeout': 5, 'taskbar': False, 'port': 8000, 'maxthreads': None, 'softcron': False, 'server_name': 'AKSHAY-PC', 'bpython': False, 'nogui': False, 'nocron': False, 'extcron': False, 'debuglevel': 30, 'test': None, 'folder': 'C:\\\\Users\\\\AKSHAY\\\\Desktop\\\\web2py', 'config': '', 'import_models': False, 'winservice': '', 'shell': None, 'run': '', 'log_filename': 'httpserver.log', 'args': [''], 'profiler_filename': None, 'ssl_private_key': '', 'password': '<ask>', 'request_queue_size': 5, 'ssl_certificate': '', 'cronjob': False, 'plain': False, 'quiet': False, 'interfaces': None, 'minthreads': None, 'timeout': 10, 'numthreads': None, 'nobanner': False, 'pid_filename': 'httpserver.pid'}>"
p846
asbasbasbag48
(g64
g50
NtRp847
(dp848
g53
(dp849
sg62
g752
sg55
(lp850
g48
(g69
g50
NtRp851
(dp852
g53
(dp853
g73
g74
ssg62
g847
sg55
(lp854
S'db_sessions'
p855
asbag48
(g69
g50
NtRp856
(dp857
g53
(dp858
g80
g81
ssg62
g847
sg55
(lp859
S':'
asbag48
(g69
g50
NtRp860
(dp861
g53
(dp862
sg62
g847
sg55
(lp863
g48
(g49
g50
NtRp864
(dp865
g53
(dp866
g61
I4
ssg62
g860
sg55
(lp867
S'set([])'
p868
asbasbasbag48
(g64
g50
NtRp869
(dp870
g53
(dp871
sg62
g752
sg55
(lp872
g48
(g69
g50
NtRp873
(dp874
g53
(dp875
g73
g74
ssg62
g869
sg55
(lp876
S'debugging'
p877
asbag48
(g69
g50
NtRp878
(dp879
g53
(dp880
g80
g81
ssg62
g869
sg55
(lp881
S':'
asbag48
(g69
g50
NtRp882
(dp883
g53
(dp884
sg62
g869
sg55
(lp885
g48
(g49
g50
NtRp886
(dp887
g53
(dp888
g61
I4
ssg62
g882
sg55
(lp889
g91
asbasbasbag48
(g64
g50
NtRp890
(dp891
g53
(dp892
sg62
g752
sg55
(lp893
g48
(g69
g50
NtRp894
(dp895
g53
(dp896
g73
g74
ssg62
g890
sg55
(lp897
S'gluon_parent'
p898
asbag48
(g69
g50
NtRp899
(dp900
g53
(dp901
g80
g81
ssg62
g890
sg55
(lp902
S':'
asbag48
(g69
g50
NtRp903
(dp904
g53
(dp905
sg62
g890
sg55
(lp906
g48
(g49
g50
NtRp907
(dp908
g53
(dp909
g61
I4
ssg62
g903
sg55
(lp910
S'C:\\Users\\AKSHAY\\Desktop\\web2py'
p911
asbasbasbag48
(g64
g50
NtRp912
(dp913
g53
(dp914
sg62
g752
sg55
(lp915
g48
(g69
g50
NtRp916
(dp917
g53
(dp918
g73
g74
ssg62
g912
sg55
(lp919
S'http_accept'
p920
asbag48
(g69
g50
NtRp921
(dp922
g53
(dp923
g80
g81
ssg62
g912
sg55
(lp924
S':'
asbag48
(g69
g50
NtRp925
(dp926
g53
(dp927
sg62
g912
sg55
(lp928
g48
(g49
g50
NtRp929
(dp930
g53
(dp931
g61
I4
ssg62
g925
sg55
(lp932
S'text/html,application/xhtml+xml,application/xml;q=0.9,*/*;q=0.8'
p933
asbasbasbag48
(g64
g50
NtRp934
(dp935
g53
(dp936
sg62
g752
sg55
(lp937
g48
(g69
g50
NtRp938
(dp939
g53
(dp940
g73
g74
ssg62
g934
sg55
(lp941
S'http_accept_charset'
p942
asbag48
(g69
g50
NtRp943
(dp944
g53
(dp945
g80
g81
ssg62
g934
sg55
(lp946
S':'
asbag48
(g69
g50
NtRp947
(dp948
g53
(dp949
sg62
g934
sg55
(lp950
g48
(g49
g50
NtRp951
(dp952
g53
(dp953
g61
I4
ssg62
g947
sg55
(lp954
S'ISO-8859-1,utf-8;q=0.7,*;q=0.3'
p955
asbasbasbag48
(g64
g50
NtRp956
(dp957
g53
(dp958
sg62
g752
sg55
(lp959
g48
(g69
g50
NtRp960
(dp961
g53
(dp962
g73
g74
ssg62
g956
sg55
(lp963
S'http_accept_encoding'
p964
asbag48
(g69
g50
NtRp965
(dp966
g53
(dp967
g80
g81
ssg62
g956
sg55
(lp968
S':'
asbag48
(g69
g50
NtRp969
(dp970
g53
(dp971
sg62
g956
sg55
(lp972
g48
(g49
g50
NtRp973
(dp974
g53
(dp975
g61
I4
ssg62
g969
sg55
(lp976
S'gzip,deflate,sdch'
p977
asbasbasbag48
(g64
g50
NtRp978
(dp979
g53
(dp980
sg62
g752
sg55
(lp981
g48
(g69
g50
NtRp982
(dp983
g53
(dp984
g73
g74
ssg62
g978
sg55
(lp985
S'http_accept_language'
p986
asbag48
(g69
g50
NtRp987
(dp988
g53
(dp989
g80
g81
ssg62
g978
sg55
(lp990
S':'
asbag48
(g69
g50
NtRp991
(dp992
g53
(dp993
sg62
g978
sg55
(lp994
g48
(g49
g50
NtRp995
(dp996
g53
(dp997
g61
I4
ssg62
g991
sg55
(lp998
S'en-US,en;q=0.8'
p999
asbasbasbag48
(g64
g50
NtRp1000
(dp1001
g53
(dp1002
sg62
g752
sg55
(lp1003
g48
(g69
g50
NtRp1004
(dp1005
g53
(dp1006
g73
g74
ssg62
g1000
sg55
(lp1007
S'http_connection'
p1008
asbag48
(g69
g50
NtRp1009
(dp1010
g53
(dp1011
g80
g81
ssg62
g1000
sg55
(lp1012
S':'
asbag48
(g69
g50
NtRp1013
(dp1014
g53
(dp1015
sg62
g1000
sg55
(lp1016
g48
(g49
g50
NtRp1017
(dp1018
g53
(dp1019
g61
I4
ssg62
g1013
sg55
(lp1020
S'keep-alive'
p1021
asbasbasbag48
(g64
g50
NtRp1022
(dp1023
g53
(dp1024
sg62
g752
sg55
(lp1025
g48
(g69
g50
NtRp1026
(dp1027
g53
(dp1028
g73
g74
ssg62
g1022
sg55
(lp1029
S'http_cookie'
p1030
asbag48
(g69
g50
NtRp1031
(dp1032
g53
(dp1033
g80
g81
ssg62
g1022
sg55
(lp1034
S':'
asbag48
(g69
g50
NtRp1035
(dp1036
g53
(dp1037
sg62
g1022
sg55
(lp1038
g48
(g49
g50
NtRp1039
(dp1040
g53
(dp1041
g61
I4
ssg62
g1035
sg55
(lp1042
S'session_id_welcome=127.0.0.1-59771078-5064-4769-bad5-36c10b98c15f; session_id_admin=127.0.0.1-0f74329a-39f0-47c2-95cf-7f42bb528a7b; session_id_201056161=127.0.0.1-3bc821ac-4d59-41c6-8699-b3e43edfc478'
p1043
asbasbasbag48
(g64
g50
NtRp1044
(dp1045
g53
(dp1046
sg62
g752
sg55
(lp1047
g48
(g69
g50
NtRp1048
(dp1049
g53
(dp1050
g73
g74
ssg62
g1044
sg55
(lp1051
S'http_host'
p1052
asbag48
(g69
g50
NtRp1053
(dp1054
g53
(dp1055
g80
g81
ssg62
g1044
sg55
(lp1056
S':'
asbag48
(g69
g50
NtRp1057
(dp1058
g53
(dp1059
sg62
g1044
sg55
(lp1060
g48
(g49
g50
NtRp1061
(dp1062
g53
(dp1063
g61
I4
ssg62
g1057
sg55
(lp1064
S'127.0.0.1:8000'
p1065
asbasbasbag48
(g64
g50
NtRp1066
(dp1067
g53
(dp1068
sg62
g752
sg55
(lp1069
g48
(g69
g50
NtRp1070
(dp1071
g53
(dp1072
g73
g74
ssg62
g1066
sg55
(lp1073
S'http_referer'
p1074
asbag48
(g69
g50
NtRp1075
(dp1076
g53
(dp1077
g80
g81
ssg62
g1066
sg55
(lp1078
S':'
asbag48
(g69
g50
NtRp1079
(dp1080
g53
(dp1081
sg62
g1066
sg55
(lp1082
g48
(g49
g50
NtRp1083
(dp1084
g53
(dp1085
g61
I4
ssg62
g1079
sg55
(lp1086
S'http://127.0.0.1:8000/201056161/default/q2s?namen=9'
p1087
asbasbasbag48
(g64
g50
NtRp1088
(dp1089
g53
(dp1090
sg62
g752
sg55
(lp1091
g48
(g69
g50
NtRp1092
(dp1093
g53
(dp1094
g73
g74
ssg62
g1088
sg55
(lp1095
S'http_user_agent'
p1096
asbag48
(g69
g50
NtRp1097
(dp1098
g53
(dp1099
g80
g81
ssg62
g1088
sg55
(lp1100
S':'
asbag48
(g69
g50
NtRp1101
(dp1102
g53
(dp1103
sg62
g1088
sg55
(lp1104
g48
(g49
g50
NtRp1105
(dp1106
g53
(dp1107
g61
I4
ssg62
g1101
sg55
(lp1108
S'Mozilla/5.0 (Windows NT 6.1; WOW64) AppleWebKit/535.1 (KHTML, like Gecko) Chrome/13.0.782.218 Safari/535.1'
p1109
asbasbasbag48
(g64
g50
NtRp1110
(dp1111
g53
(dp1112
sg62
g752
sg55
(lp1113
g48
(g69
g50
NtRp1114
(dp1115
g53
(dp1116
g73
g74
ssg62
g1110
sg55
(lp1117
S'path_info'
p1118
asbag48
(g69
g50
NtRp1119
(dp1120
g53
(dp1121
g80
g81
ssg62
g1110
sg55
(lp1122
S':'
asbag48
(g69
g50
NtRp1123
(dp1124
g53
(dp1125
sg62
g1110
sg55
(lp1126
g48
(g49
g50
NtRp1127
(dp1128
g53
(dp1129
g61
I4
ssg62
g1123
sg55
(lp1130
S'/201056161/default/song_details'
p1131
asbasbasbag48
(g64
g50
NtRp1132
(dp1133
g53
(dp1134
sg62
g752
sg55
(lp1135
g48
(g69
g50
NtRp1136
(dp1137
g53
(dp1138
g73
g74
ssg62
g1132
sg55
(lp1139
S'query_string'
p1140
asbag48
(g69
g50
NtRp1141
(dp1142
g53
(dp1143
g80
g81
ssg62
g1132
sg55
(lp1144
S':'
asbag48
(g69
g50
NtRp1145
(dp1146
g53
(dp1147
sg62
g1132
sg55
(lp1148
g48
(g49
g50
NtRp1149
(dp1150
g53
(dp1151
g61
I4
ssg62
g1145
sg55
(lp1152
S'id=5'
p1153
asbasbasbag48
(g64
g50
NtRp1154
(dp1155
g53
(dp1156
sg62
g752
sg55
(lp1157
g48
(g69
g50
NtRp1158
(dp1159
g53
(dp1160
g73
g74
ssg62
g1154
sg55
(lp1161
S'remote_addr'
p1162
asbag48
(g69
g50
NtRp1163
(dp1164
g53
(dp1165
g80
g81
ssg62
g1154
sg55
(lp1166
S':'
asbag48
(g69
g50
NtRp1167
(dp1168
g53
(dp1169
sg62
g1154
sg55
(lp1170
g48
(g49
g50
NtRp1171
(dp1172
g53
(dp1173
g61
I4
ssg62
g1167
sg55
(lp1174
g181
asbasbasbag48
(g64
g50
NtRp1175
(dp1176
g53
(dp1177
sg62
g752
sg55
(lp1178
g48
(g69
g50
NtRp1179
(dp1180
g53
(dp1181
g73
g74
ssg62
g1175
sg55
(lp1182
S'remote_port'
p1183
asbag48
(g69
g50
NtRp1184
(dp1185
g53
(dp1186
g80
g81
ssg62
g1175
sg55
(lp1187
S':'
asbag48
(g69
g50
NtRp1188
(dp1189
g53
(dp1190
sg62
g1175
sg55
(lp1191
g48
(g49
g50
NtRp1192
(dp1193
g53
(dp1194
g61
I4
ssg62
g1188
sg55
(lp1195
S'51892'
p1196
asbasbasbag48
(g64
g50
NtRp1197
(dp1198
g53
(dp1199
sg62
g752
sg55
(lp1200
g48
(g69
g50
NtRp1201
(dp1202
g53
(dp1203
g73
g74
ssg62
g1197
sg55
(lp1204
S'request_method'
p1205
asbag48
(g69
g50
NtRp1206
(dp1207
g53
(dp1208
g80
g81
ssg62
g1197
sg55
(lp1209
S':'
asbag48
(g69
g50
NtRp1210
(dp1211
g53
(dp1212
sg62
g1197
sg55
(lp1213
g48
(g49
g50
NtRp1214
(dp1215
g53
(dp1216
g61
I4
ssg62
g1210
sg55
(lp1217
S'GET'
p1218
asbasbasbag48
(g64
g50
NtRp1219
(dp1220
g53
(dp1221
sg62
g752
sg55
(lp1222
g48
(g69
g50
NtRp1223
(dp1224
g53
(dp1225
g73
g74
ssg62
g1219
sg55
(lp1226
S'script_name'
p1227
asbag48
(g69
g50
NtRp1228
(dp1229
g53
(dp1230
g80
g81
ssg62
g1219
sg55
(lp1231
S':'
asbag48
(g69
g50
NtRp1232
(dp1233
g53
(dp1234
sg62
g1219
sg55
(lp1235
g48
(g49
g50
NtRp1236
(dp1237
g53
(dp1238
g61
I4
ssg62
g1232
sg55
(lp1239
S''
asbasbasbag48
(g64
g50
NtRp1240
(dp1241
g53
(dp1242
sg62
g752
sg55
(lp1243
g48
(g69
g50
NtRp1244
(dp1245
g53
(dp1246
g73
g74
ssg62
g1240
sg55
(lp1247
S'server_name'
p1248
asbag48
(g69
g50
NtRp1249
(dp1250
g53
(dp1251
g80
g81
ssg62
g1240
sg55
(lp1252
S':'
asbag48
(g69
g50
NtRp1253
(dp1254
g53
(dp1255
sg62
g1240
sg55
(lp1256
g48
(g49
g50
NtRp1257
(dp1258
g53
(dp1259
g61
I4
ssg62
g1253
sg55
(lp1260
S'AKSHAY-PC'
p1261
asbasbasbag48
(g64
g50
NtRp1262
(dp1263
g53
(dp1264
sg62
g752
sg55
(lp1265
g48
(g69
g50
NtRp1266
(dp1267
g53
(dp1268
g73
g74
ssg62
g1262
sg55
(lp1269
S'server_port'
p1270
asbag48
(g69
g50
NtRp1271
(dp1272
g53
(dp1273
g80
g81
ssg62
g1262
sg55
(lp1274
S':'
asbag48
(g69
g50
NtRp1275
(dp1276
g53
(dp1277
sg62
g1262
sg55
(lp1278
g48
(g49
g50
NtRp1279
(dp1280
g53
(dp1281
g61
I4
ssg62
g1275
sg55
(lp1282
S'8000'
p1283
asbasbasbag48
(g64
g50
NtRp1284
(dp1285
g53
(dp1286
sg62
g752
sg55
(lp1287
g48
(g69
g50
NtRp1288
(dp1289
g53
(dp1290
g73
g74
ssg62
g1284
sg55
(lp1291
S'server_protocol'
p1292
asbag48
(g69
g50
NtRp1293
(dp1294
g53
(dp1295
g80
g81
ssg62
g1284
sg55
(lp1296
S':'
asbag48
(g69
g50
NtRp1297
(dp1298
g53
(dp1299
sg62
g1284
sg55
(lp1300
g48
(g49
g50
NtRp1301
(dp1302
g53
(dp1303
g61
I4
ssg62
g1297
sg55
(lp1304
S'HTTP/1.1'
p1305
asbasbasbag48
(g64
g50
NtRp1306
(dp1307
g53
(dp1308
sg62
g752
sg55
(lp1309
g48
(g69
g50
NtRp1310
(dp1311
g53
(dp1312
g73
g74
ssg62
g1306
sg55
(lp1313
S'server_software'
p1314
asbag48
(g69
g50
NtRp1315
(dp1316
g53
(dp1317
g80
g81
ssg62
g1306
sg55
(lp1318
S':'
asbag48
(g69
g50
NtRp1319
(dp1320
g53
(dp1321
sg62
g1306
sg55
(lp1322
g48
(g49
g50
NtRp1323
(dp1324
g53
(dp1325
g61
I4
ssg62
g1319
sg55
(lp1326
S'Rocket 1.2.2'
p1327
asbasbasbag48
(g64
g50
NtRp1328
(dp1329
g53
(dp1330
sg62
g752
sg55
(lp1331
g48
(g69
g50
NtRp1332
(dp1333
g53
(dp1334
g73
g74
ssg62
g1328
sg55
(lp1335
S'web2py_crontype'
p1336
asbag48
(g69
g50
NtRp1337
(dp1338
g53
(dp1339
g80
g81
ssg62
g1328
sg55
(lp1340
S':'
asbag48
(g69
g50
NtRp1341
(dp1342
g53
(dp1343
sg62
g1328
sg55
(lp1344
g48
(g49
g50
NtRp1345
(dp1346
g53
(dp1347
g61
I4
ssg62
g1341
sg55
(lp1348
S'hard'
p1349
asbasbasbag48
(g64
g50
NtRp1350
(dp1351
g53
(dp1352
sg62
g752
sg55
(lp1353
g48
(g69
g50
NtRp1354
(dp1355
g53
(dp1356
g73
g74
ssg62
g1350
sg55
(lp1357
S'web2py_path'
p1358
asbag48
(g69
g50
NtRp1359
(dp1360
g53
(dp1361
g80
g81
ssg62
g1350
sg55
(lp1362
S':'
asbag48
(g69
g50
NtRp1363
(dp1364
g53
(dp1365
sg62
g1350
sg55
(lp1366
g48
(g49
g50
NtRp1367
(dp1368
g53
(dp1369
g61
I4
ssg62
g1363
sg55
(lp1370
g799
asbasbasbag48
(g64
g50
NtRp1371
(dp1372
g53
(dp1373
sg62
g752
sg55
(lp1374
g48
(g69
g50
NtRp1375
(dp1376
g53
(dp1377
g73
g74
ssg62
g1371
sg55
(lp1378
S'web2py_version'
p1379
asbag48
(g69
g50
NtRp1380
(dp1381
g53
(dp1382
g80
g81
ssg62
g1371
sg55
(lp1383
S':'
asbag48
(g69
g50
NtRp1384
(dp1385
g53
(dp1386
sg62
g1371
sg55
(lp1387
g48
(g49
g50
NtRp1388
(dp1389
g53
(dp1390
g61
I4
ssg62
g1384
sg55
(lp1391
S'Version 1.97.1 (2011-06-26 19:25:44)\n'
p1392
asbasbasbag48
(g64
g50
NtRp1393
(dp1394
g53
(dp1395
sg62
g752
sg55
(lp1396
g48
(g69
g50
NtRp1397
(dp1398
g53
(dp1399
g73
g74
ssg62
g1393
sg55
(lp1400
S'wsgi_errors'
p1401
asbag48
(g69
g50
NtRp1402
(dp1403
g53
(dp1404
g80
g81
ssg62
g1393
sg55
(lp1405
S':'
asbag48
(g69
g50
NtRp1406
(dp1407
g53
(dp1408
sg62
g1393
sg55
(lp1409
g48
(g49
g50
NtRp1410
(dp1411
g53
(dp1412
g61
I4
ssg62
g1406
sg55
(lp1413
S"<open file '<stderr>', mode 'w' at 0x002500B0>"
p1414
asbasbasbag48
(g64
g50
NtRp1415
(dp1416
g53
(dp1417
sg62
g752
sg55
(lp1418
g48
(g69
g50
NtRp1419
(dp1420
g53
(dp1421
g73
g74
ssg62
g1415
sg55
(lp1422
S'wsgi_file_wrapper'
p1423
asbag48
(g69
g50
NtRp1424
(dp1425
g53
(dp1426
g80
g81
ssg62
g1415
sg55
(lp1427
S':'
asbag48
(g69
g50
NtRp1428
(dp1429
g53
(dp1430
sg62
g1415
sg55
(lp1431
g48
(g49
g50
NtRp1432
(dp1433
g53
(dp1434
g61
I4
ssg62
g1428
sg55
(lp1435
S'<class gluon.rocket.FileWrapper at 0x03132BA0>'
p1436
asbasbasbag48
(g64
g50
NtRp1437
(dp1438
g53
(dp1439
sg62
g752
sg55
(lp1440
g48
(g69
g50
NtRp1441
(dp1442
g53
(dp1443
g73
g74
ssg62
g1437
sg55
(lp1444
S'wsgi_input'
p1445
asbag48
(g69
g50
NtRp1446
(dp1447
g53
(dp1448
g80
g81
ssg62
g1437
sg55
(lp1449
S':'
asbag48
(g69
g50
NtRp1450
(dp1451
g53
(dp1452
sg62
g1437
sg55
(lp1453
g48
(g49
g50
NtRp1454
(dp1455
g53
(dp1456
g61
I4
ssg62
g1450
sg55
(lp1457
S'<socket._fileobject object at 0x06BE3DB0>'
p1458
asbasbasbag48
(g64
g50
NtRp1459
(dp1460
g53
(dp1461
sg62
g752
sg55
(lp1462
g48
(g69
g50
NtRp1463
(dp1464
g53
(dp1465
g73
g74
ssg62
g1459
sg55
(lp1466
S'wsgi_multiprocess'
p1467
asbag48
(g69
g50
NtRp1468
(dp1469
g53
(dp1470
g80
g81
ssg62
g1459
sg55
(lp1471
S':'
asbag48
(g69
g50
NtRp1472
(dp1473
g53
(dp1474
sg62
g1459
sg55
(lp1475
g48
(g49
g50
NtRp1476
(dp1477
g53
(dp1478
g61
I4
ssg62
g1472
sg55
(lp1479
g91
asbasbasbag48
(g64
g50
NtRp1480
(dp1481
g53
(dp1482
sg62
g752
sg55
(lp1483
g48
(g69
g50
NtRp1484
(dp1485
g53
(dp1486
g73
g74
ssg62
g1480
sg55
(lp1487
S'wsgi_multithread'
p1488
asbag48
(g69
g50
NtRp1489
(dp1490
g53
(dp1491
g80
g81
ssg62
g1480
sg55
(lp1492
S':'
asbag48
(g69
g50
NtRp1493
(dp1494
g53
(dp1495
sg62
g1480
sg55
(lp1496
g48
(g49
g50
NtRp1497
(dp1498
g53
(dp1499
g61
I4
ssg62
g1493
sg55
(lp1500
S'True'
p1501
asbasbasbag48
(g64
g50
NtRp1502
(dp1503
g53
(dp1504
sg62
g752
sg55
(lp1505
g48
(g69
g50
NtRp1506
(dp1507
g53
(dp1508
g73
g74
ssg62
g1502
sg55
(lp1509
S'wsgi_run_once'
p1510
asbag48
(g69
g50
NtRp1511
(dp1512
g53
(dp1513
g80
g81
ssg62
g1502
sg55
(lp1514
S':'
asbag48
(g69
g50
NtRp1515
(dp1516
g53
(dp1517
sg62
g1502
sg55
(lp1518
g48
(g49
g50
NtRp1519
(dp1520
g53
(dp1521
g61
I4
ssg62
g1515
sg55
(lp1522
g91
asbasbasbag48
(g64
g50
NtRp1523
(dp1524
g53
(dp1525
sg62
g752
sg55
(lp1526
g48
(g69
g50
NtRp1527
(dp1528
g53
(dp1529
g73
g74
ssg62
g1523
sg55
(lp1530
S'wsgi_url_scheme'
p1531
asbag48
(g69
g50
NtRp1532
(dp1533
g53
(dp1534
g80
g81
ssg62
g1523
sg55
(lp1535
S':'
asbag48
(g69
g50
NtRp1536
(dp1537
g53
(dp1538
sg62
g1523
sg55
(lp1539
g48
(g49
g50
NtRp1540
(dp1541
g53
(dp1542
g61
I4
ssg62
g1536
sg55
(lp1543
S'http'
p1544
asbasbasbag48
(g64
g50
NtRp1545
(dp1546
g53
(dp1547
sg62
g752
sg55
(lp1548
g48
(g69
g50
NtRp1549
(dp1550
g53
(dp1551
g73
g74
ssg62
g1545
sg55
(lp1552
S'wsgi_version'
p1553
asbag48
(g69
g50
NtRp1554
(dp1555
g53
(dp1556
g80
g81
ssg62
g1545
sg55
(lp1557
S':'
asbag48
(g69
g50
NtRp1558
(dp1559
g53
(dp1560
sg62
g1545
sg55
(lp1561
g48
(g49
g50
NtRp1562
(dp1563
g53
(dp1564
g61
I4
ssg62
g1558
sg55
(lp1565
g48
(g57
g50
NtRp1566
(dp1567
g53
(dp1568
g61
I3
ssg62
Nsg55
(lp1569
g48
(g64
g50
NtRp1570
(dp1571
g53
(dp1572
sg62
g1566
sg55
(lp1573
g48
(g69
g50
NtRp1574
(dp1575
g53
(dp1576
sg62
g1570
sg55
(lp1577
g48
(g49
g50
NtRp1578
(dp1579
g53
(dp1580
g61
I3
ssg62
g1574
sg55
(lp1581
S'1'
asbasbasbag48
(g64
g50
NtRp1582
(dp1583
g53
(dp1584
sg62
g1566
sg55
(lp1585
g48
(g69
g50
NtRp1586
(dp1587
g53
(dp1588
sg62
g1582
sg55
(lp1589
g48
(g49
g50
NtRp1590
(dp1591
g53
(dp1592
g61
I3
ssg62
g1586
sg55
(lp1593
S'0'
asbasbasbasbasbasbasbasbasbasbasbag48
(g64
g50
NtRp1594
(dp1595
g53
(dp1596
sg62
g58
sg55
(lp1597
g48
(g69
g50
NtRp1598
(dp1599
g53
(dp1600
g73
g74
ssg62
g1594
sg55
(lp1601
S'extension'
p1602
asbag48
(g69
g50
NtRp1603
(dp1604
g53
(dp1605
g80
g81
ssg62
g1594
sg55
(lp1606
S':'
asbag48
(g69
g50
NtRp1607
(dp1608
g53
(dp1609
sg62
g1594
sg55
(lp1610
g48
(g49
g50
NtRp1611
(dp1612
g53
(dp1613
g61
I5
ssg62
g1607
sg55
(lp1614
S'html'
p1615
asbasbasbag48
(g64
g50
NtRp1616
(dp1617
g53
(dp1618
sg62
g58
sg55
(lp1619
g48
(g69
g50
NtRp1620
(dp1621
g53
(dp1622
g73
g74
ssg62
g1616
sg55
(lp1623
S'folder'
p1624
asbag48
(g69
g50
NtRp1625
(dp1626
g53
(dp1627
g80
g81
ssg62
g1616
sg55
(lp1628
S':'
asbag48
(g69
g50
NtRp1629
(dp1630
g53
(dp1631
sg62
g1616
sg55
(lp1632
g48
(g49
g50
NtRp1633
(dp1634
g53
(dp1635
g61
I5
ssg62
g1629
sg55
(lp1636
S'C:\\Users\\AKSHAY\\Desktop\\web2py\\applications\\201056161\\'
p1637
asbasbasbag48
(g64
g50
NtRp1638
(dp1639
g53
(dp1640
sg62
g58
sg55
(lp1641
g48
(g69
g50
NtRp1642
(dp1643
g53
(dp1644
g73
g74
ssg62
g1638
sg55
(lp1645
S'function'
p1646
asbag48
(g69
g50
NtRp1647
(dp1648
g53
(dp1649
g80
g81
ssg62
g1638
sg55
(lp1650
S':'
asbag48
(g69
g50
NtRp1651
(dp1652
g53
(dp1653
sg62
g1638
sg55
(lp1654
g48
(g49
g50
NtRp1655
(dp1656
g53
(dp1657
g61
I5
ssg62
g1651
sg55
(lp1658
S'song_details'
p1659
asbasbasbag48
(g64
g50
NtRp1660
(dp1661
g53
(dp1662
sg62
g58
sg55
(lp1663
g48
(g69
g50
NtRp1664
(dp1665
g53
(dp1666
g73
g74
ssg62
g1660
sg55
(lp1667
S'get_vars'
p1668
asbag48
(g69
g50
NtRp1669
(dp1670
g53
(dp1671
g80
g81
ssg62
g1660
sg55
(lp1672
S':'
asbag48
(g69
g50
NtRp1673
(dp1674
g53
(dp1675
sg62
g1660
sg55
(lp1676
g48
(g49
g50
NtRp1677
(dp1678
g53
(dp1679
g61
I5
ssg62
g1673
sg55
(lp1680
g48
(g57
g50
NtRp1681
(dp1682
g53
(dp1683
g61
I4
ssg62
Nsg55
(lp1684
g48
(g64
g50
NtRp1685
(dp1686
g53
(dp1687
sg62
g1681
sg55
(lp1688
g48
(g69
g50
NtRp1689
(dp1690
g53
(dp1691
g73
g74
ssg62
g1685
sg55
(lp1692
S'id'
p1693
asbag48
(g69
g50
NtRp1694
(dp1695
g53
(dp1696
g80
g81
ssg62
g1685
sg55
(lp1697
S':'
asbag48
(g69
g50
NtRp1698
(dp1699
g53
(dp1700
sg62
g1685
sg55
(lp1701
g48
(g49
g50
NtRp1702
(dp1703
g53
(dp1704
g61
I4
ssg62
g1698
sg55
(lp1705
S'5'
asbasbasbasbasbasbasbag48
(g64
g50
NtRp1706
(dp1707
g53
(dp1708
sg62
g58
sg55
(lp1709
g48
(g69
g50
NtRp1710
(dp1711
g53
(dp1712
g73
g74
ssg62
g1706
sg55
(lp1713
S'is_https'
p1714
asbag48
(g69
g50
NtRp1715
(dp1716
g53
(dp1717
g80
g81
ssg62
g1706
sg55
(lp1718
S':'
asbag48
(g69
g50
NtRp1719
(dp1720
g53
(dp1721
sg62
g1706
sg55
(lp1722
g48
(g49
g50
NtRp1723
(dp1724
g53
(dp1725
g61
I5
ssg62
g1719
sg55
(lp1726
g91
asbasbasbag48
(g64
g50
NtRp1727
(dp1728
g53
(dp1729
sg62
g58
sg55
(lp1730
g48
(g69
g50
NtRp1731
(dp1732
g53
(dp1733
g73
g74
ssg62
g1727
sg55
(lp1734
S'is_local'
p1735
asbag48
(g69
g50
NtRp1736
(dp1737
g53
(dp1738
g80
g81
ssg62
g1727
sg55
(lp1739
S':'
asbag48
(g69
g50
NtRp1740
(dp1741
g53
(dp1742
sg62
g1727
sg55
(lp1743
g48
(g49
g50
NtRp1744
(dp1745
g53
(dp1746
g61
I5
ssg62
g1740
sg55
(lp1747
g1501
asbasbasbag48
(g64
g50
NtRp1748
(dp1749
g53
(dp1750
sg62
g58
sg55
(lp1751
g48
(g69
g50
NtRp1752
(dp1753
g53
(dp1754
g73
g74
ssg62
g1748
sg55
(lp1755
S'is_restful'
p1756
asbag48
(g69
g50
NtRp1757
(dp1758
g53
(dp1759
g80
g81
ssg62
g1748
sg55
(lp1760
S':'
asbag48
(g69
g50
NtRp1761
(dp1762
g53
(dp1763
sg62
g1748
sg55
(lp1764
g48
(g49
g50
NtRp1765
(dp1766
g53
(dp1767
g61
I5
ssg62
g1761
sg55
(lp1768
g91
asbasbasbag48
(g64
g50
NtRp1769
(dp1770
g53
(dp1771
sg62
g58
sg55
(lp1772
g48
(g69
g50
NtRp1773
(dp1774
g53
(dp1775
g73
g74
ssg62
g1769
sg55
(lp1776
S'now'
p1777
asbag48
(g69
g50
NtRp1778
(dp1779
g53
(dp1780
g80
g81
ssg62
g1769
sg55
(lp1781
S':'
asbag48
(g69
g50
NtRp1782
(dp1783
g53
(dp1784
sg62
g1769
sg55
(lp1785
g48
(g49
g50
NtRp1786
(dp1787
g53
(dp1788
g61
I5
ssg62
g1782
sg55
(lp1789
S'datetime.datetime(2011, 9, 7, 3, 23, 16, 873000)'
p1790
asbasbasbag48
(g64
g50
NtRp1791
(dp1792
g53
(dp1793
sg62
g58
sg55
(lp1794
g48
(g69
g50
NtRp1795
(dp1796
g53
(dp1797
g73
g74
ssg62
g1791
sg55
(lp1798
S'post_vars'
p1799
asbag48
(g69
g50
NtRp1800
(dp1801
g53
(dp1802
g80
g81
ssg62
g1791
sg55
(lp1803
S':'
asbag48
(g69
g50
NtRp1804
(dp1805
g53
(dp1806
sg62
g1791
sg55
(lp1807
g48
(g49
g50
NtRp1808
(dp1809
g53
(dp1810
g61
I5
ssg62
g1804
sg55
(lp1811
g48
(g57
g50
NtRp1812
(dp1813
g53
(dp1814
g61
I4
ssg62
Nsg55
(lp1815
sbasbasbasbag48
(g64
g50
NtRp1816
(dp1817
g53
(dp1818
sg62
g58
sg55
(lp1819
g48
(g69
g50
NtRp1820
(dp1821
g53
(dp1822
g73
g74
ssg62
g1816
sg55
(lp1823
S'url'
p1824
asbag48
(g69
g50
NtRp1825
(dp1826
g53
(dp1827
g80
g81
ssg62
g1816
sg55
(lp1828
S':'
asbag48
(g69
g50
NtRp1829
(dp1830
g53
(dp1831
sg62
g1816
sg55
(lp1832
g48
(g49
g50
NtRp1833
(dp1834
g53
(dp1835
g61
I5
ssg62
g1829
sg55
(lp1836
S'/201056161/default/song_details'
p1837
asbasbasbag48
(g64
g50
NtRp1838
(dp1839
g53
(dp1840
sg62
g58
sg55
(lp1841
g48
(g69
g50
NtRp1842
(dp1843
g53
(dp1844
g73
g74
ssg62
g1838
sg55
(lp1845
S'uuid'
p1846
asbag48
(g69
g50
NtRp1847
(dp1848
g53
(dp1849
g80
g81
ssg62
g1838
sg55
(lp1850
S':'
asbag48
(g69
g50
NtRp1851
(dp1852
g53
(dp1853
sg62
g1838
sg55
(lp1854
g48
(g49
g50
NtRp1855
(dp1856
g53
(dp1857
g61
I5
ssg62
g1851
sg55
(lp1858
S'201056161/127.0.0.1.2011-09-07.03-23-16.6c54628d-b96b-4e8b-a1dc-1d750c3a12af'
p1859
asbasbasbag48
(g64
g50
NtRp1860
(dp1861
g53
(dp1862
sg62
g58
sg55
(lp1863
g48
(g69
g50
NtRp1864
(dp1865
g53
(dp1866
g73
g74
ssg62
g1860
sg55
(lp1867
S'vars'
p1868
asbag48
(g69
g50
NtRp1869
(dp1870
g53
(dp1871
g80
g81
ssg62
g1860
sg55
(lp1872
S':'
asbag48
(g69
g50
NtRp1873
(dp1874
g53
(dp1875
sg62
g1860
sg55
(lp1876
g48
(g49
g50
NtRp1877
(dp1878
g53
(dp1879
g61
I5
ssg62
g1873
sg55
(lp1880
g48
(g57
g50
NtRp1881
(dp1882
g53
(dp1883
g61
I4
ssg62
Nsg55
(lp1884
g48
(g64
g50
NtRp1885
(dp1886
g53
(dp1887
sg62
g1881
sg55
(lp1888
g48
(g69
g50
NtRp1889
(dp1890
g53
(dp1891
g73
g74
ssg62
g1885
sg55
(lp1892
g1693
asbag48
(g69
g50
NtRp1893
(dp1894
g53
(dp1895
g80
g81
ssg62
g1885
sg55
(lp1896
S':'
asbag48
(g69
g50
NtRp1897
(dp1898
g53
(dp1899
sg62
g1885
sg55
(lp1900
g48
(g49
g50
NtRp1901
(dp1902
g53
(dp1903
g61
I4
ssg62
g1897
sg55
(lp1904
S'5'
asbasbasbasbasbasbasbag48
(g64
g50
NtRp1905
(dp1906
g53
(dp1907
sg62
g58
sg55
(lp1908
g48
(g69
g50
NtRp1909
(dp1910
g53
(dp1911
g73
g74
ssg62
g1905
sg55
(lp1912
S'wsgi'
p1913
asbag48
(g69
g50
NtRp1914
(dp1915
g53
(dp1916
g80
g81
ssg62
g1905
sg55
(lp1917
S':'
asbag48
(g69
g50
NtRp1918
(dp1919
g53
(dp1920
sg62
g1905
sg55
(lp1921
g48
(g49
g50
NtRp1922
(dp1923
g53
(dp1924
g61
I5
ssg62
g1918
sg55
(lp1925
g48
(g57
g50
NtRp1926
(dp1927
g53
(dp1928
g61
I4
ssg62
Nsg55
(lp1929
g48
(g64
g50
NtRp1930
(dp1931
g53
(dp1932
sg62
g1926
sg55
(lp1933
g48
(g69
g50
NtRp1934
(dp1935
g53
(dp1936
g73
g74
ssg62
g1930
sg55
(lp1937
S'environ'
p1938
asbag48
(g69
g50
NtRp1939
(dp1940
g53
(dp1941
g80
g81
ssg62
g1930
sg55
(lp1942
S':'
asbag48
(g69
g50
NtRp1943
(dp1944
g53
(dp1945
sg62
g1930
sg55
(lp1946
g48
(g49
g50
NtRp1947
(dp1948
g53
(dp1949
g61
I4
ssg62
g1943
sg55
(lp1950
g48
(g57
g50
NtRp1951
(dp1952
g53
(dp1953
g61
I3
ssg62
Nsg55
(lp1954
g48
(g64
g50
NtRp1955
(dp1956
g53
(dp1957
sg62
g1951
sg55
(lp1958
g48
(g69
g50
NtRp1959
(dp1960
g53
(dp1961
g73
g74
ssg62
g1955
sg55
(lp1962
S'HTTP_ACCEPT'
p1963
asbag48
(g69
g50
NtRp1964
(dp1965
g53
(dp1966
g80
g81
ssg62
g1955
sg55
(lp1967
S':'
asbag48
(g69
g50
NtRp1968
(dp1969
g53
(dp1970
sg62
g1955
sg55
(lp1971
g48
(g49
g50
NtRp1972
(dp1973
g53
(dp1974
g61
I3
ssg62
g1968
sg55
(lp1975
g933
asbasbasbag48
(g64
g50
NtRp1976
(dp1977
g53
(dp1978
sg62
g1951
sg55
(lp1979
g48
(g69
g50
NtRp1980
(dp1981
g53
(dp1982
g73
g74
ssg62
g1976
sg55
(lp1983
S'HTTP_ACCEPT_CHARSET'
p1984
asbag48
(g69
g50
NtRp1985
(dp1986
g53
(dp1987
g80
g81
ssg62
g1976
sg55
(lp1988
S':'
asbag48
(g69
g50
NtRp1989
(dp1990
g53
(dp1991
sg62
g1976
sg55
(lp1992
g48
(g49
g50
NtRp1993
(dp1994
g53
(dp1995
g61
I3
ssg62
g1989
sg55
(lp1996
g955
asbasbasbag48
(g64
g50
NtRp1997
(dp1998
g53
(dp1999
sg62
g1951
sg55
(lp2000
g48
(g69
g50
NtRp2001
(dp2002
g53
(dp2003
g73
g74
ssg62
g1997
sg55
(lp2004
S'HTTP_ACCEPT_ENCODING'
p2005
asbag48
(g69
g50
NtRp2006
(dp2007
g53
(dp2008
g80
g81
ssg62
g1997
sg55
(lp2009
S':'
asbag48
(g69
g50
NtRp2010
(dp2011
g53
(dp2012
sg62
g1997
sg55
(lp2013
g48
(g49
g50
NtRp2014
(dp2015
g53
(dp2016
g61
I3
ssg62
g2010
sg55
(lp2017
g977
asbasbasbag48
(g64
g50
NtRp2018
(dp2019
g53
(dp2020
sg62
g1951
sg55
(lp2021
g48
(g69
g50
NtRp2022
(dp2023
g53
(dp2024
g73
g74
ssg62
g2018
sg55
(lp2025
S'HTTP_ACCEPT_LANGUAGE'
p2026
asbag48
(g69
g50
NtRp2027
(dp2028
g53
(dp2029
g80
g81
ssg62
g2018
sg55
(lp2030
S':'
asbag48
(g69
g50
NtRp2031
(dp2032
g53
(dp2033
sg62
g2018
sg55
(lp2034
g48
(g49
g50
NtRp2035
(dp2036
g53
(dp2037
g61
I3
ssg62
g2031
sg55
(lp2038
g999
asbasbasbag48
(g64
g50
NtRp2039
(dp2040
g53
(dp2041
sg62
g1951
sg55
(lp2042
g48
(g69
g50
NtRp2043
(dp2044
g53
(dp2045
g73
g74
ssg62
g2039
sg55
(lp2046
S'HTTP_CONNECTION'
p2047
asbag48
(g69
g50
NtRp2048
(dp2049
g53
(dp2050
g80
g81
ssg62
g2039
sg55
(lp2051
S':'
asbag48
(g69
g50
NtRp2052
(dp2053
g53
(dp2054
sg62
g2039
sg55
(lp2055
g48
(g49
g50
NtRp2056
(dp2057
g53
(dp2058
g61
I3
ssg62
g2052
sg55
(lp2059
g1021
asbasbasbag48
(g64
g50
NtRp2060
(dp2061
g53
(dp2062
sg62
g1951
sg55
(lp2063
g48
(g69
g50
NtRp2064
(dp2065
g53
(dp2066
g73
g74
ssg62
g2060
sg55
(lp2067
S'HTTP_COOKIE'
p2068
asbag48
(g69
g50
NtRp2069
(dp2070
g53
(dp2071
g80
g81
ssg62
g2060
sg55
(lp2072
S':'
asbag48
(g69
g50
NtRp2073
(dp2074
g53
(dp2075
sg62
g2060
sg55
(lp2076
g48
(g49
g50
NtRp2077
(dp2078
g53
(dp2079
g61
I3
ssg62
g2073
sg55
(lp2080
g1043
asbasbasbag48
(g64
g50
NtRp2081
(dp2082
g53
(dp2083
sg62
g1951
sg55
(lp2084
g48
(g69
g50
NtRp2085
(dp2086
g53
(dp2087
g73
g74
ssg62
g2081
sg55
(lp2088
S'HTTP_HOST'
p2089
asbag48
(g69
g50
NtRp2090
(dp2091
g53
(dp2092
g80
g81
ssg62
g2081
sg55
(lp2093
S':'
asbag48
(g69
g50
NtRp2094
(dp2095
g53
(dp2096
sg62
g2081
sg55
(lp2097
g48
(g49
g50
NtRp2098
(dp2099
g53
(dp2100
g61
I3
ssg62
g2094
sg55
(lp2101
g1065
asbasbasbag48
(g64
g50
NtRp2102
(dp2103
g53
(dp2104
sg62
g1951
sg55
(lp2105
g48
(g69
g50
NtRp2106
(dp2107
g53
(dp2108
g73
g74
ssg62
g2102
sg55
(lp2109
S'HTTP_REFERER'
p2110
asbag48
(g69
g50
NtRp2111
(dp2112
g53
(dp2113
g80
g81
ssg62
g2102
sg55
(lp2114
S':'
asbag48
(g69
g50
NtRp2115
(dp2116
g53
(dp2117
sg62
g2102
sg55
(lp2118
g48
(g49
g50
NtRp2119
(dp2120
g53
(dp2121
g61
I3
ssg62
g2115
sg55
(lp2122
g1087
asbasbasbag48
(g64
g50
NtRp2123
(dp2124
g53
(dp2125
sg62
g1951
sg55
(lp2126
g48
(g69
g50
NtRp2127
(dp2128
g53
(dp2129
g73
g74
ssg62
g2123
sg55
(lp2130
S'HTTP_USER_AGENT'
p2131
asbag48
(g69
g50
NtRp2132
(dp2133
g53
(dp2134
g80
g81
ssg62
g2123
sg55
(lp2135
S':'
asbag48
(g69
g50
NtRp2136
(dp2137
g53
(dp2138
sg62
g2123
sg55
(lp2139
g48
(g49
g50
NtRp2140
(dp2141
g53
(dp2142
g61
I3
ssg62
g2136
sg55
(lp2143
g1109
asbasbasbag48
(g64
g50
NtRp2144
(dp2145
g53
(dp2146
sg62
g1951
sg55
(lp2147
g48
(g69
g50
NtRp2148
(dp2149
g53
(dp2150
g73
g74
ssg62
g2144
sg55
(lp2151
S'PATH_INFO'
p2152
asbag48
(g69
g50
NtRp2153
(dp2154
g53
(dp2155
g80
g81
ssg62
g2144
sg55
(lp2156
S':'
asbag48
(g69
g50
NtRp2157
(dp2158
g53
(dp2159
sg62
g2144
sg55
(lp2160
g48
(g49
g50
NtRp2161
(dp2162
g53
(dp2163
g61
I3
ssg62
g2157
sg55
(lp2164
g1131
asbasbasbag48
(g64
g50
NtRp2165
(dp2166
g53
(dp2167
sg62
g1951
sg55
(lp2168
g48
(g69
g50
NtRp2169
(dp2170
g53
(dp2171
g73
g74
ssg62
g2165
sg55
(lp2172
S'QUERY_STRING'
p2173
asbag48
(g69
g50
NtRp2174
(dp2175
g53
(dp2176
g80
g81
ssg62
g2165
sg55
(lp2177
S':'
asbag48
(g69
g50
NtRp2178
(dp2179
g53
(dp2180
sg62
g2165
sg55
(lp2181
g48
(g49
g50
NtRp2182
(dp2183
g53
(dp2184
g61
I3
ssg62
g2178
sg55
(lp2185
g1153
asbasbasbag48
(g64
g50
NtRp2186
(dp2187
g53
(dp2188
sg62
g1951
sg55
(lp2189
g48
(g69
g50
NtRp2190
(dp2191
g53
(dp2192
g73
g74
ssg62
g2186
sg55
(lp2193
S'REMOTE_ADDR'
p2194
asbag48
(g69
g50
NtRp2195
(dp2196
g53
(dp2197
g80
g81
ssg62
g2186
sg55
(lp2198
S':'
asbag48
(g69
g50
NtRp2199
(dp2200
g53
(dp2201
sg62
g2186
sg55
(lp2202
g48
(g49
g50
NtRp2203
(dp2204
g53
(dp2205
g61
I3
ssg62
g2199
sg55
(lp2206
g181
asbasbasbag48
(g64
g50
NtRp2207
(dp2208
g53
(dp2209
sg62
g1951
sg55
(lp2210
g48
(g69
g50
NtRp2211
(dp2212
g53
(dp2213
g73
g74
ssg62
g2207
sg55
(lp2214
S'REMOTE_PORT'
p2215
asbag48
(g69
g50
NtRp2216
(dp2217
g53
(dp2218
g80
g81
ssg62
g2207
sg55
(lp2219
S':'
asbag48
(g69
g50
NtRp2220
(dp2221
g53
(dp2222
sg62
g2207
sg55
(lp2223
g48
(g49
g50
NtRp2224
(dp2225
g53
(dp2226
g61
I3
ssg62
g2220
sg55
(lp2227
g1196
asbasbasbag48
(g64
g50
NtRp2228
(dp2229
g53
(dp2230
sg62
g1951
sg55
(lp2231
g48
(g69
g50
NtRp2232
(dp2233
g53
(dp2234
g73
g74
ssg62
g2228
sg55
(lp2235
S'REQUEST_METHOD'
p2236
asbag48
(g69
g50
NtRp2237
(dp2238
g53
(dp2239
g80
g81
ssg62
g2228
sg55
(lp2240
S':'
asbag48
(g69
g50
NtRp2241
(dp2242
g53
(dp2243
sg62
g2228
sg55
(lp2244
g48
(g49
g50
NtRp2245
(dp2246
g53
(dp2247
g61
I3
ssg62
g2241
sg55
(lp2248
g1218
asbasbasbag48
(g64
g50
NtRp2249
(dp2250
g53
(dp2251
sg62
g1951
sg55
(lp2252
g48
(g69
g50
NtRp2253
(dp2254
g53
(dp2255
g73
g74
ssg62
g2249
sg55
(lp2256
S'SCRIPT_NAME'
p2257
asbag48
(g69
g50
NtRp2258
(dp2259
g53
(dp2260
g80
g81
ssg62
g2249
sg55
(lp2261
S':'
asbag48
(g69
g50
NtRp2262
(dp2263
g53
(dp2264
sg62
g2249
sg55
(lp2265
g48
(g49
g50
NtRp2266
(dp2267
g53
(dp2268
g61
I3
ssg62
g2262
sg55
(lp2269
S''
asbasbasbag48
(g64
g50
NtRp2270
(dp2271
g53
(dp2272
sg62
g1951
sg55
(lp2273
g48
(g69
g50
NtRp2274
(dp2275
g53
(dp2276
g73
g74
ssg62
g2270
sg55
(lp2277
S'SERVER_NAME'
p2278
asbag48
(g69
g50
NtRp2279
(dp2280
g53
(dp2281
g80
g81
ssg62
g2270
sg55
(lp2282
S':'
asbag48
(g69
g50
NtRp2283
(dp2284
g53
(dp2285
sg62
g2270
sg55
(lp2286
g48
(g49
g50
NtRp2287
(dp2288
g53
(dp2289
g61
I3
ssg62
g2283
sg55
(lp2290
g1261
asbasbasbag48
(g64
g50
NtRp2291
(dp2292
g53
(dp2293
sg62
g1951
sg55
(lp2294
g48
(g69
g50
NtRp2295
(dp2296
g53
(dp2297
g73
g74
ssg62
g2291
sg55
(lp2298
S'SERVER_PORT'
p2299
asbag48
(g69
g50
NtRp2300
(dp2301
g53
(dp2302
g80
g81
ssg62
g2291
sg55
(lp2303
S':'
asbag48
(g69
g50
NtRp2304
(dp2305
g53
(dp2306
sg62
g2291
sg55
(lp2307
g48
(g49
g50
NtRp2308
(dp2309
g53
(dp2310
g61
I3
ssg62
g2304
sg55
(lp2311
g1283
asbasbasbag48
(g64
g50
NtRp2312
(dp2313
g53
(dp2314
sg62
g1951
sg55
(lp2315
g48
(g69
g50
NtRp2316
(dp2317
g53
(dp2318
g73
g74
ssg62
g2312
sg55
(lp2319
S'SERVER_PROTOCOL'
p2320
asbag48
(g69
g50
NtRp2321
(dp2322
g53
(dp2323
g80
g81
ssg62
g2312
sg55
(lp2324
S':'
asbag48
(g69
g50
NtRp2325
(dp2326
g53
(dp2327
sg62
g2312
sg55
(lp2328
g48
(g49
g50
NtRp2329
(dp2330
g53
(dp2331
g61
I3
ssg62
g2325
sg55
(lp2332
g1305
asbasbasbag48
(g64
g50
NtRp2333
(dp2334
g53
(dp2335
sg62
g1951
sg55
(lp2336
g48
(g69
g50
NtRp2337
(dp2338
g53
(dp2339
g73
g74
ssg62
g2333
sg55
(lp2340
S'SERVER_SOFTWARE'
p2341
asbag48
(g69
g50
NtRp2342
(dp2343
g53
(dp2344
g80
g81
ssg62
g2333
sg55
(lp2345
S':'
asbag48
(g69
g50
NtRp2346
(dp2347
g53
(dp2348
sg62
g2333
sg55
(lp2349
g48
(g49
g50
NtRp2350
(dp2351
g53
(dp2352
g61
I3
ssg62
g2346
sg55
(lp2353
g1327
asbasbasbag48
(g64
g50
NtRp2354
(dp2355
g53
(dp2356
sg62
g1951
sg55
(lp2357
g48
(g69
g50
NtRp2358
(dp2359
g53
(dp2360
g73
g74
ssg62
g2354
sg55
(lp2361
S'wsgi.errors'
p2362
asbag48
(g69
g50
NtRp2363
(dp2364
g53
(dp2365
g80
g81
ssg62
g2354
sg55
(lp2366
S':'
asbag48
(g69
g50
NtRp2367
(dp2368
g53
(dp2369
sg62
g2354
sg55
(lp2370
g48
(g49
g50
NtRp2371
(dp2372
g53
(dp2373
g61
I3
ssg62
g2367
sg55
(lp2374
S"<open file '<stderr>', mode 'w' at 0x002500B0>"
p2375
asbasbasbag48
(g64
g50
NtRp2376
(dp2377
g53
(dp2378
sg62
g1951
sg55
(lp2379
g48
(g69
g50
NtRp2380
(dp2381
g53
(dp2382
g73
g74
ssg62
g2376
sg55
(lp2383
S'wsgi.file_wrapper'
p2384
asbag48
(g69
g50
NtRp2385
(dp2386
g53
(dp2387
g80
g81
ssg62
g2376
sg55
(lp2388
S':'
asbag48
(g69
g50
NtRp2389
(dp2390
g53
(dp2391
sg62
g2376
sg55
(lp2392
g48
(g49
g50
NtRp2393
(dp2394
g53
(dp2395
g61
I3
ssg62
g2389
sg55
(lp2396
S'<class gluon.rocket.FileWrapper at 0x03132BA0>'
p2397
asbasbasbag48
(g64
g50
NtRp2398
(dp2399
g53
(dp2400
sg62
g1951
sg55
(lp2401
g48
(g69
g50
NtRp2402
(dp2403
g53
(dp2404
g73
g74
ssg62
g2398
sg55
(lp2405
S'wsgi.input'
p2406
asbag48
(g69
g50
NtRp2407
(dp2408
g53
(dp2409
g80
g81
ssg62
g2398
sg55
(lp2410
S':'
asbag48
(g69
g50
NtRp2411
(dp2412
g53
(dp2413
sg62
g2398
sg55
(lp2414
g48
(g49
g50
NtRp2415
(dp2416
g53
(dp2417
g61
I3
ssg62
g2411
sg55
(lp2418
S'<cStringIO.StringO object at 0x074E8440>'
p2419
asbasbasbag48
(g64
g50
NtRp2420
(dp2421
g53
(dp2422
sg62
g1951
sg55
(lp2423
g48
(g69
g50
NtRp2424
(dp2425
g53
(dp2426
g73
g74
ssg62
g2420
sg55
(lp2427
S'wsgi.multiprocess'
p2428
asbag48
(g69
g50
NtRp2429
(dp2430
g53
(dp2431
g80
g81
ssg62
g2420
sg55
(lp2432
S':'
asbag48
(g69
g50
NtRp2433
(dp2434
g53
(dp2435
sg62
g2420
sg55
(lp2436
g48
(g49
g50
NtRp2437
(dp2438
g53
(dp2439
g61
I3
ssg62
g2433
sg55
(lp2440
g91
asbasbasbag48
(g64
g50
NtRp2441
(dp2442
g53
(dp2443
sg62
g1951
sg55
(lp2444
g48
(g69
g50
NtRp2445
(dp2446
g53
(dp2447
g73
g74
ssg62
g2441
sg55
(lp2448
S'wsgi.multithread'
p2449
asbag48
(g69
g50
NtRp2450
(dp2451
g53
(dp2452
g80
g81
ssg62
g2441
sg55
(lp2453
S':'
asbag48
(g69
g50
NtRp2454
(dp2455
g53
(dp2456
sg62
g2441
sg55
(lp2457
g48
(g49
g50
NtRp2458
(dp2459
g53
(dp2460
g61
I3
ssg62
g2454
sg55
(lp2461
g1501
asbasbasbag48
(g64
g50
NtRp2462
(dp2463
g53
(dp2464
sg62
g1951
sg55
(lp2465
g48
(g69
g50
NtRp2466
(dp2467
g53
(dp2468
g73
g74
ssg62
g2462
sg55
(lp2469
S'wsgi.run_once'
p2470
asbag48
(g69
g50
NtRp2471
(dp2472
g53
(dp2473
g80
g81
ssg62
g2462
sg55
(lp2474
S':'
asbag48
(g69
g50
NtRp2475
(dp2476
g53
(dp2477
sg62
g2462
sg55
(lp2478
g48
(g49
g50
NtRp2479
(dp2480
g53
(dp2481
g61
I3
ssg62
g2475
sg55
(lp2482
g91
asbasbasbag48
(g64
g50
NtRp2483
(dp2484
g53
(dp2485
sg62
g1951
sg55
(lp2486
g48
(g69
g50
NtRp2487
(dp2488
g53
(dp2489
g73
g74
ssg62
g2483
sg55
(lp2490
S'wsgi.url_scheme'
p2491
asbag48
(g69
g50
NtRp2492
(dp2493
g53
(dp2494
g80
g81
ssg62
g2483
sg55
(lp2495
S':'
asbag48
(g69
g50
NtRp2496
(dp2497
g53
(dp2498
sg62
g2483
sg55
(lp2499
g48
(g49
g50
NtRp2500
(dp2501
g53
(dp2502
g61
I3
ssg62
g2496
sg55
(lp2503
g1544
asbasbasbag48
(g64
g50
NtRp2504
(dp2505
g53
(dp2506
sg62
g1951
sg55
(lp2507
g48
(g69
g50
NtRp2508
(dp2509
g53
(dp2510
g73
g74
ssg62
g2504
sg55
(lp2511
S'wsgi.version'
p2512
asbag48
(g69
g50
NtRp2513
(dp2514
g53
(dp2515
g80
g81
ssg62
g2504
sg55
(lp2516
S':'
asbag48
(g69
g50
NtRp2517
(dp2518
g53
(dp2519
sg62
g2504
sg55
(lp2520
g48
(g49
g50
NtRp2521
(dp2522
g53
(dp2523
g61
I3
ssg62
g2517
sg55
(lp2524
S'1'
asbasbasbasbasbasbasbasbasbasbasbasbasbsS'frames'
p2525
(lp2526
(dp2527
S'file'
p2528
S'C:\\Users\\AKSHAY\\Desktop\\web2py\\gluon\\restricted.py'
p2529
sS'dump'
p2530
(dp2531
sS'lnum'
p2532
I192
sS'lines'
p2533
(dp2534
sS'call'
p2535
S'(code=\'response.write(\\\'<!DOCTYPE html>\\\\n<html lang="\\\', ...t   -->    \\\\n  </body>\\\\n</html>\\\\n\\\', escape=False)\', environment={\'A\': <class \'gluon.html.A\'>, \'Auth\': <class \'gluon.tools.Auth\'>, \'B\': <class \'gluon.html.B\'>, \'BEAUTIFY\': <class \'gluon.html.BEAUTIFY\'>, \'BODY\': <class \'gluon.html.BODY\'>, \'BR\': <class \'gluon.html.BR\'>, \'BUTTON\': <class \'gluon.html.BUTTON\'>, \'CENTER\': <class \'gluon.html.CENTER\'>, \'CLEANUP\': <class \'gluon.validators.CLEANUP\'>, \'CODE\': <class \'gluon.html.CODE\'>, ...}, layer=r\'C:\\Users\\AKSHAY\\Desktop\\web2py\\applications\\201056161\\views\\default/song_details.html\')'
p2536
sS'func'
p2537
S'restricted'
p2538
sa(dp2539
g2528
S'C:\\Users\\AKSHAY\\Desktop\\web2py\\applications\\201056161\\views\\default\\song_details.html'
p2540
sg2530
(dp2541
sg2532
I101
sg2533
(dp2542
I96
S'    pass'
p2543
sI97
S'response.write(\'\\n\\n\\t  <!-- content -->\\n\\t  <div id="content" \', escape=False)'
p2544
sI98
S'response.write(XML(style_content))'
p2545
sI99
S"response.write(' >\\n\\t    ', escape=False)"
p2546
sI100
S"response.write('\\r\\n', escape=False)"
p2547
sI101
S'response.write(records.length)'
p2548
sI102
S"response.write('\\r\\n<br/>\\r\\n', escape=False)"
p2549
sI103
S'response.write(records.singer)'
p2550
sI104
S"response.write('\\r\\n<br/>\\r\\n', escape=False)"
p2551
sI105
S'response.write(records.composer)'
p2552
sI106
S"response.write('\\r\\n<br/>\\r\\n', escape=False)"
p2553
sI107
S'response.write(records.movie)'
p2554
sI108
S"response.write('\\r\\n<br/>\\r\\n', escape=False)"
p2555
sI109
S'response.write(records.singing_actor)'
p2556
sI110
S"response.write('\\r\\n', escape=False)"
p2557
sI111
S"response.write('\\t\\n\\t  </div>\\n\\t  <!-- content -->\\n\\n\\t  ', escape=False)"
p2558
sI92
S'    response.write(XML(left_sidebar_style))'
p2559
sI93
S'    response.write(\' >\\n            <div style="padding: 4px;">\\n\\t      \', escape=False)'
p2560
sI94
S"    response.write('Content Left Sidebar', escape=False)"
p2561
sI95
S"    response.write('\\t\\t  \\n            </div>\\n          </div><!-- left_sidebar -->\\n\\t  ', escape=False)"
p2562
ssg2535
S'()'
p2563
sg2537
S'<module>'
p2564
sasS'pyver'
p2565
S'Python 2.5.4: C:\\Users\\AKSHAY\\Desktop\\web2py\\web2py.exe'
p2566
sS'session'
p2567
g48
(g49
g50
NtRp2568
(dp2569
g53
(dp2570
sg55
(lp2571
g48
(g57
g50
NtRp2572
(dp2573
g53
(dp2574
g61
I5
ssg62
Nsg55
(lp2575
g48
(g64
g50
NtRp2576
(dp2577
g53
(dp2578
sg62
g2572
sg55
(lp2579
g48
(g69
g50
NtRp2580
(dp2581
g53
(dp2582
g73
g74
ssg62
g2576
sg55
(lp2583
S'last_query'
p2584
asbag48
(g69
g50
NtRp2585
(dp2586
g53
(dp2587
g80
g81
ssg62
g2576
sg55
(lp2588
S':'
asbag48
(g69
g50
NtRp2589
(dp2590
g53
(dp2591
sg62
g2576
sg55
(lp2592
g48
(g49
g50
NtRp2593
(dp2594
g53
(dp2595
g61
I5
ssg62
g2589
sg55
(lp2596
S'db.song.id>0'
p2597
asbasbasbasbasbsS'etype'
p2598
S"<type 'exceptions.AttributeError'>"
p2599
sS'date'
p2600
S'Wed Sep 07 03:23:16 2011'
p2601
sS'response'
p2602
g48
(g49
g50
NtRp2603
(dp2604
g53
(dp2605
sg55
(lp2606
g48
(g57
g50
NtRp2607
(dp2608
g53
(dp2609
g61
I5
ssg62
Nsg55
(lp2610
g48
(g64
g50
NtRp2611
(dp2612
g53
(dp2613
sg62
g2607
sg55
(lp2614
g48
(g69
g50
NtRp2615
(dp2616
g53
(dp2617
g73
g74
ssg62
g2611
sg55
(lp2618
g146
asbag48
(g69
g50
NtRp2619
(dp2620
g53
(dp2621
g80
g81
ssg62
g2611
sg55
(lp2622
S':'
asbag48
(g69
g50
NtRp2623
(dp2624
g53
(dp2625
sg62
g2611
sg55
(lp2626
g48
(g49
g50
NtRp2627
(dp2628
g53
(dp2629
g61
I5
ssg62
g2623
sg55
(lp2630
S'<cStringIO.StringO object at 0x06994440>'
p2631
asbasbasbag48
(g64
g50
NtRp2632
(dp2633
g53
(dp2634
sg62
g2607
sg55
(lp2635
g48
(g69
g50
NtRp2636
(dp2637
g53
(dp2638
g73
g74
ssg62
g2632
sg55
(lp2639
g212
asbag48
(g69
g50
NtRp2640
(dp2641
g53
(dp2642
g80
g81
ssg62
g2632
sg55
(lp2643
S':'
asbag48
(g69
g50
NtRp2644
(dp2645
g53
(dp2646
sg62
g2632
sg55
(lp2647
g48
(g49
g50
NtRp2648
(dp2649
g53
(dp2650
g61
I5
ssg62
g2644
sg55
(lp2651
g48
(g57
g50
NtRp2652
(dp2653
g53
(dp2654
g61
I4
ssg62
Nsg55
(lp2655
g48
(g64
g50
NtRp2656
(dp2657
g53
(dp2658
sg62
g2652
sg55
(lp2659
g48
(g69
g50
NtRp2660
(dp2661
g53
(dp2662
g73
g74
ssg62
g2656
sg55
(lp2663
S'session_id_201056161'
p2664
asbag48
(g69
g50
NtRp2665
(dp2666
g53
(dp2667
g80
g81
ssg62
g2656
sg55
(lp2668
S':'
asbag48
(g69
g50
NtRp2669
(dp2670
g53
(dp2671
sg62
g2656
sg55
(lp2672
g48
(g49
g50
NtRp2673
(dp2674
g53
(dp2675
g61
I4
ssg62
g2669
sg55
(lp2676
g48
(g57
g50
NtRp2677
(dp2678
g53
(dp2679
g61
I3
ssg62
Nsg55
(lp2680
g48
(g64
g50
NtRp2681
(dp2682
g53
(dp2683
sg62
g2677
sg55
(lp2684
g48
(g69
g50
NtRp2685
(dp2686
g53
(dp2687
g73
g74
ssg62
g2681
sg55
(lp2688
g262
asbag48
(g69
g50
NtRp2689
(dp2690
g53
(dp2691
g80
g81
ssg62
g2681
sg55
(lp2692
S':'
asbag48
(g69
g50
NtRp2693
(dp2694
g53
(dp2695
sg62
g2681
sg55
(lp2696
g48
(g49
g50
NtRp2697
(dp2698
g53
(dp2699
g61
I3
ssg62
g2693
sg55
(lp2700
S''
asbasbasbag48
(g64
g50
NtRp2701
(dp2702
g53
(dp2703
sg62
g2677
sg55
(lp2704
g48
(g69
g50
NtRp2705
(dp2706
g53
(dp2707
g73
g74
ssg62
g2701
sg55
(lp2708
g283
asbag48
(g69
g50
NtRp2709
(dp2710
g53
(dp2711
g80
g81
ssg62
g2701
sg55
(lp2712
S':'
asbag48
(g69
g50
NtRp2713
(dp2714
g53
(dp2715
sg62
g2701
sg55
(lp2716
g48
(g49
g50
NtRp2717
(dp2718
g53
(dp2719
g61
I3
ssg62
g2713
sg55
(lp2720
S''
asbasbasbag48
(g64
g50
NtRp2721
(dp2722
g53
(dp2723
sg62
g2677
sg55
(lp2724
g48
(g69
g50
NtRp2725
(dp2726
g53
(dp2727
g73
g74
ssg62
g2721
sg55
(lp2728
g304
asbag48
(g69
g50
NtRp2729
(dp2730
g53
(dp2731
g80
g81
ssg62
g2721
sg55
(lp2732
S':'
asbag48
(g69
g50
NtRp2733
(dp2734
g53
(dp2735
sg62
g2721
sg55
(lp2736
g48
(g49
g50
NtRp2737
(dp2738
g53
(dp2739
g61
I3
ssg62
g2733
sg55
(lp2740
S''
asbasbasbag48
(g64
g50
NtRp2741
(dp2742
g53
(dp2743
sg62
g2677
sg55
(lp2744
g48
(g69
g50
NtRp2745
(dp2746
g53
(dp2747
g73
g74
ssg62
g2741
sg55
(lp2748
g325
asbag48
(g69
g50
NtRp2749
(dp2750
g53
(dp2751
g80
g81
ssg62
g2741
sg55
(lp2752
S':'
asbag48
(g69
g50
NtRp2753
(dp2754
g53
(dp2755
sg62
g2741
sg55
(lp2756
g48
(g49
g50
NtRp2757
(dp2758
g53
(dp2759
g61
I3
ssg62
g2753
sg55
(lp2760
S''
asbasbasbag48
(g64
g50
NtRp2761
(dp2762
g53
(dp2763
sg62
g2677
sg55
(lp2764
g48
(g69
g50
NtRp2765
(dp2766
g53
(dp2767
g73
g74
ssg62
g2761
sg55
(lp2768
g346
asbag48
(g69
g50
NtRp2769
(dp2770
g53
(dp2771
g80
g81
ssg62
g2761
sg55
(lp2772
S':'
asbag48
(g69
g50
NtRp2773
(dp2774
g53
(dp2775
sg62
g2761
sg55
(lp2776
g48
(g49
g50
NtRp2777
(dp2778
g53
(dp2779
g61
I3
ssg62
g2773
sg55
(lp2780
S'/'
asbasbasbag48
(g64
g50
NtRp2781
(dp2782
g53
(dp2783
sg62
g2677
sg55
(lp2784
g48
(g69
g50
NtRp2785
(dp2786
g53
(dp2787
g73
g74
ssg62
g2781
sg55
(lp2788
g367
asbag48
(g69
g50
NtRp2789
(dp2790
g53
(dp2791
g80
g81
ssg62
g2781
sg55
(lp2792
S':'
asbag48
(g69
g50
NtRp2793
(dp2794
g53
(dp2795
sg62
g2781
sg55
(lp2796
g48
(g49
g50
NtRp2797
(dp2798
g53
(dp2799
g61
I3
ssg62
g2793
sg55
(lp2800
S''
asbasbasbag48
(g64
g50
NtRp2801
(dp2802
g53
(dp2803
sg62
g2677
sg55
(lp2804
g48
(g69
g50
NtRp2805
(dp2806
g53
(dp2807
g73
g74
ssg62
g2801
sg55
(lp2808
g388
asbag48
(g69
g50
NtRp2809
(dp2810
g53
(dp2811
g80
g81
ssg62
g2801
sg55
(lp2812
S':'
asbag48
(g69
g50
NtRp2813
(dp2814
g53
(dp2815
sg62
g2801
sg55
(lp2816
g48
(g49
g50
NtRp2817
(dp2818
g53
(dp2819
g61
I3
ssg62
g2813
sg55
(lp2820
S''
asbasbasbasbasbasbasbasbasbasbasbag48
(g64
g50
NtRp2821
(dp2822
g53
(dp2823
sg62
g2607
sg55
(lp2824
g48
(g69
g50
NtRp2825
(dp2826
g53
(dp2827
g73
g74
ssg62
g2821
sg55
(lp2828
S'files'
p2829
asbag48
(g69
g50
NtRp2830
(dp2831
g53
(dp2832
g80
g81
ssg62
g2821
sg55
(lp2833
S':'
asbag48
(g69
g50
NtRp2834
(dp2835
g53
(dp2836
sg62
g2821
sg55
(lp2837
g48
(g49
g50
NtRp2838
(dp2839
g53
(dp2840
g61
I5
ssg62
g2834
sg55
(lp2841
g48
(g57
g50
NtRp2842
(dp2843
g53
(dp2844
g61
I4
ssg62
Nsg55
(lp2845
g48
(g64
g50
NtRp2846
(dp2847
g53
(dp2848
sg62
g2842
sg55
(lp2849
g48
(g69
g50
NtRp2850
(dp2851
g53
(dp2852
sg62
g2846
sg55
(lp2853
g48
(g49
g50
NtRp2854
(dp2855
g53
(dp2856
g61
I4
ssg62
g2850
sg55
(lp2857
S'/201056161/static/js/jquery.js'
p2858
asbasbasbag48
(g64
g50
NtRp2859
(dp2860
g53
(dp2861
sg62
g2842
sg55
(lp2862
g48
(g69
g50
NtRp2863
(dp2864
g53
(dp2865
sg62
g2859
sg55
(lp2866
g48
(g49
g50
NtRp2867
(dp2868
g53
(dp2869
g61
I4
ssg62
g2863
sg55
(lp2870
S'/201056161/static/css/calendar.css'
p2871
asbasbasbag48
(g64
g50
NtRp2872
(dp2873
g53
(dp2874
sg62
g2842
sg55
(lp2875
g48
(g69
g50
NtRp2876
(dp2877
g53
(dp2878
sg62
g2872
sg55
(lp2879
g48
(g49
g50
NtRp2880
(dp2881
g53
(dp2882
g61
I4
ssg62
g2876
sg55
(lp2883
S'/201056161/static/js/calendar.js'
p2884
asbasbasbag48
(g64
g50
NtRp2885
(dp2886
g53
(dp2887
sg62
g2842
sg55
(lp2888
g48
(g69
g50
NtRp2889
(dp2890
g53
(dp2891
sg62
g2885
sg55
(lp2892
g48
(g49
g50
NtRp2893
(dp2894
g53
(dp2895
g61
I4
ssg62
g2889
sg55
(lp2896
S'/201056161/static/css/base.css'
p2897
asbasbasbag48
(g64
g50
NtRp2898
(dp2899
g53
(dp2900
sg62
g2842
sg55
(lp2901
g48
(g69
g50
NtRp2902
(dp2903
g53
(dp2904
sg62
g2898
sg55
(lp2905
g48
(g49
g50
NtRp2906
(dp2907
g53
(dp2908
g61
I4
ssg62
g2902
sg55
(lp2909
S'/201056161/static/css/superfish.css'
p2910
asbasbasbag48
(g64
g50
NtRp2911
(dp2912
g53
(dp2913
sg62
g2842
sg55
(lp2914
g48
(g69
g50
NtRp2915
(dp2916
g53
(dp2917
sg62
g2911
sg55
(lp2918
g48
(g49
g50
NtRp2919
(dp2920
g53
(dp2921
g61
I4
ssg62
g2915
sg55
(lp2922
S'/201056161/static/js/superfish.js'
p2923
asbasbasbasbasbasbasbag48
(g64
g50
NtRp2924
(dp2925
g53
(dp2926
sg62
g2607
sg55
(lp2927
g48
(g69
g50
NtRp2928
(dp2929
g53
(dp2930
g73
g74
ssg62
g2924
sg55
(lp2931
S'flash'
p2932
asbag48
(g69
g50
NtRp2933
(dp2934
g53
(dp2935
g80
g81
ssg62
g2924
sg55
(lp2936
S':'
asbag48
(g69
g50
NtRp2937
(dp2938
g53
(dp2939
sg62
g2924
sg55
(lp2940
g48
(g49
g50
NtRp2941
(dp2942
g53
(dp2943
g61
I5
ssg62
g2937
sg55
(lp2944
S''
asbasbasbag48
(g64
g50
NtRp2945
(dp2946
g53
(dp2947
sg62
g2607
sg55
(lp2948
g48
(g69
g50
NtRp2949
(dp2950
g53
(dp2951
g73
g74
ssg62
g2945
sg55
(lp2952
S'generic_patterns'
p2953
asbag48
(g69
g50
NtRp2954
(dp2955
g53
(dp2956
g80
g81
ssg62
g2945
sg55
(lp2957
S':'
asbag48
(g69
g50
NtRp2958
(dp2959
g53
(dp2960
sg62
g2945
sg55
(lp2961
g48
(g49
g50
NtRp2962
(dp2963
g53
(dp2964
g61
I5
ssg62
g2958
sg55
(lp2965
g48
(g57
g50
NtRp2966
(dp2967
g53
(dp2968
g61
I4
ssg62
Nsg55
(lp2969
g48
(g64
g50
NtRp2970
(dp2971
g53
(dp2972
sg62
g2966
sg55
(lp2973
g48
(g69
g50
NtRp2974
(dp2975
g53
(dp2976
sg62
g2970
sg55
(lp2977
g48
(g49
g50
NtRp2978
(dp2979
g53
(dp2980
g61
I4
ssg62
g2974
sg55
(lp2981
S'*'
asbasbasbasbasbasbasbag48
(g64
g50
NtRp2982
(dp2983
g53
(dp2984
sg62
g2607
sg55
(lp2985
g48
(g69
g50
NtRp2986
(dp2987
g53
(dp2988
g73
g74
ssg62
g2982
sg55
(lp2989
S'headers'
p2990
asbag48
(g69
g50
NtRp2991
(dp2992
g53
(dp2993
g80
g81
ssg62
g2982
sg55
(lp2994
S':'
asbag48
(g69
g50
NtRp2995
(dp2996
g53
(dp2997
sg62
g2982
sg55
(lp2998
g48
(g49
g50
NtRp2999
(dp3000
g53
(dp3001
g61
I5
ssg62
g2995
sg55
(lp3002
g48
(g57
g50
NtRp3003
(dp3004
g53
(dp3005
g61
I4
ssg62
Nsg55
(lp3006
g48
(g64
g50
NtRp3007
(dp3008
g53
(dp3009
sg62
g3003
sg55
(lp3010
g48
(g69
g50
NtRp3011
(dp3012
g53
(dp3013
g73
g74
ssg62
g3007
sg55
(lp3014
S'Cache-Control'
p3015
asbag48
(g69
g50
NtRp3016
(dp3017
g53
(dp3018
g80
g81
ssg62
g3007
sg55
(lp3019
S':'
asbag48
(g69
g50
NtRp3020
(dp3021
g53
(dp3022
sg62
g3007
sg55
(lp3023
g48
(g49
g50
NtRp3024
(dp3025
g53
(dp3026
g61
I4
ssg62
g3020
sg55
(lp3027
S'no-store, no-cache, must-revalidate, post-check=0, pre-check=0'
p3028
asbasbasbag48
(g64
g50
NtRp3029
(dp3030
g53
(dp3031
sg62
g3003
sg55
(lp3032
g48
(g69
g50
NtRp3033
(dp3034
g53
(dp3035
g73
g74
ssg62
g3029
sg55
(lp3036
S'Content-Type'
p3037
asbag48
(g69
g50
NtRp3038
(dp3039
g53
(dp3040
g80
g81
ssg62
g3029
sg55
(lp3041
S':'
asbag48
(g69
g50
NtRp3042
(dp3043
g53
(dp3044
sg62
g3029
sg55
(lp3045
g48
(g49
g50
NtRp3046
(dp3047
g53
(dp3048
g61
I4
ssg62
g3042
sg55
(lp3049
S'text/html; charset=utf-8'
p3050
asbasbasbag48
(g64
g50
NtRp3051
(dp3052
g53
(dp3053
sg62
g3003
sg55
(lp3054
g48
(g69
g50
NtRp3055
(dp3056
g53
(dp3057
g73
g74
ssg62
g3051
sg55
(lp3058
S'Expires'
p3059
asbag48
(g69
g50
NtRp3060
(dp3061
g53
(dp3062
g80
g81
ssg62
g3051
sg55
(lp3063
S':'
asbag48
(g69
g50
NtRp3064
(dp3065
g53
(dp3066
sg62
g3051
sg55
(lp3067
g48
(g49
g50
NtRp3068
(dp3069
g53
(dp3070
g61
I4
ssg62
g3064
sg55
(lp3071
S'Tue, 06 Sep 2011 21:53:16 GMT'
p3072
asbasbasbag48
(g64
g50
NtRp3073
(dp3074
g53
(dp3075
sg62
g3003
sg55
(lp3076
g48
(g69
g50
NtRp3077
(dp3078
g53
(dp3079
g73
g74
ssg62
g3073
sg55
(lp3080
S'Pragma'
p3081
asbag48
(g69
g50
NtRp3082
(dp3083
g53
(dp3084
g80
g81
ssg62
g3073
sg55
(lp3085
S':'
asbag48
(g69
g50
NtRp3086
(dp3087
g53
(dp3088
sg62
g3073
sg55
(lp3089
g48
(g49
g50
NtRp3090
(dp3091
g53
(dp3092
g61
I4
ssg62
g3086
sg55
(lp3093
S'no-cache'
p3094
asbasbasbag48
(g64
g50
NtRp3095
(dp3096
g53
(dp3097
sg62
g3003
sg55
(lp3098
g48
(g69
g50
NtRp3099
(dp3100
g53
(dp3101
g73
g74
ssg62
g3095
sg55
(lp3102
S'X-Powered-By'
p3103
asbag48
(g69
g50
NtRp3104
(dp3105
g53
(dp3106
g80
g81
ssg62
g3095
sg55
(lp3107
S':'
asbag48
(g69
g50
NtRp3108
(dp3109
g53
(dp3110
sg62
g3095
sg55
(lp3111
g48
(g49
g50
NtRp3112
(dp3113
g53
(dp3114
g61
I4
ssg62
g3108
sg55
(lp3115
S'web2py'
p3116
asbasbasbasbasbasbasbag48
(g64
g50
NtRp3117
(dp3118
g53
(dp3119
sg62
g2607
sg55
(lp3120
g48
(g69
g50
NtRp3121
(dp3122
g53
(dp3123
g73
g74
ssg62
g3117
sg55
(lp3124
S'menu'
p3125
asbag48
(g69
g50
NtRp3126
(dp3127
g53
(dp3128
g80
g81
ssg62
g3117
sg55
(lp3129
S':'
asbag48
(g69
g50
NtRp3130
(dp3131
g53
(dp3132
sg62
g3117
sg55
(lp3133
g48
(g49
g50
NtRp3134
(dp3135
g53
(dp3136
g61
I5
ssg62
g3130
sg55
(lp3137
g48
(g57
g50
NtRp3138
(dp3139
g53
(dp3140
g61
I4
ssg62
Nsg55
(lp3141
g48
(g64
g50
NtRp3142
(dp3143
g53
(dp3144
sg62
g3138
sg55
(lp3145
g48
(g69
g50
NtRp3146
(dp3147
g53
(dp3148
sg62
g3142
sg55
(lp3149
g48
(g49
g50
NtRp3150
(dp3151
g53
(dp3152
g61
I4
ssg62
g3146
sg55
(lp3153
g48
(g57
g50
NtRp3154
(dp3155
g53
(dp3156
g61
I3
ssg62
Nsg55
(lp3157
g48
(g64
g50
NtRp3158
(dp3159
g53
(dp3160
sg62
g3154
sg55
(lp3161
g48
(g69
g50
NtRp3162
(dp3163
g53
(dp3164
sg62
g3158
sg55
(lp3165
g48
(g49
g50
NtRp3166
(dp3167
g53
(dp3168
g61
I3
ssg62
g3162
sg55
(lp3169
cgluon.languages
lazyT_unpickle
p3170
(S's\x04\x00\x00\x00Home'
tRp3171
asbasbasbag48
(g64
g50
NtRp3172
(dp3173
g53
(dp3174
sg62
g3154
sg55
(lp3175
g48
(g69
g50
NtRp3176
(dp3177
g53
(dp3178
sg62
g3172
sg55
(lp3179
g48
(g49
g50
NtRp3180
(dp3181
g53
(dp3182
g61
I3
ssg62
g3176
sg55
(lp3183
g91
asbasbasbag48
(g64
g50
NtRp3184
(dp3185
g53
(dp3186
sg62
g3154
sg55
(lp3187
g48
(g69
g50
NtRp3188
(dp3189
g53
(dp3190
sg62
g3184
sg55
(lp3191
g48
(g49
g50
NtRp3192
(dp3193
g53
(dp3194
g61
I3
ssg62
g3188
sg55
(lp3195
S'/201056161/default/index'
p3196
asbasbasbag48
(g64
g50
NtRp3197
(dp3198
g53
(dp3199
sg62
g3154
sg55
(lp3200
g48
(g69
g50
NtRp3201
(dp3202
g53
(dp3203
sg62
g3197
sg55
(lp3204
g48
(g49
g50
NtRp3205
(dp3206
g53
(dp3207
g61
I3
ssg62
g3201
sg55
(lp3208
g48
(g57
g50
NtRp3209
(dp3210
g53
(dp3211
g61
I2
ssg62
Nsg55
(lp3212
sbasbasbasbasbasbasbasbag48
(g64
g50
NtRp3213
(dp3214
g53
(dp3215
sg62
g3138
sg55
(lp3216
g48
(g69
g50
NtRp3217
(dp3218
g53
(dp3219
sg62
g3213
sg55
(lp3220
g48
(g49
g50
NtRp3221
(dp3222
g53
(dp3223
g61
I4
ssg62
g3217
sg55
(lp3224
g48
(g57
g50
NtRp3225
(dp3226
g53
(dp3227
g61
I3
ssg62
Nsg55
(lp3228
g48
(g64
g50
NtRp3229
(dp3230
g53
(dp3231
sg62
g3225
sg55
(lp3232
g48
(g69
g50
NtRp3233
(dp3234
g53
(dp3235
sg62
g3229
sg55
(lp3236
g48
(g49
g50
NtRp3237
(dp3238
g53
(dp3239
g61
I3
ssg62
g3233
sg55
(lp3240
g3170
(S's\x08\x00\x00\x00This App'
tRp3241
asbasbasbag48
(g64
g50
NtRp3242
(dp3243
g53
(dp3244
sg62
g3225
sg55
(lp3245
g48
(g69
g50
NtRp3246
(dp3247
g53
(dp3248
sg62
g3242
sg55
(lp3249
g48
(g49
g50
NtRp3250
(dp3251
g53
(dp3252
g61
I3
ssg62
g3246
sg55
(lp3253
g91
asbasbasbag48
(g64
g50
NtRp3254
(dp3255
g53
(dp3256
sg62
g3225
sg55
(lp3257
g48
(g69
g50
NtRp3258
(dp3259
g53
(dp3260
sg62
g3254
sg55
(lp3261
g48
(g49
g50
NtRp3262
(dp3263
g53
(dp3264
g61
I3
ssg62
g3258
sg55
(lp3265
S'/admin/default/design/201056161'
p3266
asbasbasbag48
(g64
g50
NtRp3267
(dp3268
g53
(dp3269
sg62
g3225
sg55
(lp3270
g48
(g69
g50
NtRp3271
(dp3272
g53
(dp3273
sg62
g3267
sg55
(lp3274
g48
(g49
g50
NtRp3275
(dp3276
g53
(dp3277
g61
I3
ssg62
g3271
sg55
(lp3278
g48
(g57
g50
NtRp3279
(dp3280
g53
(dp3281
g61
I2
ssg62
Nsg55
(lp3282
g48
(g64
g50
NtRp3283
(dp3284
g53
(dp3285
sg62
g3279
sg55
(lp3286
g48
(g69
g50
NtRp3287
(dp3288
g53
(dp3289
sg62
g3283
sg55
(lp3290
g48
(g49
g50
NtRp3291
(dp3292
g53
(dp3293
g61
I2
ssg62
g3287
sg55
(lp3294
g48
(g57
g50
NtRp3295
(dp3296
g53
(dp3297
g61
I1
ssg62
Nsg55
(lp3298
g48
(g64
g50
NtRp3299
(dp3300
g53
(dp3301
sg62
g3295
sg55
(lp3302
g48
(g69
g50
NtRp3303
(dp3304
g53
(dp3305
sg62
g3299
sg55
(lp3306
g48
(g49
g50
NtRp3307
(dp3308
g53
(dp3309
g61
I1
ssg62
g3303
sg55
(lp3310
g3170
(S's\n\x00\x00\x00Controller'
tRp3311
asbasbasbag48
(g64
g50
NtRp3312
(dp3313
g53
(dp3314
sg62
g3295
sg55
(lp3315
g48
(g69
g50
NtRp3316
(dp3317
g53
(dp3318
sg62
g3312
sg55
(lp3319
g48
(g49
g50
NtRp3320
(dp3321
g53
(dp3322
g61
I1
ssg62
g3316
sg55
(lp3323
I00
asbasbasbag48
(g64
g50
NtRp3324
(dp3325
g53
(dp3326
sg62
g3295
sg55
(lp3327
g48
(g69
g50
NtRp3328
(dp3329
g53
(dp3330
sg62
g3324
sg55
(lp3331
g48
(g49
g50
NtRp3332
(dp3333
g53
(dp3334
g61
I1
ssg62
g3328
sg55
(lp3335
S'/admin/default/edit/201056161/controllers/default.py'
p3336
asbasbasbasbasbasbasbag48
(g64
g50
NtRp3337
(dp3338
g53
(dp3339
sg62
g3279
sg55
(lp3340
g48
(g69
g50
NtRp3341
(dp3342
g53
(dp3343
sg62
g3337
sg55
(lp3344
g48
(g49
g50
NtRp3345
(dp3346
g53
(dp3347
g61
I2
ssg62
g3341
sg55
(lp3348
g48
(g57
g50
NtRp3349
(dp3350
g53
(dp3351
g61
I1
ssg62
Nsg55
(lp3352
g48
(g64
g50
NtRp3353
(dp3354
g53
(dp3355
sg62
g3349
sg55
(lp3356
g48
(g69
g50
NtRp3357
(dp3358
g53
(dp3359
sg62
g3353
sg55
(lp3360
g48
(g49
g50
NtRp3361
(dp3362
g53
(dp3363
g61
I1
ssg62
g3357
sg55
(lp3364
g3170
(S's\x04\x00\x00\x00View'
tRp3365
asbasbasbag48
(g64
g50
NtRp3366
(dp3367
g53
(dp3368
sg62
g3349
sg55
(lp3369
g48
(g69
g50
NtRp3370
(dp3371
g53
(dp3372
sg62
g3366
sg55
(lp3373
g48
(g49
g50
NtRp3374
(dp3375
g53
(dp3376
g61
I1
ssg62
g3370
sg55
(lp3377
I00
asbasbasbag48
(g64
g50
NtRp3378
(dp3379
g53
(dp3380
sg62
g3349
sg55
(lp3381
g48
(g69
g50
NtRp3382
(dp3383
g53
(dp3384
sg62
g3378
sg55
(lp3385
g48
(g49
g50
NtRp3386
(dp3387
g53
(dp3388
g61
I1
ssg62
g3382
sg55
(lp3389
S'/admin/default/edit/201056161/views/default/song_details.html'
p3390
asbasbasbasbasbasbasbag48
(g64
g50
NtRp3391
(dp3392
g53
(dp3393
sg62
g3279
sg55
(lp3394
g48
(g69
g50
NtRp3395
(dp3396
g53
(dp3397
sg62
g3391
sg55
(lp3398
g48
(g49
g50
NtRp3399
(dp3400
g53
(dp3401
g61
I2
ssg62
g3395
sg55
(lp3402
g48
(g57
g50
NtRp3403
(dp3404
g53
(dp3405
g61
I1
ssg62
Nsg55
(lp3406
g48
(g64
g50
NtRp3407
(dp3408
g53
(dp3409
sg62
g3403
sg55
(lp3410
g48
(g69
g50
NtRp3411
(dp3412
g53
(dp3413
sg62
g3407
sg55
(lp3414
g48
(g49
g50
NtRp3415
(dp3416
g53
(dp3417
g61
I1
ssg62
g3411
sg55
(lp3418
g3170
(S's\x06\x00\x00\x00Layout'
tRp3419
asbasbasbag48
(g64
g50
NtRp3420
(dp3421
g53
(dp3422
sg62
g3403
sg55
(lp3423
g48
(g69
g50
NtRp3424
(dp3425
g53
(dp3426
sg62
g3420
sg55
(lp3427
g48
(g49
g50
NtRp3428
(dp3429
g53
(dp3430
g61
I1
ssg62
g3424
sg55
(lp3431
I00
asbasbasbag48
(g64
g50
NtRp3432
(dp3433
g53
(dp3434
sg62
g3403
sg55
(lp3435
g48
(g69
g50
NtRp3436
(dp3437
g53
(dp3438
sg62
g3432
sg55
(lp3439
g48
(g49
g50
NtRp3440
(dp3441
g53
(dp3442
g61
I1
ssg62
g3436
sg55
(lp3443
S'/admin/default/edit/201056161/views/layout.html'
p3444
asbasbasbasbasbasbasbag48
(g64
g50
NtRp3445
(dp3446
g53
(dp3447
sg62
g3279
sg55
(lp3448
g48
(g69
g50
NtRp3449
(dp3450
g53
(dp3451
sg62
g3445
sg55
(lp3452
g48
(g49
g50
NtRp3453
(dp3454
g53
(dp3455
g61
I2
ssg62
g3449
sg55
(lp3456
g48
(g57
g50
NtRp3457
(dp3458
g53
(dp3459
g61
I1
ssg62
Nsg55
(lp3460
g48
(g64
g50
NtRp3461
(dp3462
g53
(dp3463
sg62
g3457
sg55
(lp3464
g48
(g69
g50
NtRp3465
(dp3466
g53
(dp3467
sg62
g3461
sg55
(lp3468
g48
(g49
g50
NtRp3469
(dp3470
g53
(dp3471
g61
I1
ssg62
g3465
sg55
(lp3472
g3170
(S's\n\x00\x00\x00Stylesheet'
tRp3473
asbasbasbag48
(g64
g50
NtRp3474
(dp3475
g53
(dp3476
sg62
g3457
sg55
(lp3477
g48
(g69
g50
NtRp3478
(dp3479
g53
(dp3480
sg62
g3474
sg55
(lp3481
g48
(g49
g50
NtRp3482
(dp3483
g53
(dp3484
g61
I1
ssg62
g3478
sg55
(lp3485
I00
asbasbasbag48
(g64
g50
NtRp3486
(dp3487
g53
(dp3488
sg62
g3457
sg55
(lp3489
g48
(g69
g50
NtRp3490
(dp3491
g53
(dp3492
sg62
g3486
sg55
(lp3493
g48
(g49
g50
NtRp3494
(dp3495
g53
(dp3496
g61
I1
ssg62
g3490
sg55
(lp3497
S'/admin/default/edit/201056161/static/base.css'
p3498
asbasbasbasbasbasbasbag48
(g64
g50
NtRp3499
(dp3500
g53
(dp3501
sg62
g3279
sg55
(lp3502
g48
(g69
g50
NtRp3503
(dp3504
g53
(dp3505
sg62
g3499
sg55
(lp3506
g48
(g49
g50
NtRp3507
(dp3508
g53
(dp3509
g61
I2
ssg62
g3503
sg55
(lp3510
g48
(g57
g50
NtRp3511
(dp3512
g53
(dp3513
g61
I1
ssg62
Nsg55
(lp3514
g48
(g64
g50
NtRp3515
(dp3516
g53
(dp3517
sg62
g3511
sg55
(lp3518
g48
(g69
g50
NtRp3519
(dp3520
g53
(dp3521
sg62
g3515
sg55
(lp3522
g48
(g49
g50
NtRp3523
(dp3524
g53
(dp3525
g61
I1
ssg62
g3519
sg55
(lp3526
g3170
(S's\x08\x00\x00\x00DB Model'
tRp3527
asbasbasbag48
(g64
g50
NtRp3528
(dp3529
g53
(dp3530
sg62
g3511
sg55
(lp3531
g48
(g69
g50
NtRp3532
(dp3533
g53
(dp3534
sg62
g3528
sg55
(lp3535
g48
(g49
g50
NtRp3536
(dp3537
g53
(dp3538
g61
I1
ssg62
g3532
sg55
(lp3539
I00
asbasbasbag48
(g64
g50
NtRp3540
(dp3541
g53
(dp3542
sg62
g3511
sg55
(lp3543
g48
(g69
g50
NtRp3544
(dp3545
g53
(dp3546
sg62
g3540
sg55
(lp3547
g48
(g49
g50
NtRp3548
(dp3549
g53
(dp3550
g61
I1
ssg62
g3544
sg55
(lp3551
S'/admin/default/edit/201056161/models/db.py'
p3552
asbasbasbasbasbasbasbag48
(g64
g50
NtRp3553
(dp3554
g53
(dp3555
sg62
g3279
sg55
(lp3556
g48
(g69
g50
NtRp3557
(dp3558
g53
(dp3559
sg62
g3553
sg55
(lp3560
g48
(g49
g50
NtRp3561
(dp3562
g53
(dp3563
g61
I2
ssg62
g3557
sg55
(lp3564
g48
(g57
g50
NtRp3565
(dp3566
g53
(dp3567
g61
I1
ssg62
Nsg55
(lp3568
g48
(g64
g50
NtRp3569
(dp3570
g53
(dp3571
sg62
g3565
sg55
(lp3572
g48
(g69
g50
NtRp3573
(dp3574
g53
(dp3575
sg62
g3569
sg55
(lp3576
g48
(g49
g50
NtRp3577
(dp3578
g53
(dp3579
g61
I1
ssg62
g3573
sg55
(lp3580
g3170
(S's\n\x00\x00\x00Menu Model'
tRp3581
asbasbasbag48
(g64
g50
NtRp3582
(dp3583
g53
(dp3584
sg62
g3565
sg55
(lp3585
g48
(g69
g50
NtRp3586
(dp3587
g53
(dp3588
sg62
g3582
sg55
(lp3589
g48
(g49
g50
NtRp3590
(dp3591
g53
(dp3592
g61
I1
ssg62
g3586
sg55
(lp3593
I00
asbasbasbag48
(g64
g50
NtRp3594
(dp3595
g53
(dp3596
sg62
g3565
sg55
(lp3597
g48
(g69
g50
NtRp3598
(dp3599
g53
(dp3600
sg62
g3594
sg55
(lp3601
g48
(g49
g50
NtRp3602
(dp3603
g53
(dp3604
g61
I1
ssg62
g3598
sg55
(lp3605
S'/admin/default/edit/201056161/models/menu.py'
p3606
asbasbasbasbasbasbasbag48
(g64
g50
NtRp3607
(dp3608
g53
(dp3609
sg62
g3279
sg55
(lp3610
g48
(g69
g50
NtRp3611
(dp3612
g53
(dp3613
sg62
g3607
sg55
(lp3614
g48
(g49
g50
NtRp3615
(dp3616
g53
(dp3617
g61
I2
ssg62
g3611
sg55
(lp3618
g48
(g57
g50
NtRp3619
(dp3620
g53
(dp3621
g61
I1
ssg62
Nsg55
(lp3622
g48
(g64
g50
NtRp3623
(dp3624
g53
(dp3625
sg62
g3619
sg55
(lp3626
g48
(g69
g50
NtRp3627
(dp3628
g53
(dp3629
sg62
g3623
sg55
(lp3630
g48
(g49
g50
NtRp3631
(dp3632
g53
(dp3633
g61
I1
ssg62
g3627
sg55
(lp3634
g3170
(S's\x08\x00\x00\x00Database'
tRp3635
asbasbasbag48
(g64
g50
NtRp3636
(dp3637
g53
(dp3638
sg62
g3619
sg55
(lp3639
g48
(g69
g50
NtRp3640
(dp3641
g53
(dp3642
sg62
g3636
sg55
(lp3643
g48
(g49
g50
NtRp3644
(dp3645
g53
(dp3646
g61
I1
ssg62
g3640
sg55
(lp3647
I00
asbasbasbag48
(g64
g50
NtRp3648
(dp3649
g53
(dp3650
sg62
g3619
sg55
(lp3651
g48
(g69
g50
NtRp3652
(dp3653
g53
(dp3654
sg62
g3648
sg55
(lp3655
g48
(g49
g50
NtRp3656
(dp3657
g53
(dp3658
g61
I1
ssg62
g3652
sg55
(lp3659
S'/201056161/appadmin/index'
p3660
asbasbasbasbasbasbasbag48
(g64
g50
NtRp3661
(dp3662
g53
(dp3663
sg62
g3279
sg55
(lp3664
g48
(g69
g50
NtRp3665
(dp3666
g53
(dp3667
sg62
g3661
sg55
(lp3668
g48
(g49
g50
NtRp3669
(dp3670
g53
(dp3671
g61
I2
ssg62
g3665
sg55
(lp3672
g48
(g57
g50
NtRp3673
(dp3674
g53
(dp3675
g61
I1
ssg62
Nsg55
(lp3676
g48
(g64
g50
NtRp3677
(dp3678
g53
(dp3679
sg62
g3673
sg55
(lp3680
g48
(g69
g50
NtRp3681
(dp3682
g53
(dp3683
sg62
g3677
sg55
(lp3684
g48
(g49
g50
NtRp3685
(dp3686
g53
(dp3687
g61
I1
ssg62
g3681
sg55
(lp3688
g3170
(S's\x06\x00\x00\x00Errors'
tRp3689
asbasbasbag48
(g64
g50
NtRp3690
(dp3691
g53
(dp3692
sg62
g3673
sg55
(lp3693
g48
(g69
g50
NtRp3694
(dp3695
g53
(dp3696
sg62
g3690
sg55
(lp3697
g48
(g49
g50
NtRp3698
(dp3699
g53
(dp3700
g61
I1
ssg62
g3694
sg55
(lp3701
I00
asbasbasbag48
(g64
g50
NtRp3702
(dp3703
g53
(dp3704
sg62
g3673
sg55
(lp3705
g48
(g69
g50
NtRp3706
(dp3707
g53
(dp3708
sg62
g3702
sg55
(lp3709
g48
(g49
g50
NtRp3710
(dp3711
g53
(dp3712
g61
I1
ssg62
g3706
sg55
(lp3713
S'/admin/default/errors/201056161'
p3714
asbasbasbasbasbasbasbag48
(g64
g50
NtRp3715
(dp3716
g53
(dp3717
sg62
g3279
sg55
(lp3718
g48
(g69
g50
NtRp3719
(dp3720
g53
(dp3721
sg62
g3715
sg55
(lp3722
g48
(g49
g50
NtRp3723
(dp3724
g53
(dp3725
g61
I2
ssg62
g3719
sg55
(lp3726
g48
(g57
g50
NtRp3727
(dp3728
g53
(dp3729
g61
I1
ssg62
Nsg55
(lp3730
g48
(g64
g50
NtRp3731
(dp3732
g53
(dp3733
sg62
g3727
sg55
(lp3734
g48
(g69
g50
NtRp3735
(dp3736
g53
(dp3737
sg62
g3731
sg55
(lp3738
g48
(g49
g50
NtRp3739
(dp3740
g53
(dp3741
g61
I1
ssg62
g3735
sg55
(lp3742
g3170
(S's\x05\x00\x00\x00About'
tRp3743
asbasbasbag48
(g64
g50
NtRp3744
(dp3745
g53
(dp3746
sg62
g3727
sg55
(lp3747
g48
(g69
g50
NtRp3748
(dp3749
g53
(dp3750
sg62
g3744
sg55
(lp3751
g48
(g49
g50
NtRp3752
(dp3753
g53
(dp3754
g61
I1
ssg62
g3748
sg55
(lp3755
I00
asbasbasbag48
(g64
g50
NtRp3756
(dp3757
g53
(dp3758
sg62
g3727
sg55
(lp3759
g48
(g69
g50
NtRp3760
(dp3761
g53
(dp3762
sg62
g3756
sg55
(lp3763
g48
(g49
g50
NtRp3764
(dp3765
g53
(dp3766
g61
I1
ssg62
g3760
sg55
(lp3767
S'/admin/default/about/201056161'
p3768
asbasbasbasbasbasbasbasbasbasbasbasbasbasbasbag48
(g64
g50
NtRp3769
(dp3770
g53
(dp3771
sg62
g3138
sg55
(lp3772
g48
(g69
g50
NtRp3773
(dp3774
g53
(dp3775
sg62
g3769
sg55
(lp3776
g48
(g49
g50
NtRp3777
(dp3778
g53
(dp3779
g61
I4
ssg62
g3773
sg55
(lp3780
g48
(g57
g50
NtRp3781
(dp3782
g53
(dp3783
g61
I3
ssg62
Nsg55
(lp3784
g48
(g64
g50
NtRp3785
(dp3786
g53
(dp3787
sg62
g3781
sg55
(lp3788
g48
(g69
g50
NtRp3789
(dp3790
g53
(dp3791
sg62
g3785
sg55
(lp3792
g48
(g49
g50
NtRp3793
(dp3794
g53
(dp3795
g61
I3
ssg62
g3789
sg55
(lp3796
g3170
(S's\t\x00\x00\x00Resources'
tRp3797
asbasbasbag48
(g64
g50
NtRp3798
(dp3799
g53
(dp3800
sg62
g3781
sg55
(lp3801
g48
(g69
g50
NtRp3802
(dp3803
g53
(dp3804
sg62
g3798
sg55
(lp3805
g48
(g49
g50
NtRp3806
(dp3807
g53
(dp3808
g61
I3
ssg62
g3802
sg55
(lp3809
g91
asbasbasbag48
(g64
g50
NtRp3810
(dp3811
g53
(dp3812
sg62
g3781
sg55
(lp3813
g48
(g69
g50
NtRp3814
(dp3815
g53
(dp3816
sg62
g3810
sg55
(lp3817
g48
(g49
g50
NtRp3818
(dp3819
g53
(dp3820
g61
I3
ssg62
g3814
sg55
(lp3821
S'None'
p3822
asbasbasbag48
(g64
g50
NtRp3823
(dp3824
g53
(dp3825
sg62
g3781
sg55
(lp3826
g48
(g69
g50
NtRp3827
(dp3828
g53
(dp3829
sg62
g3823
sg55
(lp3830
g48
(g49
g50
NtRp3831
(dp3832
g53
(dp3833
g61
I3
ssg62
g3827
sg55
(lp3834
g48
(g57
g50
NtRp3835
(dp3836
g53
(dp3837
g61
I2
ssg62
Nsg55
(lp3838
g48
(g64
g50
NtRp3839
(dp3840
g53
(dp3841
sg62
g3835
sg55
(lp3842
g48
(g69
g50
NtRp3843
(dp3844
g53
(dp3845
sg62
g3839
sg55
(lp3846
g48
(g49
g50
NtRp3847
(dp3848
g53
(dp3849
g61
I2
ssg62
g3843
sg55
(lp3850
g48
(g57
g50
NtRp3851
(dp3852
g53
(dp3853
g61
I1
ssg62
Nsg55
(lp3854
g48
(g64
g50
NtRp3855
(dp3856
g53
(dp3857
sg62
g3851
sg55
(lp3858
g48
(g69
g50
NtRp3859
(dp3860
g53
(dp3861
sg62
g3855
sg55
(lp3862
g48
(g49
g50
NtRp3863
(dp3864
g53
(dp3865
g61
I1
ssg62
g3859
sg55
(lp3866
g3170
(S's\r\x00\x00\x00Documentation'
tRp3867
asbasbasbag48
(g64
g50
NtRp3868
(dp3869
g53
(dp3870
sg62
g3851
sg55
(lp3871
g48
(g69
g50
NtRp3872
(dp3873
g53
(dp3874
sg62
g3868
sg55
(lp3875
g48
(g49
g50
NtRp3876
(dp3877
g53
(dp3878
g61
I1
ssg62
g3872
sg55
(lp3879
I00
asbasbasbag48
(g64
g50
NtRp3880
(dp3881
g53
(dp3882
sg62
g3851
sg55
(lp3883
g48
(g69
g50
NtRp3884
(dp3885
g53
(dp3886
sg62
g3880
sg55
(lp3887
g48
(g49
g50
NtRp3888
(dp3889
g53
(dp3890
g61
I1
ssg62
g3884
sg55
(lp3891
S'http://www.web2py.com/book'
p3892
asbasbasbag48
(g64
g50
NtRp3893
(dp3894
g53
(dp3895
sg62
g3851
sg55
(lp3896
g48
(g69
g50
NtRp3897
(dp3898
g53
(dp3899
sg62
g3893
sg55
(lp3900
g48
(g49
g50
NtRp3901
(dp3902
g53
(dp3903
g61
I1
ssg62
g3897
sg55
(lp3904
(lp3905
(g3170
(S's\x07\x00\x00\x00Preface'
tRp3906
I00
S'http://www.web2py.com/book/default/chapter/00'
tp3907
a(g3170
(S's\x0c\x00\x00\x00Introduction'
tRp3908
I00
S'http://www.web2py.com/book/default/chapter/01'
tp3909
a(g3170
(S's\x06\x00\x00\x00Python'
tRp3910
I00
S'http://www.web2py.com/book/default/chapter/02'
tp3911
a(g3170
(S's\x08\x00\x00\x00Overview'
tRp3912
I00
S'http://www.web2py.com/book/default/chapter/03'
tp3913
a(g3170
(S's\x08\x00\x00\x00The Core'
tRp3914
I00
S'http://www.web2py.com/book/default/chapter/04'
tp3915
a(g3170
(S's\t\x00\x00\x00The Views'
tRp3916
I00
S'http://www.web2py.com/book/default/chapter/05'
tp3917
a(g3170
(S's\x08\x00\x00\x00Database'
tRp3918
I00
S'http://www.web2py.com/book/default/chapter/06'
tp3919
a(g3170
(S's\x14\x00\x00\x00Forms and Validators'
tRp3920
I00
S'http://www.web2py.com/book/default/chapter/07'
tp3921
a(g3170
(S's\x0e\x00\x00\x00Access Control'
tRp3922
I00
S'http://www.web2py.com/book/default/chapter/08'
tp3923
a(g3170
(S's\x08\x00\x00\x00Services'
tRp3924
I00
S'http://www.web2py.com/book/default/chapter/09'
tp3925
a(g3170
(S's\x0c\x00\x00\x00Ajax Recipes'
tRp3926
I00
S'http://www.web2py.com/book/default/chapter/10'
tp3927
a(g3170
(S's\x12\x00\x00\x00Deployment Recipes'
tRp3928
I00
S'http://www.web2py.com/book/default/chapter/11'
tp3929
a(g3170
(S's\r\x00\x00\x00Other Recipes'
tRp3930
I00
S'http://www.web2py.com/book/default/chapter/12'
tp3931
a(g3170
(S's\r\x00\x00\x00Buy this book'
tRp3932
I00
S'http://stores.lulu.com/web2py'
tp3933
aasbasbasbasbasbasbasbag48
(g64
g50
NtRp3934
(dp3935
g53
(dp3936
sg62
g3835
sg55
(lp3937
g48
(g69
g50
NtRp3938
(dp3939
g53
(dp3940
sg62
g3934
sg55
(lp3941
g48
(g49
g50
NtRp3942
(dp3943
g53
(dp3944
g61
I2
ssg62
g3938
sg55
(lp3945
g48
(g57
g50
NtRp3946
(dp3947
g53
(dp3948
g61
I1
ssg62
Nsg55
(lp3949
g48
(g64
g50
NtRp3950
(dp3951
g53
(dp3952
sg62
g3946
sg55
(lp3953
g48
(g69
g50
NtRp3954
(dp3955
g53
(dp3956
sg62
g3950
sg55
(lp3957
g48
(g49
g50
NtRp3958
(dp3959
g53
(dp3960
g61
I1
ssg62
g3954
sg55
(lp3961
g3170
(S's\t\x00\x00\x00Community'
tRp3962
asbasbasbag48
(g64
g50
NtRp3963
(dp3964
g53
(dp3965
sg62
g3946
sg55
(lp3966
g48
(g69
g50
NtRp3967
(dp3968
g53
(dp3969
sg62
g3963
sg55
(lp3970
g48
(g49
g50
NtRp3971
(dp3972
g53
(dp3973
g61
I1
ssg62
g3967
sg55
(lp3974
I00
asbasbasbag48
(g64
g50
NtRp3975
(dp3976
g53
(dp3977
sg62
g3946
sg55
(lp3978
g48
(g69
g50
NtRp3979
(dp3980
g53
(dp3981
sg62
g3975
sg55
(lp3982
g48
(g49
g50
NtRp3983
(dp3984
g53
(dp3985
g61
I1
ssg62
g3979
sg55
(lp3986
Nasbasbasbag48
(g64
g50
NtRp3987
(dp3988
g53
(dp3989
sg62
g3946
sg55
(lp3990
g48
(g69
g50
NtRp3991
(dp3992
g53
(dp3993
sg62
g3987
sg55
(lp3994
g48
(g49
g50
NtRp3995
(dp3996
g53
(dp3997
g61
I1
ssg62
g3991
sg55
(lp3998
(lp3999
(g3170
(S's\x06\x00\x00\x00Groups'
tRp4000
I00
S'http://www.web2py.com/examples/default/usergroups'
tp4001
a(g3170
(S's\x07\x00\x00\x00Twitter'
tRp4002
I00
S'http://twitter.com/web2py'
tp4003
a(g3170
(S's\t\x00\x00\x00Live chat'
tRp4004
I00
S'http://mibbit.com/?channel=%23web2py&server=irc.mibbit.net'
tp4005
a(g3170
(S's\n\x00\x00\x00User Voice'
tRp4006
I00
S'http://web2py.uservoice.com/'
tp4007
aasbasbasbasbasbasbasbag48
(g64
g50
NtRp4008
(dp4009
g53
(dp4010
sg62
g3835
sg55
(lp4011
g48
(g69
g50
NtRp4012
(dp4013
g53
(dp4014
sg62
g4008
sg55
(lp4015
g48
(g49
g50
NtRp4016
(dp4017
g53
(dp4018
g61
I2
ssg62
g4012
sg55
(lp4019
g48
(g57
g50
NtRp4020
(dp4021
g53
(dp4022
g61
I1
ssg62
Nsg55
(lp4023
g48
(g64
g50
NtRp4024
(dp4025
g53
(dp4026
sg62
g4020
sg55
(lp4027
g48
(g69
g50
NtRp4028
(dp4029
g53
(dp4030
sg62
g4024
sg55
(lp4031
g48
(g49
g50
NtRp4032
(dp4033
g53
(dp4034
g61
I1
ssg62
g4028
sg55
(lp4035
g3170
(S's\x06\x00\x00\x00Web2py'
tRp4036
asbasbasbag48
(g64
g50
NtRp4037
(dp4038
g53
(dp4039
sg62
g4020
sg55
(lp4040
g48
(g69
g50
NtRp4041
(dp4042
g53
(dp4043
sg62
g4037
sg55
(lp4044
g48
(g49
g50
NtRp4045
(dp4046
g53
(dp4047
g61
I1
ssg62
g4041
sg55
(lp4048
I00
asbasbasbag48
(g64
g50
NtRp4049
(dp4050
g53
(dp4051
sg62
g4020
sg55
(lp4052
g48
(g69
g50
NtRp4053
(dp4054
g53
(dp4055
sg62
g4049
sg55
(lp4056
g48
(g49
g50
NtRp4057
(dp4058
g53
(dp4059
g61
I1
ssg62
g4053
sg55
(lp4060
S'http://www.web2py.com'
p4061
asbasbasbag48
(g64
g50
NtRp4062
(dp4063
g53
(dp4064
sg62
g4020
sg55
(lp4065
g48
(g69
g50
NtRp4066
(dp4067
g53
(dp4068
sg62
g4062
sg55
(lp4069
g48
(g49
g50
NtRp4070
(dp4071
g53
(dp4072
g61
I1
ssg62
g4066
sg55
(lp4073
(lp4074
(g3170
(S's\x08\x00\x00\x00Download'
tRp4075
I00
S'http://www.web2py.com/examples/default/download'
tp4076
a(g3170
(S's\x07\x00\x00\x00Support'
tRp4077
I00
S'http://www.web2py.com/examples/default/support'
tp4078
a(g3170
(S's\x0e\x00\x00\x00Quick Examples'
tRp4079
I00
S'http://web2py.com/examples/default/examples'
tp4080
a(g3170
(S's\x03\x00\x00\x00FAQ'
tRp4081
I00
S'http://web2py.com/AlterEgo'
tp4082
a(g3170
(S's\x11\x00\x00\x00Free Applications'
tRp4083
I00
S'http://web2py.com/appliances'
tp4084
a(g3170
(S's\x07\x00\x00\x00Plugins'
tRp4085
I00
S'http://web2py.com/plugins'
tp4086
a(g3170
(S's\x07\x00\x00\x00Recipes'
tRp4087
I00
S'http://web2pyslices.com/'
tp4088
a(g3170
(S's\x04\x00\x00\x00Demo'
tRp4089
I00
S'http://web2py.com/demo_admin'
tp4090
a(g3170
(S's\x08\x00\x00\x00Semantic'
tRp4091
I00
S'http://web2py.com/semantic'
tp4092
a(g3170
(S's\x07\x00\x00\x00Layouts'
tRp4093
I00
S'http://web2py.com/layouts'
tp4094
a(g3170
(S's\x06\x00\x00\x00Videos'
tRp4095
I00
S'http://www.web2py.com/examples/default/videos/'
tp4096
aasbasbasbasbasbasbasbasbasbasbasbasbasbasbasbasbasbasbasbag48
(g64
g50
NtRp4097
(dp4098
g53
(dp4099
sg62
g2607
sg55
(lp4100
g48
(g69
g50
NtRp4101
(dp4102
g53
(dp4103
g73
g74
ssg62
g4097
sg55
(lp4104
S'meta'
p4105
asbag48
(g69
g50
NtRp4106
(dp4107
g53
(dp4108
g80
g81
ssg62
g4097
sg55
(lp4109
S':'
asbag48
(g69
g50
NtRp4110
(dp4111
g53
(dp4112
sg62
g4097
sg55
(lp4113
g48
(g49
g50
NtRp4114
(dp4115
g53
(dp4116
g61
I5
ssg62
g4110
sg55
(lp4117
g48
(g57
g50
NtRp4118
(dp4119
g53
(dp4120
g61
I4
ssg62
Nsg55
(lp4121
g48
(g64
g50
NtRp4122
(dp4123
g53
(dp4124
sg62
g4118
sg55
(lp4125
g48
(g69
g50
NtRp4126
(dp4127
g53
(dp4128
g73
g74
ssg62
g4122
sg55
(lp4129
S'author'
p4130
asbag48
(g69
g50
NtRp4131
(dp4132
g53
(dp4133
g80
g81
ssg62
g4122
sg55
(lp4134
S':'
asbag48
(g69
g50
NtRp4135
(dp4136
g53
(dp4137
sg62
g4122
sg55
(lp4138
g48
(g49
g50
NtRp4139
(dp4140
g53
(dp4141
g61
I4
ssg62
g4135
sg55
(lp4142
S'you'
p4143
asbasbasbag48
(g64
g50
NtRp4144
(dp4145
g53
(dp4146
sg62
g4118
sg55
(lp4147
g48
(g69
g50
NtRp4148
(dp4149
g53
(dp4150
g73
g74
ssg62
g4144
sg55
(lp4151
S'copyright'
p4152
asbag48
(g69
g50
NtRp4153
(dp4154
g53
(dp4155
g80
g81
ssg62
g4144
sg55
(lp4156
S':'
asbag48
(g69
g50
NtRp4157
(dp4158
g53
(dp4159
sg62
g4144
sg55
(lp4160
g48
(g49
g50
NtRp4161
(dp4162
g53
(dp4163
g61
I4
ssg62
g4157
sg55
(lp4164
S'Copyright 2007-2010'
p4165
asbasbasbag48
(g64
g50
NtRp4166
(dp4167
g53
(dp4168
sg62
g4118
sg55
(lp4169
g48
(g69
g50
NtRp4170
(dp4171
g53
(dp4172
g73
g74
ssg62
g4166
sg55
(lp4173
S'description'
p4174
asbag48
(g69
g50
NtRp4175
(dp4176
g53
(dp4177
g80
g81
ssg62
g4166
sg55
(lp4178
S':'
asbag48
(g69
g50
NtRp4179
(dp4180
g53
(dp4181
sg62
g4166
sg55
(lp4182
g48
(g49
g50
NtRp4183
(dp4184
g53
(dp4185
g61
I4
ssg62
g4179
sg55
(lp4186
S'Free and open source full-stack enterprise framework for agile development of fast, scalable, secure and portable database-driven web-based applications. Written and programmable in Python'
p4187
asbasbasbag48
(g64
g50
NtRp4188
(dp4189
g53
(dp4190
sg62
g4118
sg55
(lp4191
g48
(g69
g50
NtRp4192
(dp4193
g53
(dp4194
g73
g74
ssg62
g4188
sg55
(lp4195
S'generator'
p4196
asbag48
(g69
g50
NtRp4197
(dp4198
g53
(dp4199
g80
g81
ssg62
g4188
sg55
(lp4200
S':'
asbag48
(g69
g50
NtRp4201
(dp4202
g53
(dp4203
sg62
g4188
sg55
(lp4204
g48
(g49
g50
NtRp4205
(dp4206
g53
(dp4207
g61
I4
ssg62
g4201
sg55
(lp4208
S'Web2py Enterprise Framework'
p4209
asbasbasbag48
(g64
g50
NtRp4210
(dp4211
g53
(dp4212
sg62
g4118
sg55
(lp4213
g48
(g69
g50
NtRp4214
(dp4215
g53
(dp4216
g73
g74
ssg62
g4210
sg55
(lp4217
S'keywords'
p4218
asbag48
(g69
g50
NtRp4219
(dp4220
g53
(dp4221
g80
g81
ssg62
g4210
sg55
(lp4222
S':'
asbag48
(g69
g50
NtRp4223
(dp4224
g53
(dp4225
sg62
g4210
sg55
(lp4226
g48
(g49
g50
NtRp4227
(dp4228
g53
(dp4229
g61
I4
ssg62
g4223
sg55
(lp4230
S'web2py, python, framework'
p4231
asbasbasbasbasbasbasbag48
(g64
g50
NtRp4232
(dp4233
g53
(dp4234
sg62
g2607
sg55
(lp4235
g48
(g69
g50
NtRp4236
(dp4237
g53
(dp4238
g73
g74
ssg62
g4232
sg55
(lp4239
S'postprocessing'
p4240
asbag48
(g69
g50
NtRp4241
(dp4242
g53
(dp4243
g80
g81
ssg62
g4232
sg55
(lp4244
S':'
asbag48
(g69
g50
NtRp4245
(dp4246
g53
(dp4247
sg62
g4232
sg55
(lp4248
g48
(g49
g50
NtRp4249
(dp4250
g53
(dp4251
g61
I5
ssg62
g4245
sg55
(lp4252
g48
(g57
g50
NtRp4253
(dp4254
g53
(dp4255
g61
I4
ssg62
Nsg55
(lp4256
sbasbasbasbag48
(g64
g50
NtRp4257
(dp4258
g53
(dp4259
sg62
g2607
sg55
(lp4260
g48
(g69
g50
NtRp4261
(dp4262
g53
(dp4263
g73
g74
ssg62
g4257
sg55
(lp4264
S'session_file'
p4265
asbag48
(g69
g50
NtRp4266
(dp4267
g53
(dp4268
g80
g81
ssg62
g4257
sg55
(lp4269
S':'
asbag48
(g69
g50
NtRp4270
(dp4271
g53
(dp4272
sg62
g4257
sg55
(lp4273
g48
(g49
g50
NtRp4274
(dp4275
g53
(dp4276
g61
I5
ssg62
g4270
sg55
(lp4277
S"<open file 'C:\\Users\\AKSHAY\\Desktop\\web2py\\applications\\201056161\\sessions\\127.0.0.1-3bc821ac-4d59-41c6-8699-b3e43edfc478', mode 'rb+' at 0x06DCEA88>"
p4278
asbasbasbag48
(g64
g50
NtRp4279
(dp4280
g53
(dp4281
sg62
g2607
sg55
(lp4282
g48
(g69
g50
NtRp4283
(dp4284
g53
(dp4285
g73
g74
ssg62
g4279
sg55
(lp4286
S'session_filename'
p4287
asbag48
(g69
g50
NtRp4288
(dp4289
g53
(dp4290
g80
g81
ssg62
g4279
sg55
(lp4291
S':'
asbag48
(g69
g50
NtRp4292
(dp4293
g53
(dp4294
sg62
g4279
sg55
(lp4295
g48
(g49
g50
NtRp4296
(dp4297
g53
(dp4298
g61
I5
ssg62
g4292
sg55
(lp4299
S'C:\\Users\\AKSHAY\\Desktop\\web2py\\applications\\201056161\\sessions\\127.0.0.1-3bc821ac-4d59-41c6-8699-b3e43edfc478'
p4300
asbasbasbag48
(g64
g50
NtRp4301
(dp4302
g53
(dp4303
sg62
g2607
sg55
(lp4304
g48
(g69
g50
NtRp4305
(dp4306
g53
(dp4307
g73
g74
ssg62
g4301
sg55
(lp4308
S'session_id'
p4309
asbag48
(g69
g50
NtRp4310
(dp4311
g53
(dp4312
g80
g81
ssg62
g4301
sg55
(lp4313
S':'
asbag48
(g69
g50
NtRp4314
(dp4315
g53
(dp4316
sg62
g4301
sg55
(lp4317
g48
(g49
g50
NtRp4318
(dp4319
g53
(dp4320
g61
I5
ssg62
g4314
sg55
(lp4321
S'127.0.0.1-3bc821ac-4d59-41c6-8699-b3e43edfc478'
p4322
asbasbasbag48
(g64
g50
NtRp4323
(dp4324
g53
(dp4325
sg62
g2607
sg55
(lp4326
g48
(g69
g50
NtRp4327
(dp4328
g53
(dp4329
g73
g74
ssg62
g4323
sg55
(lp4330
S'session_id_name'
p4331
asbag48
(g69
g50
NtRp4332
(dp4333
g53
(dp4334
g80
g81
ssg62
g4323
sg55
(lp4335
S':'
asbag48
(g69
g50
NtRp4336
(dp4337
g53
(dp4338
sg62
g4323
sg55
(lp4339
g48
(g49
g50
NtRp4340
(dp4341
g53
(dp4342
g61
I5
ssg62
g4336
sg55
(lp4343
g2664
asbasbasbag48
(g64
g50
NtRp4344
(dp4345
g53
(dp4346
sg62
g2607
sg55
(lp4347
g48
(g69
g50
NtRp4348
(dp4349
g53
(dp4350
g73
g74
ssg62
g4344
sg55
(lp4351
S'session_locked'
p4352
asbag48
(g69
g50
NtRp4353
(dp4354
g53
(dp4355
g80
g81
ssg62
g4344
sg55
(lp4356
S':'
asbag48
(g69
g50
NtRp4357
(dp4358
g53
(dp4359
sg62
g4344
sg55
(lp4360
g48
(g49
g50
NtRp4361
(dp4362
g53
(dp4363
g61
I5
ssg62
g4357
sg55
(lp4364
g1501
asbasbasbag48
(g64
g50
NtRp4365
(dp4366
g53
(dp4367
sg62
g2607
sg55
(lp4368
g48
(g69
g50
NtRp4369
(dp4370
g53
(dp4371
g73
g74
ssg62
g4365
sg55
(lp4372
S'session_new'
p4373
asbag48
(g69
g50
NtRp4374
(dp4375
g53
(dp4376
g80
g81
ssg62
g4365
sg55
(lp4377
S':'
asbag48
(g69
g50
NtRp4378
(dp4379
g53
(dp4380
sg62
g4365
sg55
(lp4381
g48
(g49
g50
NtRp4382
(dp4383
g53
(dp4384
g61
I5
ssg62
g4378
sg55
(lp4385
g91
asbasbasbag48
(g64
g50
NtRp4386
(dp4387
g53
(dp4388
sg62
g2607
sg55
(lp4389
g48
(g69
g50
NtRp4390
(dp4391
g53
(dp4392
g73
g74
ssg62
g4386
sg55
(lp4393
S'status'
p4394
asbag48
(g69
g50
NtRp4395
(dp4396
g53
(dp4397
g80
g81
ssg62
g4386
sg55
(lp4398
S':'
asbag48
(g69
g50
NtRp4399
(dp4400
g53
(dp4401
sg62
g4386
sg55
(lp4402
g48
(g49
g50
NtRp4403
(dp4404
g53
(dp4405
g61
I5
ssg62
g4399
sg55
(lp4406
S'200'
p4407
asbasbasbag48
(g64
g50
NtRp4408
(dp4409
g53
(dp4410
sg62
g2607
sg55
(lp4411
g48
(g69
g50
NtRp4412
(dp4413
g53
(dp4414
g73
g74
ssg62
g4408
sg55
(lp4415
S'subtitle'
p4416
asbag48
(g69
g50
NtRp4417
(dp4418
g53
(dp4419
g80
g81
ssg62
g4408
sg55
(lp4420
S':'
asbag48
(g69
g50
NtRp4421
(dp4422
g53
(dp4423
sg62
g4408
sg55
(lp4424
g48
(g49
g50
NtRp4425
(dp4426
g53
(dp4427
g61
I5
ssg62
g4421
sg55
(lp4428
g3170
(S's\r\x00\x00\x00customize me!'
tRp4429
asbasbasbag48
(g64
g50
NtRp4430
(dp4431
g53
(dp4432
sg62
g2607
sg55
(lp4433
g48
(g69
g50
NtRp4434
(dp4435
g53
(dp4436
g73
g74
ssg62
g4430
sg55
(lp4437
S'title'
p4438
asbag48
(g69
g50
NtRp4439
(dp4440
g53
(dp4441
g80
g81
ssg62
g4430
sg55
(lp4442
S':'
asbag48
(g69
g50
NtRp4443
(dp4444
g53
(dp4445
sg62
g4430
sg55
(lp4446
g48
(g49
g50
NtRp4447
(dp4448
g53
(dp4449
g61
I5
ssg62
g4443
sg55
(lp4450
g113
asbasbasbag48
(g64
g50
NtRp4451
(dp4452
g53
(dp4453
sg62
g2607
sg55
(lp4454
g48
(g69
g50
NtRp4455
(dp4456
g53
(dp4457
g73
g74
ssg62
g4451
sg55
(lp4458
g1846
asbag48
(g69
g50
NtRp4459
(dp4460
g53
(dp4461
g80
g81
ssg62
g4451
sg55
(lp4462
S':'
asbag48
(g69
g50
NtRp4463
(dp4464
g53
(dp4465
sg62
g4451
sg55
(lp4466
g48
(g49
g50
NtRp4467
(dp4468
g53
(dp4469
g61
I5
ssg62
g4463
sg55
(lp4470
g1859
asbasbasbag48
(g64
g50
NtRp4471
(dp4472
g53
(dp4473
sg62
g2607
sg55
(lp4474
g48
(g69
g50
NtRp4475
(dp4476
g53
(dp4477
g73
g74
ssg62
g4471
sg55
(lp4478
S'view'
p4479
asbag48
(g69
g50
NtRp4480
(dp4481
g53
(dp4482
g80
g81
ssg62
g4471
sg55
(lp4483
S':'
asbag48
(g69
g50
NtRp4484
(dp4485
g53
(dp4486
sg62
g4471
sg55
(lp4487
g48
(g49
g50
NtRp4488
(dp4489
g53
(dp4490
g61
I5
ssg62
g4484
sg55
(lp4491
S'default/song_details.html'
p4492
asbasbasbasbasbsS'locals'
p4493
(dp4494
S'Service'
p4495
S"<class 'gluon.tools.Service'>"
p4496
sS'OBJECT'
p4497
S"<class 'gluon.html.OBJECT'>"
p4498
sS'_file'
p4499
S"'/201056161/static/js/superfish.js'"
p4500
sS'SQLDB'
p4501
S"<class 'gluon.dal.DAL'>"
p4502
sg2567
S"<Storage {'_formkey[song/create]': '149afae1-13a...reate]': '7ec29012-0e3b-4126-afa0-f8a331d66a28'}>"
p4503
sS'LINK'
p4504
S"<class 'gluon.html.LINK'>"
p4505
sS'BR'
p4506
S"<class 'gluon.html.BR'>"
p4507
sS'local_import'
p4508
S'<function <lambda> at 0x072524B0>'
p4509
sS'OPTGROUP'
p4510
S"<class 'gluon.html.OPTGROUP'>"
p4511
sS'PRE'
p4512
S"<class 'gluon.html.PRE'>"
p4513
sS'IS_INT_IN_RANGE'
p4514
S"<class 'gluon.validators.IS_INT_IN_RANGE'>"
p4515
sS'left_sidebar_enabled'
p4516
g91
sS'IS_LOWER'
p4517
S"<class 'gluon.validators.IS_LOWER'>"
p4518
sS'IS_STRONG'
p4519
S"<class 'gluon.validators.IS_STRONG'>"
p4520
sS'cache'
p4521
S'<gluon.cache.Cache object at 0x074E8F50>'
p4522
sS'IS_IN_DB'
p4523
S"<class 'gluon.validators.IS_IN_DB'>"
p4524
sS'TAG'
p4525
S'<gluon.html.__TAG__ object at 0x02902370>'
p4526
sS'_k'
p4527
S'5'
sS'SQLField'
p4528
S"<class 'gluon.dal.Field'>"
p4529
sS'mail'
p4530
S'<gluon.tools.Mail object at 0x074E80B0>'
p4531
sS'BODY'
p4532
S"<class 'gluon.html.BODY'>"
p4533
sS'IS_DATE_IN_RANGE'
p4534
S"<class 'gluon.validators.IS_DATE_IN_RANGE'>"
p4535
sS'TH'
p4536
S"<class 'gluon.html.TH'>"
p4537
sS'URL'
p4538
S'<function URL at 0x0294DF70>'
p4539
sS'__file__'
p4540
S"r'C:\\Users\\AKSHAY\\Desktop\\web2py\\applications\\201056161\\views\\default/song_details.html'"
p4541
sS'db'
p4542
S"<DAL {'auth_event': <Table {'origin': <gluon.dal... 'id': <gluon.dal.Field object at 0x068BB0B0>}>}>"
p4543
sS'auth'
p4544
S'<gluon.tools.Auth object at 0x074E8A30>'
p4545
sS'P'
S"<class 'gluon.html.P'>"
p4546
sS'TFOOT'
p4547
S"<class 'gluon.html.TFOOT'>"
p4548
sS'XHTML'
p4549
S"<class 'gluon.html.XHTML'>"
p4550
sS'ON'
p4551
g1501
sS'OL'
p4552
S"<class 'gluon.html.OL'>"
p4553
sS'TEXTAREA'
p4554
S"<class 'gluon.html.TEXTAREA'>"
p4555
sS'MENU'
p4556
S"<class 'gluon.html.MENU'>"
p4557
sS'_file0'
p4558
S"'/201056161/static/js/superfish.js'"
p4559
sS'LOAD'
p4560
S'<gluon.compileapp.LoadFactory object at 0x074E8370>'
p4561
sS'CODE'
p4562
S"<class 'gluon.html.CODE'>"
p4563
sS'HTTP'
p4564
S"<class 'gluon.http.HTTP'>"
p4565
sS'HR'
p4566
S"<class 'gluon.html.HR'>"
p4567
sS'IS_DATETIME'
p4568
S"<class 'gluon.validators.IS_DATETIME'>"
p4569
sS'HEAD'
p4570
S"<class 'gluon.html.HEAD'>"
p4571
sS'LABEL'
p4572
S"<class 'gluon.html.LABEL'>"
p4573
sS'CLEANUP'
p4574
S"<class 'gluon.validators.CLEANUP'>"
p4575
sS'plugins'
p4576
S'<gluon.tools.PluginManager object at 0x06C530F0>'
p4577
sS'SELECT'
p4578
S"<class 'gluon.html.SELECT'>"
p4579
sS'CENTER'
p4580
S"<class 'gluon.html.CENTER'>"
p4581
sS'left_sidebar_style'
p4582
S'\'style="display: none;"\''
p4583
sS'Crud'
p4584
S"<class 'gluon.tools.Crud'>"
p4585
sS'Auth'
p4586
S"<class 'gluon.tools.Auth'>"
p4587
sS'__builtins__'
p4588
S"{'ArithmeticError': <type 'exceptions.ArithmeticError'>, 'AssertionError': <type 'exceptions.AssertionError'>, 'AttributeError': <type 'exceptions.AttributeError'>, 'BaseException': <type 'exceptions.BaseException'>, 'DeprecationWarning': <type 'exceptions.DeprecationWarning'>, 'EOFError': <type 'exceptions.EOFError'>, 'Ellipsis': Ellipsis, 'EnvironmentError': <type 'exceptions.EnvironmentError'>, 'Exception': <type 'exceptions.Exception'>, 'False': False, ...}"
p4589
sS'IS_LIST_OF'
p4590
S"<class 'gluon.validators.IS_LIST_OF'>"
p4591
sS'SQLFORM'
p4592
S"<class 'gluon.sqlhtml.SQLFORM'>"
p4593
sS'_item'
p4594
S"'author'"
p4595
sS'EM'
p4596
S"<class 'gluon.html.EM'>"
p4597
sS'redirect'
p4598
S'<function redirect at 0x027DEEB0>'
p4599
sS'FIELDSET'
p4600
S"<class 'gluon.html.FIELDSET'>"
p4601
sS'IS_EQUAL_TO'
p4602
S"<class 'gluon.validators.IS_EQUAL_TO'>"
p4603
sS'embed64'
p4604
S'<function embed64 at 0x0295F470>'
p4605
sS'INPUT'
p4606
S"<class 'gluon.html.INPUT'>"
p4607
sS'EMBED'
p4608
S"<class 'gluon.html.EMBED'>"
p4609
sS'FORM'
p4610
S"<class 'gluon.html.FORM'>"
p4611
sS'width_content'
p4612
S"'100%'"
p4613
sS'H2'
p4614
S"<class 'gluon.html.H2'>"
p4615
sS'H3'
p4616
S"<class 'gluon.html.H3'>"
p4617
sS'BUTTON'
p4618
S"<class 'gluon.html.BUTTON'>"
p4619
sS'H1'
p4620
S"<class 'gluon.html.H1'>"
p4621
sS'H6'
p4622
S"<class 'gluon.html.H6'>"
p4623
sS'H4'
p4624
S"<class 'gluon.html.H4'>"
p4625
sS'H5'
p4626
S"<class 'gluon.html.H5'>"
p4627
sS'UL'
p4628
S"<class 'gluon.html.UL'>"
p4629
sS'IS_UPPER'
p4630
S"<class 'gluon.validators.IS_UPPER'>"
p4631
sS'xmlescape'
p4632
S'<function xmlescape at 0x0294DF30>'
p4633
sS'IS_TIME'
p4634
S"<class 'gluon.validators.IS_TIME'>"
p4635
sS'OPTION'
p4636
S"<class 'gluon.html.OPTION'>"
p4637
sS'TITLE'
p4638
S"<class 'gluon.html.TITLE'>"
p4639
sS'CRYPT'
p4640
S"<class 'gluon.validators.CRYPT'>"
p4641
sS'IS_EMPTY_OR'
p4642
S"<class 'gluon.validators.IS_EMPTY_OR'>"
p4643
sS'MARKMIN'
p4644
S"<class 'gluon.html.MARKMIN'>"
p4645
sS'service'
p4646
S'<gluon.tools.Service object at 0x068BB750>'
p4647
sS'SCRIPT'
p4648
S"<class 'gluon.html.SCRIPT'>"
p4649
sS'TABLE'
p4650
S"<class 'gluon.html.TABLE'>"
p4651
sS'IS_IPV4'
p4652
S"<class 'gluon.validators.IS_IPV4'>"
p4653
sS'IS_LENGTH'
p4654
S"<class 'gluon.validators.IS_LENGTH'>"
p4655
sS'XML'
p4656
S"<class 'gluon.html.XML'>"
p4657
sS'B'
S"<class 'gluon.html.B'>"
p4658
sS'IMG'
p4659
S"<class 'gluon.html.IMG'>"
p4660
sS'SQLTABLE'
p4661
S"<class 'gluon.sqlhtml.SQLTABLE'>"
p4662
sS'IS_MATCH'
p4663
S"<class 'gluon.validators.IS_MATCH'>"
p4664
sS'IS_ALPHANUMERIC'
p4665
S"<class 'gluon.validators.IS_ALPHANUMERIC'>"
p4666
sS'SPAN'
p4667
S"<class 'gluon.html.SPAN'>"
p4668
sS'IS_SLUG'
p4669
S"<class 'gluon.validators.IS_SLUG'>"
p4670
sS'BEAUTIFY'
p4671
S"<class 'gluon.html.BEAUTIFY'>"
p4672
sS'META'
p4673
S"<class 'gluon.html.META'>"
p4674
sS'IS_DATE'
p4675
S"<class 'gluon.validators.IS_DATE'>"
p4676
sS'IS_EMAIL'
p4677
S"<class 'gluon.validators.IS_EMAIL'>"
p4678
sS'IS_NOT_EMPTY'
p4679
S"<class 'gluon.validators.IS_NOT_EMPTY'>"
p4680
sg47
S"<Storage {'is_local': True, 'function': 'song_de....03-23-16.6c54628d-b96b-4e8b-a1dc-1d750c3a12af'}>"
p4681
sS'TBODY'
p4682
S"<class 'gluon.html.TBODY'>"
p4683
sS'Field'
p4684
S"<class 'gluon.dal.Field'>"
p4685
sS'Mail'
p4686
S"<class 'gluon.tools.Mail'>"
p4687
sS'DIV'
p4688
S"<class 'gluon.html.DIV'>"
p4689
sS'LEGEND'
p4690
S"<class 'gluon.html.LEGEND'>"
p4691
sS'DAL'
p4692
S"<class 'gluon.dal.DAL'>"
p4693
sS'TT'
p4694
S"<class 'gluon.html.TT'>"
p4695
sS'TR'
p4696
S"<class 'gluon.html.TR'>"
p4697
sS'LI'
p4698
S"<class 'gluon.html.LI'>"
p4699
sS'right_sidebar_enabled'
p4700
g91
sS'IFRAME'
p4701
S"<class 'gluon.html.IFRAME'>"
p4702
sS'TD'
p4703
S"<class 'gluon.html.TD'>"
p4704
sS'PluginManager'
p4705
S"<class 'gluon.tools.PluginManager'>"
p4706
sS'IS_URL'
p4707
S"<class 'gluon.validators.IS_URL'>"
p4708
sS'A'
S"<class 'gluon.html.A'>"
p4709
sS'STYLE'
p4710
S"<class 'gluon.html.STYLE'>"
p4711
sS'IS_DATETIME_IN_RANGE'
p4712
S"<class 'gluon.validators.IS_DATETIME_IN_RANGE'>"
p4713
sS'HTML'
p4714
S"<class 'gluon.html.HTML'>"
p4715
sS'IS_IMAGE'
p4716
S"<class 'gluon.validators.IS_IMAGE'>"
p4717
sS'I'
S"<class 'gluon.html.I'>"
p4718
sS'crud'
p4719
S'<gluon.tools.Crud object at 0x074E8F70>'
p4720
sS'right_sidebar_style'
p4721
S'\'style="display: none;"\''
p4722
sS'IS_NOT_IN_DB'
p4723
S"<class 'gluon.validators.IS_NOT_IN_DB'>"
p4724
sg2602
S"<Storage {'body': <cStringIO.StringO object at 0...x074DA770>, 'view': 'default/song_details.html'}>"
p4725
sS'THEAD'
p4726
S"<class 'gluon.html.THEAD'>"
p4727
sS'IS_NULL_OR'
p4728
S"<class 'gluon.validators.IS_EMPTY_OR'>"
p4729
sS'prettydate'
p4730
S'<function prettydate at 0x031DBC70>'
p4731
sS'records'
p4732
S'<gluon.dal.Rows object at 0x06DB8630>'
p4733
sS'IS_FLOAT_IN_RANGE'
p4734
S"<class 'gluon.validators.IS_FLOAT_IN_RANGE'>"
p4735
sS'IS_EXPR'
p4736
S"<class 'gluon.validators.IS_EXPR'>"
p4737
sS'T'
S'<gluon.languages.translator object at 0x074E8230>'
p4738
sS'IS_IN_SET'
p4739
S"<class 'gluon.validators.IS_IN_SET'>"
p4740
sS'IS_UPLOAD_FILENAME'
p4741
S"<class 'gluon.validators.IS_UPLOAD_FILENAME'>"
p4742
sS'style_content'
p4743
S'\'style="width: 100%"\''
p4744
sS'IS_DECIMAL_IN_RANGE'
p4745
S"<class 'gluon.validators.IS_DECIMAL_IN_RANGE'>"
p4746
sssS'traceback'
p4747
S'Traceback (most recent call last):\n  File "gluon/restricted.py", line 192, in restricted\n  File "C:\\Users\\AKSHAY\\Desktop\\web2py\\applications\\201056161\\views\\default/song_details.html", line 101, in <module>\nAttributeError: \'Rows\' object has no attribute \'length\'\n'
p4748
s.