(dp1
S'output'
p2
S''
sS'layer'
p3
S'C:\\Users\\AKSHAY\\Desktop\\web2py\\applications\\201056161\\views\\default/q3s.html'
p4
sS'code'
p5
S'response.write(\'<!DOCTYPE html>\\n<html lang="\', escape=False)\nresponse.write(T.accepted_language or \'en\')\nresponse.write(\'" class="no-js"><!-- no-js need it for modernzr -->\\n  <head>\\n    \\n    <meta charset="utf-8" />\\t  \\t\\n    <!-- www.phpied.com/conditional-comments-block-downloads/ -->\\n    <!--[if IE]><![endif]-->    \\n    <!-- Always force latest IE rendering engine \\n\\t (even in intranet) & Chrome Frame \\n\\t Remove this if you use the .htaccess -->\\n    <meta http-equiv="X-UA-Compatible" content="IE=edge,chrome=1">\\n    \\n    <title>\', escape=False)\nresponse.write(response.title or request.application)\nresponse.write(\'</title>\\n    \\n    <!-- http://dev.w3.org/html5/markup/meta.name.html -->\\n    <meta name="application-name" content="\', escape=False)\nresponse.write(request.application)\nresponse.write(\'" />\\t\\n    \\n    <!-- Speaking of Google, don\\\'t forget to set your site up: \\n\\t http://google.com/webmasters -->\\n    <meta name="google-site-verification" content="" />\\n    \\n    <!--  Mobile Viewport Fix\\n\\t  j.mp/mobileviewport & davidbcalhoun.com/2010/viewport-metatag \\n\\t  device-width: Occupy full width of the screen in its current orientation\\n\\t  initial-scale = 1.0 retains dimensions instead of zooming out if page height > device height\\n\\t  maximum-scale = 1.0 retains dimensions instead of zooming in if page width < device width\\n      -->\\n    <meta name="viewport" content="width=device-width, initial-scale=1.0, maximum-scale=1.0">\\n    \\n    <!-- Place favicon.ico and apple-touch-icon.png in the root of your domain and delete these references -->\\n    <link rel="shortcut icon" href="\', escape=False)\nresponse.write(URL(\'static\',\'favicon.ico\'))\nresponse.write(\'" type="image/x-icon">\\n    <link rel="apple-touch-icon" href="\', escape=False)\nresponse.write(URL(\'static\',\'favicon.png\'))\nresponse.write(\'">\\n\\n    <!-- For the less-enabled mobile browsers like Opera Mini -->\\n    <link rel="stylesheet" media="handheld" href="\', escape=False)\nresponse.write(URL(\'static\',\'css/handheld.css\'))\nresponse.write(\'">\\n    \\n    <!-- All JavaScript at the bottom, except for Modernizr which enables HTML5 elements & feature detects -->\\n    <script src="\', escape=False)\nresponse.write(URL(\'static\',\'js/modernizr-1.7.min.js\'))\nresponse.write(\'"></script>\\n    \\n    \', escape=False)\n#------  require CSS and JS files for this page (read info in base.css) ------\nresponse.write(\'\\n    \', escape=False)\nresponse.files.append(URL(\'static\',\'css/base.css\'))\nresponse.write(\'\\n    \', escape=False)\nresponse.files.append(URL(\'static\',\'css/superfish.css\'))\nresponse.write(\'\\n    \', escape=False)\nresponse.files.append(URL(\'static\',\'js/superfish.js\'))\nresponse.write(\'\\n    \', escape=False)\n#------ include web2py specific js code (jquery, calendar, form stuff) ------\nresponse.write(\'\\n    \', escape=False)\nresponse.files.insert(0,URL(\'static\',\'js/jquery.js\'))\nresponse.files.insert(1,URL(\'static\',\'css/calendar.css\'))\nresponse.files.insert(2,URL(\'static\',\'js/calendar.js\'))\nfor _item in response.meta or []:\n    response.write(\'\\n     <meta name="\', escape=False)\n    response.write(_item)\n    response.write(\'" content="\', escape=False)\n    response.write(response.meta[_item])\n    response.write(\'" />\', escape=False)\n    pass\nfor _k,_file in enumerate(response.files or []):\n    if _file in response.files[:_k]:\n        continue\n    _file0=_file.lower().split(\'?\')[0]\n    if _file0.endswith(\'.css\'):\n        response.write(\'\\n     <link href="\', escape=False)\n        response.write(_file)\n        response.write(\'" rel="stylesheet" type="text/css" />\', escape=False)\n    elif _file0.endswith(\'.js\'):\n        response.write(\'\\n     <script src="\', escape=False)\n        response.write(_file)\n        response.write(\'" type="text/javascript"></script>\', escape=False)\n        pass\n    pass\nresponse.write(\'\\n    <script type="text/javascript"><!--\\n    // These variables are used by the web2py_ajax_init function in web2py_ajax.js (which is loaded below).\\n    var w2p_ajax_confirm_message = "\', escape=False)\nresponse.write(T(\'Are you sure you want to delete this object?\'))\nresponse.write(\'";\\n    var w2p_ajax_date_format = "\', escape=False)\nresponse.write(T(\'%Y-%m-%d\'))\nresponse.write(\'";\\n    var w2p_ajax_datetime_format = "\', escape=False)\nresponse.write(T(\'%Y-%m-%d %H:%M:%S\'))\nresponse.write(\'";\\n    //--></script>\\n    <script src="\', escape=False)\nresponse.write(URL(\'static\',\'js/web2py_ajax.js\'))\nresponse.write(\'" type="text/javascript"></script>\\n\', escape=False)\nresponse.write(\'\\n\\n    \', escape=False)\n#using sidebars need to know what sidebar you want to use\n#prior of using it, because of static width size of content, you can use\n#left_sidebar, right_sidebar, both or none (False left and right)\nleft_sidebar_enabled = globals().get(\'left_sidebar_enabled\',False)\nright_sidebar_enabled = globals().get(\'right_sidebar_enabled\',False)\nif left_sidebar_enabled and right_sidebar_enabled: width_content=\'63%\'\nelif left_sidebar_enabled != right_sidebar_enabled: width_content=\'740px\'\nelse: width_content=\'100%\'\nif left_sidebar_enabled: left_sidebar_style = \'style="display: block;"\'\nelse: left_sidebar_style = \'style="display: none;"\'\nif right_sidebar_enabled: right_sidebar_style = \'style="display: block;"\'\nelse: right_sidebar_style = \'style="display: none;"\'\nstyle_content = \'style="width: %s"\' % width_content\nresponse.write(\'\\n  </head>\\n  \\n  <!-- paulirish.com/2008/conditional-stylesheets-vs-css-hacks-answer-neither/ -->\\t\\n  <!--[if lt IE 7 ]> <body class="ie6"> <![endif]-->\\n  <!--[if IE 7 ]>    <body class="ie7"> <![endif]-->\\n  <!--[if IE 8 ]>    <body class="ie8"> <![endif]-->\\n  <!--[if IE 9 ]>    <body class="ie9"> <![endif]-->\\n  <!--[if (gt IE 9)|!(IE)]><!--> <body> <!--<![endif]-->\\n    \\n    <div class="flash">\', escape=False)\nresponse.write(response.flash or \'\')\nresponse.write(\'</div> <!-- notification div -->\\n    \\n    <div id="container">\\t      \\t\\t      \\t\\n      \\n      <div id="wrapper">\\t\\t\\n\\t\\n\\t<div id="header"> <!-- header and login nav -->\\n\\t  \', escape=False)\nresponse.write(\' <!-- this is default header -->\\n\\t  \', escape=False)\ntry:\n    response.write(auth.navbar(action=URL(\'default\',\'user\')))\nexcept:pass\nresponse.write(\'\\t\\t          \\n\\t  <h1><span id="appname">\', escape=False)\nresponse.write(request.application.capitalize())\nresponse.write(\'</span>App</h1>\\n\\t  <div style="clear: both;"></div><!-- Clear the divs -->\\n\\t  \', escape=False)\nresponse.write(\'\\t\\t\\t\\t  \\t\\t\\t\\t\\t  \\n\\t</div><!-- header  -->\\n\\t\\n\\t<div id="statusbar"><!-- statusbar is menu zone -->\\n\\t  \', escape=False)\nresponse.write(\' <!-- this is default statusbar -->\\n\\t  \', escape=False)\n#------ superfish menu ------\nresponse.write(\'\\n\\t  \', escape=False)\nresponse.write(MENU(response.menu,_class=\'sf-menu\'))\nresponse.write(\'\\n\\t  <script type="text/javascript">\\n\\t    jQuery(document).ready(function(){\\n\\t    jQuery(\\\'ul.sf-menu\\\').superfish();});\\n\\t  </script>\\n\\t  <div style="clear: both;"></div><!-- Clear the divs -->\\t\\n\\t  \', escape=False)\nresponse.write(\'\\t\\t\\t\\t\\n\\t</div><!-- statusbar -->\\n\\t\\n\\t<div id="page"> <!-- Here my central body -->\\t  \\n\\n\\t  \', escape=False)\nif left_sidebar_enabled:\n    response.write(\'\\n          <div id="left_sidebar" \', escape=False)\n    response.write(XML(left_sidebar_style))\n    response.write(\' >\\n            <div style="padding: 4px;">\\n\\t      \', escape=False)\n    response.write(\'Content Left Sidebar\', escape=False)\n    response.write(\'\\t\\t  \\n            </div>\\n          </div><!-- left_sidebar -->\\n\\t  \', escape=False)\n    pass\nresponse.write(\'\\n\\n\\t  <!-- content -->\\n\\t  <div id="content" \', escape=False)\nresponse.write(XML(style_content))\nresponse.write(\' >\\n\\t    \', escape=False)\nresponse.write(\'\\r\\n\', escape=False)\nfor row in rows:\n    response.write(\'\\r\\n  \', escape=False)\n    response.write(LI(A("%s" %(row.name),_href=URL(r=request,f=\'song_details?id=%d\' %(row.id)))))\n    response.write(\'\\r\\n  </br>\\r\\n\', escape=False)\n    pass\nresponse.write(\'\\r\\n\', escape=False)\nresponse.write(\'\\t\\n\\t  </div>\\n\\t  <!-- content -->\\n\\n\\t  \', escape=False)\nif right_sidebar_enabled:\n    response.write(\'\\n          <div id="right_sidebar" \', escape=False)\n    response.write(XML(right_sidebar_style))\n    response.write(\' >\\n            <div style="padding: 4px;">\\n              \', escape=False)\n    response.write(\'Content Right Sidebar\', escape=False)\n    response.write(\'\\n            </div>\\n\\t  </div><!-- right_sidebar -->\\n          \', escape=False)\n    pass\nresponse.write(\'\\n\\n\\n\\t  <div style="clear: both;"></div><!-- Clear the divs -->\\n\\t  \\n\\t</div><!-- page -->\\t\\t\\t\\t\\t\\t\\t\\n\\t\\n\\t<div id="footer">\\n\\t  \', escape=False)\nresponse.write(\' <!-- this is default footer -->\\n\\t  <a href="http://www.web2py.com/" style="float: left; padding-right: 6px;">\\n\\t    <img src="\', escape=False)\nresponse.write(URL(\'static\',\'images/poweredby.png\'))\nresponse.write(\'"/>\\n\\t  </a>\\n\\t  \', escape=False)\nresponse.write(T(\'Copyright\'))\nresponse.write(\' &#169; 2010\\t\\t\\t\\t\\n\\t  <div style="clear: both;"></div><!-- Clear the divs -->\\n\\t  \', escape=False)\nresponse.write(\'\\n\\n\\t</div><!-- footer -->\\t\\t\\t\\n      </div><!-- wrapper -->\\n    </div><!-- container -->\\t\\t\\n    \\n    <!--[if lt IE 7 ]>\\n\\t<script src="\', escape=False)\nresponse.write(URL(\'static\',\'js/dd_belatedpng.js\'))\nresponse.write(\'"></script>\\n\\t<script> DD_belatedPNG.fix(\\\'img, .png_bg\\\'); //fix any <img> or .png_bg background-images </script>\\n\\t<![endif]-->\\n    \\n    <!-- asynchronous google analytics: mathiasbynens.be/notes/async-analytics-snippet \\n\\t change the UA-XXXXX-X to be your site\\\'s ID -->\\n    <!--   \\n\\t   <script>\\n\\t     var _gaq = [[\\\'_setAccount\\\', \\\'UA-XXXXX-X\\\'], [\\\'_trackPageview\\\']];\\n\\t     (function(d, t) {\\n\\t     var g = d.createElement(t),\\n\\t     s = d.getElementsByTagName(t)[0];\\n\\t     g.async = true;\\n\\t     g.src = \\\'//www.google-analytics.com/ga.js\\\';\\n\\t     s.parentNode.insertBefore(g, s);\\n\\t     })(document, \\\'script\\\');\\n\\t   </script>\\n\\t   -->    \\n  </body>\\n</html>\\n\', escape=False)'
p6
sS'snapshot'
p7
(dp8
S'exception'
p9
(dp10
S'__hash__'
p11
S"<method-wrapper '__hash__' of exceptions.KeyError object at 0x07517A30>"
p12
sS'__setattr__'
p13
S"<method-wrapper '__setattr__' of exceptions.KeyError object at 0x07517A30>"
p14
sS'__reduce_ex__'
p15
S'<built-in method __reduce_ex__ of exceptions.KeyError object at 0x07517A30>'
p16
sS'__getslice__'
p17
S"<method-wrapper '__getslice__' of exceptions.KeyError object at 0x07517A30>"
p18
sS'__getitem__'
p19
S"<method-wrapper '__getitem__' of exceptions.KeyError object at 0x07517A30>"
p20
sS'__setstate__'
p21
S'<built-in method __setstate__ of exceptions.KeyError object at 0x07517A30>'
p22
sS'__reduce__'
p23
S'<built-in method __reduce__ of exceptions.KeyError object at 0x07517A30>'
p24
sS'__str__'
p25
S"<method-wrapper '__str__' of exceptions.KeyError object at 0x07517A30>"
p26
sS'args'
p27
S"('id',)"
p28
sS'__getattribute__'
p29
S"<method-wrapper '__getattribute__' of exceptions.KeyError object at 0x07517A30>"
p30
sS'__class__'
p31
S"<type 'exceptions.KeyError'>"
p32
sS'__delattr__'
p33
S"<method-wrapper '__delattr__' of exceptions.KeyError object at 0x07517A30>"
p34
sS'__repr__'
p35
S"<method-wrapper '__repr__' of exceptions.KeyError object at 0x07517A30>"
p36
sS'__dict__'
p37
S'{}'
p38
sS'__doc__'
p39
S"'Mapping key not found.'"
p40
sS'__init__'
p41
S"<method-wrapper '__init__' of exceptions.KeyError object at 0x07517A30>"
p42
sS'__new__'
p43
S'<built-in method __new__ of type object at 0x1E1CDFB8>'
p44
ssS'evalue'
p45
S"'id'"
p46
sS'request'
p47
ccopy_reg
_reconstructor
p48
(cgluon.html
BEAUTIFY
p49
c__builtin__
object
p50
NtRp51
(dp52
S'attributes'
p53
(dp54
sS'components'
p55
(lp56
g48
(cgluon.html
TABLE
p57
g50
NtRp58
(dp59
g53
(dp60
S'level'
p61
I5
ssS'parent'
p62
Nsg55
(lp63
g48
(cgluon.html
TR
p64
g50
NtRp65
(dp66
g53
(dp67
sg62
g58
sg55
(lp68
g48
(cgluon.html
TD
p69
g50
NtRp70
(dp71
g53
(dp72
S'_style'
p73
S'font-weight:bold;'
p74
ssg62
g65
sg55
(lp75
S'ajax'
p76
asbag48
(g69
g50
NtRp77
(dp78
g53
(dp79
S'_valign'
p80
S'top'
p81
ssg62
g65
sg55
(lp82
S':'
asbag48
(g69
g50
NtRp83
(dp84
g53
(dp85
sg62
g65
sg55
(lp86
g48
(g49
g50
NtRp87
(dp88
g53
(dp89
g61
I5
ssg62
g83
sg55
(lp90
S'False'
p91
asbasbasbag48
(g64
g50
NtRp92
(dp93
g53
(dp94
sg62
g58
sg55
(lp95
g48
(g69
g50
NtRp96
(dp97
g53
(dp98
g73
g74
ssg62
g92
sg55
(lp99
S'application'
p100
asbag48
(g69
g50
NtRp101
(dp102
g53
(dp103
g80
g81
ssg62
g92
sg55
(lp104
S':'
asbag48
(g69
g50
NtRp105
(dp106
g53
(dp107
sg62
g92
sg55
(lp108
g48
(g49
g50
NtRp109
(dp110
g53
(dp111
g61
I5
ssg62
g105
sg55
(lp112
S'201056161'
p113
asbasbasbag48
(g64
g50
NtRp114
(dp115
g53
(dp116
sg62
g58
sg55
(lp117
g48
(g69
g50
NtRp118
(dp119
g53
(dp120
g73
g74
ssg62
g114
sg55
(lp121
g27
asbag48
(g69
g50
NtRp122
(dp123
g53
(dp124
g80
g81
ssg62
g114
sg55
(lp125
S':'
asbag48
(g69
g50
NtRp126
(dp127
g53
(dp128
sg62
g114
sg55
(lp129
g48
(g49
g50
NtRp130
(dp131
g53
(dp132
g61
I5
ssg62
g126
sg55
(lp133
g48
(g57
g50
NtRp134
(dp135
g53
(dp136
g61
I4
ssg62
Nsg55
(lp137
sbasbasbasbag48
(g64
g50
NtRp138
(dp139
g53
(dp140
sg62
g58
sg55
(lp141
g48
(g69
g50
NtRp142
(dp143
g53
(dp144
g73
g74
ssg62
g138
sg55
(lp145
S'body'
p146
asbag48
(g69
g50
NtRp147
(dp148
g53
(dp149
g80
g81
ssg62
g138
sg55
(lp150
S':'
asbag48
(g69
g50
NtRp151
(dp152
g53
(dp153
sg62
g138
sg55
(lp154
g48
(g49
g50
NtRp155
(dp156
g53
(dp157
g61
I5
ssg62
g151
sg55
(lp158
S'<cStringIO.StringO object at 0x06AB12A0>'
p159
asbasbasbag48
(g64
g50
NtRp160
(dp161
g53
(dp162
sg62
g58
sg55
(lp163
g48
(g69
g50
NtRp164
(dp165
g53
(dp166
g73
g74
ssg62
g160
sg55
(lp167
S'client'
p168
asbag48
(g69
g50
NtRp169
(dp170
g53
(dp171
g80
g81
ssg62
g160
sg55
(lp172
S':'
asbag48
(g69
g50
NtRp173
(dp174
g53
(dp175
sg62
g160
sg55
(lp176
g48
(g49
g50
NtRp177
(dp178
g53
(dp179
g61
I5
ssg62
g173
sg55
(lp180
S'127.0.0.1'
p181
asbasbasbag48
(g64
g50
NtRp182
(dp183
g53
(dp184
sg62
g58
sg55
(lp185
g48
(g69
g50
NtRp186
(dp187
g53
(dp188
g73
g74
ssg62
g182
sg55
(lp189
S'controller'
p190
asbag48
(g69
g50
NtRp191
(dp192
g53
(dp193
g80
g81
ssg62
g182
sg55
(lp194
S':'
asbag48
(g69
g50
NtRp195
(dp196
g53
(dp197
sg62
g182
sg55
(lp198
g48
(g49
g50
NtRp199
(dp200
g53
(dp201
g61
I5
ssg62
g195
sg55
(lp202
S'default'
p203
asbasbasbag48
(g64
g50
NtRp204
(dp205
g53
(dp206
sg62
g58
sg55
(lp207
g48
(g69
g50
NtRp208
(dp209
g53
(dp210
g73
g74
ssg62
g204
sg55
(lp211
S'cookies'
p212
asbag48
(g69
g50
NtRp213
(dp214
g53
(dp215
g80
g81
ssg62
g204
sg55
(lp216
S':'
asbag48
(g69
g50
NtRp217
(dp218
g53
(dp219
sg62
g204
sg55
(lp220
g48
(g49
g50
NtRp221
(dp222
g53
(dp223
g61
I5
ssg62
g217
sg55
(lp224
g48
(g57
g50
NtRp225
(dp226
g53
(dp227
g61
I4
ssg62
Nsg55
(lp228
g48
(g64
g50
NtRp229
(dp230
g53
(dp231
sg62
g225
sg55
(lp232
g48
(g69
g50
NtRp233
(dp234
g53
(dp235
g73
g74
ssg62
g229
sg55
(lp236
S'session_id_201056161'
p237
asbag48
(g69
g50
NtRp238
(dp239
g53
(dp240
g80
g81
ssg62
g229
sg55
(lp241
S':'
asbag48
(g69
g50
NtRp242
(dp243
g53
(dp244
sg62
g229
sg55
(lp245
g48
(g49
g50
NtRp246
(dp247
g53
(dp248
g61
I4
ssg62
g242
sg55
(lp249
g48
(g57
g50
NtRp250
(dp251
g53
(dp252
g61
I3
ssg62
Nsg55
(lp253
g48
(g64
g50
NtRp254
(dp255
g53
(dp256
sg62
g250
sg55
(lp257
g48
(g69
g50
NtRp258
(dp259
g53
(dp260
g73
g74
ssg62
g254
sg55
(lp261
S'comment'
p262
asbag48
(g69
g50
NtRp263
(dp264
g53
(dp265
g80
g81
ssg62
g254
sg55
(lp266
S':'
asbag48
(g69
g50
NtRp267
(dp268
g53
(dp269
sg62
g254
sg55
(lp270
g48
(g49
g50
NtRp271
(dp272
g53
(dp273
g61
I3
ssg62
g267
sg55
(lp274
S''
asbasbasbag48
(g64
g50
NtRp275
(dp276
g53
(dp277
sg62
g250
sg55
(lp278
g48
(g69
g50
NtRp279
(dp280
g53
(dp281
g73
g74
ssg62
g275
sg55
(lp282
S'domain'
p283
asbag48
(g69
g50
NtRp284
(dp285
g53
(dp286
g80
g81
ssg62
g275
sg55
(lp287
S':'
asbag48
(g69
g50
NtRp288
(dp289
g53
(dp290
sg62
g275
sg55
(lp291
g48
(g49
g50
NtRp292
(dp293
g53
(dp294
g61
I3
ssg62
g288
sg55
(lp295
S''
asbasbasbag48
(g64
g50
NtRp296
(dp297
g53
(dp298
sg62
g250
sg55
(lp299
g48
(g69
g50
NtRp300
(dp301
g53
(dp302
g73
g74
ssg62
g296
sg55
(lp303
S'expires'
p304
asbag48
(g69
g50
NtRp305
(dp306
g53
(dp307
g80
g81
ssg62
g296
sg55
(lp308
S':'
asbag48
(g69
g50
NtRp309
(dp310
g53
(dp311
sg62
g296
sg55
(lp312
g48
(g49
g50
NtRp313
(dp314
g53
(dp315
g61
I3
ssg62
g309
sg55
(lp316
S''
asbasbasbag48
(g64
g50
NtRp317
(dp318
g53
(dp319
sg62
g250
sg55
(lp320
g48
(g69
g50
NtRp321
(dp322
g53
(dp323
g73
g74
ssg62
g317
sg55
(lp324
S'max-age'
p325
asbag48
(g69
g50
NtRp326
(dp327
g53
(dp328
g80
g81
ssg62
g317
sg55
(lp329
S':'
asbag48
(g69
g50
NtRp330
(dp331
g53
(dp332
sg62
g317
sg55
(lp333
g48
(g49
g50
NtRp334
(dp335
g53
(dp336
g61
I3
ssg62
g330
sg55
(lp337
S''
asbasbasbag48
(g64
g50
NtRp338
(dp339
g53
(dp340
sg62
g250
sg55
(lp341
g48
(g69
g50
NtRp342
(dp343
g53
(dp344
g73
g74
ssg62
g338
sg55
(lp345
S'path'
p346
asbag48
(g69
g50
NtRp347
(dp348
g53
(dp349
g80
g81
ssg62
g338
sg55
(lp350
S':'
asbag48
(g69
g50
NtRp351
(dp352
g53
(dp353
sg62
g338
sg55
(lp354
g48
(g49
g50
NtRp355
(dp356
g53
(dp357
g61
I3
ssg62
g351
sg55
(lp358
S''
asbasbasbag48
(g64
g50
NtRp359
(dp360
g53
(dp361
sg62
g250
sg55
(lp362
g48
(g69
g50
NtRp363
(dp364
g53
(dp365
g73
g74
ssg62
g359
sg55
(lp366
S'secure'
p367
asbag48
(g69
g50
NtRp368
(dp369
g53
(dp370
g80
g81
ssg62
g359
sg55
(lp371
S':'
asbag48
(g69
g50
NtRp372
(dp373
g53
(dp374
sg62
g359
sg55
(lp375
g48
(g49
g50
NtRp376
(dp377
g53
(dp378
g61
I3
ssg62
g372
sg55
(lp379
S''
asbasbasbag48
(g64
g50
NtRp380
(dp381
g53
(dp382
sg62
g250
sg55
(lp383
g48
(g69
g50
NtRp384
(dp385
g53
(dp386
g73
g74
ssg62
g380
sg55
(lp387
S'version'
p388
asbag48
(g69
g50
NtRp389
(dp390
g53
(dp391
g80
g81
ssg62
g380
sg55
(lp392
S':'
asbag48
(g69
g50
NtRp393
(dp394
g53
(dp395
sg62
g380
sg55
(lp396
g48
(g49
g50
NtRp397
(dp398
g53
(dp399
g61
I3
ssg62
g393
sg55
(lp400
S''
asbasbasbasbasbasbasbag48
(g64
g50
NtRp401
(dp402
g53
(dp403
sg62
g225
sg55
(lp404
g48
(g69
g50
NtRp405
(dp406
g53
(dp407
g73
g74
ssg62
g401
sg55
(lp408
S'session_id_admin'
p409
asbag48
(g69
g50
NtRp410
(dp411
g53
(dp412
g80
g81
ssg62
g401
sg55
(lp413
S':'
asbag48
(g69
g50
NtRp414
(dp415
g53
(dp416
sg62
g401
sg55
(lp417
g48
(g49
g50
NtRp418
(dp419
g53
(dp420
g61
I4
ssg62
g414
sg55
(lp421
g48
(g57
g50
NtRp422
(dp423
g53
(dp424
g61
I3
ssg62
Nsg55
(lp425
g48
(g64
g50
NtRp426
(dp427
g53
(dp428
sg62
g422
sg55
(lp429
g48
(g69
g50
NtRp430
(dp431
g53
(dp432
g73
g74
ssg62
g426
sg55
(lp433
g262
asbag48
(g69
g50
NtRp434
(dp435
g53
(dp436
g80
g81
ssg62
g426
sg55
(lp437
S':'
asbag48
(g69
g50
NtRp438
(dp439
g53
(dp440
sg62
g426
sg55
(lp441
g48
(g49
g50
NtRp442
(dp443
g53
(dp444
g61
I3
ssg62
g438
sg55
(lp445
S''
asbasbasbag48
(g64
g50
NtRp446
(dp447
g53
(dp448
sg62
g422
sg55
(lp449
g48
(g69
g50
NtRp450
(dp451
g53
(dp452
g73
g74
ssg62
g446
sg55
(lp453
g283
asbag48
(g69
g50
NtRp454
(dp455
g53
(dp456
g80
g81
ssg62
g446
sg55
(lp457
S':'
asbag48
(g69
g50
NtRp458
(dp459
g53
(dp460
sg62
g446
sg55
(lp461
g48
(g49
g50
NtRp462
(dp463
g53
(dp464
g61
I3
ssg62
g458
sg55
(lp465
S''
asbasbasbag48
(g64
g50
NtRp466
(dp467
g53
(dp468
sg62
g422
sg55
(lp469
g48
(g69
g50
NtRp470
(dp471
g53
(dp472
g73
g74
ssg62
g466
sg55
(lp473
g304
asbag48
(g69
g50
NtRp474
(dp475
g53
(dp476
g80
g81
ssg62
g466
sg55
(lp477
S':'
asbag48
(g69
g50
NtRp478
(dp479
g53
(dp480
sg62
g466
sg55
(lp481
g48
(g49
g50
NtRp482
(dp483
g53
(dp484
g61
I3
ssg62
g478
sg55
(lp485
S''
asbasbasbag48
(g64
g50
NtRp486
(dp487
g53
(dp488
sg62
g422
sg55
(lp489
g48
(g69
g50
NtRp490
(dp491
g53
(dp492
g73
g74
ssg62
g486
sg55
(lp493
g325
asbag48
(g69
g50
NtRp494
(dp495
g53
(dp496
g80
g81
ssg62
g486
sg55
(lp497
S':'
asbag48
(g69
g50
NtRp498
(dp499
g53
(dp500
sg62
g486
sg55
(lp501
g48
(g49
g50
NtRp502
(dp503
g53
(dp504
g61
I3
ssg62
g498
sg55
(lp505
S''
asbasbasbag48
(g64
g50
NtRp506
(dp507
g53
(dp508
sg62
g422
sg55
(lp509
g48
(g69
g50
NtRp510
(dp511
g53
(dp512
g73
g74
ssg62
g506
sg55
(lp513
g346
asbag48
(g69
g50
NtRp514
(dp515
g53
(dp516
g80
g81
ssg62
g506
sg55
(lp517
S':'
asbag48
(g69
g50
NtRp518
(dp519
g53
(dp520
sg62
g506
sg55
(lp521
g48
(g49
g50
NtRp522
(dp523
g53
(dp524
g61
I3
ssg62
g518
sg55
(lp525
S''
asbasbasbag48
(g64
g50
NtRp526
(dp527
g53
(dp528
sg62
g422
sg55
(lp529
g48
(g69
g50
NtRp530
(dp531
g53
(dp532
g73
g74
ssg62
g526
sg55
(lp533
g367
asbag48
(g69
g50
NtRp534
(dp535
g53
(dp536
g80
g81
ssg62
g526
sg55
(lp537
S':'
asbag48
(g69
g50
NtRp538
(dp539
g53
(dp540
sg62
g526
sg55
(lp541
g48
(g49
g50
NtRp542
(dp543
g53
(dp544
g61
I3
ssg62
g538
sg55
(lp545
S''
asbasbasbag48
(g64
g50
NtRp546
(dp547
g53
(dp548
sg62
g422
sg55
(lp549
g48
(g69
g50
NtRp550
(dp551
g53
(dp552
g73
g74
ssg62
g546
sg55
(lp553
g388
asbag48
(g69
g50
NtRp554
(dp555
g53
(dp556
g80
g81
ssg62
g546
sg55
(lp557
S':'
asbag48
(g69
g50
NtRp558
(dp559
g53
(dp560
sg62
g546
sg55
(lp561
g48
(g49
g50
NtRp562
(dp563
g53
(dp564
g61
I3
ssg62
g558
sg55
(lp565
S''
asbasbasbasbasbasbasbag48
(g64
g50
NtRp566
(dp567
g53
(dp568
sg62
g225
sg55
(lp569
g48
(g69
g50
NtRp570
(dp571
g53
(dp572
g73
g74
ssg62
g566
sg55
(lp573
S'session_id_welcome'
p574
asbag48
(g69
g50
NtRp575
(dp576
g53
(dp577
g80
g81
ssg62
g566
sg55
(lp578
S':'
asbag48
(g69
g50
NtRp579
(dp580
g53
(dp581
sg62
g566
sg55
(lp582
g48
(g49
g50
NtRp583
(dp584
g53
(dp585
g61
I4
ssg62
g579
sg55
(lp586
g48
(g57
g50
NtRp587
(dp588
g53
(dp589
g61
I3
ssg62
Nsg55
(lp590
g48
(g64
g50
NtRp591
(dp592
g53
(dp593
sg62
g587
sg55
(lp594
g48
(g69
g50
NtRp595
(dp596
g53
(dp597
g73
g74
ssg62
g591
sg55
(lp598
g262
asbag48
(g69
g50
NtRp599
(dp600
g53
(dp601
g80
g81
ssg62
g591
sg55
(lp602
S':'
asbag48
(g69
g50
NtRp603
(dp604
g53
(dp605
sg62
g591
sg55
(lp606
g48
(g49
g50
NtRp607
(dp608
g53
(dp609
g61
I3
ssg62
g603
sg55
(lp610
S''
asbasbasbag48
(g64
g50
NtRp611
(dp612
g53
(dp613
sg62
g587
sg55
(lp614
g48
(g69
g50
NtRp615
(dp616
g53
(dp617
g73
g74
ssg62
g611
sg55
(lp618
g283
asbag48
(g69
g50
NtRp619
(dp620
g53
(dp621
g80
g81
ssg62
g611
sg55
(lp622
S':'
asbag48
(g69
g50
NtRp623
(dp624
g53
(dp625
sg62
g611
sg55
(lp626
g48
(g49
g50
NtRp627
(dp628
g53
(dp629
g61
I3
ssg62
g623
sg55
(lp630
S''
asbasbasbag48
(g64
g50
NtRp631
(dp632
g53
(dp633
sg62
g587
sg55
(lp634
g48
(g69
g50
NtRp635
(dp636
g53
(dp637
g73
g74
ssg62
g631
sg55
(lp638
g304
asbag48
(g69
g50
NtRp639
(dp640
g53
(dp641
g80
g81
ssg62
g631
sg55
(lp642
S':'
asbag48
(g69
g50
NtRp643
(dp644
g53
(dp645
sg62
g631
sg55
(lp646
g48
(g49
g50
NtRp647
(dp648
g53
(dp649
g61
I3
ssg62
g643
sg55
(lp650
S''
asbasbasbag48
(g64
g50
NtRp651
(dp652
g53
(dp653
sg62
g587
sg55
(lp654
g48
(g69
g50
NtRp655
(dp656
g53
(dp657
g73
g74
ssg62
g651
sg55
(lp658
g325
asbag48
(g69
g50
NtRp659
(dp660
g53
(dp661
g80
g81
ssg62
g651
sg55
(lp662
S':'
asbag48
(g69
g50
NtRp663
(dp664
g53
(dp665
sg62
g651
sg55
(lp666
g48
(g49
g50
NtRp667
(dp668
g53
(dp669
g61
I3
ssg62
g663
sg55
(lp670
S''
asbasbasbag48
(g64
g50
NtRp671
(dp672
g53
(dp673
sg62
g587
sg55
(lp674
g48
(g69
g50
NtRp675
(dp676
g53
(dp677
g73
g74
ssg62
g671
sg55
(lp678
g346
asbag48
(g69
g50
NtRp679
(dp680
g53
(dp681
g80
g81
ssg62
g671
sg55
(lp682
S':'
asbag48
(g69
g50
NtRp683
(dp684
g53
(dp685
sg62
g671
sg55
(lp686
g48
(g49
g50
NtRp687
(dp688
g53
(dp689
g61
I3
ssg62
g683
sg55
(lp690
S''
asbasbasbag48
(g64
g50
NtRp691
(dp692
g53
(dp693
sg62
g587
sg55
(lp694
g48
(g69
g50
NtRp695
(dp696
g53
(dp697
g73
g74
ssg62
g691
sg55
(lp698
g367
asbag48
(g69
g50
NtRp699
(dp700
g53
(dp701
g80
g81
ssg62
g691
sg55
(lp702
S':'
asbag48
(g69
g50
NtRp703
(dp704
g53
(dp705
sg62
g691
sg55
(lp706
g48
(g49
g50
NtRp707
(dp708
g53
(dp709
g61
I3
ssg62
g703
sg55
(lp710
S''
asbasbasbag48
(g64
g50
NtRp711
(dp712
g53
(dp713
sg62
g587
sg55
(lp714
g48
(g69
g50
NtRp715
(dp716
g53
(dp717
g73
g74
ssg62
g711
sg55
(lp718
g388
asbag48
(g69
g50
NtRp719
(dp720
g53
(dp721
g80
g81
ssg62
g711
sg55
(lp722
S':'
asbag48
(g69
g50
NtRp723
(dp724
g53
(dp725
sg62
g711
sg55
(lp726
g48
(g49
g50
NtRp727
(dp728
g53
(dp729
g61
I3
ssg62
g723
sg55
(lp730
S''
asbasbasbasbasbasbasbasbasbasbasbag48
(g64
g50
NtRp731
(dp732
g53
(dp733
sg62
g58
sg55
(lp734
g48
(g69
g50
NtRp735
(dp736
g53
(dp737
g73
g74
ssg62
g731
sg55
(lp738
S'env'
p739
asbag48
(g69
g50
NtRp740
(dp741
g53
(dp742
g80
g81
ssg62
g731
sg55
(lp743
S':'
asbag48
(g69
g50
NtRp744
(dp745
g53
(dp746
sg62
g731
sg55
(lp747
g48
(g49
g50
NtRp748
(dp749
g53
(dp750
g61
I5
ssg62
g744
sg55
(lp751
g48
(g57
g50
NtRp752
(dp753
g53
(dp754
g61
I4
ssg62
Nsg55
(lp755
g48
(g64
g50
NtRp756
(dp757
g53
(dp758
sg62
g752
sg55
(lp759
g48
(g69
g50
NtRp760
(dp761
g53
(dp762
g73
g74
ssg62
g756
sg55
(lp763
S'app_folders'
p764
asbag48
(g69
g50
NtRp765
(dp766
g53
(dp767
g80
g81
ssg62
g756
sg55
(lp768
S':'
asbag48
(g69
g50
NtRp769
(dp770
g53
(dp771
sg62
g756
sg55
(lp772
g48
(g49
g50
NtRp773
(dp774
g53
(dp775
g61
I4
ssg62
g769
sg55
(lp776
S"set(['C:\\\\Users\\\\AKSHAY\\\\Desktop\\\\web2py\\\\applications\\\\welcome\\\\', 'C:\\\\Users\\\\AKSHAY\\\\Desktop\\\\web2py\\\\applications\\\\201056161\\\\', 'C:\\\\Users\\\\AKSHAY\\\\Desktop\\\\web2py\\\\applications\\\\examples\\\\', 'C:\\\\Users\\\\AKSHAY\\\\Desktop\\\\web2py\\\\applications\\\\admin\\\\', 'C:\\\\Users\\\\AKSHAY\\\\Desktop\\\\web2py\\\\applications\\\\MusicRepo\\\\'])"
p777
asbasbasbag48
(g64
g50
NtRp778
(dp779
g53
(dp780
sg62
g752
sg55
(lp781
g48
(g69
g50
NtRp782
(dp783
g53
(dp784
g73
g74
ssg62
g778
sg55
(lp785
S'applications_parent'
p786
asbag48
(g69
g50
NtRp787
(dp788
g53
(dp789
g80
g81
ssg62
g778
sg55
(lp790
S':'
asbag48
(g69
g50
NtRp791
(dp792
g53
(dp793
sg62
g778
sg55
(lp794
g48
(g49
g50
NtRp795
(dp796
g53
(dp797
g61
I4
ssg62
g791
sg55
(lp798
S'C:\\Users\\AKSHAY\\Desktop\\web2py'
p799
asbasbasbag48
(g64
g50
NtRp800
(dp801
g53
(dp802
sg62
g752
sg55
(lp803
g48
(g69
g50
NtRp804
(dp805
g53
(dp806
g73
g74
ssg62
g800
sg55
(lp807
S'cmd_args'
p808
asbag48
(g69
g50
NtRp809
(dp810
g53
(dp811
g80
g81
ssg62
g800
sg55
(lp812
S':'
asbag48
(g69
g50
NtRp813
(dp814
g53
(dp815
sg62
g800
sg55
(lp816
g48
(g49
g50
NtRp817
(dp818
g53
(dp819
g61
I4
ssg62
g813
sg55
(lp820
g48
(g57
g50
NtRp821
(dp822
g53
(dp823
g61
I3
ssg62
Nsg55
(lp824
sbasbasbasbag48
(g64
g50
NtRp825
(dp826
g53
(dp827
sg62
g752
sg55
(lp828
g48
(g69
g50
NtRp829
(dp830
g53
(dp831
g73
g74
ssg62
g825
sg55
(lp832
S'cmd_options'
p833
asbag48
(g69
g50
NtRp834
(dp835
g53
(dp836
g80
g81
ssg62
g825
sg55
(lp837
S':'
asbag48
(g69
g50
NtRp838
(dp839
g53
(dp840
sg62
g825
sg55
(lp841
g48
(g49
g50
NtRp842
(dp843
g53
(dp844
g61
I4
ssg62
g838
sg55
(lp845
S"<Values at 0x317dfd0: {'verbose': False, 'ip': '127.0.0.1', 'shutdown_timeout': 5, 'taskbar': False, 'port': 8000, 'maxthreads': None, 'softcron': False, 'server_name': 'AKSHAY-PC', 'bpython': False, 'nogui': False, 'nocron': False, 'extcron': False, 'debuglevel': 30, 'test': None, 'folder': 'C:\\\\Users\\\\AKSHAY\\\\Desktop\\\\web2py', 'config': '', 'import_models': False, 'winservice': '', 'shell': None, 'run': '', 'log_filename': 'httpserver.log', 'args': [''], 'profiler_filename': None, 'ssl_private_key': '', 'password': '<ask>', 'request_queue_size': 5, 'ssl_certificate': '', 'cronjob': False, 'plain': False, 'quiet': False, 'interfaces': None, 'minthreads': None, 'timeout': 10, 'numthreads': None, 'nobanner': False, 'pid_filename': 'httpserver.pid'}>"
p846
asbasbasbag48
(g64
g50
NtRp847
(dp848
g53
(dp849
sg62
g752
sg55
(lp850
g48
(g69
g50
NtRp851
(dp852
g53
(dp853
g73
g74
ssg62
g847
sg55
(lp854
S'db_sessions'
p855
asbag48
(g69
g50
NtRp856
(dp857
g53
(dp858
g80
g81
ssg62
g847
sg55
(lp859
S':'
asbag48
(g69
g50
NtRp860
(dp861
g53
(dp862
sg62
g847
sg55
(lp863
g48
(g49
g50
NtRp864
(dp865
g53
(dp866
g61
I4
ssg62
g860
sg55
(lp867
S'set([])'
p868
asbasbasbag48
(g64
g50
NtRp869
(dp870
g53
(dp871
sg62
g752
sg55
(lp872
g48
(g69
g50
NtRp873
(dp874
g53
(dp875
g73
g74
ssg62
g869
sg55
(lp876
S'debugging'
p877
asbag48
(g69
g50
NtRp878
(dp879
g53
(dp880
g80
g81
ssg62
g869
sg55
(lp881
S':'
asbag48
(g69
g50
NtRp882
(dp883
g53
(dp884
sg62
g869
sg55
(lp885
g48
(g49
g50
NtRp886
(dp887
g53
(dp888
g61
I4
ssg62
g882
sg55
(lp889
g91
asbasbasbag48
(g64
g50
NtRp890
(dp891
g53
(dp892
sg62
g752
sg55
(lp893
g48
(g69
g50
NtRp894
(dp895
g53
(dp896
g73
g74
ssg62
g890
sg55
(lp897
S'gluon_parent'
p898
asbag48
(g69
g50
NtRp899
(dp900
g53
(dp901
g80
g81
ssg62
g890
sg55
(lp902
S':'
asbag48
(g69
g50
NtRp903
(dp904
g53
(dp905
sg62
g890
sg55
(lp906
g48
(g49
g50
NtRp907
(dp908
g53
(dp909
g61
I4
ssg62
g903
sg55
(lp910
S'C:\\Users\\AKSHAY\\Desktop\\web2py'
p911
asbasbasbag48
(g64
g50
NtRp912
(dp913
g53
(dp914
sg62
g752
sg55
(lp915
g48
(g69
g50
NtRp916
(dp917
g53
(dp918
g73
g74
ssg62
g912
sg55
(lp919
S'http_accept'
p920
asbag48
(g69
g50
NtRp921
(dp922
g53
(dp923
g80
g81
ssg62
g912
sg55
(lp924
S':'
asbag48
(g69
g50
NtRp925
(dp926
g53
(dp927
sg62
g912
sg55
(lp928
g48
(g49
g50
NtRp929
(dp930
g53
(dp931
g61
I4
ssg62
g925
sg55
(lp932
S'text/html,application/xhtml+xml,application/xml;q=0.9,*/*;q=0.8'
p933
asbasbasbag48
(g64
g50
NtRp934
(dp935
g53
(dp936
sg62
g752
sg55
(lp937
g48
(g69
g50
NtRp938
(dp939
g53
(dp940
g73
g74
ssg62
g934
sg55
(lp941
S'http_accept_charset'
p942
asbag48
(g69
g50
NtRp943
(dp944
g53
(dp945
g80
g81
ssg62
g934
sg55
(lp946
S':'
asbag48
(g69
g50
NtRp947
(dp948
g53
(dp949
sg62
g934
sg55
(lp950
g48
(g49
g50
NtRp951
(dp952
g53
(dp953
g61
I4
ssg62
g947
sg55
(lp954
S'ISO-8859-1,utf-8;q=0.7,*;q=0.3'
p955
asbasbasbag48
(g64
g50
NtRp956
(dp957
g53
(dp958
sg62
g752
sg55
(lp959
g48
(g69
g50
NtRp960
(dp961
g53
(dp962
g73
g74
ssg62
g956
sg55
(lp963
S'http_accept_encoding'
p964
asbag48
(g69
g50
NtRp965
(dp966
g53
(dp967
g80
g81
ssg62
g956
sg55
(lp968
S':'
asbag48
(g69
g50
NtRp969
(dp970
g53
(dp971
sg62
g956
sg55
(lp972
g48
(g49
g50
NtRp973
(dp974
g53
(dp975
g61
I4
ssg62
g969
sg55
(lp976
S'gzip,deflate,sdch'
p977
asbasbasbag48
(g64
g50
NtRp978
(dp979
g53
(dp980
sg62
g752
sg55
(lp981
g48
(g69
g50
NtRp982
(dp983
g53
(dp984
g73
g74
ssg62
g978
sg55
(lp985
S'http_accept_language'
p986
asbag48
(g69
g50
NtRp987
(dp988
g53
(dp989
g80
g81
ssg62
g978
sg55
(lp990
S':'
asbag48
(g69
g50
NtRp991
(dp992
g53
(dp993
sg62
g978
sg55
(lp994
g48
(g49
g50
NtRp995
(dp996
g53
(dp997
g61
I4
ssg62
g991
sg55
(lp998
S'en-US,en;q=0.8'
p999
asbasbasbag48
(g64
g50
NtRp1000
(dp1001
g53
(dp1002
sg62
g752
sg55
(lp1003
g48
(g69
g50
NtRp1004
(dp1005
g53
(dp1006
g73
g74
ssg62
g1000
sg55
(lp1007
S'http_cache_control'
p1008
asbag48
(g69
g50
NtRp1009
(dp1010
g53
(dp1011
g80
g81
ssg62
g1000
sg55
(lp1012
S':'
asbag48
(g69
g50
NtRp1013
(dp1014
g53
(dp1015
sg62
g1000
sg55
(lp1016
g48
(g49
g50
NtRp1017
(dp1018
g53
(dp1019
g61
I4
ssg62
g1013
sg55
(lp1020
S'max-age=0'
p1021
asbasbasbag48
(g64
g50
NtRp1022
(dp1023
g53
(dp1024
sg62
g752
sg55
(lp1025
g48
(g69
g50
NtRp1026
(dp1027
g53
(dp1028
g73
g74
ssg62
g1022
sg55
(lp1029
S'http_connection'
p1030
asbag48
(g69
g50
NtRp1031
(dp1032
g53
(dp1033
g80
g81
ssg62
g1022
sg55
(lp1034
S':'
asbag48
(g69
g50
NtRp1035
(dp1036
g53
(dp1037
sg62
g1022
sg55
(lp1038
g48
(g49
g50
NtRp1039
(dp1040
g53
(dp1041
g61
I4
ssg62
g1035
sg55
(lp1042
S'keep-alive'
p1043
asbasbasbag48
(g64
g50
NtRp1044
(dp1045
g53
(dp1046
sg62
g752
sg55
(lp1047
g48
(g69
g50
NtRp1048
(dp1049
g53
(dp1050
g73
g74
ssg62
g1044
sg55
(lp1051
S'http_cookie'
p1052
asbag48
(g69
g50
NtRp1053
(dp1054
g53
(dp1055
g80
g81
ssg62
g1044
sg55
(lp1056
S':'
asbag48
(g69
g50
NtRp1057
(dp1058
g53
(dp1059
sg62
g1044
sg55
(lp1060
g48
(g49
g50
NtRp1061
(dp1062
g53
(dp1063
g61
I4
ssg62
g1057
sg55
(lp1064
S'session_id_welcome=127.0.0.1-59771078-5064-4769-bad5-36c10b98c15f; session_id_admin=127.0.0.1-0f74329a-39f0-47c2-95cf-7f42bb528a7b; session_id_201056161=127.0.0.1-3bc821ac-4d59-41c6-8699-b3e43edfc478'
p1065
asbasbasbag48
(g64
g50
NtRp1066
(dp1067
g53
(dp1068
sg62
g752
sg55
(lp1069
g48
(g69
g50
NtRp1070
(dp1071
g53
(dp1072
g73
g74
ssg62
g1066
sg55
(lp1073
S'http_host'
p1074
asbag48
(g69
g50
NtRp1075
(dp1076
g53
(dp1077
g80
g81
ssg62
g1066
sg55
(lp1078
S':'
asbag48
(g69
g50
NtRp1079
(dp1080
g53
(dp1081
sg62
g1066
sg55
(lp1082
g48
(g49
g50
NtRp1083
(dp1084
g53
(dp1085
g61
I4
ssg62
g1079
sg55
(lp1086
S'127.0.0.1:8000'
p1087
asbasbasbag48
(g64
g50
NtRp1088
(dp1089
g53
(dp1090
sg62
g752
sg55
(lp1091
g48
(g69
g50
NtRp1092
(dp1093
g53
(dp1094
g73
g74
ssg62
g1088
sg55
(lp1095
S'http_referer'
p1096
asbag48
(g69
g50
NtRp1097
(dp1098
g53
(dp1099
g80
g81
ssg62
g1088
sg55
(lp1100
S':'
asbag48
(g69
g50
NtRp1101
(dp1102
g53
(dp1103
sg62
g1088
sg55
(lp1104
g48
(g49
g50
NtRp1105
(dp1106
g53
(dp1107
g61
I4
ssg62
g1101
sg55
(lp1108
S'http://127.0.0.1:8000/201056161/default/q3f'
p1109
asbasbasbag48
(g64
g50
NtRp1110
(dp1111
g53
(dp1112
sg62
g752
sg55
(lp1113
g48
(g69
g50
NtRp1114
(dp1115
g53
(dp1116
g73
g74
ssg62
g1110
sg55
(lp1117
S'http_user_agent'
p1118
asbag48
(g69
g50
NtRp1119
(dp1120
g53
(dp1121
g80
g81
ssg62
g1110
sg55
(lp1122
S':'
asbag48
(g69
g50
NtRp1123
(dp1124
g53
(dp1125
sg62
g1110
sg55
(lp1126
g48
(g49
g50
NtRp1127
(dp1128
g53
(dp1129
g61
I4
ssg62
g1123
sg55
(lp1130
S'Mozilla/5.0 (Windows NT 6.1; WOW64) AppleWebKit/535.1 (KHTML, like Gecko) Chrome/13.0.782.218 Safari/535.1'
p1131
asbasbasbag48
(g64
g50
NtRp1132
(dp1133
g53
(dp1134
sg62
g752
sg55
(lp1135
g48
(g69
g50
NtRp1136
(dp1137
g53
(dp1138
g73
g74
ssg62
g1132
sg55
(lp1139
S'path_info'
p1140
asbag48
(g69
g50
NtRp1141
(dp1142
g53
(dp1143
g80
g81
ssg62
g1132
sg55
(lp1144
S':'
asbag48
(g69
g50
NtRp1145
(dp1146
g53
(dp1147
sg62
g1132
sg55
(lp1148
g48
(g49
g50
NtRp1149
(dp1150
g53
(dp1151
g61
I4
ssg62
g1145
sg55
(lp1152
S'/201056161/default/q3s'
p1153
asbasbasbag48
(g64
g50
NtRp1154
(dp1155
g53
(dp1156
sg62
g752
sg55
(lp1157
g48
(g69
g50
NtRp1158
(dp1159
g53
(dp1160
g73
g74
ssg62
g1154
sg55
(lp1161
S'query_string'
p1162
asbag48
(g69
g50
NtRp1163
(dp1164
g53
(dp1165
g80
g81
ssg62
g1154
sg55
(lp1166
S':'
asbag48
(g69
g50
NtRp1167
(dp1168
g53
(dp1169
sg62
g1154
sg55
(lp1170
g48
(g49
g50
NtRp1171
(dp1172
g53
(dp1173
g61
I4
ssg62
g1167
sg55
(lp1174
S'namen=9&movien=4'
p1175
asbasbasbag48
(g64
g50
NtRp1176
(dp1177
g53
(dp1178
sg62
g752
sg55
(lp1179
g48
(g69
g50
NtRp1180
(dp1181
g53
(dp1182
g73
g74
ssg62
g1176
sg55
(lp1183
S'remote_addr'
p1184
asbag48
(g69
g50
NtRp1185
(dp1186
g53
(dp1187
g80
g81
ssg62
g1176
sg55
(lp1188
S':'
asbag48
(g69
g50
NtRp1189
(dp1190
g53
(dp1191
sg62
g1176
sg55
(lp1192
g48
(g49
g50
NtRp1193
(dp1194
g53
(dp1195
g61
I4
ssg62
g1189
sg55
(lp1196
g181
asbasbasbag48
(g64
g50
NtRp1197
(dp1198
g53
(dp1199
sg62
g752
sg55
(lp1200
g48
(g69
g50
NtRp1201
(dp1202
g53
(dp1203
g73
g74
ssg62
g1197
sg55
(lp1204
S'remote_port'
p1205
asbag48
(g69
g50
NtRp1206
(dp1207
g53
(dp1208
g80
g81
ssg62
g1197
sg55
(lp1209
S':'
asbag48
(g69
g50
NtRp1210
(dp1211
g53
(dp1212
sg62
g1197
sg55
(lp1213
g48
(g49
g50
NtRp1214
(dp1215
g53
(dp1216
g61
I4
ssg62
g1210
sg55
(lp1217
S'51995'
p1218
asbasbasbag48
(g64
g50
NtRp1219
(dp1220
g53
(dp1221
sg62
g752
sg55
(lp1222
g48
(g69
g50
NtRp1223
(dp1224
g53
(dp1225
g73
g74
ssg62
g1219
sg55
(lp1226
S'request_method'
p1227
asbag48
(g69
g50
NtRp1228
(dp1229
g53
(dp1230
g80
g81
ssg62
g1219
sg55
(lp1231
S':'
asbag48
(g69
g50
NtRp1232
(dp1233
g53
(dp1234
sg62
g1219
sg55
(lp1235
g48
(g49
g50
NtRp1236
(dp1237
g53
(dp1238
g61
I4
ssg62
g1232
sg55
(lp1239
S'GET'
p1240
asbasbasbag48
(g64
g50
NtRp1241
(dp1242
g53
(dp1243
sg62
g752
sg55
(lp1244
g48
(g69
g50
NtRp1245
(dp1246
g53
(dp1247
g73
g74
ssg62
g1241
sg55
(lp1248
S'script_name'
p1249
asbag48
(g69
g50
NtRp1250
(dp1251
g53
(dp1252
g80
g81
ssg62
g1241
sg55
(lp1253
S':'
asbag48
(g69
g50
NtRp1254
(dp1255
g53
(dp1256
sg62
g1241
sg55
(lp1257
g48
(g49
g50
NtRp1258
(dp1259
g53
(dp1260
g61
I4
ssg62
g1254
sg55
(lp1261
S''
asbasbasbag48
(g64
g50
NtRp1262
(dp1263
g53
(dp1264
sg62
g752
sg55
(lp1265
g48
(g69
g50
NtRp1266
(dp1267
g53
(dp1268
g73
g74
ssg62
g1262
sg55
(lp1269
S'server_name'
p1270
asbag48
(g69
g50
NtRp1271
(dp1272
g53
(dp1273
g80
g81
ssg62
g1262
sg55
(lp1274
S':'
asbag48
(g69
g50
NtRp1275
(dp1276
g53
(dp1277
sg62
g1262
sg55
(lp1278
g48
(g49
g50
NtRp1279
(dp1280
g53
(dp1281
g61
I4
ssg62
g1275
sg55
(lp1282
S'AKSHAY-PC'
p1283
asbasbasbag48
(g64
g50
NtRp1284
(dp1285
g53
(dp1286
sg62
g752
sg55
(lp1287
g48
(g69
g50
NtRp1288
(dp1289
g53
(dp1290
g73
g74
ssg62
g1284
sg55
(lp1291
S'server_port'
p1292
asbag48
(g69
g50
NtRp1293
(dp1294
g53
(dp1295
g80
g81
ssg62
g1284
sg55
(lp1296
S':'
asbag48
(g69
g50
NtRp1297
(dp1298
g53
(dp1299
sg62
g1284
sg55
(lp1300
g48
(g49
g50
NtRp1301
(dp1302
g53
(dp1303
g61
I4
ssg62
g1297
sg55
(lp1304
S'8000'
p1305
asbasbasbag48
(g64
g50
NtRp1306
(dp1307
g53
(dp1308
sg62
g752
sg55
(lp1309
g48
(g69
g50
NtRp1310
(dp1311
g53
(dp1312
g73
g74
ssg62
g1306
sg55
(lp1313
S'server_protocol'
p1314
asbag48
(g69
g50
NtRp1315
(dp1316
g53
(dp1317
g80
g81
ssg62
g1306
sg55
(lp1318
S':'
asbag48
(g69
g50
NtRp1319
(dp1320
g53
(dp1321
sg62
g1306
sg55
(lp1322
g48
(g49
g50
NtRp1323
(dp1324
g53
(dp1325
g61
I4
ssg62
g1319
sg55
(lp1326
S'HTTP/1.1'
p1327
asbasbasbag48
(g64
g50
NtRp1328
(dp1329
g53
(dp1330
sg62
g752
sg55
(lp1331
g48
(g69
g50
NtRp1332
(dp1333
g53
(dp1334
g73
g74
ssg62
g1328
sg55
(lp1335
S'server_software'
p1336
asbag48
(g69
g50
NtRp1337
(dp1338
g53
(dp1339
g80
g81
ssg62
g1328
sg55
(lp1340
S':'
asbag48
(g69
g50
NtRp1341
(dp1342
g53
(dp1343
sg62
g1328
sg55
(lp1344
g48
(g49
g50
NtRp1345
(dp1346
g53
(dp1347
g61
I4
ssg62
g1341
sg55
(lp1348
S'Rocket 1.2.2'
p1349
asbasbasbag48
(g64
g50
NtRp1350
(dp1351
g53
(dp1352
sg62
g752
sg55
(lp1353
g48
(g69
g50
NtRp1354
(dp1355
g53
(dp1356
g73
g74
ssg62
g1350
sg55
(lp1357
S'web2py_crontype'
p1358
asbag48
(g69
g50
NtRp1359
(dp1360
g53
(dp1361
g80
g81
ssg62
g1350
sg55
(lp1362
S':'
asbag48
(g69
g50
NtRp1363
(dp1364
g53
(dp1365
sg62
g1350
sg55
(lp1366
g48
(g49
g50
NtRp1367
(dp1368
g53
(dp1369
g61
I4
ssg62
g1363
sg55
(lp1370
S'hard'
p1371
asbasbasbag48
(g64
g50
NtRp1372
(dp1373
g53
(dp1374
sg62
g752
sg55
(lp1375
g48
(g69
g50
NtRp1376
(dp1377
g53
(dp1378
g73
g74
ssg62
g1372
sg55
(lp1379
S'web2py_path'
p1380
asbag48
(g69
g50
NtRp1381
(dp1382
g53
(dp1383
g80
g81
ssg62
g1372
sg55
(lp1384
S':'
asbag48
(g69
g50
NtRp1385
(dp1386
g53
(dp1387
sg62
g1372
sg55
(lp1388
g48
(g49
g50
NtRp1389
(dp1390
g53
(dp1391
g61
I4
ssg62
g1385
sg55
(lp1392
g799
asbasbasbag48
(g64
g50
NtRp1393
(dp1394
g53
(dp1395
sg62
g752
sg55
(lp1396
g48
(g69
g50
NtRp1397
(dp1398
g53
(dp1399
g73
g74
ssg62
g1393
sg55
(lp1400
S'web2py_version'
p1401
asbag48
(g69
g50
NtRp1402
(dp1403
g53
(dp1404
g80
g81
ssg62
g1393
sg55
(lp1405
S':'
asbag48
(g69
g50
NtRp1406
(dp1407
g53
(dp1408
sg62
g1393
sg55
(lp1409
g48
(g49
g50
NtRp1410
(dp1411
g53
(dp1412
g61
I4
ssg62
g1406
sg55
(lp1413
S'Version 1.97.1 (2011-06-26 19:25:44)\n'
p1414
asbasbasbag48
(g64
g50
NtRp1415
(dp1416
g53
(dp1417
sg62
g752
sg55
(lp1418
g48
(g69
g50
NtRp1419
(dp1420
g53
(dp1421
g73
g74
ssg62
g1415
sg55
(lp1422
S'wsgi_errors'
p1423
asbag48
(g69
g50
NtRp1424
(dp1425
g53
(dp1426
g80
g81
ssg62
g1415
sg55
(lp1427
S':'
asbag48
(g69
g50
NtRp1428
(dp1429
g53
(dp1430
sg62
g1415
sg55
(lp1431
g48
(g49
g50
NtRp1432
(dp1433
g53
(dp1434
g61
I4
ssg62
g1428
sg55
(lp1435
S"<open file '<stderr>', mode 'w' at 0x002500B0>"
p1436
asbasbasbag48
(g64
g50
NtRp1437
(dp1438
g53
(dp1439
sg62
g752
sg55
(lp1440
g48
(g69
g50
NtRp1441
(dp1442
g53
(dp1443
g73
g74
ssg62
g1437
sg55
(lp1444
S'wsgi_file_wrapper'
p1445
asbag48
(g69
g50
NtRp1446
(dp1447
g53
(dp1448
g80
g81
ssg62
g1437
sg55
(lp1449
S':'
asbag48
(g69
g50
NtRp1450
(dp1451
g53
(dp1452
sg62
g1437
sg55
(lp1453
g48
(g49
g50
NtRp1454
(dp1455
g53
(dp1456
g61
I4
ssg62
g1450
sg55
(lp1457
S'<class gluon.rocket.FileWrapper at 0x03132BA0>'
p1458
asbasbasbag48
(g64
g50
NtRp1459
(dp1460
g53
(dp1461
sg62
g752
sg55
(lp1462
g48
(g69
g50
NtRp1463
(dp1464
g53
(dp1465
g73
g74
ssg62
g1459
sg55
(lp1466
S'wsgi_input'
p1467
asbag48
(g69
g50
NtRp1468
(dp1469
g53
(dp1470
g80
g81
ssg62
g1459
sg55
(lp1471
S':'
asbag48
(g69
g50
NtRp1472
(dp1473
g53
(dp1474
sg62
g1459
sg55
(lp1475
g48
(g49
g50
NtRp1476
(dp1477
g53
(dp1478
g61
I4
ssg62
g1472
sg55
(lp1479
S'<socket._fileobject object at 0x06EC1BF0>'
p1480
asbasbasbag48
(g64
g50
NtRp1481
(dp1482
g53
(dp1483
sg62
g752
sg55
(lp1484
g48
(g69
g50
NtRp1485
(dp1486
g53
(dp1487
g73
g74
ssg62
g1481
sg55
(lp1488
S'wsgi_multiprocess'
p1489
asbag48
(g69
g50
NtRp1490
(dp1491
g53
(dp1492
g80
g81
ssg62
g1481
sg55
(lp1493
S':'
asbag48
(g69
g50
NtRp1494
(dp1495
g53
(dp1496
sg62
g1481
sg55
(lp1497
g48
(g49
g50
NtRp1498
(dp1499
g53
(dp1500
g61
I4
ssg62
g1494
sg55
(lp1501
g91
asbasbasbag48
(g64
g50
NtRp1502
(dp1503
g53
(dp1504
sg62
g752
sg55
(lp1505
g48
(g69
g50
NtRp1506
(dp1507
g53
(dp1508
g73
g74
ssg62
g1502
sg55
(lp1509
S'wsgi_multithread'
p1510
asbag48
(g69
g50
NtRp1511
(dp1512
g53
(dp1513
g80
g81
ssg62
g1502
sg55
(lp1514
S':'
asbag48
(g69
g50
NtRp1515
(dp1516
g53
(dp1517
sg62
g1502
sg55
(lp1518
g48
(g49
g50
NtRp1519
(dp1520
g53
(dp1521
g61
I4
ssg62
g1515
sg55
(lp1522
S'True'
p1523
asbasbasbag48
(g64
g50
NtRp1524
(dp1525
g53
(dp1526
sg62
g752
sg55
(lp1527
g48
(g69
g50
NtRp1528
(dp1529
g53
(dp1530
g73
g74
ssg62
g1524
sg55
(lp1531
S'wsgi_run_once'
p1532
asbag48
(g69
g50
NtRp1533
(dp1534
g53
(dp1535
g80
g81
ssg62
g1524
sg55
(lp1536
S':'
asbag48
(g69
g50
NtRp1537
(dp1538
g53
(dp1539
sg62
g1524
sg55
(lp1540
g48
(g49
g50
NtRp1541
(dp1542
g53
(dp1543
g61
I4
ssg62
g1537
sg55
(lp1544
g91
asbasbasbag48
(g64
g50
NtRp1545
(dp1546
g53
(dp1547
sg62
g752
sg55
(lp1548
g48
(g69
g50
NtRp1549
(dp1550
g53
(dp1551
g73
g74
ssg62
g1545
sg55
(lp1552
S'wsgi_url_scheme'
p1553
asbag48
(g69
g50
NtRp1554
(dp1555
g53
(dp1556
g80
g81
ssg62
g1545
sg55
(lp1557
S':'
asbag48
(g69
g50
NtRp1558
(dp1559
g53
(dp1560
sg62
g1545
sg55
(lp1561
g48
(g49
g50
NtRp1562
(dp1563
g53
(dp1564
g61
I4
ssg62
g1558
sg55
(lp1565
S'http'
p1566
asbasbasbag48
(g64
g50
NtRp1567
(dp1568
g53
(dp1569
sg62
g752
sg55
(lp1570
g48
(g69
g50
NtRp1571
(dp1572
g53
(dp1573
g73
g74
ssg62
g1567
sg55
(lp1574
S'wsgi_version'
p1575
asbag48
(g69
g50
NtRp1576
(dp1577
g53
(dp1578
g80
g81
ssg62
g1567
sg55
(lp1579
S':'
asbag48
(g69
g50
NtRp1580
(dp1581
g53
(dp1582
sg62
g1567
sg55
(lp1583
g48
(g49
g50
NtRp1584
(dp1585
g53
(dp1586
g61
I4
ssg62
g1580
sg55
(lp1587
g48
(g57
g50
NtRp1588
(dp1589
g53
(dp1590
g61
I3
ssg62
Nsg55
(lp1591
g48
(g64
g50
NtRp1592
(dp1593
g53
(dp1594
sg62
g1588
sg55
(lp1595
g48
(g69
g50
NtRp1596
(dp1597
g53
(dp1598
sg62
g1592
sg55
(lp1599
g48
(g49
g50
NtRp1600
(dp1601
g53
(dp1602
g61
I3
ssg62
g1596
sg55
(lp1603
S'1'
asbasbasbag48
(g64
g50
NtRp1604
(dp1605
g53
(dp1606
sg62
g1588
sg55
(lp1607
g48
(g69
g50
NtRp1608
(dp1609
g53
(dp1610
sg62
g1604
sg55
(lp1611
g48
(g49
g50
NtRp1612
(dp1613
g53
(dp1614
g61
I3
ssg62
g1608
sg55
(lp1615
S'0'
asbasbasbasbasbasbasbasbasbasbasbag48
(g64
g50
NtRp1616
(dp1617
g53
(dp1618
sg62
g58
sg55
(lp1619
g48
(g69
g50
NtRp1620
(dp1621
g53
(dp1622
g73
g74
ssg62
g1616
sg55
(lp1623
S'extension'
p1624
asbag48
(g69
g50
NtRp1625
(dp1626
g53
(dp1627
g80
g81
ssg62
g1616
sg55
(lp1628
S':'
asbag48
(g69
g50
NtRp1629
(dp1630
g53
(dp1631
sg62
g1616
sg55
(lp1632
g48
(g49
g50
NtRp1633
(dp1634
g53
(dp1635
g61
I5
ssg62
g1629
sg55
(lp1636
S'html'
p1637
asbasbasbag48
(g64
g50
NtRp1638
(dp1639
g53
(dp1640
sg62
g58
sg55
(lp1641
g48
(g69
g50
NtRp1642
(dp1643
g53
(dp1644
g73
g74
ssg62
g1638
sg55
(lp1645
S'folder'
p1646
asbag48
(g69
g50
NtRp1647
(dp1648
g53
(dp1649
g80
g81
ssg62
g1638
sg55
(lp1650
S':'
asbag48
(g69
g50
NtRp1651
(dp1652
g53
(dp1653
sg62
g1638
sg55
(lp1654
g48
(g49
g50
NtRp1655
(dp1656
g53
(dp1657
g61
I5
ssg62
g1651
sg55
(lp1658
S'C:\\Users\\AKSHAY\\Desktop\\web2py\\applications\\201056161\\'
p1659
asbasbasbag48
(g64
g50
NtRp1660
(dp1661
g53
(dp1662
sg62
g58
sg55
(lp1663
g48
(g69
g50
NtRp1664
(dp1665
g53
(dp1666
g73
g74
ssg62
g1660
sg55
(lp1667
S'function'
p1668
asbag48
(g69
g50
NtRp1669
(dp1670
g53
(dp1671
g80
g81
ssg62
g1660
sg55
(lp1672
S':'
asbag48
(g69
g50
NtRp1673
(dp1674
g53
(dp1675
sg62
g1660
sg55
(lp1676
g48
(g49
g50
NtRp1677
(dp1678
g53
(dp1679
g61
I5
ssg62
g1673
sg55
(lp1680
S'q3s'
p1681
asbasbasbag48
(g64
g50
NtRp1682
(dp1683
g53
(dp1684
sg62
g58
sg55
(lp1685
g48
(g69
g50
NtRp1686
(dp1687
g53
(dp1688
g73
g74
ssg62
g1682
sg55
(lp1689
S'get_vars'
p1690
asbag48
(g69
g50
NtRp1691
(dp1692
g53
(dp1693
g80
g81
ssg62
g1682
sg55
(lp1694
S':'
asbag48
(g69
g50
NtRp1695
(dp1696
g53
(dp1697
sg62
g1682
sg55
(lp1698
g48
(g49
g50
NtRp1699
(dp1700
g53
(dp1701
g61
I5
ssg62
g1695
sg55
(lp1702
g48
(g57
g50
NtRp1703
(dp1704
g53
(dp1705
g61
I4
ssg62
Nsg55
(lp1706
g48
(g64
g50
NtRp1707
(dp1708
g53
(dp1709
sg62
g1703
sg55
(lp1710
g48
(g69
g50
NtRp1711
(dp1712
g53
(dp1713
g73
g74
ssg62
g1707
sg55
(lp1714
S'movien'
p1715
asbag48
(g69
g50
NtRp1716
(dp1717
g53
(dp1718
g80
g81
ssg62
g1707
sg55
(lp1719
S':'
asbag48
(g69
g50
NtRp1720
(dp1721
g53
(dp1722
sg62
g1707
sg55
(lp1723
g48
(g49
g50
NtRp1724
(dp1725
g53
(dp1726
g61
I4
ssg62
g1720
sg55
(lp1727
S'4'
asbasbasbag48
(g64
g50
NtRp1728
(dp1729
g53
(dp1730
sg62
g1703
sg55
(lp1731
g48
(g69
g50
NtRp1732
(dp1733
g53
(dp1734
g73
g74
ssg62
g1728
sg55
(lp1735
S'namen'
p1736
asbag48
(g69
g50
NtRp1737
(dp1738
g53
(dp1739
g80
g81
ssg62
g1728
sg55
(lp1740
S':'
asbag48
(g69
g50
NtRp1741
(dp1742
g53
(dp1743
sg62
g1728
sg55
(lp1744
g48
(g49
g50
NtRp1745
(dp1746
g53
(dp1747
g61
I4
ssg62
g1741
sg55
(lp1748
S'9'
asbasbasbasbasbasbasbag48
(g64
g50
NtRp1749
(dp1750
g53
(dp1751
sg62
g58
sg55
(lp1752
g48
(g69
g50
NtRp1753
(dp1754
g53
(dp1755
g73
g74
ssg62
g1749
sg55
(lp1756
S'is_https'
p1757
asbag48
(g69
g50
NtRp1758
(dp1759
g53
(dp1760
g80
g81
ssg62
g1749
sg55
(lp1761
S':'
asbag48
(g69
g50
NtRp1762
(dp1763
g53
(dp1764
sg62
g1749
sg55
(lp1765
g48
(g49
g50
NtRp1766
(dp1767
g53
(dp1768
g61
I5
ssg62
g1762
sg55
(lp1769
g91
asbasbasbag48
(g64
g50
NtRp1770
(dp1771
g53
(dp1772
sg62
g58
sg55
(lp1773
g48
(g69
g50
NtRp1774
(dp1775
g53
(dp1776
g73
g74
ssg62
g1770
sg55
(lp1777
S'is_local'
p1778
asbag48
(g69
g50
NtRp1779
(dp1780
g53
(dp1781
g80
g81
ssg62
g1770
sg55
(lp1782
S':'
asbag48
(g69
g50
NtRp1783
(dp1784
g53
(dp1785
sg62
g1770
sg55
(lp1786
g48
(g49
g50
NtRp1787
(dp1788
g53
(dp1789
g61
I5
ssg62
g1783
sg55
(lp1790
g1523
asbasbasbag48
(g64
g50
NtRp1791
(dp1792
g53
(dp1793
sg62
g58
sg55
(lp1794
g48
(g69
g50
NtRp1795
(dp1796
g53
(dp1797
g73
g74
ssg62
g1791
sg55
(lp1798
S'is_restful'
p1799
asbag48
(g69
g50
NtRp1800
(dp1801
g53
(dp1802
g80
g81
ssg62
g1791
sg55
(lp1803
S':'
asbag48
(g69
g50
NtRp1804
(dp1805
g53
(dp1806
sg62
g1791
sg55
(lp1807
g48
(g49
g50
NtRp1808
(dp1809
g53
(dp1810
g61
I5
ssg62
g1804
sg55
(lp1811
g91
asbasbasbag48
(g64
g50
NtRp1812
(dp1813
g53
(dp1814
sg62
g58
sg55
(lp1815
g48
(g69
g50
NtRp1816
(dp1817
g53
(dp1818
g73
g74
ssg62
g1812
sg55
(lp1819
S'now'
p1820
asbag48
(g69
g50
NtRp1821
(dp1822
g53
(dp1823
g80
g81
ssg62
g1812
sg55
(lp1824
S':'
asbag48
(g69
g50
NtRp1825
(dp1826
g53
(dp1827
sg62
g1812
sg55
(lp1828
g48
(g49
g50
NtRp1829
(dp1830
g53
(dp1831
g61
I5
ssg62
g1825
sg55
(lp1832
S'datetime.datetime(2011, 9, 7, 3, 32, 35, 492000)'
p1833
asbasbasbag48
(g64
g50
NtRp1834
(dp1835
g53
(dp1836
sg62
g58
sg55
(lp1837
g48
(g69
g50
NtRp1838
(dp1839
g53
(dp1840
g73
g74
ssg62
g1834
sg55
(lp1841
S'post_vars'
p1842
asbag48
(g69
g50
NtRp1843
(dp1844
g53
(dp1845
g80
g81
ssg62
g1834
sg55
(lp1846
S':'
asbag48
(g69
g50
NtRp1847
(dp1848
g53
(dp1849
sg62
g1834
sg55
(lp1850
g48
(g49
g50
NtRp1851
(dp1852
g53
(dp1853
g61
I5
ssg62
g1847
sg55
(lp1854
g48
(g57
g50
NtRp1855
(dp1856
g53
(dp1857
g61
I4
ssg62
Nsg55
(lp1858
sbasbasbasbag48
(g64
g50
NtRp1859
(dp1860
g53
(dp1861
sg62
g58
sg55
(lp1862
g48
(g69
g50
NtRp1863
(dp1864
g53
(dp1865
g73
g74
ssg62
g1859
sg55
(lp1866
S'url'
p1867
asbag48
(g69
g50
NtRp1868
(dp1869
g53
(dp1870
g80
g81
ssg62
g1859
sg55
(lp1871
S':'
asbag48
(g69
g50
NtRp1872
(dp1873
g53
(dp1874
sg62
g1859
sg55
(lp1875
g48
(g49
g50
NtRp1876
(dp1877
g53
(dp1878
g61
I5
ssg62
g1872
sg55
(lp1879
S'/201056161/default/q3s'
p1880
asbasbasbag48
(g64
g50
NtRp1881
(dp1882
g53
(dp1883
sg62
g58
sg55
(lp1884
g48
(g69
g50
NtRp1885
(dp1886
g53
(dp1887
g73
g74
ssg62
g1881
sg55
(lp1888
S'uuid'
p1889
asbag48
(g69
g50
NtRp1890
(dp1891
g53
(dp1892
g80
g81
ssg62
g1881
sg55
(lp1893
S':'
asbag48
(g69
g50
NtRp1894
(dp1895
g53
(dp1896
sg62
g1881
sg55
(lp1897
g48
(g49
g50
NtRp1898
(dp1899
g53
(dp1900
g61
I5
ssg62
g1894
sg55
(lp1901
S'201056161/127.0.0.1.2011-09-07.03-32-35.ea5574e9-06f7-4c02-aa47-91fb97fc60c0'
p1902
asbasbasbag48
(g64
g50
NtRp1903
(dp1904
g53
(dp1905
sg62
g58
sg55
(lp1906
g48
(g69
g50
NtRp1907
(dp1908
g53
(dp1909
g73
g74
ssg62
g1903
sg55
(lp1910
S'vars'
p1911
asbag48
(g69
g50
NtRp1912
(dp1913
g53
(dp1914
g80
g81
ssg62
g1903
sg55
(lp1915
S':'
asbag48
(g69
g50
NtRp1916
(dp1917
g53
(dp1918
sg62
g1903
sg55
(lp1919
g48
(g49
g50
NtRp1920
(dp1921
g53
(dp1922
g61
I5
ssg62
g1916
sg55
(lp1923
g48
(g57
g50
NtRp1924
(dp1925
g53
(dp1926
g61
I4
ssg62
Nsg55
(lp1927
g48
(g64
g50
NtRp1928
(dp1929
g53
(dp1930
sg62
g1924
sg55
(lp1931
g48
(g69
g50
NtRp1932
(dp1933
g53
(dp1934
g73
g74
ssg62
g1928
sg55
(lp1935
g1715
asbag48
(g69
g50
NtRp1936
(dp1937
g53
(dp1938
g80
g81
ssg62
g1928
sg55
(lp1939
S':'
asbag48
(g69
g50
NtRp1940
(dp1941
g53
(dp1942
sg62
g1928
sg55
(lp1943
g48
(g49
g50
NtRp1944
(dp1945
g53
(dp1946
g61
I4
ssg62
g1940
sg55
(lp1947
S'4'
asbasbasbag48
(g64
g50
NtRp1948
(dp1949
g53
(dp1950
sg62
g1924
sg55
(lp1951
g48
(g69
g50
NtRp1952
(dp1953
g53
(dp1954
g73
g74
ssg62
g1948
sg55
(lp1955
g1736
asbag48
(g69
g50
NtRp1956
(dp1957
g53
(dp1958
g80
g81
ssg62
g1948
sg55
(lp1959
S':'
asbag48
(g69
g50
NtRp1960
(dp1961
g53
(dp1962
sg62
g1948
sg55
(lp1963
g48
(g49
g50
NtRp1964
(dp1965
g53
(dp1966
g61
I4
ssg62
g1960
sg55
(lp1967
S'9'
asbasbasbasbasbasbasbag48
(g64
g50
NtRp1968
(dp1969
g53
(dp1970
sg62
g58
sg55
(lp1971
g48
(g69
g50
NtRp1972
(dp1973
g53
(dp1974
g73
g74
ssg62
g1968
sg55
(lp1975
S'wsgi'
p1976
asbag48
(g69
g50
NtRp1977
(dp1978
g53
(dp1979
g80
g81
ssg62
g1968
sg55
(lp1980
S':'
asbag48
(g69
g50
NtRp1981
(dp1982
g53
(dp1983
sg62
g1968
sg55
(lp1984
g48
(g49
g50
NtRp1985
(dp1986
g53
(dp1987
g61
I5
ssg62
g1981
sg55
(lp1988
g48
(g57
g50
NtRp1989
(dp1990
g53
(dp1991
g61
I4
ssg62
Nsg55
(lp1992
g48
(g64
g50
NtRp1993
(dp1994
g53
(dp1995
sg62
g1989
sg55
(lp1996
g48
(g69
g50
NtRp1997
(dp1998
g53
(dp1999
g73
g74
ssg62
g1993
sg55
(lp2000
S'environ'
p2001
asbag48
(g69
g50
NtRp2002
(dp2003
g53
(dp2004
g80
g81
ssg62
g1993
sg55
(lp2005
S':'
asbag48
(g69
g50
NtRp2006
(dp2007
g53
(dp2008
sg62
g1993
sg55
(lp2009
g48
(g49
g50
NtRp2010
(dp2011
g53
(dp2012
g61
I4
ssg62
g2006
sg55
(lp2013
g48
(g57
g50
NtRp2014
(dp2015
g53
(dp2016
g61
I3
ssg62
Nsg55
(lp2017
g48
(g64
g50
NtRp2018
(dp2019
g53
(dp2020
sg62
g2014
sg55
(lp2021
g48
(g69
g50
NtRp2022
(dp2023
g53
(dp2024
g73
g74
ssg62
g2018
sg55
(lp2025
S'HTTP_ACCEPT'
p2026
asbag48
(g69
g50
NtRp2027
(dp2028
g53
(dp2029
g80
g81
ssg62
g2018
sg55
(lp2030
S':'
asbag48
(g69
g50
NtRp2031
(dp2032
g53
(dp2033
sg62
g2018
sg55
(lp2034
g48
(g49
g50
NtRp2035
(dp2036
g53
(dp2037
g61
I3
ssg62
g2031
sg55
(lp2038
g933
asbasbasbag48
(g64
g50
NtRp2039
(dp2040
g53
(dp2041
sg62
g2014
sg55
(lp2042
g48
(g69
g50
NtRp2043
(dp2044
g53
(dp2045
g73
g74
ssg62
g2039
sg55
(lp2046
S'HTTP_ACCEPT_CHARSET'
p2047
asbag48
(g69
g50
NtRp2048
(dp2049
g53
(dp2050
g80
g81
ssg62
g2039
sg55
(lp2051
S':'
asbag48
(g69
g50
NtRp2052
(dp2053
g53
(dp2054
sg62
g2039
sg55
(lp2055
g48
(g49
g50
NtRp2056
(dp2057
g53
(dp2058
g61
I3
ssg62
g2052
sg55
(lp2059
g955
asbasbasbag48
(g64
g50
NtRp2060
(dp2061
g53
(dp2062
sg62
g2014
sg55
(lp2063
g48
(g69
g50
NtRp2064
(dp2065
g53
(dp2066
g73
g74
ssg62
g2060
sg55
(lp2067
S'HTTP_ACCEPT_ENCODING'
p2068
asbag48
(g69
g50
NtRp2069
(dp2070
g53
(dp2071
g80
g81
ssg62
g2060
sg55
(lp2072
S':'
asbag48
(g69
g50
NtRp2073
(dp2074
g53
(dp2075
sg62
g2060
sg55
(lp2076
g48
(g49
g50
NtRp2077
(dp2078
g53
(dp2079
g61
I3
ssg62
g2073
sg55
(lp2080
g977
asbasbasbag48
(g64
g50
NtRp2081
(dp2082
g53
(dp2083
sg62
g2014
sg55
(lp2084
g48
(g69
g50
NtRp2085
(dp2086
g53
(dp2087
g73
g74
ssg62
g2081
sg55
(lp2088
S'HTTP_ACCEPT_LANGUAGE'
p2089
asbag48
(g69
g50
NtRp2090
(dp2091
g53
(dp2092
g80
g81
ssg62
g2081
sg55
(lp2093
S':'
asbag48
(g69
g50
NtRp2094
(dp2095
g53
(dp2096
sg62
g2081
sg55
(lp2097
g48
(g49
g50
NtRp2098
(dp2099
g53
(dp2100
g61
I3
ssg62
g2094
sg55
(lp2101
g999
asbasbasbag48
(g64
g50
NtRp2102
(dp2103
g53
(dp2104
sg62
g2014
sg55
(lp2105
g48
(g69
g50
NtRp2106
(dp2107
g53
(dp2108
g73
g74
ssg62
g2102
sg55
(lp2109
S'HTTP_CACHE_CONTROL'
p2110
asbag48
(g69
g50
NtRp2111
(dp2112
g53
(dp2113
g80
g81
ssg62
g2102
sg55
(lp2114
S':'
asbag48
(g69
g50
NtRp2115
(dp2116
g53
(dp2117
sg62
g2102
sg55
(lp2118
g48
(g49
g50
NtRp2119
(dp2120
g53
(dp2121
g61
I3
ssg62
g2115
sg55
(lp2122
g1021
asbasbasbag48
(g64
g50
NtRp2123
(dp2124
g53
(dp2125
sg62
g2014
sg55
(lp2126
g48
(g69
g50
NtRp2127
(dp2128
g53
(dp2129
g73
g74
ssg62
g2123
sg55
(lp2130
S'HTTP_CONNECTION'
p2131
asbag48
(g69
g50
NtRp2132
(dp2133
g53
(dp2134
g80
g81
ssg62
g2123
sg55
(lp2135
S':'
asbag48
(g69
g50
NtRp2136
(dp2137
g53
(dp2138
sg62
g2123
sg55
(lp2139
g48
(g49
g50
NtRp2140
(dp2141
g53
(dp2142
g61
I3
ssg62
g2136
sg55
(lp2143
g1043
asbasbasbag48
(g64
g50
NtRp2144
(dp2145
g53
(dp2146
sg62
g2014
sg55
(lp2147
g48
(g69
g50
NtRp2148
(dp2149
g53
(dp2150
g73
g74
ssg62
g2144
sg55
(lp2151
S'HTTP_COOKIE'
p2152
asbag48
(g69
g50
NtRp2153
(dp2154
g53
(dp2155
g80
g81
ssg62
g2144
sg55
(lp2156
S':'
asbag48
(g69
g50
NtRp2157
(dp2158
g53
(dp2159
sg62
g2144
sg55
(lp2160
g48
(g49
g50
NtRp2161
(dp2162
g53
(dp2163
g61
I3
ssg62
g2157
sg55
(lp2164
g1065
asbasbasbag48
(g64
g50
NtRp2165
(dp2166
g53
(dp2167
sg62
g2014
sg55
(lp2168
g48
(g69
g50
NtRp2169
(dp2170
g53
(dp2171
g73
g74
ssg62
g2165
sg55
(lp2172
S'HTTP_HOST'
p2173
asbag48
(g69
g50
NtRp2174
(dp2175
g53
(dp2176
g80
g81
ssg62
g2165
sg55
(lp2177
S':'
asbag48
(g69
g50
NtRp2178
(dp2179
g53
(dp2180
sg62
g2165
sg55
(lp2181
g48
(g49
g50
NtRp2182
(dp2183
g53
(dp2184
g61
I3
ssg62
g2178
sg55
(lp2185
g1087
asbasbasbag48
(g64
g50
NtRp2186
(dp2187
g53
(dp2188
sg62
g2014
sg55
(lp2189
g48
(g69
g50
NtRp2190
(dp2191
g53
(dp2192
g73
g74
ssg62
g2186
sg55
(lp2193
S'HTTP_REFERER'
p2194
asbag48
(g69
g50
NtRp2195
(dp2196
g53
(dp2197
g80
g81
ssg62
g2186
sg55
(lp2198
S':'
asbag48
(g69
g50
NtRp2199
(dp2200
g53
(dp2201
sg62
g2186
sg55
(lp2202
g48
(g49
g50
NtRp2203
(dp2204
g53
(dp2205
g61
I3
ssg62
g2199
sg55
(lp2206
g1109
asbasbasbag48
(g64
g50
NtRp2207
(dp2208
g53
(dp2209
sg62
g2014
sg55
(lp2210
g48
(g69
g50
NtRp2211
(dp2212
g53
(dp2213
g73
g74
ssg62
g2207
sg55
(lp2214
S'HTTP_USER_AGENT'
p2215
asbag48
(g69
g50
NtRp2216
(dp2217
g53
(dp2218
g80
g81
ssg62
g2207
sg55
(lp2219
S':'
asbag48
(g69
g50
NtRp2220
(dp2221
g53
(dp2222
sg62
g2207
sg55
(lp2223
g48
(g49
g50
NtRp2224
(dp2225
g53
(dp2226
g61
I3
ssg62
g2220
sg55
(lp2227
g1131
asbasbasbag48
(g64
g50
NtRp2228
(dp2229
g53
(dp2230
sg62
g2014
sg55
(lp2231
g48
(g69
g50
NtRp2232
(dp2233
g53
(dp2234
g73
g74
ssg62
g2228
sg55
(lp2235
S'PATH_INFO'
p2236
asbag48
(g69
g50
NtRp2237
(dp2238
g53
(dp2239
g80
g81
ssg62
g2228
sg55
(lp2240
S':'
asbag48
(g69
g50
NtRp2241
(dp2242
g53
(dp2243
sg62
g2228
sg55
(lp2244
g48
(g49
g50
NtRp2245
(dp2246
g53
(dp2247
g61
I3
ssg62
g2241
sg55
(lp2248
g1153
asbasbasbag48
(g64
g50
NtRp2249
(dp2250
g53
(dp2251
sg62
g2014
sg55
(lp2252
g48
(g69
g50
NtRp2253
(dp2254
g53
(dp2255
g73
g74
ssg62
g2249
sg55
(lp2256
S'QUERY_STRING'
p2257
asbag48
(g69
g50
NtRp2258
(dp2259
g53
(dp2260
g80
g81
ssg62
g2249
sg55
(lp2261
S':'
asbag48
(g69
g50
NtRp2262
(dp2263
g53
(dp2264
sg62
g2249
sg55
(lp2265
g48
(g49
g50
NtRp2266
(dp2267
g53
(dp2268
g61
I3
ssg62
g2262
sg55
(lp2269
g1175
asbasbasbag48
(g64
g50
NtRp2270
(dp2271
g53
(dp2272
sg62
g2014
sg55
(lp2273
g48
(g69
g50
NtRp2274
(dp2275
g53
(dp2276
g73
g74
ssg62
g2270
sg55
(lp2277
S'REMOTE_ADDR'
p2278
asbag48
(g69
g50
NtRp2279
(dp2280
g53
(dp2281
g80
g81
ssg62
g2270
sg55
(lp2282
S':'
asbag48
(g69
g50
NtRp2283
(dp2284
g53
(dp2285
sg62
g2270
sg55
(lp2286
g48
(g49
g50
NtRp2287
(dp2288
g53
(dp2289
g61
I3
ssg62
g2283
sg55
(lp2290
g181
asbasbasbag48
(g64
g50
NtRp2291
(dp2292
g53
(dp2293
sg62
g2014
sg55
(lp2294
g48
(g69
g50
NtRp2295
(dp2296
g53
(dp2297
g73
g74
ssg62
g2291
sg55
(lp2298
S'REMOTE_PORT'
p2299
asbag48
(g69
g50
NtRp2300
(dp2301
g53
(dp2302
g80
g81
ssg62
g2291
sg55
(lp2303
S':'
asbag48
(g69
g50
NtRp2304
(dp2305
g53
(dp2306
sg62
g2291
sg55
(lp2307
g48
(g49
g50
NtRp2308
(dp2309
g53
(dp2310
g61
I3
ssg62
g2304
sg55
(lp2311
g1218
asbasbasbag48
(g64
g50
NtRp2312
(dp2313
g53
(dp2314
sg62
g2014
sg55
(lp2315
g48
(g69
g50
NtRp2316
(dp2317
g53
(dp2318
g73
g74
ssg62
g2312
sg55
(lp2319
S'REQUEST_METHOD'
p2320
asbag48
(g69
g50
NtRp2321
(dp2322
g53
(dp2323
g80
g81
ssg62
g2312
sg55
(lp2324
S':'
asbag48
(g69
g50
NtRp2325
(dp2326
g53
(dp2327
sg62
g2312
sg55
(lp2328
g48
(g49
g50
NtRp2329
(dp2330
g53
(dp2331
g61
I3
ssg62
g2325
sg55
(lp2332
g1240
asbasbasbag48
(g64
g50
NtRp2333
(dp2334
g53
(dp2335
sg62
g2014
sg55
(lp2336
g48
(g69
g50
NtRp2337
(dp2338
g53
(dp2339
g73
g74
ssg62
g2333
sg55
(lp2340
S'SCRIPT_NAME'
p2341
asbag48
(g69
g50
NtRp2342
(dp2343
g53
(dp2344
g80
g81
ssg62
g2333
sg55
(lp2345
S':'
asbag48
(g69
g50
NtRp2346
(dp2347
g53
(dp2348
sg62
g2333
sg55
(lp2349
g48
(g49
g50
NtRp2350
(dp2351
g53
(dp2352
g61
I3
ssg62
g2346
sg55
(lp2353
S''
asbasbasbag48
(g64
g50
NtRp2354
(dp2355
g53
(dp2356
sg62
g2014
sg55
(lp2357
g48
(g69
g50
NtRp2358
(dp2359
g53
(dp2360
g73
g74
ssg62
g2354
sg55
(lp2361
S'SERVER_NAME'
p2362
asbag48
(g69
g50
NtRp2363
(dp2364
g53
(dp2365
g80
g81
ssg62
g2354
sg55
(lp2366
S':'
asbag48
(g69
g50
NtRp2367
(dp2368
g53
(dp2369
sg62
g2354
sg55
(lp2370
g48
(g49
g50
NtRp2371
(dp2372
g53
(dp2373
g61
I3
ssg62
g2367
sg55
(lp2374
g1283
asbasbasbag48
(g64
g50
NtRp2375
(dp2376
g53
(dp2377
sg62
g2014
sg55
(lp2378
g48
(g69
g50
NtRp2379
(dp2380
g53
(dp2381
g73
g74
ssg62
g2375
sg55
(lp2382
S'SERVER_PORT'
p2383
asbag48
(g69
g50
NtRp2384
(dp2385
g53
(dp2386
g80
g81
ssg62
g2375
sg55
(lp2387
S':'
asbag48
(g69
g50
NtRp2388
(dp2389
g53
(dp2390
sg62
g2375
sg55
(lp2391
g48
(g49
g50
NtRp2392
(dp2393
g53
(dp2394
g61
I3
ssg62
g2388
sg55
(lp2395
g1305
asbasbasbag48
(g64
g50
NtRp2396
(dp2397
g53
(dp2398
sg62
g2014
sg55
(lp2399
g48
(g69
g50
NtRp2400
(dp2401
g53
(dp2402
g73
g74
ssg62
g2396
sg55
(lp2403
S'SERVER_PROTOCOL'
p2404
asbag48
(g69
g50
NtRp2405
(dp2406
g53
(dp2407
g80
g81
ssg62
g2396
sg55
(lp2408
S':'
asbag48
(g69
g50
NtRp2409
(dp2410
g53
(dp2411
sg62
g2396
sg55
(lp2412
g48
(g49
g50
NtRp2413
(dp2414
g53
(dp2415
g61
I3
ssg62
g2409
sg55
(lp2416
g1327
asbasbasbag48
(g64
g50
NtRp2417
(dp2418
g53
(dp2419
sg62
g2014
sg55
(lp2420
g48
(g69
g50
NtRp2421
(dp2422
g53
(dp2423
g73
g74
ssg62
g2417
sg55
(lp2424
S'SERVER_SOFTWARE'
p2425
asbag48
(g69
g50
NtRp2426
(dp2427
g53
(dp2428
g80
g81
ssg62
g2417
sg55
(lp2429
S':'
asbag48
(g69
g50
NtRp2430
(dp2431
g53
(dp2432
sg62
g2417
sg55
(lp2433
g48
(g49
g50
NtRp2434
(dp2435
g53
(dp2436
g61
I3
ssg62
g2430
sg55
(lp2437
g1349
asbasbasbag48
(g64
g50
NtRp2438
(dp2439
g53
(dp2440
sg62
g2014
sg55
(lp2441
g48
(g69
g50
NtRp2442
(dp2443
g53
(dp2444
g73
g74
ssg62
g2438
sg55
(lp2445
S'wsgi.errors'
p2446
asbag48
(g69
g50
NtRp2447
(dp2448
g53
(dp2449
g80
g81
ssg62
g2438
sg55
(lp2450
S':'
asbag48
(g69
g50
NtRp2451
(dp2452
g53
(dp2453
sg62
g2438
sg55
(lp2454
g48
(g49
g50
NtRp2455
(dp2456
g53
(dp2457
g61
I3
ssg62
g2451
sg55
(lp2458
S"<open file '<stderr>', mode 'w' at 0x002500B0>"
p2459
asbasbasbag48
(g64
g50
NtRp2460
(dp2461
g53
(dp2462
sg62
g2014
sg55
(lp2463
g48
(g69
g50
NtRp2464
(dp2465
g53
(dp2466
g73
g74
ssg62
g2460
sg55
(lp2467
S'wsgi.file_wrapper'
p2468
asbag48
(g69
g50
NtRp2469
(dp2470
g53
(dp2471
g80
g81
ssg62
g2460
sg55
(lp2472
S':'
asbag48
(g69
g50
NtRp2473
(dp2474
g53
(dp2475
sg62
g2460
sg55
(lp2476
g48
(g49
g50
NtRp2477
(dp2478
g53
(dp2479
g61
I3
ssg62
g2473
sg55
(lp2480
S'<class gluon.rocket.FileWrapper at 0x03132BA0>'
p2481
asbasbasbag48
(g64
g50
NtRp2482
(dp2483
g53
(dp2484
sg62
g2014
sg55
(lp2485
g48
(g69
g50
NtRp2486
(dp2487
g53
(dp2488
g73
g74
ssg62
g2482
sg55
(lp2489
S'wsgi.input'
p2490
asbag48
(g69
g50
NtRp2491
(dp2492
g53
(dp2493
g80
g81
ssg62
g2482
sg55
(lp2494
S':'
asbag48
(g69
g50
NtRp2495
(dp2496
g53
(dp2497
sg62
g2482
sg55
(lp2498
g48
(g49
g50
NtRp2499
(dp2500
g53
(dp2501
g61
I3
ssg62
g2495
sg55
(lp2502
S'<cStringIO.StringO object at 0x06AB12A0>'
p2503
asbasbasbag48
(g64
g50
NtRp2504
(dp2505
g53
(dp2506
sg62
g2014
sg55
(lp2507
g48
(g69
g50
NtRp2508
(dp2509
g53
(dp2510
g73
g74
ssg62
g2504
sg55
(lp2511
S'wsgi.multiprocess'
p2512
asbag48
(g69
g50
NtRp2513
(dp2514
g53
(dp2515
g80
g81
ssg62
g2504
sg55
(lp2516
S':'
asbag48
(g69
g50
NtRp2517
(dp2518
g53
(dp2519
sg62
g2504
sg55
(lp2520
g48
(g49
g50
NtRp2521
(dp2522
g53
(dp2523
g61
I3
ssg62
g2517
sg55
(lp2524
g91
asbasbasbag48
(g64
g50
NtRp2525
(dp2526
g53
(dp2527
sg62
g2014
sg55
(lp2528
g48
(g69
g50
NtRp2529
(dp2530
g53
(dp2531
g73
g74
ssg62
g2525
sg55
(lp2532
S'wsgi.multithread'
p2533
asbag48
(g69
g50
NtRp2534
(dp2535
g53
(dp2536
g80
g81
ssg62
g2525
sg55
(lp2537
S':'
asbag48
(g69
g50
NtRp2538
(dp2539
g53
(dp2540
sg62
g2525
sg55
(lp2541
g48
(g49
g50
NtRp2542
(dp2543
g53
(dp2544
g61
I3
ssg62
g2538
sg55
(lp2545
g1523
asbasbasbag48
(g64
g50
NtRp2546
(dp2547
g53
(dp2548
sg62
g2014
sg55
(lp2549
g48
(g69
g50
NtRp2550
(dp2551
g53
(dp2552
g73
g74
ssg62
g2546
sg55
(lp2553
S'wsgi.run_once'
p2554
asbag48
(g69
g50
NtRp2555
(dp2556
g53
(dp2557
g80
g81
ssg62
g2546
sg55
(lp2558
S':'
asbag48
(g69
g50
NtRp2559
(dp2560
g53
(dp2561
sg62
g2546
sg55
(lp2562
g48
(g49
g50
NtRp2563
(dp2564
g53
(dp2565
g61
I3
ssg62
g2559
sg55
(lp2566
g91
asbasbasbag48
(g64
g50
NtRp2567
(dp2568
g53
(dp2569
sg62
g2014
sg55
(lp2570
g48
(g69
g50
NtRp2571
(dp2572
g53
(dp2573
g73
g74
ssg62
g2567
sg55
(lp2574
S'wsgi.url_scheme'
p2575
asbag48
(g69
g50
NtRp2576
(dp2577
g53
(dp2578
g80
g81
ssg62
g2567
sg55
(lp2579
S':'
asbag48
(g69
g50
NtRp2580
(dp2581
g53
(dp2582
sg62
g2567
sg55
(lp2583
g48
(g49
g50
NtRp2584
(dp2585
g53
(dp2586
g61
I3
ssg62
g2580
sg55
(lp2587
g1566
asbasbasbag48
(g64
g50
NtRp2588
(dp2589
g53
(dp2590
sg62
g2014
sg55
(lp2591
g48
(g69
g50
NtRp2592
(dp2593
g53
(dp2594
g73
g74
ssg62
g2588
sg55
(lp2595
S'wsgi.version'
p2596
asbag48
(g69
g50
NtRp2597
(dp2598
g53
(dp2599
g80
g81
ssg62
g2588
sg55
(lp2600
S':'
asbag48
(g69
g50
NtRp2601
(dp2602
g53
(dp2603
sg62
g2588
sg55
(lp2604
g48
(g49
g50
NtRp2605
(dp2606
g53
(dp2607
g61
I3
ssg62
g2601
sg55
(lp2608
S'1'
asbasbasbasbasbasbasbasbasbasbasbasbasbsS'frames'
p2609
(lp2610
(dp2611
S'file'
p2612
S'C:\\Users\\AKSHAY\\Desktop\\web2py\\gluon\\restricted.py'
p2613
sS'dump'
p2614
(dp2615
sS'lnum'
p2616
I192
sS'lines'
p2617
(dp2618
sS'call'
p2619
S'(code=\'response.write(\\\'<!DOCTYPE html>\\\\n<html lang="\\\', ...t   -->    \\\\n  </body>\\\\n</html>\\\\n\\\', escape=False)\', environment={\'A\': <class \'gluon.html.A\'>, \'Auth\': <class \'gluon.tools.Auth\'>, \'B\': <class \'gluon.html.B\'>, \'BEAUTIFY\': <class \'gluon.html.BEAUTIFY\'>, \'BODY\': <class \'gluon.html.BODY\'>, \'BR\': <class \'gluon.html.BR\'>, \'BUTTON\': <class \'gluon.html.BUTTON\'>, \'CENTER\': <class \'gluon.html.CENTER\'>, \'CLEANUP\': <class \'gluon.validators.CLEANUP\'>, \'CODE\': <class \'gluon.html.CODE\'>, ...}, layer=r\'C:\\Users\\AKSHAY\\Desktop\\web2py\\applications\\201056161\\views\\default/q3s.html\')'
p2620
sS'func'
p2621
S'restricted'
p2622
sa(dp2623
g2612
S'C:\\Users\\AKSHAY\\Desktop\\web2py\\applications\\201056161\\views\\default\\q3s.html'
p2624
sg2614
(dp2625
sg2616
I103
sg2617
(dp2626
I96
S'    pass'
p2627
sI97
S'response.write(\'\\n\\n\\t  <!-- content -->\\n\\t  <div id="content" \', escape=False)'
p2628
sI98
S'response.write(XML(style_content))'
p2629
sI99
S"response.write(' >\\n\\t    ', escape=False)"
p2630
sI100
S"response.write('\\r\\n', escape=False)"
p2631
sI101
S'for row in rows:'
p2632
sI102
S"    response.write('\\r\\n  ', escape=False)"
p2633
sI103
S'    response.write(LI(A("%s" %(row.name),_href=URL(r=request,f=\'song_details?id=%d\' %(row.id)))))'
p2634
sI104
S"    response.write('\\r\\n  </br>\\r\\n', escape=False)"
p2635
sI105
S'    pass'
p2636
sI106
S"response.write('\\r\\n', escape=False)"
p2637
sI107
S"response.write('\\t\\n\\t  </div>\\n\\t  <!-- content -->\\n\\n\\t  ', escape=False)"
p2638
sI108
S'if right_sidebar_enabled:'
p2639
sI109
S'    response.write(\'\\n          <div id="right_sidebar" \', escape=False)'
p2640
sI110
S'    response.write(XML(right_sidebar_style))'
p2641
sI111
S'    response.write(\' >\\n            <div style="padding: 4px;">\\n              \', escape=False)'
p2642
sI112
S"    response.write('Content Right Sidebar', escape=False)"
p2643
sI113
S"    response.write('\\n            </div>\\n\\t  </div><!-- right_sidebar -->\\n          ', escape=False)"
p2644
sI94
S"    response.write('Content Left Sidebar', escape=False)"
p2645
sI95
S"    response.write('\\t\\t  \\n            </div>\\n          </div><!-- left_sidebar -->\\n\\t  ', escape=False)"
p2646
ssg2619
S'()'
p2647
sg2621
S'<module>'
p2648
sa(dp2649
g2612
S'C:\\Users\\AKSHAY\\Desktop\\web2py\\gluon\\dal.py'
p2650
sg2614
(dp2651
sg2616
I3710
sg2617
(dp2652
sg2619
S"(self=<Row {'name': 'Maanikya Veenaam'}>, key='id')"
p2653
sg2621
S'__getattr__'
p2654
sa(dp2655
g2612
S'C:\\Users\\AKSHAY\\Desktop\\web2py\\gluon\\dal.py'
p2656
sg2614
(dp2657
sg2616
I3701
sg2617
(dp2658
sg2619
S"(self=<Row {'name': 'Maanikya Veenaam'}>, key='id')"
p2659
sg2621
g19
sasS'pyver'
p2660
S'Python 2.5.4: C:\\Users\\AKSHAY\\Desktop\\web2py\\web2py.exe'
p2661
sS'session'
p2662
g48
(g49
g50
NtRp2663
(dp2664
g53
(dp2665
sg55
(lp2666
g48
(g57
g50
NtRp2667
(dp2668
g53
(dp2669
g61
I5
ssg62
Nsg55
(lp2670
g48
(g64
g50
NtRp2671
(dp2672
g53
(dp2673
sg62
g2667
sg55
(lp2674
g48
(g69
g50
NtRp2675
(dp2676
g53
(dp2677
g73
g74
ssg62
g2671
sg55
(lp2678
S'last_query'
p2679
asbag48
(g69
g50
NtRp2680
(dp2681
g53
(dp2682
g80
g81
ssg62
g2671
sg55
(lp2683
S':'
asbag48
(g69
g50
NtRp2684
(dp2685
g53
(dp2686
sg62
g2671
sg55
(lp2687
g48
(g49
g50
NtRp2688
(dp2689
g53
(dp2690
g61
I5
ssg62
g2684
sg55
(lp2691
S'db.song.id>0'
p2692
asbasbasbasbasbsS'etype'
p2693
S"<type 'exceptions.KeyError'>"
p2694
sS'date'
p2695
S'Wed Sep 07 03:32:35 2011'
p2696
sS'response'
p2697
g48
(g49
g50
NtRp2698
(dp2699
g53
(dp2700
sg55
(lp2701
g48
(g57
g50
NtRp2702
(dp2703
g53
(dp2704
g61
I5
ssg62
Nsg55
(lp2705
g48
(g64
g50
NtRp2706
(dp2707
g53
(dp2708
sg62
g2702
sg55
(lp2709
g48
(g69
g50
NtRp2710
(dp2711
g53
(dp2712
g73
g74
ssg62
g2706
sg55
(lp2713
g146
asbag48
(g69
g50
NtRp2714
(dp2715
g53
(dp2716
g80
g81
ssg62
g2706
sg55
(lp2717
S':'
asbag48
(g69
g50
NtRp2718
(dp2719
g53
(dp2720
sg62
g2706
sg55
(lp2721
g48
(g49
g50
NtRp2722
(dp2723
g53
(dp2724
g61
I5
ssg62
g2718
sg55
(lp2725
S'<cStringIO.StringO object at 0x06AB1880>'
p2726
asbasbasbag48
(g64
g50
NtRp2727
(dp2728
g53
(dp2729
sg62
g2702
sg55
(lp2730
g48
(g69
g50
NtRp2731
(dp2732
g53
(dp2733
g73
g74
ssg62
g2727
sg55
(lp2734
g212
asbag48
(g69
g50
NtRp2735
(dp2736
g53
(dp2737
g80
g81
ssg62
g2727
sg55
(lp2738
S':'
asbag48
(g69
g50
NtRp2739
(dp2740
g53
(dp2741
sg62
g2727
sg55
(lp2742
g48
(g49
g50
NtRp2743
(dp2744
g53
(dp2745
g61
I5
ssg62
g2739
sg55
(lp2746
g48
(g57
g50
NtRp2747
(dp2748
g53
(dp2749
g61
I4
ssg62
Nsg55
(lp2750
g48
(g64
g50
NtRp2751
(dp2752
g53
(dp2753
sg62
g2747
sg55
(lp2754
g48
(g69
g50
NtRp2755
(dp2756
g53
(dp2757
g73
g74
ssg62
g2751
sg55
(lp2758
S'session_id_201056161'
p2759
asbag48
(g69
g50
NtRp2760
(dp2761
g53
(dp2762
g80
g81
ssg62
g2751
sg55
(lp2763
S':'
asbag48
(g69
g50
NtRp2764
(dp2765
g53
(dp2766
sg62
g2751
sg55
(lp2767
g48
(g49
g50
NtRp2768
(dp2769
g53
(dp2770
g61
I4
ssg62
g2764
sg55
(lp2771
g48
(g57
g50
NtRp2772
(dp2773
g53
(dp2774
g61
I3
ssg62
Nsg55
(lp2775
g48
(g64
g50
NtRp2776
(dp2777
g53
(dp2778
sg62
g2772
sg55
(lp2779
g48
(g69
g50
NtRp2780
(dp2781
g53
(dp2782
g73
g74
ssg62
g2776
sg55
(lp2783
g262
asbag48
(g69
g50
NtRp2784
(dp2785
g53
(dp2786
g80
g81
ssg62
g2776
sg55
(lp2787
S':'
asbag48
(g69
g50
NtRp2788
(dp2789
g53
(dp2790
sg62
g2776
sg55
(lp2791
g48
(g49
g50
NtRp2792
(dp2793
g53
(dp2794
g61
I3
ssg62
g2788
sg55
(lp2795
S''
asbasbasbag48
(g64
g50
NtRp2796
(dp2797
g53
(dp2798
sg62
g2772
sg55
(lp2799
g48
(g69
g50
NtRp2800
(dp2801
g53
(dp2802
g73
g74
ssg62
g2796
sg55
(lp2803
g283
asbag48
(g69
g50
NtRp2804
(dp2805
g53
(dp2806
g80
g81
ssg62
g2796
sg55
(lp2807
S':'
asbag48
(g69
g50
NtRp2808
(dp2809
g53
(dp2810
sg62
g2796
sg55
(lp2811
g48
(g49
g50
NtRp2812
(dp2813
g53
(dp2814
g61
I3
ssg62
g2808
sg55
(lp2815
S''
asbasbasbag48
(g64
g50
NtRp2816
(dp2817
g53
(dp2818
sg62
g2772
sg55
(lp2819
g48
(g69
g50
NtRp2820
(dp2821
g53
(dp2822
g73
g74
ssg62
g2816
sg55
(lp2823
g304
asbag48
(g69
g50
NtRp2824
(dp2825
g53
(dp2826
g80
g81
ssg62
g2816
sg55
(lp2827
S':'
asbag48
(g69
g50
NtRp2828
(dp2829
g53
(dp2830
sg62
g2816
sg55
(lp2831
g48
(g49
g50
NtRp2832
(dp2833
g53
(dp2834
g61
I3
ssg62
g2828
sg55
(lp2835
S''
asbasbasbag48
(g64
g50
NtRp2836
(dp2837
g53
(dp2838
sg62
g2772
sg55
(lp2839
g48
(g69
g50
NtRp2840
(dp2841
g53
(dp2842
g73
g74
ssg62
g2836
sg55
(lp2843
g325
asbag48
(g69
g50
NtRp2844
(dp2845
g53
(dp2846
g80
g81
ssg62
g2836
sg55
(lp2847
S':'
asbag48
(g69
g50
NtRp2848
(dp2849
g53
(dp2850
sg62
g2836
sg55
(lp2851
g48
(g49
g50
NtRp2852
(dp2853
g53
(dp2854
g61
I3
ssg62
g2848
sg55
(lp2855
S''
asbasbasbag48
(g64
g50
NtRp2856
(dp2857
g53
(dp2858
sg62
g2772
sg55
(lp2859
g48
(g69
g50
NtRp2860
(dp2861
g53
(dp2862
g73
g74
ssg62
g2856
sg55
(lp2863
g346
asbag48
(g69
g50
NtRp2864
(dp2865
g53
(dp2866
g80
g81
ssg62
g2856
sg55
(lp2867
S':'
asbag48
(g69
g50
NtRp2868
(dp2869
g53
(dp2870
sg62
g2856
sg55
(lp2871
g48
(g49
g50
NtRp2872
(dp2873
g53
(dp2874
g61
I3
ssg62
g2868
sg55
(lp2875
S'/'
asbasbasbag48
(g64
g50
NtRp2876
(dp2877
g53
(dp2878
sg62
g2772
sg55
(lp2879
g48
(g69
g50
NtRp2880
(dp2881
g53
(dp2882
g73
g74
ssg62
g2876
sg55
(lp2883
g367
asbag48
(g69
g50
NtRp2884
(dp2885
g53
(dp2886
g80
g81
ssg62
g2876
sg55
(lp2887
S':'
asbag48
(g69
g50
NtRp2888
(dp2889
g53
(dp2890
sg62
g2876
sg55
(lp2891
g48
(g49
g50
NtRp2892
(dp2893
g53
(dp2894
g61
I3
ssg62
g2888
sg55
(lp2895
S''
asbasbasbag48
(g64
g50
NtRp2896
(dp2897
g53
(dp2898
sg62
g2772
sg55
(lp2899
g48
(g69
g50
NtRp2900
(dp2901
g53
(dp2902
g73
g74
ssg62
g2896
sg55
(lp2903
g388
asbag48
(g69
g50
NtRp2904
(dp2905
g53
(dp2906
g80
g81
ssg62
g2896
sg55
(lp2907
S':'
asbag48
(g69
g50
NtRp2908
(dp2909
g53
(dp2910
sg62
g2896
sg55
(lp2911
g48
(g49
g50
NtRp2912
(dp2913
g53
(dp2914
g61
I3
ssg62
g2908
sg55
(lp2915
S''
asbasbasbasbasbasbasbasbasbasbasbag48
(g64
g50
NtRp2916
(dp2917
g53
(dp2918
sg62
g2702
sg55
(lp2919
g48
(g69
g50
NtRp2920
(dp2921
g53
(dp2922
g73
g74
ssg62
g2916
sg55
(lp2923
S'files'
p2924
asbag48
(g69
g50
NtRp2925
(dp2926
g53
(dp2927
g80
g81
ssg62
g2916
sg55
(lp2928
S':'
asbag48
(g69
g50
NtRp2929
(dp2930
g53
(dp2931
sg62
g2916
sg55
(lp2932
g48
(g49
g50
NtRp2933
(dp2934
g53
(dp2935
g61
I5
ssg62
g2929
sg55
(lp2936
g48
(g57
g50
NtRp2937
(dp2938
g53
(dp2939
g61
I4
ssg62
Nsg55
(lp2940
g48
(g64
g50
NtRp2941
(dp2942
g53
(dp2943
sg62
g2937
sg55
(lp2944
g48
(g69
g50
NtRp2945
(dp2946
g53
(dp2947
sg62
g2941
sg55
(lp2948
g48
(g49
g50
NtRp2949
(dp2950
g53
(dp2951
g61
I4
ssg62
g2945
sg55
(lp2952
S'/201056161/static/js/jquery.js'
p2953
asbasbasbag48
(g64
g50
NtRp2954
(dp2955
g53
(dp2956
sg62
g2937
sg55
(lp2957
g48
(g69
g50
NtRp2958
(dp2959
g53
(dp2960
sg62
g2954
sg55
(lp2961
g48
(g49
g50
NtRp2962
(dp2963
g53
(dp2964
g61
I4
ssg62
g2958
sg55
(lp2965
S'/201056161/static/css/calendar.css'
p2966
asbasbasbag48
(g64
g50
NtRp2967
(dp2968
g53
(dp2969
sg62
g2937
sg55
(lp2970
g48
(g69
g50
NtRp2971
(dp2972
g53
(dp2973
sg62
g2967
sg55
(lp2974
g48
(g49
g50
NtRp2975
(dp2976
g53
(dp2977
g61
I4
ssg62
g2971
sg55
(lp2978
S'/201056161/static/js/calendar.js'
p2979
asbasbasbag48
(g64
g50
NtRp2980
(dp2981
g53
(dp2982
sg62
g2937
sg55
(lp2983
g48
(g69
g50
NtRp2984
(dp2985
g53
(dp2986
sg62
g2980
sg55
(lp2987
g48
(g49
g50
NtRp2988
(dp2989
g53
(dp2990
g61
I4
ssg62
g2984
sg55
(lp2991
S'/201056161/static/css/base.css'
p2992
asbasbasbag48
(g64
g50
NtRp2993
(dp2994
g53
(dp2995
sg62
g2937
sg55
(lp2996
g48
(g69
g50
NtRp2997
(dp2998
g53
(dp2999
sg62
g2993
sg55
(lp3000
g48
(g49
g50
NtRp3001
(dp3002
g53
(dp3003
g61
I4
ssg62
g2997
sg55
(lp3004
S'/201056161/static/css/superfish.css'
p3005
asbasbasbag48
(g64
g50
NtRp3006
(dp3007
g53
(dp3008
sg62
g2937
sg55
(lp3009
g48
(g69
g50
NtRp3010
(dp3011
g53
(dp3012
sg62
g3006
sg55
(lp3013
g48
(g49
g50
NtRp3014
(dp3015
g53
(dp3016
g61
I4
ssg62
g3010
sg55
(lp3017
S'/201056161/static/js/superfish.js'
p3018
asbasbasbasbasbasbasbag48
(g64
g50
NtRp3019
(dp3020
g53
(dp3021
sg62
g2702
sg55
(lp3022
g48
(g69
g50
NtRp3023
(dp3024
g53
(dp3025
g73
g74
ssg62
g3019
sg55
(lp3026
S'flash'
p3027
asbag48
(g69
g50
NtRp3028
(dp3029
g53
(dp3030
g80
g81
ssg62
g3019
sg55
(lp3031
S':'
asbag48
(g69
g50
NtRp3032
(dp3033
g53
(dp3034
sg62
g3019
sg55
(lp3035
g48
(g49
g50
NtRp3036
(dp3037
g53
(dp3038
g61
I5
ssg62
g3032
sg55
(lp3039
S''
asbasbasbag48
(g64
g50
NtRp3040
(dp3041
g53
(dp3042
sg62
g2702
sg55
(lp3043
g48
(g69
g50
NtRp3044
(dp3045
g53
(dp3046
g73
g74
ssg62
g3040
sg55
(lp3047
S'generic_patterns'
p3048
asbag48
(g69
g50
NtRp3049
(dp3050
g53
(dp3051
g80
g81
ssg62
g3040
sg55
(lp3052
S':'
asbag48
(g69
g50
NtRp3053
(dp3054
g53
(dp3055
sg62
g3040
sg55
(lp3056
g48
(g49
g50
NtRp3057
(dp3058
g53
(dp3059
g61
I5
ssg62
g3053
sg55
(lp3060
g48
(g57
g50
NtRp3061
(dp3062
g53
(dp3063
g61
I4
ssg62
Nsg55
(lp3064
g48
(g64
g50
NtRp3065
(dp3066
g53
(dp3067
sg62
g3061
sg55
(lp3068
g48
(g69
g50
NtRp3069
(dp3070
g53
(dp3071
sg62
g3065
sg55
(lp3072
g48
(g49
g50
NtRp3073
(dp3074
g53
(dp3075
g61
I4
ssg62
g3069
sg55
(lp3076
S'*'
asbasbasbasbasbasbasbag48
(g64
g50
NtRp3077
(dp3078
g53
(dp3079
sg62
g2702
sg55
(lp3080
g48
(g69
g50
NtRp3081
(dp3082
g53
(dp3083
g73
g74
ssg62
g3077
sg55
(lp3084
S'headers'
p3085
asbag48
(g69
g50
NtRp3086
(dp3087
g53
(dp3088
g80
g81
ssg62
g3077
sg55
(lp3089
S':'
asbag48
(g69
g50
NtRp3090
(dp3091
g53
(dp3092
sg62
g3077
sg55
(lp3093
g48
(g49
g50
NtRp3094
(dp3095
g53
(dp3096
g61
I5
ssg62
g3090
sg55
(lp3097
g48
(g57
g50
NtRp3098
(dp3099
g53
(dp3100
g61
I4
ssg62
Nsg55
(lp3101
g48
(g64
g50
NtRp3102
(dp3103
g53
(dp3104
sg62
g3098
sg55
(lp3105
g48
(g69
g50
NtRp3106
(dp3107
g53
(dp3108
g73
g74
ssg62
g3102
sg55
(lp3109
S'Cache-Control'
p3110
asbag48
(g69
g50
NtRp3111
(dp3112
g53
(dp3113
g80
g81
ssg62
g3102
sg55
(lp3114
S':'
asbag48
(g69
g50
NtRp3115
(dp3116
g53
(dp3117
sg62
g3102
sg55
(lp3118
g48
(g49
g50
NtRp3119
(dp3120
g53
(dp3121
g61
I4
ssg62
g3115
sg55
(lp3122
S'no-store, no-cache, must-revalidate, post-check=0, pre-check=0'
p3123
asbasbasbag48
(g64
g50
NtRp3124
(dp3125
g53
(dp3126
sg62
g3098
sg55
(lp3127
g48
(g69
g50
NtRp3128
(dp3129
g53
(dp3130
g73
g74
ssg62
g3124
sg55
(lp3131
S'Content-Type'
p3132
asbag48
(g69
g50
NtRp3133
(dp3134
g53
(dp3135
g80
g81
ssg62
g3124
sg55
(lp3136
S':'
asbag48
(g69
g50
NtRp3137
(dp3138
g53
(dp3139
sg62
g3124
sg55
(lp3140
g48
(g49
g50
NtRp3141
(dp3142
g53
(dp3143
g61
I4
ssg62
g3137
sg55
(lp3144
S'text/html; charset=utf-8'
p3145
asbasbasbag48
(g64
g50
NtRp3146
(dp3147
g53
(dp3148
sg62
g3098
sg55
(lp3149
g48
(g69
g50
NtRp3150
(dp3151
g53
(dp3152
g73
g74
ssg62
g3146
sg55
(lp3153
S'Expires'
p3154
asbag48
(g69
g50
NtRp3155
(dp3156
g53
(dp3157
g80
g81
ssg62
g3146
sg55
(lp3158
S':'
asbag48
(g69
g50
NtRp3159
(dp3160
g53
(dp3161
sg62
g3146
sg55
(lp3162
g48
(g49
g50
NtRp3163
(dp3164
g53
(dp3165
g61
I4
ssg62
g3159
sg55
(lp3166
S'Tue, 06 Sep 2011 22:02:35 GMT'
p3167
asbasbasbag48
(g64
g50
NtRp3168
(dp3169
g53
(dp3170
sg62
g3098
sg55
(lp3171
g48
(g69
g50
NtRp3172
(dp3173
g53
(dp3174
g73
g74
ssg62
g3168
sg55
(lp3175
S'Pragma'
p3176
asbag48
(g69
g50
NtRp3177
(dp3178
g53
(dp3179
g80
g81
ssg62
g3168
sg55
(lp3180
S':'
asbag48
(g69
g50
NtRp3181
(dp3182
g53
(dp3183
sg62
g3168
sg55
(lp3184
g48
(g49
g50
NtRp3185
(dp3186
g53
(dp3187
g61
I4
ssg62
g3181
sg55
(lp3188
S'no-cache'
p3189
asbasbasbag48
(g64
g50
NtRp3190
(dp3191
g53
(dp3192
sg62
g3098
sg55
(lp3193
g48
(g69
g50
NtRp3194
(dp3195
g53
(dp3196
g73
g74
ssg62
g3190
sg55
(lp3197
S'X-Powered-By'
p3198
asbag48
(g69
g50
NtRp3199
(dp3200
g53
(dp3201
g80
g81
ssg62
g3190
sg55
(lp3202
S':'
asbag48
(g69
g50
NtRp3203
(dp3204
g53
(dp3205
sg62
g3190
sg55
(lp3206
g48
(g49
g50
NtRp3207
(dp3208
g53
(dp3209
g61
I4
ssg62
g3203
sg55
(lp3210
S'web2py'
p3211
asbasbasbasbasbasbasbag48
(g64
g50
NtRp3212
(dp3213
g53
(dp3214
sg62
g2702
sg55
(lp3215
g48
(g69
g50
NtRp3216
(dp3217
g53
(dp3218
g73
g74
ssg62
g3212
sg55
(lp3219
S'menu'
p3220
asbag48
(g69
g50
NtRp3221
(dp3222
g53
(dp3223
g80
g81
ssg62
g3212
sg55
(lp3224
S':'
asbag48
(g69
g50
NtRp3225
(dp3226
g53
(dp3227
sg62
g3212
sg55
(lp3228
g48
(g49
g50
NtRp3229
(dp3230
g53
(dp3231
g61
I5
ssg62
g3225
sg55
(lp3232
g48
(g57
g50
NtRp3233
(dp3234
g53
(dp3235
g61
I4
ssg62
Nsg55
(lp3236
g48
(g64
g50
NtRp3237
(dp3238
g53
(dp3239
sg62
g3233
sg55
(lp3240
g48
(g69
g50
NtRp3241
(dp3242
g53
(dp3243
sg62
g3237
sg55
(lp3244
g48
(g49
g50
NtRp3245
(dp3246
g53
(dp3247
g61
I4
ssg62
g3241
sg55
(lp3248
g48
(g57
g50
NtRp3249
(dp3250
g53
(dp3251
g61
I3
ssg62
Nsg55
(lp3252
g48
(g64
g50
NtRp3253
(dp3254
g53
(dp3255
sg62
g3249
sg55
(lp3256
g48
(g69
g50
NtRp3257
(dp3258
g53
(dp3259
sg62
g3253
sg55
(lp3260
g48
(g49
g50
NtRp3261
(dp3262
g53
(dp3263
g61
I3
ssg62
g3257
sg55
(lp3264
cgluon.languages
lazyT_unpickle
p3265
(S's\x04\x00\x00\x00Home'
tRp3266
asbasbasbag48
(g64
g50
NtRp3267
(dp3268
g53
(dp3269
sg62
g3249
sg55
(lp3270
g48
(g69
g50
NtRp3271
(dp3272
g53
(dp3273
sg62
g3267
sg55
(lp3274
g48
(g49
g50
NtRp3275
(dp3276
g53
(dp3277
g61
I3
ssg62
g3271
sg55
(lp3278
g91
asbasbasbag48
(g64
g50
NtRp3279
(dp3280
g53
(dp3281
sg62
g3249
sg55
(lp3282
g48
(g69
g50
NtRp3283
(dp3284
g53
(dp3285
sg62
g3279
sg55
(lp3286
g48
(g49
g50
NtRp3287
(dp3288
g53
(dp3289
g61
I3
ssg62
g3283
sg55
(lp3290
S'/201056161/default/index'
p3291
asbasbasbag48
(g64
g50
NtRp3292
(dp3293
g53
(dp3294
sg62
g3249
sg55
(lp3295
g48
(g69
g50
NtRp3296
(dp3297
g53
(dp3298
sg62
g3292
sg55
(lp3299
g48
(g49
g50
NtRp3300
(dp3301
g53
(dp3302
g61
I3
ssg62
g3296
sg55
(lp3303
g48
(g57
g50
NtRp3304
(dp3305
g53
(dp3306
g61
I2
ssg62
Nsg55
(lp3307
sbasbasbasbasbasbasbasbag48
(g64
g50
NtRp3308
(dp3309
g53
(dp3310
sg62
g3233
sg55
(lp3311
g48
(g69
g50
NtRp3312
(dp3313
g53
(dp3314
sg62
g3308
sg55
(lp3315
g48
(g49
g50
NtRp3316
(dp3317
g53
(dp3318
g61
I4
ssg62
g3312
sg55
(lp3319
g48
(g57
g50
NtRp3320
(dp3321
g53
(dp3322
g61
I3
ssg62
Nsg55
(lp3323
g48
(g64
g50
NtRp3324
(dp3325
g53
(dp3326
sg62
g3320
sg55
(lp3327
g48
(g69
g50
NtRp3328
(dp3329
g53
(dp3330
sg62
g3324
sg55
(lp3331
g48
(g49
g50
NtRp3332
(dp3333
g53
(dp3334
g61
I3
ssg62
g3328
sg55
(lp3335
g3265
(S's\x08\x00\x00\x00This App'
tRp3336
asbasbasbag48
(g64
g50
NtRp3337
(dp3338
g53
(dp3339
sg62
g3320
sg55
(lp3340
g48
(g69
g50
NtRp3341
(dp3342
g53
(dp3343
sg62
g3337
sg55
(lp3344
g48
(g49
g50
NtRp3345
(dp3346
g53
(dp3347
g61
I3
ssg62
g3341
sg55
(lp3348
g91
asbasbasbag48
(g64
g50
NtRp3349
(dp3350
g53
(dp3351
sg62
g3320
sg55
(lp3352
g48
(g69
g50
NtRp3353
(dp3354
g53
(dp3355
sg62
g3349
sg55
(lp3356
g48
(g49
g50
NtRp3357
(dp3358
g53
(dp3359
g61
I3
ssg62
g3353
sg55
(lp3360
S'/admin/default/design/201056161'
p3361
asbasbasbag48
(g64
g50
NtRp3362
(dp3363
g53
(dp3364
sg62
g3320
sg55
(lp3365
g48
(g69
g50
NtRp3366
(dp3367
g53
(dp3368
sg62
g3362
sg55
(lp3369
g48
(g49
g50
NtRp3370
(dp3371
g53
(dp3372
g61
I3
ssg62
g3366
sg55
(lp3373
g48
(g57
g50
NtRp3374
(dp3375
g53
(dp3376
g61
I2
ssg62
Nsg55
(lp3377
g48
(g64
g50
NtRp3378
(dp3379
g53
(dp3380
sg62
g3374
sg55
(lp3381
g48
(g69
g50
NtRp3382
(dp3383
g53
(dp3384
sg62
g3378
sg55
(lp3385
g48
(g49
g50
NtRp3386
(dp3387
g53
(dp3388
g61
I2
ssg62
g3382
sg55
(lp3389
g48
(g57
g50
NtRp3390
(dp3391
g53
(dp3392
g61
I1
ssg62
Nsg55
(lp3393
g48
(g64
g50
NtRp3394
(dp3395
g53
(dp3396
sg62
g3390
sg55
(lp3397
g48
(g69
g50
NtRp3398
(dp3399
g53
(dp3400
sg62
g3394
sg55
(lp3401
g48
(g49
g50
NtRp3402
(dp3403
g53
(dp3404
g61
I1
ssg62
g3398
sg55
(lp3405
g3265
(S's\n\x00\x00\x00Controller'
tRp3406
asbasbasbag48
(g64
g50
NtRp3407
(dp3408
g53
(dp3409
sg62
g3390
sg55
(lp3410
g48
(g69
g50
NtRp3411
(dp3412
g53
(dp3413
sg62
g3407
sg55
(lp3414
g48
(g49
g50
NtRp3415
(dp3416
g53
(dp3417
g61
I1
ssg62
g3411
sg55
(lp3418
I00
asbasbasbag48
(g64
g50
NtRp3419
(dp3420
g53
(dp3421
sg62
g3390
sg55
(lp3422
g48
(g69
g50
NtRp3423
(dp3424
g53
(dp3425
sg62
g3419
sg55
(lp3426
g48
(g49
g50
NtRp3427
(dp3428
g53
(dp3429
g61
I1
ssg62
g3423
sg55
(lp3430
S'/admin/default/edit/201056161/controllers/default.py'
p3431
asbasbasbasbasbasbasbag48
(g64
g50
NtRp3432
(dp3433
g53
(dp3434
sg62
g3374
sg55
(lp3435
g48
(g69
g50
NtRp3436
(dp3437
g53
(dp3438
sg62
g3432
sg55
(lp3439
g48
(g49
g50
NtRp3440
(dp3441
g53
(dp3442
g61
I2
ssg62
g3436
sg55
(lp3443
g48
(g57
g50
NtRp3444
(dp3445
g53
(dp3446
g61
I1
ssg62
Nsg55
(lp3447
g48
(g64
g50
NtRp3448
(dp3449
g53
(dp3450
sg62
g3444
sg55
(lp3451
g48
(g69
g50
NtRp3452
(dp3453
g53
(dp3454
sg62
g3448
sg55
(lp3455
g48
(g49
g50
NtRp3456
(dp3457
g53
(dp3458
g61
I1
ssg62
g3452
sg55
(lp3459
g3265
(S's\x04\x00\x00\x00View'
tRp3460
asbasbasbag48
(g64
g50
NtRp3461
(dp3462
g53
(dp3463
sg62
g3444
sg55
(lp3464
g48
(g69
g50
NtRp3465
(dp3466
g53
(dp3467
sg62
g3461
sg55
(lp3468
g48
(g49
g50
NtRp3469
(dp3470
g53
(dp3471
g61
I1
ssg62
g3465
sg55
(lp3472
I00
asbasbasbag48
(g64
g50
NtRp3473
(dp3474
g53
(dp3475
sg62
g3444
sg55
(lp3476
g48
(g69
g50
NtRp3477
(dp3478
g53
(dp3479
sg62
g3473
sg55
(lp3480
g48
(g49
g50
NtRp3481
(dp3482
g53
(dp3483
g61
I1
ssg62
g3477
sg55
(lp3484
S'/admin/default/edit/201056161/views/default/q3s.html'
p3485
asbasbasbasbasbasbasbag48
(g64
g50
NtRp3486
(dp3487
g53
(dp3488
sg62
g3374
sg55
(lp3489
g48
(g69
g50
NtRp3490
(dp3491
g53
(dp3492
sg62
g3486
sg55
(lp3493
g48
(g49
g50
NtRp3494
(dp3495
g53
(dp3496
g61
I2
ssg62
g3490
sg55
(lp3497
g48
(g57
g50
NtRp3498
(dp3499
g53
(dp3500
g61
I1
ssg62
Nsg55
(lp3501
g48
(g64
g50
NtRp3502
(dp3503
g53
(dp3504
sg62
g3498
sg55
(lp3505
g48
(g69
g50
NtRp3506
(dp3507
g53
(dp3508
sg62
g3502
sg55
(lp3509
g48
(g49
g50
NtRp3510
(dp3511
g53
(dp3512
g61
I1
ssg62
g3506
sg55
(lp3513
g3265
(S's\x06\x00\x00\x00Layout'
tRp3514
asbasbasbag48
(g64
g50
NtRp3515
(dp3516
g53
(dp3517
sg62
g3498
sg55
(lp3518
g48
(g69
g50
NtRp3519
(dp3520
g53
(dp3521
sg62
g3515
sg55
(lp3522
g48
(g49
g50
NtRp3523
(dp3524
g53
(dp3525
g61
I1
ssg62
g3519
sg55
(lp3526
I00
asbasbasbag48
(g64
g50
NtRp3527
(dp3528
g53
(dp3529
sg62
g3498
sg55
(lp3530
g48
(g69
g50
NtRp3531
(dp3532
g53
(dp3533
sg62
g3527
sg55
(lp3534
g48
(g49
g50
NtRp3535
(dp3536
g53
(dp3537
g61
I1
ssg62
g3531
sg55
(lp3538
S'/admin/default/edit/201056161/views/layout.html'
p3539
asbasbasbasbasbasbasbag48
(g64
g50
NtRp3540
(dp3541
g53
(dp3542
sg62
g3374
sg55
(lp3543
g48
(g69
g50
NtRp3544
(dp3545
g53
(dp3546
sg62
g3540
sg55
(lp3547
g48
(g49
g50
NtRp3548
(dp3549
g53
(dp3550
g61
I2
ssg62
g3544
sg55
(lp3551
g48
(g57
g50
NtRp3552
(dp3553
g53
(dp3554
g61
I1
ssg62
Nsg55
(lp3555
g48
(g64
g50
NtRp3556
(dp3557
g53
(dp3558
sg62
g3552
sg55
(lp3559
g48
(g69
g50
NtRp3560
(dp3561
g53
(dp3562
sg62
g3556
sg55
(lp3563
g48
(g49
g50
NtRp3564
(dp3565
g53
(dp3566
g61
I1
ssg62
g3560
sg55
(lp3567
g3265
(S's\n\x00\x00\x00Stylesheet'
tRp3568
asbasbasbag48
(g64
g50
NtRp3569
(dp3570
g53
(dp3571
sg62
g3552
sg55
(lp3572
g48
(g69
g50
NtRp3573
(dp3574
g53
(dp3575
sg62
g3569
sg55
(lp3576
g48
(g49
g50
NtRp3577
(dp3578
g53
(dp3579
g61
I1
ssg62
g3573
sg55
(lp3580
I00
asbasbasbag48
(g64
g50
NtRp3581
(dp3582
g53
(dp3583
sg62
g3552
sg55
(lp3584
g48
(g69
g50
NtRp3585
(dp3586
g53
(dp3587
sg62
g3581
sg55
(lp3588
g48
(g49
g50
NtRp3589
(dp3590
g53
(dp3591
g61
I1
ssg62
g3585
sg55
(lp3592
S'/admin/default/edit/201056161/static/base.css'
p3593
asbasbasbasbasbasbasbag48
(g64
g50
NtRp3594
(dp3595
g53
(dp3596
sg62
g3374
sg55
(lp3597
g48
(g69
g50
NtRp3598
(dp3599
g53
(dp3600
sg62
g3594
sg55
(lp3601
g48
(g49
g50
NtRp3602
(dp3603
g53
(dp3604
g61
I2
ssg62
g3598
sg55
(lp3605
g48
(g57
g50
NtRp3606
(dp3607
g53
(dp3608
g61
I1
ssg62
Nsg55
(lp3609
g48
(g64
g50
NtRp3610
(dp3611
g53
(dp3612
sg62
g3606
sg55
(lp3613
g48
(g69
g50
NtRp3614
(dp3615
g53
(dp3616
sg62
g3610
sg55
(lp3617
g48
(g49
g50
NtRp3618
(dp3619
g53
(dp3620
g61
I1
ssg62
g3614
sg55
(lp3621
g3265
(S's\x08\x00\x00\x00DB Model'
tRp3622
asbasbasbag48
(g64
g50
NtRp3623
(dp3624
g53
(dp3625
sg62
g3606
sg55
(lp3626
g48
(g69
g50
NtRp3627
(dp3628
g53
(dp3629
sg62
g3623
sg55
(lp3630
g48
(g49
g50
NtRp3631
(dp3632
g53
(dp3633
g61
I1
ssg62
g3627
sg55
(lp3634
I00
asbasbasbag48
(g64
g50
NtRp3635
(dp3636
g53
(dp3637
sg62
g3606
sg55
(lp3638
g48
(g69
g50
NtRp3639
(dp3640
g53
(dp3641
sg62
g3635
sg55
(lp3642
g48
(g49
g50
NtRp3643
(dp3644
g53
(dp3645
g61
I1
ssg62
g3639
sg55
(lp3646
S'/admin/default/edit/201056161/models/db.py'
p3647
asbasbasbasbasbasbasbag48
(g64
g50
NtRp3648
(dp3649
g53
(dp3650
sg62
g3374
sg55
(lp3651
g48
(g69
g50
NtRp3652
(dp3653
g53
(dp3654
sg62
g3648
sg55
(lp3655
g48
(g49
g50
NtRp3656
(dp3657
g53
(dp3658
g61
I2
ssg62
g3652
sg55
(lp3659
g48
(g57
g50
NtRp3660
(dp3661
g53
(dp3662
g61
I1
ssg62
Nsg55
(lp3663
g48
(g64
g50
NtRp3664
(dp3665
g53
(dp3666
sg62
g3660
sg55
(lp3667
g48
(g69
g50
NtRp3668
(dp3669
g53
(dp3670
sg62
g3664
sg55
(lp3671
g48
(g49
g50
NtRp3672
(dp3673
g53
(dp3674
g61
I1
ssg62
g3668
sg55
(lp3675
g3265
(S's\n\x00\x00\x00Menu Model'
tRp3676
asbasbasbag48
(g64
g50
NtRp3677
(dp3678
g53
(dp3679
sg62
g3660
sg55
(lp3680
g48
(g69
g50
NtRp3681
(dp3682
g53
(dp3683
sg62
g3677
sg55
(lp3684
g48
(g49
g50
NtRp3685
(dp3686
g53
(dp3687
g61
I1
ssg62
g3681
sg55
(lp3688
I00
asbasbasbag48
(g64
g50
NtRp3689
(dp3690
g53
(dp3691
sg62
g3660
sg55
(lp3692
g48
(g69
g50
NtRp3693
(dp3694
g53
(dp3695
sg62
g3689
sg55
(lp3696
g48
(g49
g50
NtRp3697
(dp3698
g53
(dp3699
g61
I1
ssg62
g3693
sg55
(lp3700
S'/admin/default/edit/201056161/models/menu.py'
p3701
asbasbasbasbasbasbasbag48
(g64
g50
NtRp3702
(dp3703
g53
(dp3704
sg62
g3374
sg55
(lp3705
g48
(g69
g50
NtRp3706
(dp3707
g53
(dp3708
sg62
g3702
sg55
(lp3709
g48
(g49
g50
NtRp3710
(dp3711
g53
(dp3712
g61
I2
ssg62
g3706
sg55
(lp3713
g48
(g57
g50
NtRp3714
(dp3715
g53
(dp3716
g61
I1
ssg62
Nsg55
(lp3717
g48
(g64
g50
NtRp3718
(dp3719
g53
(dp3720
sg62
g3714
sg55
(lp3721
g48
(g69
g50
NtRp3722
(dp3723
g53
(dp3724
sg62
g3718
sg55
(lp3725
g48
(g49
g50
NtRp3726
(dp3727
g53
(dp3728
g61
I1
ssg62
g3722
sg55
(lp3729
g3265
(S's\x08\x00\x00\x00Database'
tRp3730
asbasbasbag48
(g64
g50
NtRp3731
(dp3732
g53
(dp3733
sg62
g3714
sg55
(lp3734
g48
(g69
g50
NtRp3735
(dp3736
g53
(dp3737
sg62
g3731
sg55
(lp3738
g48
(g49
g50
NtRp3739
(dp3740
g53
(dp3741
g61
I1
ssg62
g3735
sg55
(lp3742
I00
asbasbasbag48
(g64
g50
NtRp3743
(dp3744
g53
(dp3745
sg62
g3714
sg55
(lp3746
g48
(g69
g50
NtRp3747
(dp3748
g53
(dp3749
sg62
g3743
sg55
(lp3750
g48
(g49
g50
NtRp3751
(dp3752
g53
(dp3753
g61
I1
ssg62
g3747
sg55
(lp3754
S'/201056161/appadmin/index'
p3755
asbasbasbasbasbasbasbag48
(g64
g50
NtRp3756
(dp3757
g53
(dp3758
sg62
g3374
sg55
(lp3759
g48
(g69
g50
NtRp3760
(dp3761
g53
(dp3762
sg62
g3756
sg55
(lp3763
g48
(g49
g50
NtRp3764
(dp3765
g53
(dp3766
g61
I2
ssg62
g3760
sg55
(lp3767
g48
(g57
g50
NtRp3768
(dp3769
g53
(dp3770
g61
I1
ssg62
Nsg55
(lp3771
g48
(g64
g50
NtRp3772
(dp3773
g53
(dp3774
sg62
g3768
sg55
(lp3775
g48
(g69
g50
NtRp3776
(dp3777
g53
(dp3778
sg62
g3772
sg55
(lp3779
g48
(g49
g50
NtRp3780
(dp3781
g53
(dp3782
g61
I1
ssg62
g3776
sg55
(lp3783
g3265
(S's\x06\x00\x00\x00Errors'
tRp3784
asbasbasbag48
(g64
g50
NtRp3785
(dp3786
g53
(dp3787
sg62
g3768
sg55
(lp3788
g48
(g69
g50
NtRp3789
(dp3790
g53
(dp3791
sg62
g3785
sg55
(lp3792
g48
(g49
g50
NtRp3793
(dp3794
g53
(dp3795
g61
I1
ssg62
g3789
sg55
(lp3796
I00
asbasbasbag48
(g64
g50
NtRp3797
(dp3798
g53
(dp3799
sg62
g3768
sg55
(lp3800
g48
(g69
g50
NtRp3801
(dp3802
g53
(dp3803
sg62
g3797
sg55
(lp3804
g48
(g49
g50
NtRp3805
(dp3806
g53
(dp3807
g61
I1
ssg62
g3801
sg55
(lp3808
S'/admin/default/errors/201056161'
p3809
asbasbasbasbasbasbasbag48
(g64
g50
NtRp3810
(dp3811
g53
(dp3812
sg62
g3374
sg55
(lp3813
g48
(g69
g50
NtRp3814
(dp3815
g53
(dp3816
sg62
g3810
sg55
(lp3817
g48
(g49
g50
NtRp3818
(dp3819
g53
(dp3820
g61
I2
ssg62
g3814
sg55
(lp3821
g48
(g57
g50
NtRp3822
(dp3823
g53
(dp3824
g61
I1
ssg62
Nsg55
(lp3825
g48
(g64
g50
NtRp3826
(dp3827
g53
(dp3828
sg62
g3822
sg55
(lp3829
g48
(g69
g50
NtRp3830
(dp3831
g53
(dp3832
sg62
g3826
sg55
(lp3833
g48
(g49
g50
NtRp3834
(dp3835
g53
(dp3836
g61
I1
ssg62
g3830
sg55
(lp3837
g3265
(S's\x05\x00\x00\x00About'
tRp3838
asbasbasbag48
(g64
g50
NtRp3839
(dp3840
g53
(dp3841
sg62
g3822
sg55
(lp3842
g48
(g69
g50
NtRp3843
(dp3844
g53
(dp3845
sg62
g3839
sg55
(lp3846
g48
(g49
g50
NtRp3847
(dp3848
g53
(dp3849
g61
I1
ssg62
g3843
sg55
(lp3850
I00
asbasbasbag48
(g64
g50
NtRp3851
(dp3852
g53
(dp3853
sg62
g3822
sg55
(lp3854
g48
(g69
g50
NtRp3855
(dp3856
g53
(dp3857
sg62
g3851
sg55
(lp3858
g48
(g49
g50
NtRp3859
(dp3860
g53
(dp3861
g61
I1
ssg62
g3855
sg55
(lp3862
S'/admin/default/about/201056161'
p3863
asbasbasbasbasbasbasbasbasbasbasbasbasbasbasbag48
(g64
g50
NtRp3864
(dp3865
g53
(dp3866
sg62
g3233
sg55
(lp3867
g48
(g69
g50
NtRp3868
(dp3869
g53
(dp3870
sg62
g3864
sg55
(lp3871
g48
(g49
g50
NtRp3872
(dp3873
g53
(dp3874
g61
I4
ssg62
g3868
sg55
(lp3875
g48
(g57
g50
NtRp3876
(dp3877
g53
(dp3878
g61
I3
ssg62
Nsg55
(lp3879
g48
(g64
g50
NtRp3880
(dp3881
g53
(dp3882
sg62
g3876
sg55
(lp3883
g48
(g69
g50
NtRp3884
(dp3885
g53
(dp3886
sg62
g3880
sg55
(lp3887
g48
(g49
g50
NtRp3888
(dp3889
g53
(dp3890
g61
I3
ssg62
g3884
sg55
(lp3891
g3265
(S's\t\x00\x00\x00Resources'
tRp3892
asbasbasbag48
(g64
g50
NtRp3893
(dp3894
g53
(dp3895
sg62
g3876
sg55
(lp3896
g48
(g69
g50
NtRp3897
(dp3898
g53
(dp3899
sg62
g3893
sg55
(lp3900
g48
(g49
g50
NtRp3901
(dp3902
g53
(dp3903
g61
I3
ssg62
g3897
sg55
(lp3904
g91
asbasbasbag48
(g64
g50
NtRp3905
(dp3906
g53
(dp3907
sg62
g3876
sg55
(lp3908
g48
(g69
g50
NtRp3909
(dp3910
g53
(dp3911
sg62
g3905
sg55
(lp3912
g48
(g49
g50
NtRp3913
(dp3914
g53
(dp3915
g61
I3
ssg62
g3909
sg55
(lp3916
S'None'
p3917
asbasbasbag48
(g64
g50
NtRp3918
(dp3919
g53
(dp3920
sg62
g3876
sg55
(lp3921
g48
(g69
g50
NtRp3922
(dp3923
g53
(dp3924
sg62
g3918
sg55
(lp3925
g48
(g49
g50
NtRp3926
(dp3927
g53
(dp3928
g61
I3
ssg62
g3922
sg55
(lp3929
g48
(g57
g50
NtRp3930
(dp3931
g53
(dp3932
g61
I2
ssg62
Nsg55
(lp3933
g48
(g64
g50
NtRp3934
(dp3935
g53
(dp3936
sg62
g3930
sg55
(lp3937
g48
(g69
g50
NtRp3938
(dp3939
g53
(dp3940
sg62
g3934
sg55
(lp3941
g48
(g49
g50
NtRp3942
(dp3943
g53
(dp3944
g61
I2
ssg62
g3938
sg55
(lp3945
g48
(g57
g50
NtRp3946
(dp3947
g53
(dp3948
g61
I1
ssg62
Nsg55
(lp3949
g48
(g64
g50
NtRp3950
(dp3951
g53
(dp3952
sg62
g3946
sg55
(lp3953
g48
(g69
g50
NtRp3954
(dp3955
g53
(dp3956
sg62
g3950
sg55
(lp3957
g48
(g49
g50
NtRp3958
(dp3959
g53
(dp3960
g61
I1
ssg62
g3954
sg55
(lp3961
g3265
(S's\r\x00\x00\x00Documentation'
tRp3962
asbasbasbag48
(g64
g50
NtRp3963
(dp3964
g53
(dp3965
sg62
g3946
sg55
(lp3966
g48
(g69
g50
NtRp3967
(dp3968
g53
(dp3969
sg62
g3963
sg55
(lp3970
g48
(g49
g50
NtRp3971
(dp3972
g53
(dp3973
g61
I1
ssg62
g3967
sg55
(lp3974
I00
asbasbasbag48
(g64
g50
NtRp3975
(dp3976
g53
(dp3977
sg62
g3946
sg55
(lp3978
g48
(g69
g50
NtRp3979
(dp3980
g53
(dp3981
sg62
g3975
sg55
(lp3982
g48
(g49
g50
NtRp3983
(dp3984
g53
(dp3985
g61
I1
ssg62
g3979
sg55
(lp3986
S'http://www.web2py.com/book'
p3987
asbasbasbag48
(g64
g50
NtRp3988
(dp3989
g53
(dp3990
sg62
g3946
sg55
(lp3991
g48
(g69
g50
NtRp3992
(dp3993
g53
(dp3994
sg62
g3988
sg55
(lp3995
g48
(g49
g50
NtRp3996
(dp3997
g53
(dp3998
g61
I1
ssg62
g3992
sg55
(lp3999
(lp4000
(g3265
(S's\x07\x00\x00\x00Preface'
tRp4001
I00
S'http://www.web2py.com/book/default/chapter/00'
tp4002
a(g3265
(S's\x0c\x00\x00\x00Introduction'
tRp4003
I00
S'http://www.web2py.com/book/default/chapter/01'
tp4004
a(g3265
(S's\x06\x00\x00\x00Python'
tRp4005
I00
S'http://www.web2py.com/book/default/chapter/02'
tp4006
a(g3265
(S's\x08\x00\x00\x00Overview'
tRp4007
I00
S'http://www.web2py.com/book/default/chapter/03'
tp4008
a(g3265
(S's\x08\x00\x00\x00The Core'
tRp4009
I00
S'http://www.web2py.com/book/default/chapter/04'
tp4010
a(g3265
(S's\t\x00\x00\x00The Views'
tRp4011
I00
S'http://www.web2py.com/book/default/chapter/05'
tp4012
a(g3265
(S's\x08\x00\x00\x00Database'
tRp4013
I00
S'http://www.web2py.com/book/default/chapter/06'
tp4014
a(g3265
(S's\x14\x00\x00\x00Forms and Validators'
tRp4015
I00
S'http://www.web2py.com/book/default/chapter/07'
tp4016
a(g3265
(S's\x0e\x00\x00\x00Access Control'
tRp4017
I00
S'http://www.web2py.com/book/default/chapter/08'
tp4018
a(g3265
(S's\x08\x00\x00\x00Services'
tRp4019
I00
S'http://www.web2py.com/book/default/chapter/09'
tp4020
a(g3265
(S's\x0c\x00\x00\x00Ajax Recipes'
tRp4021
I00
S'http://www.web2py.com/book/default/chapter/10'
tp4022
a(g3265
(S's\x12\x00\x00\x00Deployment Recipes'
tRp4023
I00
S'http://www.web2py.com/book/default/chapter/11'
tp4024
a(g3265
(S's\r\x00\x00\x00Other Recipes'
tRp4025
I00
S'http://www.web2py.com/book/default/chapter/12'
tp4026
a(g3265
(S's\r\x00\x00\x00Buy this book'
tRp4027
I00
S'http://stores.lulu.com/web2py'
tp4028
aasbasbasbasbasbasbasbag48
(g64
g50
NtRp4029
(dp4030
g53
(dp4031
sg62
g3930
sg55
(lp4032
g48
(g69
g50
NtRp4033
(dp4034
g53
(dp4035
sg62
g4029
sg55
(lp4036
g48
(g49
g50
NtRp4037
(dp4038
g53
(dp4039
g61
I2
ssg62
g4033
sg55
(lp4040
g48
(g57
g50
NtRp4041
(dp4042
g53
(dp4043
g61
I1
ssg62
Nsg55
(lp4044
g48
(g64
g50
NtRp4045
(dp4046
g53
(dp4047
sg62
g4041
sg55
(lp4048
g48
(g69
g50
NtRp4049
(dp4050
g53
(dp4051
sg62
g4045
sg55
(lp4052
g48
(g49
g50
NtRp4053
(dp4054
g53
(dp4055
g61
I1
ssg62
g4049
sg55
(lp4056
g3265
(S's\t\x00\x00\x00Community'
tRp4057
asbasbasbag48
(g64
g50
NtRp4058
(dp4059
g53
(dp4060
sg62
g4041
sg55
(lp4061
g48
(g69
g50
NtRp4062
(dp4063
g53
(dp4064
sg62
g4058
sg55
(lp4065
g48
(g49
g50
NtRp4066
(dp4067
g53
(dp4068
g61
I1
ssg62
g4062
sg55
(lp4069
I00
asbasbasbag48
(g64
g50
NtRp4070
(dp4071
g53
(dp4072
sg62
g4041
sg55
(lp4073
g48
(g69
g50
NtRp4074
(dp4075
g53
(dp4076
sg62
g4070
sg55
(lp4077
g48
(g49
g50
NtRp4078
(dp4079
g53
(dp4080
g61
I1
ssg62
g4074
sg55
(lp4081
Nasbasbasbag48
(g64
g50
NtRp4082
(dp4083
g53
(dp4084
sg62
g4041
sg55
(lp4085
g48
(g69
g50
NtRp4086
(dp4087
g53
(dp4088
sg62
g4082
sg55
(lp4089
g48
(g49
g50
NtRp4090
(dp4091
g53
(dp4092
g61
I1
ssg62
g4086
sg55
(lp4093
(lp4094
(g3265
(S's\x06\x00\x00\x00Groups'
tRp4095
I00
S'http://www.web2py.com/examples/default/usergroups'
tp4096
a(g3265
(S's\x07\x00\x00\x00Twitter'
tRp4097
I00
S'http://twitter.com/web2py'
tp4098
a(g3265
(S's\t\x00\x00\x00Live chat'
tRp4099
I00
S'http://mibbit.com/?channel=%23web2py&server=irc.mibbit.net'
tp4100
a(g3265
(S's\n\x00\x00\x00User Voice'
tRp4101
I00
S'http://web2py.uservoice.com/'
tp4102
aasbasbasbasbasbasbasbag48
(g64
g50
NtRp4103
(dp4104
g53
(dp4105
sg62
g3930
sg55
(lp4106
g48
(g69
g50
NtRp4107
(dp4108
g53
(dp4109
sg62
g4103
sg55
(lp4110
g48
(g49
g50
NtRp4111
(dp4112
g53
(dp4113
g61
I2
ssg62
g4107
sg55
(lp4114
g48
(g57
g50
NtRp4115
(dp4116
g53
(dp4117
g61
I1
ssg62
Nsg55
(lp4118
g48
(g64
g50
NtRp4119
(dp4120
g53
(dp4121
sg62
g4115
sg55
(lp4122
g48
(g69
g50
NtRp4123
(dp4124
g53
(dp4125
sg62
g4119
sg55
(lp4126
g48
(g49
g50
NtRp4127
(dp4128
g53
(dp4129
g61
I1
ssg62
g4123
sg55
(lp4130
g3265
(S's\x06\x00\x00\x00Web2py'
tRp4131
asbasbasbag48
(g64
g50
NtRp4132
(dp4133
g53
(dp4134
sg62
g4115
sg55
(lp4135
g48
(g69
g50
NtRp4136
(dp4137
g53
(dp4138
sg62
g4132
sg55
(lp4139
g48
(g49
g50
NtRp4140
(dp4141
g53
(dp4142
g61
I1
ssg62
g4136
sg55
(lp4143
I00
asbasbasbag48
(g64
g50
NtRp4144
(dp4145
g53
(dp4146
sg62
g4115
sg55
(lp4147
g48
(g69
g50
NtRp4148
(dp4149
g53
(dp4150
sg62
g4144
sg55
(lp4151
g48
(g49
g50
NtRp4152
(dp4153
g53
(dp4154
g61
I1
ssg62
g4148
sg55
(lp4155
S'http://www.web2py.com'
p4156
asbasbasbag48
(g64
g50
NtRp4157
(dp4158
g53
(dp4159
sg62
g4115
sg55
(lp4160
g48
(g69
g50
NtRp4161
(dp4162
g53
(dp4163
sg62
g4157
sg55
(lp4164
g48
(g49
g50
NtRp4165
(dp4166
g53
(dp4167
g61
I1
ssg62
g4161
sg55
(lp4168
(lp4169
(g3265
(S's\x08\x00\x00\x00Download'
tRp4170
I00
S'http://www.web2py.com/examples/default/download'
tp4171
a(g3265
(S's\x07\x00\x00\x00Support'
tRp4172
I00
S'http://www.web2py.com/examples/default/support'
tp4173
a(g3265
(S's\x0e\x00\x00\x00Quick Examples'
tRp4174
I00
S'http://web2py.com/examples/default/examples'
tp4175
a(g3265
(S's\x03\x00\x00\x00FAQ'
tRp4176
I00
S'http://web2py.com/AlterEgo'
tp4177
a(g3265
(S's\x11\x00\x00\x00Free Applications'
tRp4178
I00
S'http://web2py.com/appliances'
tp4179
a(g3265
(S's\x07\x00\x00\x00Plugins'
tRp4180
I00
S'http://web2py.com/plugins'
tp4181
a(g3265
(S's\x07\x00\x00\x00Recipes'
tRp4182
I00
S'http://web2pyslices.com/'
tp4183
a(g3265
(S's\x04\x00\x00\x00Demo'
tRp4184
I00
S'http://web2py.com/demo_admin'
tp4185
a(g3265
(S's\x08\x00\x00\x00Semantic'
tRp4186
I00
S'http://web2py.com/semantic'
tp4187
a(g3265
(S's\x07\x00\x00\x00Layouts'
tRp4188
I00
S'http://web2py.com/layouts'
tp4189
a(g3265
(S's\x06\x00\x00\x00Videos'
tRp4190
I00
S'http://www.web2py.com/examples/default/videos/'
tp4191
aasbasbasbasbasbasbasbasbasbasbasbasbasbasbasbasbasbasbasbag48
(g64
g50
NtRp4192
(dp4193
g53
(dp4194
sg62
g2702
sg55
(lp4195
g48
(g69
g50
NtRp4196
(dp4197
g53
(dp4198
g73
g74
ssg62
g4192
sg55
(lp4199
S'meta'
p4200
asbag48
(g69
g50
NtRp4201
(dp4202
g53
(dp4203
g80
g81
ssg62
g4192
sg55
(lp4204
S':'
asbag48
(g69
g50
NtRp4205
(dp4206
g53
(dp4207
sg62
g4192
sg55
(lp4208
g48
(g49
g50
NtRp4209
(dp4210
g53
(dp4211
g61
I5
ssg62
g4205
sg55
(lp4212
g48
(g57
g50
NtRp4213
(dp4214
g53
(dp4215
g61
I4
ssg62
Nsg55
(lp4216
g48
(g64
g50
NtRp4217
(dp4218
g53
(dp4219
sg62
g4213
sg55
(lp4220
g48
(g69
g50
NtRp4221
(dp4222
g53
(dp4223
g73
g74
ssg62
g4217
sg55
(lp4224
S'author'
p4225
asbag48
(g69
g50
NtRp4226
(dp4227
g53
(dp4228
g80
g81
ssg62
g4217
sg55
(lp4229
S':'
asbag48
(g69
g50
NtRp4230
(dp4231
g53
(dp4232
sg62
g4217
sg55
(lp4233
g48
(g49
g50
NtRp4234
(dp4235
g53
(dp4236
g61
I4
ssg62
g4230
sg55
(lp4237
S'you'
p4238
asbasbasbag48
(g64
g50
NtRp4239
(dp4240
g53
(dp4241
sg62
g4213
sg55
(lp4242
g48
(g69
g50
NtRp4243
(dp4244
g53
(dp4245
g73
g74
ssg62
g4239
sg55
(lp4246
S'copyright'
p4247
asbag48
(g69
g50
NtRp4248
(dp4249
g53
(dp4250
g80
g81
ssg62
g4239
sg55
(lp4251
S':'
asbag48
(g69
g50
NtRp4252
(dp4253
g53
(dp4254
sg62
g4239
sg55
(lp4255
g48
(g49
g50
NtRp4256
(dp4257
g53
(dp4258
g61
I4
ssg62
g4252
sg55
(lp4259
S'Copyright 2007-2010'
p4260
asbasbasbag48
(g64
g50
NtRp4261
(dp4262
g53
(dp4263
sg62
g4213
sg55
(lp4264
g48
(g69
g50
NtRp4265
(dp4266
g53
(dp4267
g73
g74
ssg62
g4261
sg55
(lp4268
S'description'
p4269
asbag48
(g69
g50
NtRp4270
(dp4271
g53
(dp4272
g80
g81
ssg62
g4261
sg55
(lp4273
S':'
asbag48
(g69
g50
NtRp4274
(dp4275
g53
(dp4276
sg62
g4261
sg55
(lp4277
g48
(g49
g50
NtRp4278
(dp4279
g53
(dp4280
g61
I4
ssg62
g4274
sg55
(lp4281
S'Free and open source full-stack enterprise framework for agile development of fast, scalable, secure and portable database-driven web-based applications. Written and programmable in Python'
p4282
asbasbasbag48
(g64
g50
NtRp4283
(dp4284
g53
(dp4285
sg62
g4213
sg55
(lp4286
g48
(g69
g50
NtRp4287
(dp4288
g53
(dp4289
g73
g74
ssg62
g4283
sg55
(lp4290
S'generator'
p4291
asbag48
(g69
g50
NtRp4292
(dp4293
g53
(dp4294
g80
g81
ssg62
g4283
sg55
(lp4295
S':'
asbag48
(g69
g50
NtRp4296
(dp4297
g53
(dp4298
sg62
g4283
sg55
(lp4299
g48
(g49
g50
NtRp4300
(dp4301
g53
(dp4302
g61
I4
ssg62
g4296
sg55
(lp4303
S'Web2py Enterprise Framework'
p4304
asbasbasbag48
(g64
g50
NtRp4305
(dp4306
g53
(dp4307
sg62
g4213
sg55
(lp4308
g48
(g69
g50
NtRp4309
(dp4310
g53
(dp4311
g73
g74
ssg62
g4305
sg55
(lp4312
S'keywords'
p4313
asbag48
(g69
g50
NtRp4314
(dp4315
g53
(dp4316
g80
g81
ssg62
g4305
sg55
(lp4317
S':'
asbag48
(g69
g50
NtRp4318
(dp4319
g53
(dp4320
sg62
g4305
sg55
(lp4321
g48
(g49
g50
NtRp4322
(dp4323
g53
(dp4324
g61
I4
ssg62
g4318
sg55
(lp4325
S'web2py, python, framework'
p4326
asbasbasbasbasbasbasbag48
(g64
g50
NtRp4327
(dp4328
g53
(dp4329
sg62
g2702
sg55
(lp4330
g48
(g69
g50
NtRp4331
(dp4332
g53
(dp4333
g73
g74
ssg62
g4327
sg55
(lp4334
S'postprocessing'
p4335
asbag48
(g69
g50
NtRp4336
(dp4337
g53
(dp4338
g80
g81
ssg62
g4327
sg55
(lp4339
S':'
asbag48
(g69
g50
NtRp4340
(dp4341
g53
(dp4342
sg62
g4327
sg55
(lp4343
g48
(g49
g50
NtRp4344
(dp4345
g53
(dp4346
g61
I5
ssg62
g4340
sg55
(lp4347
g48
(g57
g50
NtRp4348
(dp4349
g53
(dp4350
g61
I4
ssg62
Nsg55
(lp4351
sbasbasbasbag48
(g64
g50
NtRp4352
(dp4353
g53
(dp4354
sg62
g2702
sg55
(lp4355
g48
(g69
g50
NtRp4356
(dp4357
g53
(dp4358
g73
g74
ssg62
g4352
sg55
(lp4359
S'session_file'
p4360
asbag48
(g69
g50
NtRp4361
(dp4362
g53
(dp4363
g80
g81
ssg62
g4352
sg55
(lp4364
S':'
asbag48
(g69
g50
NtRp4365
(dp4366
g53
(dp4367
sg62
g4352
sg55
(lp4368
g48
(g49
g50
NtRp4369
(dp4370
g53
(dp4371
g61
I5
ssg62
g4365
sg55
(lp4372
S"<open file 'C:\\Users\\AKSHAY\\Desktop\\web2py\\applications\\201056161\\sessions\\127.0.0.1-3bc821ac-4d59-41c6-8699-b3e43edfc478', mode 'rb+' at 0x06DBD4A0>"
p4373
asbasbasbag48
(g64
g50
NtRp4374
(dp4375
g53
(dp4376
sg62
g2702
sg55
(lp4377
g48
(g69
g50
NtRp4378
(dp4379
g53
(dp4380
g73
g74
ssg62
g4374
sg55
(lp4381
S'session_filename'
p4382
asbag48
(g69
g50
NtRp4383
(dp4384
g53
(dp4385
g80
g81
ssg62
g4374
sg55
(lp4386
S':'
asbag48
(g69
g50
NtRp4387
(dp4388
g53
(dp4389
sg62
g4374
sg55
(lp4390
g48
(g49
g50
NtRp4391
(dp4392
g53
(dp4393
g61
I5
ssg62
g4387
sg55
(lp4394
S'C:\\Users\\AKSHAY\\Desktop\\web2py\\applications\\201056161\\sessions\\127.0.0.1-3bc821ac-4d59-41c6-8699-b3e43edfc478'
p4395
asbasbasbag48
(g64
g50
NtRp4396
(dp4397
g53
(dp4398
sg62
g2702
sg55
(lp4399
g48
(g69
g50
NtRp4400
(dp4401
g53
(dp4402
g73
g74
ssg62
g4396
sg55
(lp4403
S'session_id'
p4404
asbag48
(g69
g50
NtRp4405
(dp4406
g53
(dp4407
g80
g81
ssg62
g4396
sg55
(lp4408
S':'
asbag48
(g69
g50
NtRp4409
(dp4410
g53
(dp4411
sg62
g4396
sg55
(lp4412
g48
(g49
g50
NtRp4413
(dp4414
g53
(dp4415
g61
I5
ssg62
g4409
sg55
(lp4416
S'127.0.0.1-3bc821ac-4d59-41c6-8699-b3e43edfc478'
p4417
asbasbasbag48
(g64
g50
NtRp4418
(dp4419
g53
(dp4420
sg62
g2702
sg55
(lp4421
g48
(g69
g50
NtRp4422
(dp4423
g53
(dp4424
g73
g74
ssg62
g4418
sg55
(lp4425
S'session_id_name'
p4426
asbag48
(g69
g50
NtRp4427
(dp4428
g53
(dp4429
g80
g81
ssg62
g4418
sg55
(lp4430
S':'
asbag48
(g69
g50
NtRp4431
(dp4432
g53
(dp4433
sg62
g4418
sg55
(lp4434
g48
(g49
g50
NtRp4435
(dp4436
g53
(dp4437
g61
I5
ssg62
g4431
sg55
(lp4438
g2759
asbasbasbag48
(g64
g50
NtRp4439
(dp4440
g53
(dp4441
sg62
g2702
sg55
(lp4442
g48
(g69
g50
NtRp4443
(dp4444
g53
(dp4445
g73
g74
ssg62
g4439
sg55
(lp4446
S'session_locked'
p4447
asbag48
(g69
g50
NtRp4448
(dp4449
g53
(dp4450
g80
g81
ssg62
g4439
sg55
(lp4451
S':'
asbag48
(g69
g50
NtRp4452
(dp4453
g53
(dp4454
sg62
g4439
sg55
(lp4455
g48
(g49
g50
NtRp4456
(dp4457
g53
(dp4458
g61
I5
ssg62
g4452
sg55
(lp4459
g1523
asbasbasbag48
(g64
g50
NtRp4460
(dp4461
g53
(dp4462
sg62
g2702
sg55
(lp4463
g48
(g69
g50
NtRp4464
(dp4465
g53
(dp4466
g73
g74
ssg62
g4460
sg55
(lp4467
S'session_new'
p4468
asbag48
(g69
g50
NtRp4469
(dp4470
g53
(dp4471
g80
g81
ssg62
g4460
sg55
(lp4472
S':'
asbag48
(g69
g50
NtRp4473
(dp4474
g53
(dp4475
sg62
g4460
sg55
(lp4476
g48
(g49
g50
NtRp4477
(dp4478
g53
(dp4479
g61
I5
ssg62
g4473
sg55
(lp4480
g91
asbasbasbag48
(g64
g50
NtRp4481
(dp4482
g53
(dp4483
sg62
g2702
sg55
(lp4484
g48
(g69
g50
NtRp4485
(dp4486
g53
(dp4487
g73
g74
ssg62
g4481
sg55
(lp4488
S'status'
p4489
asbag48
(g69
g50
NtRp4490
(dp4491
g53
(dp4492
g80
g81
ssg62
g4481
sg55
(lp4493
S':'
asbag48
(g69
g50
NtRp4494
(dp4495
g53
(dp4496
sg62
g4481
sg55
(lp4497
g48
(g49
g50
NtRp4498
(dp4499
g53
(dp4500
g61
I5
ssg62
g4494
sg55
(lp4501
S'200'
p4502
asbasbasbag48
(g64
g50
NtRp4503
(dp4504
g53
(dp4505
sg62
g2702
sg55
(lp4506
g48
(g69
g50
NtRp4507
(dp4508
g53
(dp4509
g73
g74
ssg62
g4503
sg55
(lp4510
S'subtitle'
p4511
asbag48
(g69
g50
NtRp4512
(dp4513
g53
(dp4514
g80
g81
ssg62
g4503
sg55
(lp4515
S':'
asbag48
(g69
g50
NtRp4516
(dp4517
g53
(dp4518
sg62
g4503
sg55
(lp4519
g48
(g49
g50
NtRp4520
(dp4521
g53
(dp4522
g61
I5
ssg62
g4516
sg55
(lp4523
g3265
(S's\r\x00\x00\x00customize me!'
tRp4524
asbasbasbag48
(g64
g50
NtRp4525
(dp4526
g53
(dp4527
sg62
g2702
sg55
(lp4528
g48
(g69
g50
NtRp4529
(dp4530
g53
(dp4531
g73
g74
ssg62
g4525
sg55
(lp4532
S'title'
p4533
asbag48
(g69
g50
NtRp4534
(dp4535
g53
(dp4536
g80
g81
ssg62
g4525
sg55
(lp4537
S':'
asbag48
(g69
g50
NtRp4538
(dp4539
g53
(dp4540
sg62
g4525
sg55
(lp4541
g48
(g49
g50
NtRp4542
(dp4543
g53
(dp4544
g61
I5
ssg62
g4538
sg55
(lp4545
g113
asbasbasbag48
(g64
g50
NtRp4546
(dp4547
g53
(dp4548
sg62
g2702
sg55
(lp4549
g48
(g69
g50
NtRp4550
(dp4551
g53
(dp4552
g73
g74
ssg62
g4546
sg55
(lp4553
g1889
asbag48
(g69
g50
NtRp4554
(dp4555
g53
(dp4556
g80
g81
ssg62
g4546
sg55
(lp4557
S':'
asbag48
(g69
g50
NtRp4558
(dp4559
g53
(dp4560
sg62
g4546
sg55
(lp4561
g48
(g49
g50
NtRp4562
(dp4563
g53
(dp4564
g61
I5
ssg62
g4558
sg55
(lp4565
g1902
asbasbasbag48
(g64
g50
NtRp4566
(dp4567
g53
(dp4568
sg62
g2702
sg55
(lp4569
g48
(g69
g50
NtRp4570
(dp4571
g53
(dp4572
g73
g74
ssg62
g4566
sg55
(lp4573
S'view'
p4574
asbag48
(g69
g50
NtRp4575
(dp4576
g53
(dp4577
g80
g81
ssg62
g4566
sg55
(lp4578
S':'
asbag48
(g69
g50
NtRp4579
(dp4580
g53
(dp4581
sg62
g4566
sg55
(lp4582
g48
(g49
g50
NtRp4583
(dp4584
g53
(dp4585
g61
I5
ssg62
g4579
sg55
(lp4586
S'default/q3s.html'
p4587
asbasbasbasbasbsS'locals'
p4588
(dp4589
S'self'
p4590
S"<Row {'name': 'Maanikya Veenaam'}>"
p4591
sS'key'
p4592
S"'id'"
p4593
sssS'traceback'
p4594
S'Traceback (most recent call last):\n  File "gluon/restricted.py", line 192, in restricted\n  File "C:\\Users\\AKSHAY\\Desktop\\web2py\\applications\\201056161\\views\\default/q3s.html", line 103, in <module>\n  File "gluon/dal.py", line 3710, in __getattr__\n  File "gluon/dal.py", line 3701, in __getitem__\nKeyError: \'id\'\n'
p4595
s.