(dp1
S'output'
p2
S''
sS'layer'
p3
S'C:\\Users\\AKSHAY\\Desktop\\web2py\\applications\\201056161\\controllers/default.py'
p4
sS'code'
p5
S'# -*- coding: utf-8 -*-\n# this file is released under public domain and you can use without limitations\n\n#########################################################################\n## This is a samples controller\n## - index is the default action of any application\n## - user is required for authentication and authorization\n## - download is for downloading files uploaded in the db (does streaming)\n## - call exposes all registered services (none by default)\n#########################################################################\n\ndef index():\n    return dict()\n\ndef user():\n    """\n    exposes:\n    http://..../[app]/default/user/login\n    http://..../[app]/default/user/logout\n    http://..../[app]/default/user/register\n    http://..../[app]/default/user/profile\n    http://..../[app]/default/user/retrieve_password\n    http://..../[app]/default/user/change_password\n    use @auth.requires_login()\n        @auth.requires_membership(\'group name\')\n        @auth.requires_permission(\'read\',\'table name\',record_id)\n    to decorate functions that need access control\n    """\n    return dict(form=auth())\n\n\ndef download():\n    """\n    allows downloading of uploaded files\n    http://..../[app]/default/download/[filename]\n    """\n    return response.download(request,db)\n\n\ndef call():\n    """\n    exposes services. for example:\n    http://..../[app]/default/call/jsonrpc\n    decorate with @services.jsonrpc the functions to expose\n    supports xml, json, xmlrpc, jsonrpc, amfrpc, rss, csv\n    """\n    return service()\n\n\n@auth.requires_signature()\ndef data():\n    """\n    http://..../[app]/default/data/tables\n    http://..../[app]/default/data/create/[table]\n    http://..../[app]/default/data/read/[table]/[id]\n    http://..../[app]/default/data/update/[table]/[id]\n    http://..../[app]/default/data/delete/[table]/[id[\n    http://..../[app]/default/data/select/[table]\n    http://..../[app]/default/data/search/[table]\n    but URLs bust be signed, i.e. linked with\n      A(\'table\',_href=URL(\'data/tables\',user_signature=True))\n    or with the signed load operator\n      LOAD(\'default\',\'data.load\',args=\'tables\',ajax=True,user_signature=True)\n    """\n    return dict(form=crud())\ndef q1f():\n#  form=SQLFORM.factory(db.Field(\'id\',db.artist,requires=IS_IN_DB(db,\'artist.id\'),required=True,label=\'Select Singer id\'))#  form=SQLFORM(db.query) #form=FORM(INPUT(_name=\'singer\',requires=IS_NOT_EMPTY()),INPUT(_type=\'submit\')) #\n  form = SQLFORM.factory(db.Field(\'idn\',db.artist,requires=IS_IN_DB(db,\'artist.id\',\'artist.id\'),label=\'Select id of Artist\'))\n  if form.accepts(request.vars,session):\n    redirect(URL(r=request, f=\'q1s?idn=\'+form.vars.idn))\n  elif form.errors:\n    response.flash=\'Errors in form Please re-enter\'\n  return dict(form=form)  \ndef q1s():\n  sname = int(request.vars.idn)\n  rows=db(db.song.singer==sname).select(db.song.name)\n  """count=1\n  for row in rows:\n    count+=1\n    if count==2:\n      snames=str(row.artist_name)\n  rows1=db(db.song.singer is snames).select(db.song.name)"""\n  return dict(rows=rows)\ndef q2f():\n  form = SQLFORM.factory(db.Field(\'namen\',db.artist,requires=IS_IN_DB(db,\'artist.id\',\'artist.artist_name\'),label=\'Select artist name\'))\n  if form.accepts(request.vars,session):\n    redirect(URL(r=request, f=\'q2s?namen=\'+form.vars.namen))\n  elif form.errors:\n    response.flash=\'Errors in form Please re-enter\'\n  return dict(form=form)  \ndef q2s():\n  sname=str(request.vars.namen)\n  #here whatever be always sname will be referred by id ! \n  rows=db(db.song.singer==sname).select(db.song.name,db.song.id)\n  return dict(rows=rows)\ndef q3f():\n  form = SQLFORM.factory(db.Field(\'namen\',db.artist,requires=IS_IN_DB(db,\'artist.id\',\'artist.artist_name\'),label=\'Select Artist\'),\n                         db.Field(\'movien\',db.movie,requires=IS_IN_DB(db,\'movie.id\',\'movie.name\'),label=\'Select movie\'))\n  if form.accepts(request.vars,session):\n    redirect(URL(r=request, f=\'q3s?namen=\'+form.vars.namen+\'&movien=\'+form.vars.movien))\n  elif form.errors:\n    response.flash=\'Errors in form Please re-enter\'\n  return dict(form=form)                         \ndef q3s():\n  sname=str(request.vars.namen)\n  movien=str(request.vars.movien)\n  rows=db((db.song.singer==sname) & (db.song.movie==movien)).select(db.song.name)\n  return dict(rows=rows)\ndef q4f():\n  form = SQLFORM.factory(db.Field(\'namen\',db.artist,requires=IS_IN_DB(db,\'artist.id\',\'artist.artist_name\'),label=\'Select Artist\'),\n                         db.Field(\'yearbe\',db.movie,label=\'Select year before\'))\n  if form.accepts(request.vars,session):\n    redirect(URL(r=request, f=\'q4s?namen=\'+form.vars.namen+\'&yearbe=\'+form.vars.yearbe))\n  elif form.errors:\n    response.flash=\'Errors in form Please re-enter\'\n  return dict(form=form)\ndef q4s():\n  import datetime\n  sname=str(request.vars.namen)\n  yearbe=int(request.vars.yearbe)\n  rows=db((db.song.singer==sname) & (db.movie.release_date<datetime.date(yearbe,1,1))).select(db.song.name,db.song.singing_actor)\n  return dict(rows=rows)\ndef q5f():\n  form = SQLFORM.factory(db.Field(\'namen\',db.rating,requires=IS_IN_DB(db,\'song.id\',\'song.name\'),label=\'Select song name to check if rating is more than 4\'))\n  if form.accepts(request.vars,session):\n    redirect(URL(r=request, f=\'q5s?namen=\'+form.vars.namen))\n  elif form.errors:\n    response.flash=\'Errors in form Please re-enter\'\n  return dict(form=form)\ndef q5s():\n  sname=int(request.vars.namen)\n  rows=db(db.rating.song_n==sname).select(db.rating.ratingn)\n  count=0\n  sum=0\n  for row in rows:\n    count+=1\n    sum+=int(row.ratingn)\n  if count:  \n    avg=sum/count\n  return dict(avg=avg)\ndef insong():\n  form = SQLFORM(db.song)\n  if form.accepts(request.vars,session):\n      #redirect(URL(r=request, f=\'student_details?rollno=%d\' % form.vars.rollno))\n      response.flash=\'New Song Record Inserted\'\n  elif form.errors:\n      response.flash=\'Errors in form\'\n  return dict(form=form)\ndef newq():\n  return dict()\ndef song_details():\n  idn=int(request.vars.id)\n  records=db(db.song.id==idn).select.ALL\n  return dict(records=records)\n\nresponse._vars=response._caller(song_details)\n'
p6
sS'snapshot'
p7
(dp8
S'exception'
p9
(dp10
S'__hash__'
p11
S"<method-wrapper '__hash__' of exceptions.AttributeError object at 0x068A01C0>"
p12
sS'__setattr__'
p13
S"<method-wrapper '__setattr__' of exceptions.AttributeError object at 0x068A01C0>"
p14
sS'__reduce_ex__'
p15
S'<built-in method __reduce_ex__ of exceptions.AttributeError object at 0x068A01C0>'
p16
sS'__getslice__'
p17
S"<method-wrapper '__getslice__' of exceptions.AttributeError object at 0x068A01C0>"
p18
sS'__getitem__'
p19
S"<method-wrapper '__getitem__' of exceptions.AttributeError object at 0x068A01C0>"
p20
sS'__setstate__'
p21
S'<built-in method __setstate__ of exceptions.AttributeError object at 0x068A01C0>'
p22
sS'__reduce__'
p23
S'<built-in method __reduce__ of exceptions.AttributeError object at 0x068A01C0>'
p24
sS'__str__'
p25
S"<method-wrapper '__str__' of exceptions.AttributeError object at 0x068A01C0>"
p26
sS'args'
p27
S'("\'function\' object has no attribute \'ALL\'",)'
p28
sS'__getattribute__'
p29
S"<method-wrapper '__getattribute__' of exceptions.AttributeError object at 0x068A01C0>"
p30
sS'__class__'
p31
S"<type 'exceptions.AttributeError'>"
p32
sS'__delattr__'
p33
S"<method-wrapper '__delattr__' of exceptions.AttributeError object at 0x068A01C0>"
p34
sS'__repr__'
p35
S"<method-wrapper '__repr__' of exceptions.AttributeError object at 0x068A01C0>"
p36
sS'__dict__'
p37
S'{}'
p38
sS'__doc__'
p39
S"'Attribute not found.'"
p40
sS'__init__'
p41
S"<method-wrapper '__init__' of exceptions.AttributeError object at 0x068A01C0>"
p42
sS'__new__'
p43
S'<built-in method __new__ of type object at 0x1E1CDA68>'
p44
ssS'evalue'
p45
S"'function' object has no attribute 'ALL'"
p46
sS'request'
p47
ccopy_reg
_reconstructor
p48
(cgluon.html
BEAUTIFY
p49
c__builtin__
object
p50
NtRp51
(dp52
S'attributes'
p53
(dp54
sS'components'
p55
(lp56
g48
(cgluon.html
TABLE
p57
g50
NtRp58
(dp59
g53
(dp60
S'level'
p61
I5
ssS'parent'
p62
Nsg55
(lp63
g48
(cgluon.html
TR
p64
g50
NtRp65
(dp66
g53
(dp67
sg62
g58
sg55
(lp68
g48
(cgluon.html
TD
p69
g50
NtRp70
(dp71
g53
(dp72
S'_style'
p73
S'font-weight:bold;'
p74
ssg62
g65
sg55
(lp75
S'ajax'
p76
asbag48
(g69
g50
NtRp77
(dp78
g53
(dp79
S'_valign'
p80
S'top'
p81
ssg62
g65
sg55
(lp82
S':'
asbag48
(g69
g50
NtRp83
(dp84
g53
(dp85
sg62
g65
sg55
(lp86
g48
(g49
g50
NtRp87
(dp88
g53
(dp89
g61
I5
ssg62
g83
sg55
(lp90
S'False'
p91
asbasbasbag48
(g64
g50
NtRp92
(dp93
g53
(dp94
sg62
g58
sg55
(lp95
g48
(g69
g50
NtRp96
(dp97
g53
(dp98
g73
g74
ssg62
g92
sg55
(lp99
S'application'
p100
asbag48
(g69
g50
NtRp101
(dp102
g53
(dp103
g80
g81
ssg62
g92
sg55
(lp104
S':'
asbag48
(g69
g50
NtRp105
(dp106
g53
(dp107
sg62
g92
sg55
(lp108
g48
(g49
g50
NtRp109
(dp110
g53
(dp111
g61
I5
ssg62
g105
sg55
(lp112
S'201056161'
p113
asbasbasbag48
(g64
g50
NtRp114
(dp115
g53
(dp116
sg62
g58
sg55
(lp117
g48
(g69
g50
NtRp118
(dp119
g53
(dp120
g73
g74
ssg62
g114
sg55
(lp121
g27
asbag48
(g69
g50
NtRp122
(dp123
g53
(dp124
g80
g81
ssg62
g114
sg55
(lp125
S':'
asbag48
(g69
g50
NtRp126
(dp127
g53
(dp128
sg62
g114
sg55
(lp129
g48
(g49
g50
NtRp130
(dp131
g53
(dp132
g61
I5
ssg62
g126
sg55
(lp133
g48
(g57
g50
NtRp134
(dp135
g53
(dp136
g61
I4
ssg62
Nsg55
(lp137
sbasbasbasbag48
(g64
g50
NtRp138
(dp139
g53
(dp140
sg62
g58
sg55
(lp141
g48
(g69
g50
NtRp142
(dp143
g53
(dp144
g73
g74
ssg62
g138
sg55
(lp145
S'body'
p146
asbag48
(g69
g50
NtRp147
(dp148
g53
(dp149
g80
g81
ssg62
g138
sg55
(lp150
S':'
asbag48
(g69
g50
NtRp151
(dp152
g53
(dp153
sg62
g138
sg55
(lp154
g48
(g49
g50
NtRp155
(dp156
g53
(dp157
g61
I5
ssg62
g151
sg55
(lp158
S'<cStringIO.StringO object at 0x074F4DE0>'
p159
asbasbasbag48
(g64
g50
NtRp160
(dp161
g53
(dp162
sg62
g58
sg55
(lp163
g48
(g69
g50
NtRp164
(dp165
g53
(dp166
g73
g74
ssg62
g160
sg55
(lp167
S'client'
p168
asbag48
(g69
g50
NtRp169
(dp170
g53
(dp171
g80
g81
ssg62
g160
sg55
(lp172
S':'
asbag48
(g69
g50
NtRp173
(dp174
g53
(dp175
sg62
g160
sg55
(lp176
g48
(g49
g50
NtRp177
(dp178
g53
(dp179
g61
I5
ssg62
g173
sg55
(lp180
S'127.0.0.1'
p181
asbasbasbag48
(g64
g50
NtRp182
(dp183
g53
(dp184
sg62
g58
sg55
(lp185
g48
(g69
g50
NtRp186
(dp187
g53
(dp188
g73
g74
ssg62
g182
sg55
(lp189
S'controller'
p190
asbag48
(g69
g50
NtRp191
(dp192
g53
(dp193
g80
g81
ssg62
g182
sg55
(lp194
S':'
asbag48
(g69
g50
NtRp195
(dp196
g53
(dp197
sg62
g182
sg55
(lp198
g48
(g49
g50
NtRp199
(dp200
g53
(dp201
g61
I5
ssg62
g195
sg55
(lp202
S'default'
p203
asbasbasbag48
(g64
g50
NtRp204
(dp205
g53
(dp206
sg62
g58
sg55
(lp207
g48
(g69
g50
NtRp208
(dp209
g53
(dp210
g73
g74
ssg62
g204
sg55
(lp211
S'cookies'
p212
asbag48
(g69
g50
NtRp213
(dp214
g53
(dp215
g80
g81
ssg62
g204
sg55
(lp216
S':'
asbag48
(g69
g50
NtRp217
(dp218
g53
(dp219
sg62
g204
sg55
(lp220
g48
(g49
g50
NtRp221
(dp222
g53
(dp223
g61
I5
ssg62
g217
sg55
(lp224
g48
(g57
g50
NtRp225
(dp226
g53
(dp227
g61
I4
ssg62
Nsg55
(lp228
g48
(g64
g50
NtRp229
(dp230
g53
(dp231
sg62
g225
sg55
(lp232
g48
(g69
g50
NtRp233
(dp234
g53
(dp235
g73
g74
ssg62
g229
sg55
(lp236
S'session_id_201056161'
p237
asbag48
(g69
g50
NtRp238
(dp239
g53
(dp240
g80
g81
ssg62
g229
sg55
(lp241
S':'
asbag48
(g69
g50
NtRp242
(dp243
g53
(dp244
sg62
g229
sg55
(lp245
g48
(g49
g50
NtRp246
(dp247
g53
(dp248
g61
I4
ssg62
g242
sg55
(lp249
g48
(g57
g50
NtRp250
(dp251
g53
(dp252
g61
I3
ssg62
Nsg55
(lp253
g48
(g64
g50
NtRp254
(dp255
g53
(dp256
sg62
g250
sg55
(lp257
g48
(g69
g50
NtRp258
(dp259
g53
(dp260
g73
g74
ssg62
g254
sg55
(lp261
S'comment'
p262
asbag48
(g69
g50
NtRp263
(dp264
g53
(dp265
g80
g81
ssg62
g254
sg55
(lp266
S':'
asbag48
(g69
g50
NtRp267
(dp268
g53
(dp269
sg62
g254
sg55
(lp270
g48
(g49
g50
NtRp271
(dp272
g53
(dp273
g61
I3
ssg62
g267
sg55
(lp274
S''
asbasbasbag48
(g64
g50
NtRp275
(dp276
g53
(dp277
sg62
g250
sg55
(lp278
g48
(g69
g50
NtRp279
(dp280
g53
(dp281
g73
g74
ssg62
g275
sg55
(lp282
S'domain'
p283
asbag48
(g69
g50
NtRp284
(dp285
g53
(dp286
g80
g81
ssg62
g275
sg55
(lp287
S':'
asbag48
(g69
g50
NtRp288
(dp289
g53
(dp290
sg62
g275
sg55
(lp291
g48
(g49
g50
NtRp292
(dp293
g53
(dp294
g61
I3
ssg62
g288
sg55
(lp295
S''
asbasbasbag48
(g64
g50
NtRp296
(dp297
g53
(dp298
sg62
g250
sg55
(lp299
g48
(g69
g50
NtRp300
(dp301
g53
(dp302
g73
g74
ssg62
g296
sg55
(lp303
S'expires'
p304
asbag48
(g69
g50
NtRp305
(dp306
g53
(dp307
g80
g81
ssg62
g296
sg55
(lp308
S':'
asbag48
(g69
g50
NtRp309
(dp310
g53
(dp311
sg62
g296
sg55
(lp312
g48
(g49
g50
NtRp313
(dp314
g53
(dp315
g61
I3
ssg62
g309
sg55
(lp316
S''
asbasbasbag48
(g64
g50
NtRp317
(dp318
g53
(dp319
sg62
g250
sg55
(lp320
g48
(g69
g50
NtRp321
(dp322
g53
(dp323
g73
g74
ssg62
g317
sg55
(lp324
S'max-age'
p325
asbag48
(g69
g50
NtRp326
(dp327
g53
(dp328
g80
g81
ssg62
g317
sg55
(lp329
S':'
asbag48
(g69
g50
NtRp330
(dp331
g53
(dp332
sg62
g317
sg55
(lp333
g48
(g49
g50
NtRp334
(dp335
g53
(dp336
g61
I3
ssg62
g330
sg55
(lp337
S''
asbasbasbag48
(g64
g50
NtRp338
(dp339
g53
(dp340
sg62
g250
sg55
(lp341
g48
(g69
g50
NtRp342
(dp343
g53
(dp344
g73
g74
ssg62
g338
sg55
(lp345
S'path'
p346
asbag48
(g69
g50
NtRp347
(dp348
g53
(dp349
g80
g81
ssg62
g338
sg55
(lp350
S':'
asbag48
(g69
g50
NtRp351
(dp352
g53
(dp353
sg62
g338
sg55
(lp354
g48
(g49
g50
NtRp355
(dp356
g53
(dp357
g61
I3
ssg62
g351
sg55
(lp358
S''
asbasbasbag48
(g64
g50
NtRp359
(dp360
g53
(dp361
sg62
g250
sg55
(lp362
g48
(g69
g50
NtRp363
(dp364
g53
(dp365
g73
g74
ssg62
g359
sg55
(lp366
S'secure'
p367
asbag48
(g69
g50
NtRp368
(dp369
g53
(dp370
g80
g81
ssg62
g359
sg55
(lp371
S':'
asbag48
(g69
g50
NtRp372
(dp373
g53
(dp374
sg62
g359
sg55
(lp375
g48
(g49
g50
NtRp376
(dp377
g53
(dp378
g61
I3
ssg62
g372
sg55
(lp379
S''
asbasbasbag48
(g64
g50
NtRp380
(dp381
g53
(dp382
sg62
g250
sg55
(lp383
g48
(g69
g50
NtRp384
(dp385
g53
(dp386
g73
g74
ssg62
g380
sg55
(lp387
S'version'
p388
asbag48
(g69
g50
NtRp389
(dp390
g53
(dp391
g80
g81
ssg62
g380
sg55
(lp392
S':'
asbag48
(g69
g50
NtRp393
(dp394
g53
(dp395
sg62
g380
sg55
(lp396
g48
(g49
g50
NtRp397
(dp398
g53
(dp399
g61
I3
ssg62
g393
sg55
(lp400
S''
asbasbasbasbasbasbasbag48
(g64
g50
NtRp401
(dp402
g53
(dp403
sg62
g225
sg55
(lp404
g48
(g69
g50
NtRp405
(dp406
g53
(dp407
g73
g74
ssg62
g401
sg55
(lp408
S'session_id_admin'
p409
asbag48
(g69
g50
NtRp410
(dp411
g53
(dp412
g80
g81
ssg62
g401
sg55
(lp413
S':'
asbag48
(g69
g50
NtRp414
(dp415
g53
(dp416
sg62
g401
sg55
(lp417
g48
(g49
g50
NtRp418
(dp419
g53
(dp420
g61
I4
ssg62
g414
sg55
(lp421
g48
(g57
g50
NtRp422
(dp423
g53
(dp424
g61
I3
ssg62
Nsg55
(lp425
g48
(g64
g50
NtRp426
(dp427
g53
(dp428
sg62
g422
sg55
(lp429
g48
(g69
g50
NtRp430
(dp431
g53
(dp432
g73
g74
ssg62
g426
sg55
(lp433
g262
asbag48
(g69
g50
NtRp434
(dp435
g53
(dp436
g80
g81
ssg62
g426
sg55
(lp437
S':'
asbag48
(g69
g50
NtRp438
(dp439
g53
(dp440
sg62
g426
sg55
(lp441
g48
(g49
g50
NtRp442
(dp443
g53
(dp444
g61
I3
ssg62
g438
sg55
(lp445
S''
asbasbasbag48
(g64
g50
NtRp446
(dp447
g53
(dp448
sg62
g422
sg55
(lp449
g48
(g69
g50
NtRp450
(dp451
g53
(dp452
g73
g74
ssg62
g446
sg55
(lp453
g283
asbag48
(g69
g50
NtRp454
(dp455
g53
(dp456
g80
g81
ssg62
g446
sg55
(lp457
S':'
asbag48
(g69
g50
NtRp458
(dp459
g53
(dp460
sg62
g446
sg55
(lp461
g48
(g49
g50
NtRp462
(dp463
g53
(dp464
g61
I3
ssg62
g458
sg55
(lp465
S''
asbasbasbag48
(g64
g50
NtRp466
(dp467
g53
(dp468
sg62
g422
sg55
(lp469
g48
(g69
g50
NtRp470
(dp471
g53
(dp472
g73
g74
ssg62
g466
sg55
(lp473
g304
asbag48
(g69
g50
NtRp474
(dp475
g53
(dp476
g80
g81
ssg62
g466
sg55
(lp477
S':'
asbag48
(g69
g50
NtRp478
(dp479
g53
(dp480
sg62
g466
sg55
(lp481
g48
(g49
g50
NtRp482
(dp483
g53
(dp484
g61
I3
ssg62
g478
sg55
(lp485
S''
asbasbasbag48
(g64
g50
NtRp486
(dp487
g53
(dp488
sg62
g422
sg55
(lp489
g48
(g69
g50
NtRp490
(dp491
g53
(dp492
g73
g74
ssg62
g486
sg55
(lp493
g325
asbag48
(g69
g50
NtRp494
(dp495
g53
(dp496
g80
g81
ssg62
g486
sg55
(lp497
S':'
asbag48
(g69
g50
NtRp498
(dp499
g53
(dp500
sg62
g486
sg55
(lp501
g48
(g49
g50
NtRp502
(dp503
g53
(dp504
g61
I3
ssg62
g498
sg55
(lp505
S''
asbasbasbag48
(g64
g50
NtRp506
(dp507
g53
(dp508
sg62
g422
sg55
(lp509
g48
(g69
g50
NtRp510
(dp511
g53
(dp512
g73
g74
ssg62
g506
sg55
(lp513
g346
asbag48
(g69
g50
NtRp514
(dp515
g53
(dp516
g80
g81
ssg62
g506
sg55
(lp517
S':'
asbag48
(g69
g50
NtRp518
(dp519
g53
(dp520
sg62
g506
sg55
(lp521
g48
(g49
g50
NtRp522
(dp523
g53
(dp524
g61
I3
ssg62
g518
sg55
(lp525
S''
asbasbasbag48
(g64
g50
NtRp526
(dp527
g53
(dp528
sg62
g422
sg55
(lp529
g48
(g69
g50
NtRp530
(dp531
g53
(dp532
g73
g74
ssg62
g526
sg55
(lp533
g367
asbag48
(g69
g50
NtRp534
(dp535
g53
(dp536
g80
g81
ssg62
g526
sg55
(lp537
S':'
asbag48
(g69
g50
NtRp538
(dp539
g53
(dp540
sg62
g526
sg55
(lp541
g48
(g49
g50
NtRp542
(dp543
g53
(dp544
g61
I3
ssg62
g538
sg55
(lp545
S''
asbasbasbag48
(g64
g50
NtRp546
(dp547
g53
(dp548
sg62
g422
sg55
(lp549
g48
(g69
g50
NtRp550
(dp551
g53
(dp552
g73
g74
ssg62
g546
sg55
(lp553
g388
asbag48
(g69
g50
NtRp554
(dp555
g53
(dp556
g80
g81
ssg62
g546
sg55
(lp557
S':'
asbag48
(g69
g50
NtRp558
(dp559
g53
(dp560
sg62
g546
sg55
(lp561
g48
(g49
g50
NtRp562
(dp563
g53
(dp564
g61
I3
ssg62
g558
sg55
(lp565
S''
asbasbasbasbasbasbasbag48
(g64
g50
NtRp566
(dp567
g53
(dp568
sg62
g225
sg55
(lp569
g48
(g69
g50
NtRp570
(dp571
g53
(dp572
g73
g74
ssg62
g566
sg55
(lp573
S'session_id_welcome'
p574
asbag48
(g69
g50
NtRp575
(dp576
g53
(dp577
g80
g81
ssg62
g566
sg55
(lp578
S':'
asbag48
(g69
g50
NtRp579
(dp580
g53
(dp581
sg62
g566
sg55
(lp582
g48
(g49
g50
NtRp583
(dp584
g53
(dp585
g61
I4
ssg62
g579
sg55
(lp586
g48
(g57
g50
NtRp587
(dp588
g53
(dp589
g61
I3
ssg62
Nsg55
(lp590
g48
(g64
g50
NtRp591
(dp592
g53
(dp593
sg62
g587
sg55
(lp594
g48
(g69
g50
NtRp595
(dp596
g53
(dp597
g73
g74
ssg62
g591
sg55
(lp598
g262
asbag48
(g69
g50
NtRp599
(dp600
g53
(dp601
g80
g81
ssg62
g591
sg55
(lp602
S':'
asbag48
(g69
g50
NtRp603
(dp604
g53
(dp605
sg62
g591
sg55
(lp606
g48
(g49
g50
NtRp607
(dp608
g53
(dp609
g61
I3
ssg62
g603
sg55
(lp610
S''
asbasbasbag48
(g64
g50
NtRp611
(dp612
g53
(dp613
sg62
g587
sg55
(lp614
g48
(g69
g50
NtRp615
(dp616
g53
(dp617
g73
g74
ssg62
g611
sg55
(lp618
g283
asbag48
(g69
g50
NtRp619
(dp620
g53
(dp621
g80
g81
ssg62
g611
sg55
(lp622
S':'
asbag48
(g69
g50
NtRp623
(dp624
g53
(dp625
sg62
g611
sg55
(lp626
g48
(g49
g50
NtRp627
(dp628
g53
(dp629
g61
I3
ssg62
g623
sg55
(lp630
S''
asbasbasbag48
(g64
g50
NtRp631
(dp632
g53
(dp633
sg62
g587
sg55
(lp634
g48
(g69
g50
NtRp635
(dp636
g53
(dp637
g73
g74
ssg62
g631
sg55
(lp638
g304
asbag48
(g69
g50
NtRp639
(dp640
g53
(dp641
g80
g81
ssg62
g631
sg55
(lp642
S':'
asbag48
(g69
g50
NtRp643
(dp644
g53
(dp645
sg62
g631
sg55
(lp646
g48
(g49
g50
NtRp647
(dp648
g53
(dp649
g61
I3
ssg62
g643
sg55
(lp650
S''
asbasbasbag48
(g64
g50
NtRp651
(dp652
g53
(dp653
sg62
g587
sg55
(lp654
g48
(g69
g50
NtRp655
(dp656
g53
(dp657
g73
g74
ssg62
g651
sg55
(lp658
g325
asbag48
(g69
g50
NtRp659
(dp660
g53
(dp661
g80
g81
ssg62
g651
sg55
(lp662
S':'
asbag48
(g69
g50
NtRp663
(dp664
g53
(dp665
sg62
g651
sg55
(lp666
g48
(g49
g50
NtRp667
(dp668
g53
(dp669
g61
I3
ssg62
g663
sg55
(lp670
S''
asbasbasbag48
(g64
g50
NtRp671
(dp672
g53
(dp673
sg62
g587
sg55
(lp674
g48
(g69
g50
NtRp675
(dp676
g53
(dp677
g73
g74
ssg62
g671
sg55
(lp678
g346
asbag48
(g69
g50
NtRp679
(dp680
g53
(dp681
g80
g81
ssg62
g671
sg55
(lp682
S':'
asbag48
(g69
g50
NtRp683
(dp684
g53
(dp685
sg62
g671
sg55
(lp686
g48
(g49
g50
NtRp687
(dp688
g53
(dp689
g61
I3
ssg62
g683
sg55
(lp690
S''
asbasbasbag48
(g64
g50
NtRp691
(dp692
g53
(dp693
sg62
g587
sg55
(lp694
g48
(g69
g50
NtRp695
(dp696
g53
(dp697
g73
g74
ssg62
g691
sg55
(lp698
g367
asbag48
(g69
g50
NtRp699
(dp700
g53
(dp701
g80
g81
ssg62
g691
sg55
(lp702
S':'
asbag48
(g69
g50
NtRp703
(dp704
g53
(dp705
sg62
g691
sg55
(lp706
g48
(g49
g50
NtRp707
(dp708
g53
(dp709
g61
I3
ssg62
g703
sg55
(lp710
S''
asbasbasbag48
(g64
g50
NtRp711
(dp712
g53
(dp713
sg62
g587
sg55
(lp714
g48
(g69
g50
NtRp715
(dp716
g53
(dp717
g73
g74
ssg62
g711
sg55
(lp718
g388
asbag48
(g69
g50
NtRp719
(dp720
g53
(dp721
g80
g81
ssg62
g711
sg55
(lp722
S':'
asbag48
(g69
g50
NtRp723
(dp724
g53
(dp725
sg62
g711
sg55
(lp726
g48
(g49
g50
NtRp727
(dp728
g53
(dp729
g61
I3
ssg62
g723
sg55
(lp730
S''
asbasbasbasbasbasbasbasbasbasbasbag48
(g64
g50
NtRp731
(dp732
g53
(dp733
sg62
g58
sg55
(lp734
g48
(g69
g50
NtRp735
(dp736
g53
(dp737
g73
g74
ssg62
g731
sg55
(lp738
S'env'
p739
asbag48
(g69
g50
NtRp740
(dp741
g53
(dp742
g80
g81
ssg62
g731
sg55
(lp743
S':'
asbag48
(g69
g50
NtRp744
(dp745
g53
(dp746
sg62
g731
sg55
(lp747
g48
(g49
g50
NtRp748
(dp749
g53
(dp750
g61
I5
ssg62
g744
sg55
(lp751
g48
(g57
g50
NtRp752
(dp753
g53
(dp754
g61
I4
ssg62
Nsg55
(lp755
g48
(g64
g50
NtRp756
(dp757
g53
(dp758
sg62
g752
sg55
(lp759
g48
(g69
g50
NtRp760
(dp761
g53
(dp762
g73
g74
ssg62
g756
sg55
(lp763
S'app_folders'
p764
asbag48
(g69
g50
NtRp765
(dp766
g53
(dp767
g80
g81
ssg62
g756
sg55
(lp768
S':'
asbag48
(g69
g50
NtRp769
(dp770
g53
(dp771
sg62
g756
sg55
(lp772
g48
(g49
g50
NtRp773
(dp774
g53
(dp775
g61
I4
ssg62
g769
sg55
(lp776
S"set(['C:\\\\Users\\\\AKSHAY\\\\Desktop\\\\web2py\\\\applications\\\\welcome\\\\', 'C:\\\\Users\\\\AKSHAY\\\\Desktop\\\\web2py\\\\applications\\\\201056161\\\\', 'C:\\\\Users\\\\AKSHAY\\\\Desktop\\\\web2py\\\\applications\\\\examples\\\\', 'C:\\\\Users\\\\AKSHAY\\\\Desktop\\\\web2py\\\\applications\\\\admin\\\\', 'C:\\\\Users\\\\AKSHAY\\\\Desktop\\\\web2py\\\\applications\\\\MusicRepo\\\\'])"
p777
asbasbasbag48
(g64
g50
NtRp778
(dp779
g53
(dp780
sg62
g752
sg55
(lp781
g48
(g69
g50
NtRp782
(dp783
g53
(dp784
g73
g74
ssg62
g778
sg55
(lp785
S'applications_parent'
p786
asbag48
(g69
g50
NtRp787
(dp788
g53
(dp789
g80
g81
ssg62
g778
sg55
(lp790
S':'
asbag48
(g69
g50
NtRp791
(dp792
g53
(dp793
sg62
g778
sg55
(lp794
g48
(g49
g50
NtRp795
(dp796
g53
(dp797
g61
I4
ssg62
g791
sg55
(lp798
S'C:\\Users\\AKSHAY\\Desktop\\web2py'
p799
asbasbasbag48
(g64
g50
NtRp800
(dp801
g53
(dp802
sg62
g752
sg55
(lp803
g48
(g69
g50
NtRp804
(dp805
g53
(dp806
g73
g74
ssg62
g800
sg55
(lp807
S'cmd_args'
p808
asbag48
(g69
g50
NtRp809
(dp810
g53
(dp811
g80
g81
ssg62
g800
sg55
(lp812
S':'
asbag48
(g69
g50
NtRp813
(dp814
g53
(dp815
sg62
g800
sg55
(lp816
g48
(g49
g50
NtRp817
(dp818
g53
(dp819
g61
I4
ssg62
g813
sg55
(lp820
g48
(g57
g50
NtRp821
(dp822
g53
(dp823
g61
I3
ssg62
Nsg55
(lp824
sbasbasbasbag48
(g64
g50
NtRp825
(dp826
g53
(dp827
sg62
g752
sg55
(lp828
g48
(g69
g50
NtRp829
(dp830
g53
(dp831
g73
g74
ssg62
g825
sg55
(lp832
S'cmd_options'
p833
asbag48
(g69
g50
NtRp834
(dp835
g53
(dp836
g80
g81
ssg62
g825
sg55
(lp837
S':'
asbag48
(g69
g50
NtRp838
(dp839
g53
(dp840
sg62
g825
sg55
(lp841
g48
(g49
g50
NtRp842
(dp843
g53
(dp844
g61
I4
ssg62
g838
sg55
(lp845
S"<Values at 0x317dfd0: {'verbose': False, 'ip': '127.0.0.1', 'shutdown_timeout': 5, 'taskbar': False, 'port': 8000, 'maxthreads': None, 'softcron': False, 'server_name': 'AKSHAY-PC', 'bpython': False, 'nogui': False, 'nocron': False, 'extcron': False, 'debuglevel': 30, 'test': None, 'folder': 'C:\\\\Users\\\\AKSHAY\\\\Desktop\\\\web2py', 'config': '', 'import_models': False, 'winservice': '', 'shell': None, 'run': '', 'log_filename': 'httpserver.log', 'args': [''], 'profiler_filename': None, 'ssl_private_key': '', 'password': '<ask>', 'request_queue_size': 5, 'ssl_certificate': '', 'cronjob': False, 'plain': False, 'quiet': False, 'interfaces': None, 'minthreads': None, 'timeout': 10, 'numthreads': None, 'nobanner': False, 'pid_filename': 'httpserver.pid'}>"
p846
asbasbasbag48
(g64
g50
NtRp847
(dp848
g53
(dp849
sg62
g752
sg55
(lp850
g48
(g69
g50
NtRp851
(dp852
g53
(dp853
g73
g74
ssg62
g847
sg55
(lp854
S'db_sessions'
p855
asbag48
(g69
g50
NtRp856
(dp857
g53
(dp858
g80
g81
ssg62
g847
sg55
(lp859
S':'
asbag48
(g69
g50
NtRp860
(dp861
g53
(dp862
sg62
g847
sg55
(lp863
g48
(g49
g50
NtRp864
(dp865
g53
(dp866
g61
I4
ssg62
g860
sg55
(lp867
S'set([])'
p868
asbasbasbag48
(g64
g50
NtRp869
(dp870
g53
(dp871
sg62
g752
sg55
(lp872
g48
(g69
g50
NtRp873
(dp874
g53
(dp875
g73
g74
ssg62
g869
sg55
(lp876
S'debugging'
p877
asbag48
(g69
g50
NtRp878
(dp879
g53
(dp880
g80
g81
ssg62
g869
sg55
(lp881
S':'
asbag48
(g69
g50
NtRp882
(dp883
g53
(dp884
sg62
g869
sg55
(lp885
g48
(g49
g50
NtRp886
(dp887
g53
(dp888
g61
I4
ssg62
g882
sg55
(lp889
g91
asbasbasbag48
(g64
g50
NtRp890
(dp891
g53
(dp892
sg62
g752
sg55
(lp893
g48
(g69
g50
NtRp894
(dp895
g53
(dp896
g73
g74
ssg62
g890
sg55
(lp897
S'gluon_parent'
p898
asbag48
(g69
g50
NtRp899
(dp900
g53
(dp901
g80
g81
ssg62
g890
sg55
(lp902
S':'
asbag48
(g69
g50
NtRp903
(dp904
g53
(dp905
sg62
g890
sg55
(lp906
g48
(g49
g50
NtRp907
(dp908
g53
(dp909
g61
I4
ssg62
g903
sg55
(lp910
S'C:\\Users\\AKSHAY\\Desktop\\web2py'
p911
asbasbasbag48
(g64
g50
NtRp912
(dp913
g53
(dp914
sg62
g752
sg55
(lp915
g48
(g69
g50
NtRp916
(dp917
g53
(dp918
g73
g74
ssg62
g912
sg55
(lp919
S'http_accept'
p920
asbag48
(g69
g50
NtRp921
(dp922
g53
(dp923
g80
g81
ssg62
g912
sg55
(lp924
S':'
asbag48
(g69
g50
NtRp925
(dp926
g53
(dp927
sg62
g912
sg55
(lp928
g48
(g49
g50
NtRp929
(dp930
g53
(dp931
g61
I4
ssg62
g925
sg55
(lp932
S'text/html,application/xhtml+xml,application/xml;q=0.9,*/*;q=0.8'
p933
asbasbasbag48
(g64
g50
NtRp934
(dp935
g53
(dp936
sg62
g752
sg55
(lp937
g48
(g69
g50
NtRp938
(dp939
g53
(dp940
g73
g74
ssg62
g934
sg55
(lp941
S'http_accept_charset'
p942
asbag48
(g69
g50
NtRp943
(dp944
g53
(dp945
g80
g81
ssg62
g934
sg55
(lp946
S':'
asbag48
(g69
g50
NtRp947
(dp948
g53
(dp949
sg62
g934
sg55
(lp950
g48
(g49
g50
NtRp951
(dp952
g53
(dp953
g61
I4
ssg62
g947
sg55
(lp954
S'ISO-8859-1,utf-8;q=0.7,*;q=0.3'
p955
asbasbasbag48
(g64
g50
NtRp956
(dp957
g53
(dp958
sg62
g752
sg55
(lp959
g48
(g69
g50
NtRp960
(dp961
g53
(dp962
g73
g74
ssg62
g956
sg55
(lp963
S'http_accept_encoding'
p964
asbag48
(g69
g50
NtRp965
(dp966
g53
(dp967
g80
g81
ssg62
g956
sg55
(lp968
S':'
asbag48
(g69
g50
NtRp969
(dp970
g53
(dp971
sg62
g956
sg55
(lp972
g48
(g49
g50
NtRp973
(dp974
g53
(dp975
g61
I4
ssg62
g969
sg55
(lp976
S'gzip,deflate,sdch'
p977
asbasbasbag48
(g64
g50
NtRp978
(dp979
g53
(dp980
sg62
g752
sg55
(lp981
g48
(g69
g50
NtRp982
(dp983
g53
(dp984
g73
g74
ssg62
g978
sg55
(lp985
S'http_accept_language'
p986
asbag48
(g69
g50
NtRp987
(dp988
g53
(dp989
g80
g81
ssg62
g978
sg55
(lp990
S':'
asbag48
(g69
g50
NtRp991
(dp992
g53
(dp993
sg62
g978
sg55
(lp994
g48
(g49
g50
NtRp995
(dp996
g53
(dp997
g61
I4
ssg62
g991
sg55
(lp998
S'en-US,en;q=0.8'
p999
asbasbasbag48
(g64
g50
NtRp1000
(dp1001
g53
(dp1002
sg62
g752
sg55
(lp1003
g48
(g69
g50
NtRp1004
(dp1005
g53
(dp1006
g73
g74
ssg62
g1000
sg55
(lp1007
S'http_connection'
p1008
asbag48
(g69
g50
NtRp1009
(dp1010
g53
(dp1011
g80
g81
ssg62
g1000
sg55
(lp1012
S':'
asbag48
(g69
g50
NtRp1013
(dp1014
g53
(dp1015
sg62
g1000
sg55
(lp1016
g48
(g49
g50
NtRp1017
(dp1018
g53
(dp1019
g61
I4
ssg62
g1013
sg55
(lp1020
S'keep-alive'
p1021
asbasbasbag48
(g64
g50
NtRp1022
(dp1023
g53
(dp1024
sg62
g752
sg55
(lp1025
g48
(g69
g50
NtRp1026
(dp1027
g53
(dp1028
g73
g74
ssg62
g1022
sg55
(lp1029
S'http_cookie'
p1030
asbag48
(g69
g50
NtRp1031
(dp1032
g53
(dp1033
g80
g81
ssg62
g1022
sg55
(lp1034
S':'
asbag48
(g69
g50
NtRp1035
(dp1036
g53
(dp1037
sg62
g1022
sg55
(lp1038
g48
(g49
g50
NtRp1039
(dp1040
g53
(dp1041
g61
I4
ssg62
g1035
sg55
(lp1042
S'session_id_welcome=127.0.0.1-59771078-5064-4769-bad5-36c10b98c15f; session_id_admin=127.0.0.1-0f74329a-39f0-47c2-95cf-7f42bb528a7b; session_id_201056161=127.0.0.1-3bc821ac-4d59-41c6-8699-b3e43edfc478'
p1043
asbasbasbag48
(g64
g50
NtRp1044
(dp1045
g53
(dp1046
sg62
g752
sg55
(lp1047
g48
(g69
g50
NtRp1048
(dp1049
g53
(dp1050
g73
g74
ssg62
g1044
sg55
(lp1051
S'http_host'
p1052
asbag48
(g69
g50
NtRp1053
(dp1054
g53
(dp1055
g80
g81
ssg62
g1044
sg55
(lp1056
S':'
asbag48
(g69
g50
NtRp1057
(dp1058
g53
(dp1059
sg62
g1044
sg55
(lp1060
g48
(g49
g50
NtRp1061
(dp1062
g53
(dp1063
g61
I4
ssg62
g1057
sg55
(lp1064
S'127.0.0.1:8000'
p1065
asbasbasbag48
(g64
g50
NtRp1066
(dp1067
g53
(dp1068
sg62
g752
sg55
(lp1069
g48
(g69
g50
NtRp1070
(dp1071
g53
(dp1072
g73
g74
ssg62
g1066
sg55
(lp1073
S'http_referer'
p1074
asbag48
(g69
g50
NtRp1075
(dp1076
g53
(dp1077
g80
g81
ssg62
g1066
sg55
(lp1078
S':'
asbag48
(g69
g50
NtRp1079
(dp1080
g53
(dp1081
sg62
g1066
sg55
(lp1082
g48
(g49
g50
NtRp1083
(dp1084
g53
(dp1085
g61
I4
ssg62
g1079
sg55
(lp1086
S'http://127.0.0.1:8000/201056161/default/q2s?namen=9'
p1087
asbasbasbag48
(g64
g50
NtRp1088
(dp1089
g53
(dp1090
sg62
g752
sg55
(lp1091
g48
(g69
g50
NtRp1092
(dp1093
g53
(dp1094
g73
g74
ssg62
g1088
sg55
(lp1095
S'http_user_agent'
p1096
asbag48
(g69
g50
NtRp1097
(dp1098
g53
(dp1099
g80
g81
ssg62
g1088
sg55
(lp1100
S':'
asbag48
(g69
g50
NtRp1101
(dp1102
g53
(dp1103
sg62
g1088
sg55
(lp1104
g48
(g49
g50
NtRp1105
(dp1106
g53
(dp1107
g61
I4
ssg62
g1101
sg55
(lp1108
S'Mozilla/5.0 (Windows NT 6.1; WOW64) AppleWebKit/535.1 (KHTML, like Gecko) Chrome/13.0.782.218 Safari/535.1'
p1109
asbasbasbag48
(g64
g50
NtRp1110
(dp1111
g53
(dp1112
sg62
g752
sg55
(lp1113
g48
(g69
g50
NtRp1114
(dp1115
g53
(dp1116
g73
g74
ssg62
g1110
sg55
(lp1117
S'path_info'
p1118
asbag48
(g69
g50
NtRp1119
(dp1120
g53
(dp1121
g80
g81
ssg62
g1110
sg55
(lp1122
S':'
asbag48
(g69
g50
NtRp1123
(dp1124
g53
(dp1125
sg62
g1110
sg55
(lp1126
g48
(g49
g50
NtRp1127
(dp1128
g53
(dp1129
g61
I4
ssg62
g1123
sg55
(lp1130
S'/201056161/default/song_details'
p1131
asbasbasbag48
(g64
g50
NtRp1132
(dp1133
g53
(dp1134
sg62
g752
sg55
(lp1135
g48
(g69
g50
NtRp1136
(dp1137
g53
(dp1138
g73
g74
ssg62
g1132
sg55
(lp1139
S'query_string'
p1140
asbag48
(g69
g50
NtRp1141
(dp1142
g53
(dp1143
g80
g81
ssg62
g1132
sg55
(lp1144
S':'
asbag48
(g69
g50
NtRp1145
(dp1146
g53
(dp1147
sg62
g1132
sg55
(lp1148
g48
(g49
g50
NtRp1149
(dp1150
g53
(dp1151
g61
I4
ssg62
g1145
sg55
(lp1152
S'id=5'
p1153
asbasbasbag48
(g64
g50
NtRp1154
(dp1155
g53
(dp1156
sg62
g752
sg55
(lp1157
g48
(g69
g50
NtRp1158
(dp1159
g53
(dp1160
g73
g74
ssg62
g1154
sg55
(lp1161
S'remote_addr'
p1162
asbag48
(g69
g50
NtRp1163
(dp1164
g53
(dp1165
g80
g81
ssg62
g1154
sg55
(lp1166
S':'
asbag48
(g69
g50
NtRp1167
(dp1168
g53
(dp1169
sg62
g1154
sg55
(lp1170
g48
(g49
g50
NtRp1171
(dp1172
g53
(dp1173
g61
I4
ssg62
g1167
sg55
(lp1174
g181
asbasbasbag48
(g64
g50
NtRp1175
(dp1176
g53
(dp1177
sg62
g752
sg55
(lp1178
g48
(g69
g50
NtRp1179
(dp1180
g53
(dp1181
g73
g74
ssg62
g1175
sg55
(lp1182
S'remote_port'
p1183
asbag48
(g69
g50
NtRp1184
(dp1185
g53
(dp1186
g80
g81
ssg62
g1175
sg55
(lp1187
S':'
asbag48
(g69
g50
NtRp1188
(dp1189
g53
(dp1190
sg62
g1175
sg55
(lp1191
g48
(g49
g50
NtRp1192
(dp1193
g53
(dp1194
g61
I4
ssg62
g1188
sg55
(lp1195
S'51850'
p1196
asbasbasbag48
(g64
g50
NtRp1197
(dp1198
g53
(dp1199
sg62
g752
sg55
(lp1200
g48
(g69
g50
NtRp1201
(dp1202
g53
(dp1203
g73
g74
ssg62
g1197
sg55
(lp1204
S'request_method'
p1205
asbag48
(g69
g50
NtRp1206
(dp1207
g53
(dp1208
g80
g81
ssg62
g1197
sg55
(lp1209
S':'
asbag48
(g69
g50
NtRp1210
(dp1211
g53
(dp1212
sg62
g1197
sg55
(lp1213
g48
(g49
g50
NtRp1214
(dp1215
g53
(dp1216
g61
I4
ssg62
g1210
sg55
(lp1217
S'GET'
p1218
asbasbasbag48
(g64
g50
NtRp1219
(dp1220
g53
(dp1221
sg62
g752
sg55
(lp1222
g48
(g69
g50
NtRp1223
(dp1224
g53
(dp1225
g73
g74
ssg62
g1219
sg55
(lp1226
S'script_name'
p1227
asbag48
(g69
g50
NtRp1228
(dp1229
g53
(dp1230
g80
g81
ssg62
g1219
sg55
(lp1231
S':'
asbag48
(g69
g50
NtRp1232
(dp1233
g53
(dp1234
sg62
g1219
sg55
(lp1235
g48
(g49
g50
NtRp1236
(dp1237
g53
(dp1238
g61
I4
ssg62
g1232
sg55
(lp1239
S''
asbasbasbag48
(g64
g50
NtRp1240
(dp1241
g53
(dp1242
sg62
g752
sg55
(lp1243
g48
(g69
g50
NtRp1244
(dp1245
g53
(dp1246
g73
g74
ssg62
g1240
sg55
(lp1247
S'server_name'
p1248
asbag48
(g69
g50
NtRp1249
(dp1250
g53
(dp1251
g80
g81
ssg62
g1240
sg55
(lp1252
S':'
asbag48
(g69
g50
NtRp1253
(dp1254
g53
(dp1255
sg62
g1240
sg55
(lp1256
g48
(g49
g50
NtRp1257
(dp1258
g53
(dp1259
g61
I4
ssg62
g1253
sg55
(lp1260
S'AKSHAY-PC'
p1261
asbasbasbag48
(g64
g50
NtRp1262
(dp1263
g53
(dp1264
sg62
g752
sg55
(lp1265
g48
(g69
g50
NtRp1266
(dp1267
g53
(dp1268
g73
g74
ssg62
g1262
sg55
(lp1269
S'server_port'
p1270
asbag48
(g69
g50
NtRp1271
(dp1272
g53
(dp1273
g80
g81
ssg62
g1262
sg55
(lp1274
S':'
asbag48
(g69
g50
NtRp1275
(dp1276
g53
(dp1277
sg62
g1262
sg55
(lp1278
g48
(g49
g50
NtRp1279
(dp1280
g53
(dp1281
g61
I4
ssg62
g1275
sg55
(lp1282
S'8000'
p1283
asbasbasbag48
(g64
g50
NtRp1284
(dp1285
g53
(dp1286
sg62
g752
sg55
(lp1287
g48
(g69
g50
NtRp1288
(dp1289
g53
(dp1290
g73
g74
ssg62
g1284
sg55
(lp1291
S'server_protocol'
p1292
asbag48
(g69
g50
NtRp1293
(dp1294
g53
(dp1295
g80
g81
ssg62
g1284
sg55
(lp1296
S':'
asbag48
(g69
g50
NtRp1297
(dp1298
g53
(dp1299
sg62
g1284
sg55
(lp1300
g48
(g49
g50
NtRp1301
(dp1302
g53
(dp1303
g61
I4
ssg62
g1297
sg55
(lp1304
S'HTTP/1.1'
p1305
asbasbasbag48
(g64
g50
NtRp1306
(dp1307
g53
(dp1308
sg62
g752
sg55
(lp1309
g48
(g69
g50
NtRp1310
(dp1311
g53
(dp1312
g73
g74
ssg62
g1306
sg55
(lp1313
S'server_software'
p1314
asbag48
(g69
g50
NtRp1315
(dp1316
g53
(dp1317
g80
g81
ssg62
g1306
sg55
(lp1318
S':'
asbag48
(g69
g50
NtRp1319
(dp1320
g53
(dp1321
sg62
g1306
sg55
(lp1322
g48
(g49
g50
NtRp1323
(dp1324
g53
(dp1325
g61
I4
ssg62
g1319
sg55
(lp1326
S'Rocket 1.2.2'
p1327
asbasbasbag48
(g64
g50
NtRp1328
(dp1329
g53
(dp1330
sg62
g752
sg55
(lp1331
g48
(g69
g50
NtRp1332
(dp1333
g53
(dp1334
g73
g74
ssg62
g1328
sg55
(lp1335
S'web2py_crontype'
p1336
asbag48
(g69
g50
NtRp1337
(dp1338
g53
(dp1339
g80
g81
ssg62
g1328
sg55
(lp1340
S':'
asbag48
(g69
g50
NtRp1341
(dp1342
g53
(dp1343
sg62
g1328
sg55
(lp1344
g48
(g49
g50
NtRp1345
(dp1346
g53
(dp1347
g61
I4
ssg62
g1341
sg55
(lp1348
S'hard'
p1349
asbasbasbag48
(g64
g50
NtRp1350
(dp1351
g53
(dp1352
sg62
g752
sg55
(lp1353
g48
(g69
g50
NtRp1354
(dp1355
g53
(dp1356
g73
g74
ssg62
g1350
sg55
(lp1357
S'web2py_path'
p1358
asbag48
(g69
g50
NtRp1359
(dp1360
g53
(dp1361
g80
g81
ssg62
g1350
sg55
(lp1362
S':'
asbag48
(g69
g50
NtRp1363
(dp1364
g53
(dp1365
sg62
g1350
sg55
(lp1366
g48
(g49
g50
NtRp1367
(dp1368
g53
(dp1369
g61
I4
ssg62
g1363
sg55
(lp1370
g799
asbasbasbag48
(g64
g50
NtRp1371
(dp1372
g53
(dp1373
sg62
g752
sg55
(lp1374
g48
(g69
g50
NtRp1375
(dp1376
g53
(dp1377
g73
g74
ssg62
g1371
sg55
(lp1378
S'web2py_version'
p1379
asbag48
(g69
g50
NtRp1380
(dp1381
g53
(dp1382
g80
g81
ssg62
g1371
sg55
(lp1383
S':'
asbag48
(g69
g50
NtRp1384
(dp1385
g53
(dp1386
sg62
g1371
sg55
(lp1387
g48
(g49
g50
NtRp1388
(dp1389
g53
(dp1390
g61
I4
ssg62
g1384
sg55
(lp1391
S'Version 1.97.1 (2011-06-26 19:25:44)\n'
p1392
asbasbasbag48
(g64
g50
NtRp1393
(dp1394
g53
(dp1395
sg62
g752
sg55
(lp1396
g48
(g69
g50
NtRp1397
(dp1398
g53
(dp1399
g73
g74
ssg62
g1393
sg55
(lp1400
S'wsgi_errors'
p1401
asbag48
(g69
g50
NtRp1402
(dp1403
g53
(dp1404
g80
g81
ssg62
g1393
sg55
(lp1405
S':'
asbag48
(g69
g50
NtRp1406
(dp1407
g53
(dp1408
sg62
g1393
sg55
(lp1409
g48
(g49
g50
NtRp1410
(dp1411
g53
(dp1412
g61
I4
ssg62
g1406
sg55
(lp1413
S"<open file '<stderr>', mode 'w' at 0x002500B0>"
p1414
asbasbasbag48
(g64
g50
NtRp1415
(dp1416
g53
(dp1417
sg62
g752
sg55
(lp1418
g48
(g69
g50
NtRp1419
(dp1420
g53
(dp1421
g73
g74
ssg62
g1415
sg55
(lp1422
S'wsgi_file_wrapper'
p1423
asbag48
(g69
g50
NtRp1424
(dp1425
g53
(dp1426
g80
g81
ssg62
g1415
sg55
(lp1427
S':'
asbag48
(g69
g50
NtRp1428
(dp1429
g53
(dp1430
sg62
g1415
sg55
(lp1431
g48
(g49
g50
NtRp1432
(dp1433
g53
(dp1434
g61
I4
ssg62
g1428
sg55
(lp1435
S'<class gluon.rocket.FileWrapper at 0x03132BA0>'
p1436
asbasbasbag48
(g64
g50
NtRp1437
(dp1438
g53
(dp1439
sg62
g752
sg55
(lp1440
g48
(g69
g50
NtRp1441
(dp1442
g53
(dp1443
g73
g74
ssg62
g1437
sg55
(lp1444
S'wsgi_input'
p1445
asbag48
(g69
g50
NtRp1446
(dp1447
g53
(dp1448
g80
g81
ssg62
g1437
sg55
(lp1449
S':'
asbag48
(g69
g50
NtRp1450
(dp1451
g53
(dp1452
sg62
g1437
sg55
(lp1453
g48
(g49
g50
NtRp1454
(dp1455
g53
(dp1456
g61
I4
ssg62
g1450
sg55
(lp1457
S'<socket._fileobject object at 0x06C2C2F0>'
p1458
asbasbasbag48
(g64
g50
NtRp1459
(dp1460
g53
(dp1461
sg62
g752
sg55
(lp1462
g48
(g69
g50
NtRp1463
(dp1464
g53
(dp1465
g73
g74
ssg62
g1459
sg55
(lp1466
S'wsgi_multiprocess'
p1467
asbag48
(g69
g50
NtRp1468
(dp1469
g53
(dp1470
g80
g81
ssg62
g1459
sg55
(lp1471
S':'
asbag48
(g69
g50
NtRp1472
(dp1473
g53
(dp1474
sg62
g1459
sg55
(lp1475
g48
(g49
g50
NtRp1476
(dp1477
g53
(dp1478
g61
I4
ssg62
g1472
sg55
(lp1479
g91
asbasbasbag48
(g64
g50
NtRp1480
(dp1481
g53
(dp1482
sg62
g752
sg55
(lp1483
g48
(g69
g50
NtRp1484
(dp1485
g53
(dp1486
g73
g74
ssg62
g1480
sg55
(lp1487
S'wsgi_multithread'
p1488
asbag48
(g69
g50
NtRp1489
(dp1490
g53
(dp1491
g80
g81
ssg62
g1480
sg55
(lp1492
S':'
asbag48
(g69
g50
NtRp1493
(dp1494
g53
(dp1495
sg62
g1480
sg55
(lp1496
g48
(g49
g50
NtRp1497
(dp1498
g53
(dp1499
g61
I4
ssg62
g1493
sg55
(lp1500
S'True'
p1501
asbasbasbag48
(g64
g50
NtRp1502
(dp1503
g53
(dp1504
sg62
g752
sg55
(lp1505
g48
(g69
g50
NtRp1506
(dp1507
g53
(dp1508
g73
g74
ssg62
g1502
sg55
(lp1509
S'wsgi_run_once'
p1510
asbag48
(g69
g50
NtRp1511
(dp1512
g53
(dp1513
g80
g81
ssg62
g1502
sg55
(lp1514
S':'
asbag48
(g69
g50
NtRp1515
(dp1516
g53
(dp1517
sg62
g1502
sg55
(lp1518
g48
(g49
g50
NtRp1519
(dp1520
g53
(dp1521
g61
I4
ssg62
g1515
sg55
(lp1522
g91
asbasbasbag48
(g64
g50
NtRp1523
(dp1524
g53
(dp1525
sg62
g752
sg55
(lp1526
g48
(g69
g50
NtRp1527
(dp1528
g53
(dp1529
g73
g74
ssg62
g1523
sg55
(lp1530
S'wsgi_url_scheme'
p1531
asbag48
(g69
g50
NtRp1532
(dp1533
g53
(dp1534
g80
g81
ssg62
g1523
sg55
(lp1535
S':'
asbag48
(g69
g50
NtRp1536
(dp1537
g53
(dp1538
sg62
g1523
sg55
(lp1539
g48
(g49
g50
NtRp1540
(dp1541
g53
(dp1542
g61
I4
ssg62
g1536
sg55
(lp1543
S'http'
p1544
asbasbasbag48
(g64
g50
NtRp1545
(dp1546
g53
(dp1547
sg62
g752
sg55
(lp1548
g48
(g69
g50
NtRp1549
(dp1550
g53
(dp1551
g73
g74
ssg62
g1545
sg55
(lp1552
S'wsgi_version'
p1553
asbag48
(g69
g50
NtRp1554
(dp1555
g53
(dp1556
g80
g81
ssg62
g1545
sg55
(lp1557
S':'
asbag48
(g69
g50
NtRp1558
(dp1559
g53
(dp1560
sg62
g1545
sg55
(lp1561
g48
(g49
g50
NtRp1562
(dp1563
g53
(dp1564
g61
I4
ssg62
g1558
sg55
(lp1565
g48
(g57
g50
NtRp1566
(dp1567
g53
(dp1568
g61
I3
ssg62
Nsg55
(lp1569
g48
(g64
g50
NtRp1570
(dp1571
g53
(dp1572
sg62
g1566
sg55
(lp1573
g48
(g69
g50
NtRp1574
(dp1575
g53
(dp1576
sg62
g1570
sg55
(lp1577
g48
(g49
g50
NtRp1578
(dp1579
g53
(dp1580
g61
I3
ssg62
g1574
sg55
(lp1581
S'1'
asbasbasbag48
(g64
g50
NtRp1582
(dp1583
g53
(dp1584
sg62
g1566
sg55
(lp1585
g48
(g69
g50
NtRp1586
(dp1587
g53
(dp1588
sg62
g1582
sg55
(lp1589
g48
(g49
g50
NtRp1590
(dp1591
g53
(dp1592
g61
I3
ssg62
g1586
sg55
(lp1593
S'0'
asbasbasbasbasbasbasbasbasbasbasbag48
(g64
g50
NtRp1594
(dp1595
g53
(dp1596
sg62
g58
sg55
(lp1597
g48
(g69
g50
NtRp1598
(dp1599
g53
(dp1600
g73
g74
ssg62
g1594
sg55
(lp1601
S'extension'
p1602
asbag48
(g69
g50
NtRp1603
(dp1604
g53
(dp1605
g80
g81
ssg62
g1594
sg55
(lp1606
S':'
asbag48
(g69
g50
NtRp1607
(dp1608
g53
(dp1609
sg62
g1594
sg55
(lp1610
g48
(g49
g50
NtRp1611
(dp1612
g53
(dp1613
g61
I5
ssg62
g1607
sg55
(lp1614
S'html'
p1615
asbasbasbag48
(g64
g50
NtRp1616
(dp1617
g53
(dp1618
sg62
g58
sg55
(lp1619
g48
(g69
g50
NtRp1620
(dp1621
g53
(dp1622
g73
g74
ssg62
g1616
sg55
(lp1623
S'folder'
p1624
asbag48
(g69
g50
NtRp1625
(dp1626
g53
(dp1627
g80
g81
ssg62
g1616
sg55
(lp1628
S':'
asbag48
(g69
g50
NtRp1629
(dp1630
g53
(dp1631
sg62
g1616
sg55
(lp1632
g48
(g49
g50
NtRp1633
(dp1634
g53
(dp1635
g61
I5
ssg62
g1629
sg55
(lp1636
S'C:\\Users\\AKSHAY\\Desktop\\web2py\\applications\\201056161\\'
p1637
asbasbasbag48
(g64
g50
NtRp1638
(dp1639
g53
(dp1640
sg62
g58
sg55
(lp1641
g48
(g69
g50
NtRp1642
(dp1643
g53
(dp1644
g73
g74
ssg62
g1638
sg55
(lp1645
S'function'
p1646
asbag48
(g69
g50
NtRp1647
(dp1648
g53
(dp1649
g80
g81
ssg62
g1638
sg55
(lp1650
S':'
asbag48
(g69
g50
NtRp1651
(dp1652
g53
(dp1653
sg62
g1638
sg55
(lp1654
g48
(g49
g50
NtRp1655
(dp1656
g53
(dp1657
g61
I5
ssg62
g1651
sg55
(lp1658
S'song_details'
p1659
asbasbasbag48
(g64
g50
NtRp1660
(dp1661
g53
(dp1662
sg62
g58
sg55
(lp1663
g48
(g69
g50
NtRp1664
(dp1665
g53
(dp1666
g73
g74
ssg62
g1660
sg55
(lp1667
S'get_vars'
p1668
asbag48
(g69
g50
NtRp1669
(dp1670
g53
(dp1671
g80
g81
ssg62
g1660
sg55
(lp1672
S':'
asbag48
(g69
g50
NtRp1673
(dp1674
g53
(dp1675
sg62
g1660
sg55
(lp1676
g48
(g49
g50
NtRp1677
(dp1678
g53
(dp1679
g61
I5
ssg62
g1673
sg55
(lp1680
g48
(g57
g50
NtRp1681
(dp1682
g53
(dp1683
g61
I4
ssg62
Nsg55
(lp1684
g48
(g64
g50
NtRp1685
(dp1686
g53
(dp1687
sg62
g1681
sg55
(lp1688
g48
(g69
g50
NtRp1689
(dp1690
g53
(dp1691
g73
g74
ssg62
g1685
sg55
(lp1692
S'id'
p1693
asbag48
(g69
g50
NtRp1694
(dp1695
g53
(dp1696
g80
g81
ssg62
g1685
sg55
(lp1697
S':'
asbag48
(g69
g50
NtRp1698
(dp1699
g53
(dp1700
sg62
g1685
sg55
(lp1701
g48
(g49
g50
NtRp1702
(dp1703
g53
(dp1704
g61
I4
ssg62
g1698
sg55
(lp1705
S'5'
asbasbasbasbasbasbasbag48
(g64
g50
NtRp1706
(dp1707
g53
(dp1708
sg62
g58
sg55
(lp1709
g48
(g69
g50
NtRp1710
(dp1711
g53
(dp1712
g73
g74
ssg62
g1706
sg55
(lp1713
S'is_https'
p1714
asbag48
(g69
g50
NtRp1715
(dp1716
g53
(dp1717
g80
g81
ssg62
g1706
sg55
(lp1718
S':'
asbag48
(g69
g50
NtRp1719
(dp1720
g53
(dp1721
sg62
g1706
sg55
(lp1722
g48
(g49
g50
NtRp1723
(dp1724
g53
(dp1725
g61
I5
ssg62
g1719
sg55
(lp1726
g91
asbasbasbag48
(g64
g50
NtRp1727
(dp1728
g53
(dp1729
sg62
g58
sg55
(lp1730
g48
(g69
g50
NtRp1731
(dp1732
g53
(dp1733
g73
g74
ssg62
g1727
sg55
(lp1734
S'is_local'
p1735
asbag48
(g69
g50
NtRp1736
(dp1737
g53
(dp1738
g80
g81
ssg62
g1727
sg55
(lp1739
S':'
asbag48
(g69
g50
NtRp1740
(dp1741
g53
(dp1742
sg62
g1727
sg55
(lp1743
g48
(g49
g50
NtRp1744
(dp1745
g53
(dp1746
g61
I5
ssg62
g1740
sg55
(lp1747
g1501
asbasbasbag48
(g64
g50
NtRp1748
(dp1749
g53
(dp1750
sg62
g58
sg55
(lp1751
g48
(g69
g50
NtRp1752
(dp1753
g53
(dp1754
g73
g74
ssg62
g1748
sg55
(lp1755
S'is_restful'
p1756
asbag48
(g69
g50
NtRp1757
(dp1758
g53
(dp1759
g80
g81
ssg62
g1748
sg55
(lp1760
S':'
asbag48
(g69
g50
NtRp1761
(dp1762
g53
(dp1763
sg62
g1748
sg55
(lp1764
g48
(g49
g50
NtRp1765
(dp1766
g53
(dp1767
g61
I5
ssg62
g1761
sg55
(lp1768
g91
asbasbasbag48
(g64
g50
NtRp1769
(dp1770
g53
(dp1771
sg62
g58
sg55
(lp1772
g48
(g69
g50
NtRp1773
(dp1774
g53
(dp1775
g73
g74
ssg62
g1769
sg55
(lp1776
S'now'
p1777
asbag48
(g69
g50
NtRp1778
(dp1779
g53
(dp1780
g80
g81
ssg62
g1769
sg55
(lp1781
S':'
asbag48
(g69
g50
NtRp1782
(dp1783
g53
(dp1784
sg62
g1769
sg55
(lp1785
g48
(g49
g50
NtRp1786
(dp1787
g53
(dp1788
g61
I5
ssg62
g1782
sg55
(lp1789
S'datetime.datetime(2011, 9, 7, 3, 22, 32, 174000)'
p1790
asbasbasbag48
(g64
g50
NtRp1791
(dp1792
g53
(dp1793
sg62
g58
sg55
(lp1794
g48
(g69
g50
NtRp1795
(dp1796
g53
(dp1797
g73
g74
ssg62
g1791
sg55
(lp1798
S'post_vars'
p1799
asbag48
(g69
g50
NtRp1800
(dp1801
g53
(dp1802
g80
g81
ssg62
g1791
sg55
(lp1803
S':'
asbag48
(g69
g50
NtRp1804
(dp1805
g53
(dp1806
sg62
g1791
sg55
(lp1807
g48
(g49
g50
NtRp1808
(dp1809
g53
(dp1810
g61
I5
ssg62
g1804
sg55
(lp1811
g48
(g57
g50
NtRp1812
(dp1813
g53
(dp1814
g61
I4
ssg62
Nsg55
(lp1815
sbasbasbasbag48
(g64
g50
NtRp1816
(dp1817
g53
(dp1818
sg62
g58
sg55
(lp1819
g48
(g69
g50
NtRp1820
(dp1821
g53
(dp1822
g73
g74
ssg62
g1816
sg55
(lp1823
S'url'
p1824
asbag48
(g69
g50
NtRp1825
(dp1826
g53
(dp1827
g80
g81
ssg62
g1816
sg55
(lp1828
S':'
asbag48
(g69
g50
NtRp1829
(dp1830
g53
(dp1831
sg62
g1816
sg55
(lp1832
g48
(g49
g50
NtRp1833
(dp1834
g53
(dp1835
g61
I5
ssg62
g1829
sg55
(lp1836
S'/201056161/default/song_details'
p1837
asbasbasbag48
(g64
g50
NtRp1838
(dp1839
g53
(dp1840
sg62
g58
sg55
(lp1841
g48
(g69
g50
NtRp1842
(dp1843
g53
(dp1844
g73
g74
ssg62
g1838
sg55
(lp1845
S'uuid'
p1846
asbag48
(g69
g50
NtRp1847
(dp1848
g53
(dp1849
g80
g81
ssg62
g1838
sg55
(lp1850
S':'
asbag48
(g69
g50
NtRp1851
(dp1852
g53
(dp1853
sg62
g1838
sg55
(lp1854
g48
(g49
g50
NtRp1855
(dp1856
g53
(dp1857
g61
I5
ssg62
g1851
sg55
(lp1858
S'201056161/127.0.0.1.2011-09-07.03-22-32.99129464-084e-4574-ae0e-509d766519bf'
p1859
asbasbasbag48
(g64
g50
NtRp1860
(dp1861
g53
(dp1862
sg62
g58
sg55
(lp1863
g48
(g69
g50
NtRp1864
(dp1865
g53
(dp1866
g73
g74
ssg62
g1860
sg55
(lp1867
S'vars'
p1868
asbag48
(g69
g50
NtRp1869
(dp1870
g53
(dp1871
g80
g81
ssg62
g1860
sg55
(lp1872
S':'
asbag48
(g69
g50
NtRp1873
(dp1874
g53
(dp1875
sg62
g1860
sg55
(lp1876
g48
(g49
g50
NtRp1877
(dp1878
g53
(dp1879
g61
I5
ssg62
g1873
sg55
(lp1880
g48
(g57
g50
NtRp1881
(dp1882
g53
(dp1883
g61
I4
ssg62
Nsg55
(lp1884
g48
(g64
g50
NtRp1885
(dp1886
g53
(dp1887
sg62
g1881
sg55
(lp1888
g48
(g69
g50
NtRp1889
(dp1890
g53
(dp1891
g73
g74
ssg62
g1885
sg55
(lp1892
g1693
asbag48
(g69
g50
NtRp1893
(dp1894
g53
(dp1895
g80
g81
ssg62
g1885
sg55
(lp1896
S':'
asbag48
(g69
g50
NtRp1897
(dp1898
g53
(dp1899
sg62
g1885
sg55
(lp1900
g48
(g49
g50
NtRp1901
(dp1902
g53
(dp1903
g61
I4
ssg62
g1897
sg55
(lp1904
S'5'
asbasbasbasbasbasbasbag48
(g64
g50
NtRp1905
(dp1906
g53
(dp1907
sg62
g58
sg55
(lp1908
g48
(g69
g50
NtRp1909
(dp1910
g53
(dp1911
g73
g74
ssg62
g1905
sg55
(lp1912
S'wsgi'
p1913
asbag48
(g69
g50
NtRp1914
(dp1915
g53
(dp1916
g80
g81
ssg62
g1905
sg55
(lp1917
S':'
asbag48
(g69
g50
NtRp1918
(dp1919
g53
(dp1920
sg62
g1905
sg55
(lp1921
g48
(g49
g50
NtRp1922
(dp1923
g53
(dp1924
g61
I5
ssg62
g1918
sg55
(lp1925
g48
(g57
g50
NtRp1926
(dp1927
g53
(dp1928
g61
I4
ssg62
Nsg55
(lp1929
g48
(g64
g50
NtRp1930
(dp1931
g53
(dp1932
sg62
g1926
sg55
(lp1933
g48
(g69
g50
NtRp1934
(dp1935
g53
(dp1936
g73
g74
ssg62
g1930
sg55
(lp1937
S'environ'
p1938
asbag48
(g69
g50
NtRp1939
(dp1940
g53
(dp1941
g80
g81
ssg62
g1930
sg55
(lp1942
S':'
asbag48
(g69
g50
NtRp1943
(dp1944
g53
(dp1945
sg62
g1930
sg55
(lp1946
g48
(g49
g50
NtRp1947
(dp1948
g53
(dp1949
g61
I4
ssg62
g1943
sg55
(lp1950
g48
(g57
g50
NtRp1951
(dp1952
g53
(dp1953
g61
I3
ssg62
Nsg55
(lp1954
g48
(g64
g50
NtRp1955
(dp1956
g53
(dp1957
sg62
g1951
sg55
(lp1958
g48
(g69
g50
NtRp1959
(dp1960
g53
(dp1961
g73
g74
ssg62
g1955
sg55
(lp1962
S'HTTP_ACCEPT'
p1963
asbag48
(g69
g50
NtRp1964
(dp1965
g53
(dp1966
g80
g81
ssg62
g1955
sg55
(lp1967
S':'
asbag48
(g69
g50
NtRp1968
(dp1969
g53
(dp1970
sg62
g1955
sg55
(lp1971
g48
(g49
g50
NtRp1972
(dp1973
g53
(dp1974
g61
I3
ssg62
g1968
sg55
(lp1975
g933
asbasbasbag48
(g64
g50
NtRp1976
(dp1977
g53
(dp1978
sg62
g1951
sg55
(lp1979
g48
(g69
g50
NtRp1980
(dp1981
g53
(dp1982
g73
g74
ssg62
g1976
sg55
(lp1983
S'HTTP_ACCEPT_CHARSET'
p1984
asbag48
(g69
g50
NtRp1985
(dp1986
g53
(dp1987
g80
g81
ssg62
g1976
sg55
(lp1988
S':'
asbag48
(g69
g50
NtRp1989
(dp1990
g53
(dp1991
sg62
g1976
sg55
(lp1992
g48
(g49
g50
NtRp1993
(dp1994
g53
(dp1995
g61
I3
ssg62
g1989
sg55
(lp1996
g955
asbasbasbag48
(g64
g50
NtRp1997
(dp1998
g53
(dp1999
sg62
g1951
sg55
(lp2000
g48
(g69
g50
NtRp2001
(dp2002
g53
(dp2003
g73
g74
ssg62
g1997
sg55
(lp2004
S'HTTP_ACCEPT_ENCODING'
p2005
asbag48
(g69
g50
NtRp2006
(dp2007
g53
(dp2008
g80
g81
ssg62
g1997
sg55
(lp2009
S':'
asbag48
(g69
g50
NtRp2010
(dp2011
g53
(dp2012
sg62
g1997
sg55
(lp2013
g48
(g49
g50
NtRp2014
(dp2015
g53
(dp2016
g61
I3
ssg62
g2010
sg55
(lp2017
g977
asbasbasbag48
(g64
g50
NtRp2018
(dp2019
g53
(dp2020
sg62
g1951
sg55
(lp2021
g48
(g69
g50
NtRp2022
(dp2023
g53
(dp2024
g73
g74
ssg62
g2018
sg55
(lp2025
S'HTTP_ACCEPT_LANGUAGE'
p2026
asbag48
(g69
g50
NtRp2027
(dp2028
g53
(dp2029
g80
g81
ssg62
g2018
sg55
(lp2030
S':'
asbag48
(g69
g50
NtRp2031
(dp2032
g53
(dp2033
sg62
g2018
sg55
(lp2034
g48
(g49
g50
NtRp2035
(dp2036
g53
(dp2037
g61
I3
ssg62
g2031
sg55
(lp2038
g999
asbasbasbag48
(g64
g50
NtRp2039
(dp2040
g53
(dp2041
sg62
g1951
sg55
(lp2042
g48
(g69
g50
NtRp2043
(dp2044
g53
(dp2045
g73
g74
ssg62
g2039
sg55
(lp2046
S'HTTP_CONNECTION'
p2047
asbag48
(g69
g50
NtRp2048
(dp2049
g53
(dp2050
g80
g81
ssg62
g2039
sg55
(lp2051
S':'
asbag48
(g69
g50
NtRp2052
(dp2053
g53
(dp2054
sg62
g2039
sg55
(lp2055
g48
(g49
g50
NtRp2056
(dp2057
g53
(dp2058
g61
I3
ssg62
g2052
sg55
(lp2059
g1021
asbasbasbag48
(g64
g50
NtRp2060
(dp2061
g53
(dp2062
sg62
g1951
sg55
(lp2063
g48
(g69
g50
NtRp2064
(dp2065
g53
(dp2066
g73
g74
ssg62
g2060
sg55
(lp2067
S'HTTP_COOKIE'
p2068
asbag48
(g69
g50
NtRp2069
(dp2070
g53
(dp2071
g80
g81
ssg62
g2060
sg55
(lp2072
S':'
asbag48
(g69
g50
NtRp2073
(dp2074
g53
(dp2075
sg62
g2060
sg55
(lp2076
g48
(g49
g50
NtRp2077
(dp2078
g53
(dp2079
g61
I3
ssg62
g2073
sg55
(lp2080
g1043
asbasbasbag48
(g64
g50
NtRp2081
(dp2082
g53
(dp2083
sg62
g1951
sg55
(lp2084
g48
(g69
g50
NtRp2085
(dp2086
g53
(dp2087
g73
g74
ssg62
g2081
sg55
(lp2088
S'HTTP_HOST'
p2089
asbag48
(g69
g50
NtRp2090
(dp2091
g53
(dp2092
g80
g81
ssg62
g2081
sg55
(lp2093
S':'
asbag48
(g69
g50
NtRp2094
(dp2095
g53
(dp2096
sg62
g2081
sg55
(lp2097
g48
(g49
g50
NtRp2098
(dp2099
g53
(dp2100
g61
I3
ssg62
g2094
sg55
(lp2101
g1065
asbasbasbag48
(g64
g50
NtRp2102
(dp2103
g53
(dp2104
sg62
g1951
sg55
(lp2105
g48
(g69
g50
NtRp2106
(dp2107
g53
(dp2108
g73
g74
ssg62
g2102
sg55
(lp2109
S'HTTP_REFERER'
p2110
asbag48
(g69
g50
NtRp2111
(dp2112
g53
(dp2113
g80
g81
ssg62
g2102
sg55
(lp2114
S':'
asbag48
(g69
g50
NtRp2115
(dp2116
g53
(dp2117
sg62
g2102
sg55
(lp2118
g48
(g49
g50
NtRp2119
(dp2120
g53
(dp2121
g61
I3
ssg62
g2115
sg55
(lp2122
g1087
asbasbasbag48
(g64
g50
NtRp2123
(dp2124
g53
(dp2125
sg62
g1951
sg55
(lp2126
g48
(g69
g50
NtRp2127
(dp2128
g53
(dp2129
g73
g74
ssg62
g2123
sg55
(lp2130
S'HTTP_USER_AGENT'
p2131
asbag48
(g69
g50
NtRp2132
(dp2133
g53
(dp2134
g80
g81
ssg62
g2123
sg55
(lp2135
S':'
asbag48
(g69
g50
NtRp2136
(dp2137
g53
(dp2138
sg62
g2123
sg55
(lp2139
g48
(g49
g50
NtRp2140
(dp2141
g53
(dp2142
g61
I3
ssg62
g2136
sg55
(lp2143
g1109
asbasbasbag48
(g64
g50
NtRp2144
(dp2145
g53
(dp2146
sg62
g1951
sg55
(lp2147
g48
(g69
g50
NtRp2148
(dp2149
g53
(dp2150
g73
g74
ssg62
g2144
sg55
(lp2151
S'PATH_INFO'
p2152
asbag48
(g69
g50
NtRp2153
(dp2154
g53
(dp2155
g80
g81
ssg62
g2144
sg55
(lp2156
S':'
asbag48
(g69
g50
NtRp2157
(dp2158
g53
(dp2159
sg62
g2144
sg55
(lp2160
g48
(g49
g50
NtRp2161
(dp2162
g53
(dp2163
g61
I3
ssg62
g2157
sg55
(lp2164
g1131
asbasbasbag48
(g64
g50
NtRp2165
(dp2166
g53
(dp2167
sg62
g1951
sg55
(lp2168
g48
(g69
g50
NtRp2169
(dp2170
g53
(dp2171
g73
g74
ssg62
g2165
sg55
(lp2172
S'QUERY_STRING'
p2173
asbag48
(g69
g50
NtRp2174
(dp2175
g53
(dp2176
g80
g81
ssg62
g2165
sg55
(lp2177
S':'
asbag48
(g69
g50
NtRp2178
(dp2179
g53
(dp2180
sg62
g2165
sg55
(lp2181
g48
(g49
g50
NtRp2182
(dp2183
g53
(dp2184
g61
I3
ssg62
g2178
sg55
(lp2185
g1153
asbasbasbag48
(g64
g50
NtRp2186
(dp2187
g53
(dp2188
sg62
g1951
sg55
(lp2189
g48
(g69
g50
NtRp2190
(dp2191
g53
(dp2192
g73
g74
ssg62
g2186
sg55
(lp2193
S'REMOTE_ADDR'
p2194
asbag48
(g69
g50
NtRp2195
(dp2196
g53
(dp2197
g80
g81
ssg62
g2186
sg55
(lp2198
S':'
asbag48
(g69
g50
NtRp2199
(dp2200
g53
(dp2201
sg62
g2186
sg55
(lp2202
g48
(g49
g50
NtRp2203
(dp2204
g53
(dp2205
g61
I3
ssg62
g2199
sg55
(lp2206
g181
asbasbasbag48
(g64
g50
NtRp2207
(dp2208
g53
(dp2209
sg62
g1951
sg55
(lp2210
g48
(g69
g50
NtRp2211
(dp2212
g53
(dp2213
g73
g74
ssg62
g2207
sg55
(lp2214
S'REMOTE_PORT'
p2215
asbag48
(g69
g50
NtRp2216
(dp2217
g53
(dp2218
g80
g81
ssg62
g2207
sg55
(lp2219
S':'
asbag48
(g69
g50
NtRp2220
(dp2221
g53
(dp2222
sg62
g2207
sg55
(lp2223
g48
(g49
g50
NtRp2224
(dp2225
g53
(dp2226
g61
I3
ssg62
g2220
sg55
(lp2227
g1196
asbasbasbag48
(g64
g50
NtRp2228
(dp2229
g53
(dp2230
sg62
g1951
sg55
(lp2231
g48
(g69
g50
NtRp2232
(dp2233
g53
(dp2234
g73
g74
ssg62
g2228
sg55
(lp2235
S'REQUEST_METHOD'
p2236
asbag48
(g69
g50
NtRp2237
(dp2238
g53
(dp2239
g80
g81
ssg62
g2228
sg55
(lp2240
S':'
asbag48
(g69
g50
NtRp2241
(dp2242
g53
(dp2243
sg62
g2228
sg55
(lp2244
g48
(g49
g50
NtRp2245
(dp2246
g53
(dp2247
g61
I3
ssg62
g2241
sg55
(lp2248
g1218
asbasbasbag48
(g64
g50
NtRp2249
(dp2250
g53
(dp2251
sg62
g1951
sg55
(lp2252
g48
(g69
g50
NtRp2253
(dp2254
g53
(dp2255
g73
g74
ssg62
g2249
sg55
(lp2256
S'SCRIPT_NAME'
p2257
asbag48
(g69
g50
NtRp2258
(dp2259
g53
(dp2260
g80
g81
ssg62
g2249
sg55
(lp2261
S':'
asbag48
(g69
g50
NtRp2262
(dp2263
g53
(dp2264
sg62
g2249
sg55
(lp2265
g48
(g49
g50
NtRp2266
(dp2267
g53
(dp2268
g61
I3
ssg62
g2262
sg55
(lp2269
S''
asbasbasbag48
(g64
g50
NtRp2270
(dp2271
g53
(dp2272
sg62
g1951
sg55
(lp2273
g48
(g69
g50
NtRp2274
(dp2275
g53
(dp2276
g73
g74
ssg62
g2270
sg55
(lp2277
S'SERVER_NAME'
p2278
asbag48
(g69
g50
NtRp2279
(dp2280
g53
(dp2281
g80
g81
ssg62
g2270
sg55
(lp2282
S':'
asbag48
(g69
g50
NtRp2283
(dp2284
g53
(dp2285
sg62
g2270
sg55
(lp2286
g48
(g49
g50
NtRp2287
(dp2288
g53
(dp2289
g61
I3
ssg62
g2283
sg55
(lp2290
g1261
asbasbasbag48
(g64
g50
NtRp2291
(dp2292
g53
(dp2293
sg62
g1951
sg55
(lp2294
g48
(g69
g50
NtRp2295
(dp2296
g53
(dp2297
g73
g74
ssg62
g2291
sg55
(lp2298
S'SERVER_PORT'
p2299
asbag48
(g69
g50
NtRp2300
(dp2301
g53
(dp2302
g80
g81
ssg62
g2291
sg55
(lp2303
S':'
asbag48
(g69
g50
NtRp2304
(dp2305
g53
(dp2306
sg62
g2291
sg55
(lp2307
g48
(g49
g50
NtRp2308
(dp2309
g53
(dp2310
g61
I3
ssg62
g2304
sg55
(lp2311
g1283
asbasbasbag48
(g64
g50
NtRp2312
(dp2313
g53
(dp2314
sg62
g1951
sg55
(lp2315
g48
(g69
g50
NtRp2316
(dp2317
g53
(dp2318
g73
g74
ssg62
g2312
sg55
(lp2319
S'SERVER_PROTOCOL'
p2320
asbag48
(g69
g50
NtRp2321
(dp2322
g53
(dp2323
g80
g81
ssg62
g2312
sg55
(lp2324
S':'
asbag48
(g69
g50
NtRp2325
(dp2326
g53
(dp2327
sg62
g2312
sg55
(lp2328
g48
(g49
g50
NtRp2329
(dp2330
g53
(dp2331
g61
I3
ssg62
g2325
sg55
(lp2332
g1305
asbasbasbag48
(g64
g50
NtRp2333
(dp2334
g53
(dp2335
sg62
g1951
sg55
(lp2336
g48
(g69
g50
NtRp2337
(dp2338
g53
(dp2339
g73
g74
ssg62
g2333
sg55
(lp2340
S'SERVER_SOFTWARE'
p2341
asbag48
(g69
g50
NtRp2342
(dp2343
g53
(dp2344
g80
g81
ssg62
g2333
sg55
(lp2345
S':'
asbag48
(g69
g50
NtRp2346
(dp2347
g53
(dp2348
sg62
g2333
sg55
(lp2349
g48
(g49
g50
NtRp2350
(dp2351
g53
(dp2352
g61
I3
ssg62
g2346
sg55
(lp2353
g1327
asbasbasbag48
(g64
g50
NtRp2354
(dp2355
g53
(dp2356
sg62
g1951
sg55
(lp2357
g48
(g69
g50
NtRp2358
(dp2359
g53
(dp2360
g73
g74
ssg62
g2354
sg55
(lp2361
S'wsgi.errors'
p2362
asbag48
(g69
g50
NtRp2363
(dp2364
g53
(dp2365
g80
g81
ssg62
g2354
sg55
(lp2366
S':'
asbag48
(g69
g50
NtRp2367
(dp2368
g53
(dp2369
sg62
g2354
sg55
(lp2370
g48
(g49
g50
NtRp2371
(dp2372
g53
(dp2373
g61
I3
ssg62
g2367
sg55
(lp2374
S"<open file '<stderr>', mode 'w' at 0x002500B0>"
p2375
asbasbasbag48
(g64
g50
NtRp2376
(dp2377
g53
(dp2378
sg62
g1951
sg55
(lp2379
g48
(g69
g50
NtRp2380
(dp2381
g53
(dp2382
g73
g74
ssg62
g2376
sg55
(lp2383
S'wsgi.file_wrapper'
p2384
asbag48
(g69
g50
NtRp2385
(dp2386
g53
(dp2387
g80
g81
ssg62
g2376
sg55
(lp2388
S':'
asbag48
(g69
g50
NtRp2389
(dp2390
g53
(dp2391
sg62
g2376
sg55
(lp2392
g48
(g49
g50
NtRp2393
(dp2394
g53
(dp2395
g61
I3
ssg62
g2389
sg55
(lp2396
S'<class gluon.rocket.FileWrapper at 0x03132BA0>'
p2397
asbasbasbag48
(g64
g50
NtRp2398
(dp2399
g53
(dp2400
sg62
g1951
sg55
(lp2401
g48
(g69
g50
NtRp2402
(dp2403
g53
(dp2404
g73
g74
ssg62
g2398
sg55
(lp2405
S'wsgi.input'
p2406
asbag48
(g69
g50
NtRp2407
(dp2408
g53
(dp2409
g80
g81
ssg62
g2398
sg55
(lp2410
S':'
asbag48
(g69
g50
NtRp2411
(dp2412
g53
(dp2413
sg62
g2398
sg55
(lp2414
g48
(g49
g50
NtRp2415
(dp2416
g53
(dp2417
g61
I3
ssg62
g2411
sg55
(lp2418
S'<cStringIO.StringO object at 0x074F4DE0>'
p2419
asbasbasbag48
(g64
g50
NtRp2420
(dp2421
g53
(dp2422
sg62
g1951
sg55
(lp2423
g48
(g69
g50
NtRp2424
(dp2425
g53
(dp2426
g73
g74
ssg62
g2420
sg55
(lp2427
S'wsgi.multiprocess'
p2428
asbag48
(g69
g50
NtRp2429
(dp2430
g53
(dp2431
g80
g81
ssg62
g2420
sg55
(lp2432
S':'
asbag48
(g69
g50
NtRp2433
(dp2434
g53
(dp2435
sg62
g2420
sg55
(lp2436
g48
(g49
g50
NtRp2437
(dp2438
g53
(dp2439
g61
I3
ssg62
g2433
sg55
(lp2440
g91
asbasbasbag48
(g64
g50
NtRp2441
(dp2442
g53
(dp2443
sg62
g1951
sg55
(lp2444
g48
(g69
g50
NtRp2445
(dp2446
g53
(dp2447
g73
g74
ssg62
g2441
sg55
(lp2448
S'wsgi.multithread'
p2449
asbag48
(g69
g50
NtRp2450
(dp2451
g53
(dp2452
g80
g81
ssg62
g2441
sg55
(lp2453
S':'
asbag48
(g69
g50
NtRp2454
(dp2455
g53
(dp2456
sg62
g2441
sg55
(lp2457
g48
(g49
g50
NtRp2458
(dp2459
g53
(dp2460
g61
I3
ssg62
g2454
sg55
(lp2461
g1501
asbasbasbag48
(g64
g50
NtRp2462
(dp2463
g53
(dp2464
sg62
g1951
sg55
(lp2465
g48
(g69
g50
NtRp2466
(dp2467
g53
(dp2468
g73
g74
ssg62
g2462
sg55
(lp2469
S'wsgi.run_once'
p2470
asbag48
(g69
g50
NtRp2471
(dp2472
g53
(dp2473
g80
g81
ssg62
g2462
sg55
(lp2474
S':'
asbag48
(g69
g50
NtRp2475
(dp2476
g53
(dp2477
sg62
g2462
sg55
(lp2478
g48
(g49
g50
NtRp2479
(dp2480
g53
(dp2481
g61
I3
ssg62
g2475
sg55
(lp2482
g91
asbasbasbag48
(g64
g50
NtRp2483
(dp2484
g53
(dp2485
sg62
g1951
sg55
(lp2486
g48
(g69
g50
NtRp2487
(dp2488
g53
(dp2489
g73
g74
ssg62
g2483
sg55
(lp2490
S'wsgi.url_scheme'
p2491
asbag48
(g69
g50
NtRp2492
(dp2493
g53
(dp2494
g80
g81
ssg62
g2483
sg55
(lp2495
S':'
asbag48
(g69
g50
NtRp2496
(dp2497
g53
(dp2498
sg62
g2483
sg55
(lp2499
g48
(g49
g50
NtRp2500
(dp2501
g53
(dp2502
g61
I3
ssg62
g2496
sg55
(lp2503
g1544
asbasbasbag48
(g64
g50
NtRp2504
(dp2505
g53
(dp2506
sg62
g1951
sg55
(lp2507
g48
(g69
g50
NtRp2508
(dp2509
g53
(dp2510
g73
g74
ssg62
g2504
sg55
(lp2511
S'wsgi.version'
p2512
asbag48
(g69
g50
NtRp2513
(dp2514
g53
(dp2515
g80
g81
ssg62
g2504
sg55
(lp2516
S':'
asbag48
(g69
g50
NtRp2517
(dp2518
g53
(dp2519
sg62
g2504
sg55
(lp2520
g48
(g49
g50
NtRp2521
(dp2522
g53
(dp2523
g61
I3
ssg62
g2517
sg55
(lp2524
S'1'
asbasbasbasbasbasbasbasbasbasbasbasbasbsS'frames'
p2525
(lp2526
(dp2527
S'file'
p2528
S'C:\\Users\\AKSHAY\\Desktop\\web2py\\gluon\\restricted.py'
p2529
sS'dump'
p2530
(dp2531
sS'lnum'
p2532
I192
sS'lines'
p2533
(dp2534
sS'call'
p2535
S"(code='# -*- coding: utf-8 -*-\\n# this file is released ...)\\n\\nresponse._vars=response._caller(song_details)\\n', environment={'A': <class 'gluon.html.A'>, 'Auth': <class 'gluon.tools.Auth'>, 'B': <class 'gluon.html.B'>, 'BEAUTIFY': <class 'gluon.html.BEAUTIFY'>, 'BODY': <class 'gluon.html.BODY'>, 'BR': <class 'gluon.html.BR'>, 'BUTTON': <class 'gluon.html.BUTTON'>, 'CENTER': <class 'gluon.html.CENTER'>, 'CLEANUP': <class 'gluon.validators.CLEANUP'>, 'CODE': <class 'gluon.html.CODE'>, ...}, layer=r'C:\\Users\\AKSHAY\\Desktop\\web2py\\applications\\201056161\\controllers/default.py')"
p2536
sS'func'
p2537
S'restricted'
p2538
sa(dp2539
g2528
S'C:\\Users\\AKSHAY\\Desktop\\web2py\\applications\\201056161\\controllers\\default.py'
p2540
sg2530
(dp2541
sg2532
I156
sg2533
(dp2542
I145
S"      response.flash='New Song Record Inserted'"
p2543
sI146
S'  elif form.errors:'
p2544
sI147
S"      response.flash='Errors in form'"
p2545
sI148
S'  return dict(form=form)'
p2546
sI149
S'def newq():'
p2547
sI150
S'  return dict()'
p2548
sI151
S'def song_details():'
p2549
sI152
S'  idn=int(request.vars.id)'
p2550
sI153
S'  records=db(db.song.id==idn).select.ALL'
p2551
sI154
S'  return dict(records=records)'
p2552
ssg2535
S'()'
p2553
sg2537
S'<module>'
p2554
sa(dp2555
g2528
S'C:\\Users\\AKSHAY\\Desktop\\web2py\\gluon\\globals.py'
p2556
sg2530
(dp2557
sg2532
I137
sg2533
(dp2558
sg2535
S'(f=<function song_details at 0x074DA7B0>)'
p2559
sg2537
S'<lambda>'
p2560
sa(dp2561
g2528
S'C:\\Users\\AKSHAY\\Desktop\\web2py\\applications\\201056161\\controllers\\default.py'
p2562
sg2530
(dp2563
sg2532
I153
sg2533
(dp2564
I145
S"      response.flash='New Song Record Inserted'"
p2565
sI146
S'  elif form.errors:'
p2566
sI147
S"      response.flash='Errors in form'"
p2567
sI148
S'  return dict(form=form)'
p2568
sI149
S'def newq():'
p2569
sI150
S'  return dict()'
p2570
sI151
S'def song_details():'
p2571
sI152
S'  idn=int(request.vars.id)'
p2572
sI153
S'  records=db(db.song.id==idn).select.ALL'
p2573
sI154
S'  return dict(records=records)'
p2574
ssg2535
S'()'
p2575
sg2537
S'song_details'
p2576
sasS'pyver'
p2577
S'Python 2.5.4: C:\\Users\\AKSHAY\\Desktop\\web2py\\web2py.exe'
p2578
sS'session'
p2579
g48
(g49
g50
NtRp2580
(dp2581
g53
(dp2582
sg55
(lp2583
g48
(g57
g50
NtRp2584
(dp2585
g53
(dp2586
g61
I5
ssg62
Nsg55
(lp2587
g48
(g64
g50
NtRp2588
(dp2589
g53
(dp2590
sg62
g2584
sg55
(lp2591
g48
(g69
g50
NtRp2592
(dp2593
g53
(dp2594
g73
g74
ssg62
g2588
sg55
(lp2595
S'last_query'
p2596
asbag48
(g69
g50
NtRp2597
(dp2598
g53
(dp2599
g80
g81
ssg62
g2588
sg55
(lp2600
S':'
asbag48
(g69
g50
NtRp2601
(dp2602
g53
(dp2603
sg62
g2588
sg55
(lp2604
g48
(g49
g50
NtRp2605
(dp2606
g53
(dp2607
g61
I5
ssg62
g2601
sg55
(lp2608
S'db.song.id>0'
p2609
asbasbasbasbasbsS'etype'
p2610
S"<type 'exceptions.AttributeError'>"
p2611
sS'date'
p2612
S'Wed Sep 07 03:22:32 2011'
p2613
sS'response'
p2614
g48
(g49
g50
NtRp2615
(dp2616
g53
(dp2617
sg55
(lp2618
g48
(g57
g50
NtRp2619
(dp2620
g53
(dp2621
g61
I5
ssg62
Nsg55
(lp2622
g48
(g64
g50
NtRp2623
(dp2624
g53
(dp2625
sg62
g2619
sg55
(lp2626
g48
(g69
g50
NtRp2627
(dp2628
g53
(dp2629
g73
g74
ssg62
g2623
sg55
(lp2630
g146
asbag48
(g69
g50
NtRp2631
(dp2632
g53
(dp2633
g80
g81
ssg62
g2623
sg55
(lp2634
S':'
asbag48
(g69
g50
NtRp2635
(dp2636
g53
(dp2637
sg62
g2623
sg55
(lp2638
g48
(g49
g50
NtRp2639
(dp2640
g53
(dp2641
g61
I5
ssg62
g2635
sg55
(lp2642
S'<cStringIO.StringO object at 0x074F43A0>'
p2643
asbasbasbag48
(g64
g50
NtRp2644
(dp2645
g53
(dp2646
sg62
g2619
sg55
(lp2647
g48
(g69
g50
NtRp2648
(dp2649
g53
(dp2650
g73
g74
ssg62
g2644
sg55
(lp2651
g212
asbag48
(g69
g50
NtRp2652
(dp2653
g53
(dp2654
g80
g81
ssg62
g2644
sg55
(lp2655
S':'
asbag48
(g69
g50
NtRp2656
(dp2657
g53
(dp2658
sg62
g2644
sg55
(lp2659
g48
(g49
g50
NtRp2660
(dp2661
g53
(dp2662
g61
I5
ssg62
g2656
sg55
(lp2663
g48
(g57
g50
NtRp2664
(dp2665
g53
(dp2666
g61
I4
ssg62
Nsg55
(lp2667
g48
(g64
g50
NtRp2668
(dp2669
g53
(dp2670
sg62
g2664
sg55
(lp2671
g48
(g69
g50
NtRp2672
(dp2673
g53
(dp2674
g73
g74
ssg62
g2668
sg55
(lp2675
S'session_id_201056161'
p2676
asbag48
(g69
g50
NtRp2677
(dp2678
g53
(dp2679
g80
g81
ssg62
g2668
sg55
(lp2680
S':'
asbag48
(g69
g50
NtRp2681
(dp2682
g53
(dp2683
sg62
g2668
sg55
(lp2684
g48
(g49
g50
NtRp2685
(dp2686
g53
(dp2687
g61
I4
ssg62
g2681
sg55
(lp2688
g48
(g57
g50
NtRp2689
(dp2690
g53
(dp2691
g61
I3
ssg62
Nsg55
(lp2692
g48
(g64
g50
NtRp2693
(dp2694
g53
(dp2695
sg62
g2689
sg55
(lp2696
g48
(g69
g50
NtRp2697
(dp2698
g53
(dp2699
g73
g74
ssg62
g2693
sg55
(lp2700
g262
asbag48
(g69
g50
NtRp2701
(dp2702
g53
(dp2703
g80
g81
ssg62
g2693
sg55
(lp2704
S':'
asbag48
(g69
g50
NtRp2705
(dp2706
g53
(dp2707
sg62
g2693
sg55
(lp2708
g48
(g49
g50
NtRp2709
(dp2710
g53
(dp2711
g61
I3
ssg62
g2705
sg55
(lp2712
S''
asbasbasbag48
(g64
g50
NtRp2713
(dp2714
g53
(dp2715
sg62
g2689
sg55
(lp2716
g48
(g69
g50
NtRp2717
(dp2718
g53
(dp2719
g73
g74
ssg62
g2713
sg55
(lp2720
g283
asbag48
(g69
g50
NtRp2721
(dp2722
g53
(dp2723
g80
g81
ssg62
g2713
sg55
(lp2724
S':'
asbag48
(g69
g50
NtRp2725
(dp2726
g53
(dp2727
sg62
g2713
sg55
(lp2728
g48
(g49
g50
NtRp2729
(dp2730
g53
(dp2731
g61
I3
ssg62
g2725
sg55
(lp2732
S''
asbasbasbag48
(g64
g50
NtRp2733
(dp2734
g53
(dp2735
sg62
g2689
sg55
(lp2736
g48
(g69
g50
NtRp2737
(dp2738
g53
(dp2739
g73
g74
ssg62
g2733
sg55
(lp2740
g304
asbag48
(g69
g50
NtRp2741
(dp2742
g53
(dp2743
g80
g81
ssg62
g2733
sg55
(lp2744
S':'
asbag48
(g69
g50
NtRp2745
(dp2746
g53
(dp2747
sg62
g2733
sg55
(lp2748
g48
(g49
g50
NtRp2749
(dp2750
g53
(dp2751
g61
I3
ssg62
g2745
sg55
(lp2752
S''
asbasbasbag48
(g64
g50
NtRp2753
(dp2754
g53
(dp2755
sg62
g2689
sg55
(lp2756
g48
(g69
g50
NtRp2757
(dp2758
g53
(dp2759
g73
g74
ssg62
g2753
sg55
(lp2760
g325
asbag48
(g69
g50
NtRp2761
(dp2762
g53
(dp2763
g80
g81
ssg62
g2753
sg55
(lp2764
S':'
asbag48
(g69
g50
NtRp2765
(dp2766
g53
(dp2767
sg62
g2753
sg55
(lp2768
g48
(g49
g50
NtRp2769
(dp2770
g53
(dp2771
g61
I3
ssg62
g2765
sg55
(lp2772
S''
asbasbasbag48
(g64
g50
NtRp2773
(dp2774
g53
(dp2775
sg62
g2689
sg55
(lp2776
g48
(g69
g50
NtRp2777
(dp2778
g53
(dp2779
g73
g74
ssg62
g2773
sg55
(lp2780
g346
asbag48
(g69
g50
NtRp2781
(dp2782
g53
(dp2783
g80
g81
ssg62
g2773
sg55
(lp2784
S':'
asbag48
(g69
g50
NtRp2785
(dp2786
g53
(dp2787
sg62
g2773
sg55
(lp2788
g48
(g49
g50
NtRp2789
(dp2790
g53
(dp2791
g61
I3
ssg62
g2785
sg55
(lp2792
S'/'
asbasbasbag48
(g64
g50
NtRp2793
(dp2794
g53
(dp2795
sg62
g2689
sg55
(lp2796
g48
(g69
g50
NtRp2797
(dp2798
g53
(dp2799
g73
g74
ssg62
g2793
sg55
(lp2800
g367
asbag48
(g69
g50
NtRp2801
(dp2802
g53
(dp2803
g80
g81
ssg62
g2793
sg55
(lp2804
S':'
asbag48
(g69
g50
NtRp2805
(dp2806
g53
(dp2807
sg62
g2793
sg55
(lp2808
g48
(g49
g50
NtRp2809
(dp2810
g53
(dp2811
g61
I3
ssg62
g2805
sg55
(lp2812
S''
asbasbasbag48
(g64
g50
NtRp2813
(dp2814
g53
(dp2815
sg62
g2689
sg55
(lp2816
g48
(g69
g50
NtRp2817
(dp2818
g53
(dp2819
g73
g74
ssg62
g2813
sg55
(lp2820
g388
asbag48
(g69
g50
NtRp2821
(dp2822
g53
(dp2823
g80
g81
ssg62
g2813
sg55
(lp2824
S':'
asbag48
(g69
g50
NtRp2825
(dp2826
g53
(dp2827
sg62
g2813
sg55
(lp2828
g48
(g49
g50
NtRp2829
(dp2830
g53
(dp2831
g61
I3
ssg62
g2825
sg55
(lp2832
S''
asbasbasbasbasbasbasbasbasbasbasbag48
(g64
g50
NtRp2833
(dp2834
g53
(dp2835
sg62
g2619
sg55
(lp2836
g48
(g69
g50
NtRp2837
(dp2838
g53
(dp2839
g73
g74
ssg62
g2833
sg55
(lp2840
S'files'
p2841
asbag48
(g69
g50
NtRp2842
(dp2843
g53
(dp2844
g80
g81
ssg62
g2833
sg55
(lp2845
S':'
asbag48
(g69
g50
NtRp2846
(dp2847
g53
(dp2848
sg62
g2833
sg55
(lp2849
g48
(g49
g50
NtRp2850
(dp2851
g53
(dp2852
g61
I5
ssg62
g2846
sg55
(lp2853
g48
(g57
g50
NtRp2854
(dp2855
g53
(dp2856
g61
I4
ssg62
Nsg55
(lp2857
sbasbasbasbag48
(g64
g50
NtRp2858
(dp2859
g53
(dp2860
sg62
g2619
sg55
(lp2861
g48
(g69
g50
NtRp2862
(dp2863
g53
(dp2864
g73
g74
ssg62
g2858
sg55
(lp2865
S'flash'
p2866
asbag48
(g69
g50
NtRp2867
(dp2868
g53
(dp2869
g80
g81
ssg62
g2858
sg55
(lp2870
S':'
asbag48
(g69
g50
NtRp2871
(dp2872
g53
(dp2873
sg62
g2858
sg55
(lp2874
g48
(g49
g50
NtRp2875
(dp2876
g53
(dp2877
g61
I5
ssg62
g2871
sg55
(lp2878
S''
asbasbasbag48
(g64
g50
NtRp2879
(dp2880
g53
(dp2881
sg62
g2619
sg55
(lp2882
g48
(g69
g50
NtRp2883
(dp2884
g53
(dp2885
g73
g74
ssg62
g2879
sg55
(lp2886
S'generic_patterns'
p2887
asbag48
(g69
g50
NtRp2888
(dp2889
g53
(dp2890
g80
g81
ssg62
g2879
sg55
(lp2891
S':'
asbag48
(g69
g50
NtRp2892
(dp2893
g53
(dp2894
sg62
g2879
sg55
(lp2895
g48
(g49
g50
NtRp2896
(dp2897
g53
(dp2898
g61
I5
ssg62
g2892
sg55
(lp2899
g48
(g57
g50
NtRp2900
(dp2901
g53
(dp2902
g61
I4
ssg62
Nsg55
(lp2903
g48
(g64
g50
NtRp2904
(dp2905
g53
(dp2906
sg62
g2900
sg55
(lp2907
g48
(g69
g50
NtRp2908
(dp2909
g53
(dp2910
sg62
g2904
sg55
(lp2911
g48
(g49
g50
NtRp2912
(dp2913
g53
(dp2914
g61
I4
ssg62
g2908
sg55
(lp2915
S'*'
asbasbasbasbasbasbasbag48
(g64
g50
NtRp2916
(dp2917
g53
(dp2918
sg62
g2619
sg55
(lp2919
g48
(g69
g50
NtRp2920
(dp2921
g53
(dp2922
g73
g74
ssg62
g2916
sg55
(lp2923
S'headers'
p2924
asbag48
(g69
g50
NtRp2925
(dp2926
g53
(dp2927
g80
g81
ssg62
g2916
sg55
(lp2928
S':'
asbag48
(g69
g50
NtRp2929
(dp2930
g53
(dp2931
sg62
g2916
sg55
(lp2932
g48
(g49
g50
NtRp2933
(dp2934
g53
(dp2935
g61
I5
ssg62
g2929
sg55
(lp2936
g48
(g57
g50
NtRp2937
(dp2938
g53
(dp2939
g61
I4
ssg62
Nsg55
(lp2940
g48
(g64
g50
NtRp2941
(dp2942
g53
(dp2943
sg62
g2937
sg55
(lp2944
g48
(g69
g50
NtRp2945
(dp2946
g53
(dp2947
g73
g74
ssg62
g2941
sg55
(lp2948
S'Cache-Control'
p2949
asbag48
(g69
g50
NtRp2950
(dp2951
g53
(dp2952
g80
g81
ssg62
g2941
sg55
(lp2953
S':'
asbag48
(g69
g50
NtRp2954
(dp2955
g53
(dp2956
sg62
g2941
sg55
(lp2957
g48
(g49
g50
NtRp2958
(dp2959
g53
(dp2960
g61
I4
ssg62
g2954
sg55
(lp2961
S'no-store, no-cache, must-revalidate, post-check=0, pre-check=0'
p2962
asbasbasbag48
(g64
g50
NtRp2963
(dp2964
g53
(dp2965
sg62
g2937
sg55
(lp2966
g48
(g69
g50
NtRp2967
(dp2968
g53
(dp2969
g73
g74
ssg62
g2963
sg55
(lp2970
S'Content-Type'
p2971
asbag48
(g69
g50
NtRp2972
(dp2973
g53
(dp2974
g80
g81
ssg62
g2963
sg55
(lp2975
S':'
asbag48
(g69
g50
NtRp2976
(dp2977
g53
(dp2978
sg62
g2963
sg55
(lp2979
g48
(g49
g50
NtRp2980
(dp2981
g53
(dp2982
g61
I4
ssg62
g2976
sg55
(lp2983
S'text/html; charset=utf-8'
p2984
asbasbasbag48
(g64
g50
NtRp2985
(dp2986
g53
(dp2987
sg62
g2937
sg55
(lp2988
g48
(g69
g50
NtRp2989
(dp2990
g53
(dp2991
g73
g74
ssg62
g2985
sg55
(lp2992
S'Expires'
p2993
asbag48
(g69
g50
NtRp2994
(dp2995
g53
(dp2996
g80
g81
ssg62
g2985
sg55
(lp2997
S':'
asbag48
(g69
g50
NtRp2998
(dp2999
g53
(dp3000
sg62
g2985
sg55
(lp3001
g48
(g49
g50
NtRp3002
(dp3003
g53
(dp3004
g61
I4
ssg62
g2998
sg55
(lp3005
S'Tue, 06 Sep 2011 21:52:32 GMT'
p3006
asbasbasbag48
(g64
g50
NtRp3007
(dp3008
g53
(dp3009
sg62
g2937
sg55
(lp3010
g48
(g69
g50
NtRp3011
(dp3012
g53
(dp3013
g73
g74
ssg62
g3007
sg55
(lp3014
S'Pragma'
p3015
asbag48
(g69
g50
NtRp3016
(dp3017
g53
(dp3018
g80
g81
ssg62
g3007
sg55
(lp3019
S':'
asbag48
(g69
g50
NtRp3020
(dp3021
g53
(dp3022
sg62
g3007
sg55
(lp3023
g48
(g49
g50
NtRp3024
(dp3025
g53
(dp3026
g61
I4
ssg62
g3020
sg55
(lp3027
S'no-cache'
p3028
asbasbasbag48
(g64
g50
NtRp3029
(dp3030
g53
(dp3031
sg62
g2937
sg55
(lp3032
g48
(g69
g50
NtRp3033
(dp3034
g53
(dp3035
g73
g74
ssg62
g3029
sg55
(lp3036
S'X-Powered-By'
p3037
asbag48
(g69
g50
NtRp3038
(dp3039
g53
(dp3040
g80
g81
ssg62
g3029
sg55
(lp3041
S':'
asbag48
(g69
g50
NtRp3042
(dp3043
g53
(dp3044
sg62
g3029
sg55
(lp3045
g48
(g49
g50
NtRp3046
(dp3047
g53
(dp3048
g61
I4
ssg62
g3042
sg55
(lp3049
S'web2py'
p3050
asbasbasbasbasbasbasbag48
(g64
g50
NtRp3051
(dp3052
g53
(dp3053
sg62
g2619
sg55
(lp3054
g48
(g69
g50
NtRp3055
(dp3056
g53
(dp3057
g73
g74
ssg62
g3051
sg55
(lp3058
S'menu'
p3059
asbag48
(g69
g50
NtRp3060
(dp3061
g53
(dp3062
g80
g81
ssg62
g3051
sg55
(lp3063
S':'
asbag48
(g69
g50
NtRp3064
(dp3065
g53
(dp3066
sg62
g3051
sg55
(lp3067
g48
(g49
g50
NtRp3068
(dp3069
g53
(dp3070
g61
I5
ssg62
g3064
sg55
(lp3071
g48
(g57
g50
NtRp3072
(dp3073
g53
(dp3074
g61
I4
ssg62
Nsg55
(lp3075
g48
(g64
g50
NtRp3076
(dp3077
g53
(dp3078
sg62
g3072
sg55
(lp3079
g48
(g69
g50
NtRp3080
(dp3081
g53
(dp3082
sg62
g3076
sg55
(lp3083
g48
(g49
g50
NtRp3084
(dp3085
g53
(dp3086
g61
I4
ssg62
g3080
sg55
(lp3087
g48
(g57
g50
NtRp3088
(dp3089
g53
(dp3090
g61
I3
ssg62
Nsg55
(lp3091
g48
(g64
g50
NtRp3092
(dp3093
g53
(dp3094
sg62
g3088
sg55
(lp3095
g48
(g69
g50
NtRp3096
(dp3097
g53
(dp3098
sg62
g3092
sg55
(lp3099
g48
(g49
g50
NtRp3100
(dp3101
g53
(dp3102
g61
I3
ssg62
g3096
sg55
(lp3103
cgluon.languages
lazyT_unpickle
p3104
(S's\x04\x00\x00\x00Home'
tRp3105
asbasbasbag48
(g64
g50
NtRp3106
(dp3107
g53
(dp3108
sg62
g3088
sg55
(lp3109
g48
(g69
g50
NtRp3110
(dp3111
g53
(dp3112
sg62
g3106
sg55
(lp3113
g48
(g49
g50
NtRp3114
(dp3115
g53
(dp3116
g61
I3
ssg62
g3110
sg55
(lp3117
g91
asbasbasbag48
(g64
g50
NtRp3118
(dp3119
g53
(dp3120
sg62
g3088
sg55
(lp3121
g48
(g69
g50
NtRp3122
(dp3123
g53
(dp3124
sg62
g3118
sg55
(lp3125
g48
(g49
g50
NtRp3126
(dp3127
g53
(dp3128
g61
I3
ssg62
g3122
sg55
(lp3129
S'/201056161/default/index'
p3130
asbasbasbag48
(g64
g50
NtRp3131
(dp3132
g53
(dp3133
sg62
g3088
sg55
(lp3134
g48
(g69
g50
NtRp3135
(dp3136
g53
(dp3137
sg62
g3131
sg55
(lp3138
g48
(g49
g50
NtRp3139
(dp3140
g53
(dp3141
g61
I3
ssg62
g3135
sg55
(lp3142
g48
(g57
g50
NtRp3143
(dp3144
g53
(dp3145
g61
I2
ssg62
Nsg55
(lp3146
sbasbasbasbasbasbasbasbag48
(g64
g50
NtRp3147
(dp3148
g53
(dp3149
sg62
g3072
sg55
(lp3150
g48
(g69
g50
NtRp3151
(dp3152
g53
(dp3153
sg62
g3147
sg55
(lp3154
g48
(g49
g50
NtRp3155
(dp3156
g53
(dp3157
g61
I4
ssg62
g3151
sg55
(lp3158
g48
(g57
g50
NtRp3159
(dp3160
g53
(dp3161
g61
I3
ssg62
Nsg55
(lp3162
g48
(g64
g50
NtRp3163
(dp3164
g53
(dp3165
sg62
g3159
sg55
(lp3166
g48
(g69
g50
NtRp3167
(dp3168
g53
(dp3169
sg62
g3163
sg55
(lp3170
g48
(g49
g50
NtRp3171
(dp3172
g53
(dp3173
g61
I3
ssg62
g3167
sg55
(lp3174
g3104
(S's\x08\x00\x00\x00This App'
tRp3175
asbasbasbag48
(g64
g50
NtRp3176
(dp3177
g53
(dp3178
sg62
g3159
sg55
(lp3179
g48
(g69
g50
NtRp3180
(dp3181
g53
(dp3182
sg62
g3176
sg55
(lp3183
g48
(g49
g50
NtRp3184
(dp3185
g53
(dp3186
g61
I3
ssg62
g3180
sg55
(lp3187
g91
asbasbasbag48
(g64
g50
NtRp3188
(dp3189
g53
(dp3190
sg62
g3159
sg55
(lp3191
g48
(g69
g50
NtRp3192
(dp3193
g53
(dp3194
sg62
g3188
sg55
(lp3195
g48
(g49
g50
NtRp3196
(dp3197
g53
(dp3198
g61
I3
ssg62
g3192
sg55
(lp3199
S'/admin/default/design/201056161'
p3200
asbasbasbag48
(g64
g50
NtRp3201
(dp3202
g53
(dp3203
sg62
g3159
sg55
(lp3204
g48
(g69
g50
NtRp3205
(dp3206
g53
(dp3207
sg62
g3201
sg55
(lp3208
g48
(g49
g50
NtRp3209
(dp3210
g53
(dp3211
g61
I3
ssg62
g3205
sg55
(lp3212
g48
(g57
g50
NtRp3213
(dp3214
g53
(dp3215
g61
I2
ssg62
Nsg55
(lp3216
g48
(g64
g50
NtRp3217
(dp3218
g53
(dp3219
sg62
g3213
sg55
(lp3220
g48
(g69
g50
NtRp3221
(dp3222
g53
(dp3223
sg62
g3217
sg55
(lp3224
g48
(g49
g50
NtRp3225
(dp3226
g53
(dp3227
g61
I2
ssg62
g3221
sg55
(lp3228
g48
(g57
g50
NtRp3229
(dp3230
g53
(dp3231
g61
I1
ssg62
Nsg55
(lp3232
g48
(g64
g50
NtRp3233
(dp3234
g53
(dp3235
sg62
g3229
sg55
(lp3236
g48
(g69
g50
NtRp3237
(dp3238
g53
(dp3239
sg62
g3233
sg55
(lp3240
g48
(g49
g50
NtRp3241
(dp3242
g53
(dp3243
g61
I1
ssg62
g3237
sg55
(lp3244
g3104
(S's\n\x00\x00\x00Controller'
tRp3245
asbasbasbag48
(g64
g50
NtRp3246
(dp3247
g53
(dp3248
sg62
g3229
sg55
(lp3249
g48
(g69
g50
NtRp3250
(dp3251
g53
(dp3252
sg62
g3246
sg55
(lp3253
g48
(g49
g50
NtRp3254
(dp3255
g53
(dp3256
g61
I1
ssg62
g3250
sg55
(lp3257
I00
asbasbasbag48
(g64
g50
NtRp3258
(dp3259
g53
(dp3260
sg62
g3229
sg55
(lp3261
g48
(g69
g50
NtRp3262
(dp3263
g53
(dp3264
sg62
g3258
sg55
(lp3265
g48
(g49
g50
NtRp3266
(dp3267
g53
(dp3268
g61
I1
ssg62
g3262
sg55
(lp3269
S'/admin/default/edit/201056161/controllers/default.py'
p3270
asbasbasbasbasbasbasbag48
(g64
g50
NtRp3271
(dp3272
g53
(dp3273
sg62
g3213
sg55
(lp3274
g48
(g69
g50
NtRp3275
(dp3276
g53
(dp3277
sg62
g3271
sg55
(lp3278
g48
(g49
g50
NtRp3279
(dp3280
g53
(dp3281
g61
I2
ssg62
g3275
sg55
(lp3282
g48
(g57
g50
NtRp3283
(dp3284
g53
(dp3285
g61
I1
ssg62
Nsg55
(lp3286
g48
(g64
g50
NtRp3287
(dp3288
g53
(dp3289
sg62
g3283
sg55
(lp3290
g48
(g69
g50
NtRp3291
(dp3292
g53
(dp3293
sg62
g3287
sg55
(lp3294
g48
(g49
g50
NtRp3295
(dp3296
g53
(dp3297
g61
I1
ssg62
g3291
sg55
(lp3298
g3104
(S's\x04\x00\x00\x00View'
tRp3299
asbasbasbag48
(g64
g50
NtRp3300
(dp3301
g53
(dp3302
sg62
g3283
sg55
(lp3303
g48
(g69
g50
NtRp3304
(dp3305
g53
(dp3306
sg62
g3300
sg55
(lp3307
g48
(g49
g50
NtRp3308
(dp3309
g53
(dp3310
g61
I1
ssg62
g3304
sg55
(lp3311
I00
asbasbasbag48
(g64
g50
NtRp3312
(dp3313
g53
(dp3314
sg62
g3283
sg55
(lp3315
g48
(g69
g50
NtRp3316
(dp3317
g53
(dp3318
sg62
g3312
sg55
(lp3319
g48
(g49
g50
NtRp3320
(dp3321
g53
(dp3322
g61
I1
ssg62
g3316
sg55
(lp3323
S'/admin/default/edit/201056161/views/default/song_details.html'
p3324
asbasbasbasbasbasbasbag48
(g64
g50
NtRp3325
(dp3326
g53
(dp3327
sg62
g3213
sg55
(lp3328
g48
(g69
g50
NtRp3329
(dp3330
g53
(dp3331
sg62
g3325
sg55
(lp3332
g48
(g49
g50
NtRp3333
(dp3334
g53
(dp3335
g61
I2
ssg62
g3329
sg55
(lp3336
g48
(g57
g50
NtRp3337
(dp3338
g53
(dp3339
g61
I1
ssg62
Nsg55
(lp3340
g48
(g64
g50
NtRp3341
(dp3342
g53
(dp3343
sg62
g3337
sg55
(lp3344
g48
(g69
g50
NtRp3345
(dp3346
g53
(dp3347
sg62
g3341
sg55
(lp3348
g48
(g49
g50
NtRp3349
(dp3350
g53
(dp3351
g61
I1
ssg62
g3345
sg55
(lp3352
g3104
(S's\x06\x00\x00\x00Layout'
tRp3353
asbasbasbag48
(g64
g50
NtRp3354
(dp3355
g53
(dp3356
sg62
g3337
sg55
(lp3357
g48
(g69
g50
NtRp3358
(dp3359
g53
(dp3360
sg62
g3354
sg55
(lp3361
g48
(g49
g50
NtRp3362
(dp3363
g53
(dp3364
g61
I1
ssg62
g3358
sg55
(lp3365
I00
asbasbasbag48
(g64
g50
NtRp3366
(dp3367
g53
(dp3368
sg62
g3337
sg55
(lp3369
g48
(g69
g50
NtRp3370
(dp3371
g53
(dp3372
sg62
g3366
sg55
(lp3373
g48
(g49
g50
NtRp3374
(dp3375
g53
(dp3376
g61
I1
ssg62
g3370
sg55
(lp3377
S'/admin/default/edit/201056161/views/layout.html'
p3378
asbasbasbasbasbasbasbag48
(g64
g50
NtRp3379
(dp3380
g53
(dp3381
sg62
g3213
sg55
(lp3382
g48
(g69
g50
NtRp3383
(dp3384
g53
(dp3385
sg62
g3379
sg55
(lp3386
g48
(g49
g50
NtRp3387
(dp3388
g53
(dp3389
g61
I2
ssg62
g3383
sg55
(lp3390
g48
(g57
g50
NtRp3391
(dp3392
g53
(dp3393
g61
I1
ssg62
Nsg55
(lp3394
g48
(g64
g50
NtRp3395
(dp3396
g53
(dp3397
sg62
g3391
sg55
(lp3398
g48
(g69
g50
NtRp3399
(dp3400
g53
(dp3401
sg62
g3395
sg55
(lp3402
g48
(g49
g50
NtRp3403
(dp3404
g53
(dp3405
g61
I1
ssg62
g3399
sg55
(lp3406
g3104
(S's\n\x00\x00\x00Stylesheet'
tRp3407
asbasbasbag48
(g64
g50
NtRp3408
(dp3409
g53
(dp3410
sg62
g3391
sg55
(lp3411
g48
(g69
g50
NtRp3412
(dp3413
g53
(dp3414
sg62
g3408
sg55
(lp3415
g48
(g49
g50
NtRp3416
(dp3417
g53
(dp3418
g61
I1
ssg62
g3412
sg55
(lp3419
I00
asbasbasbag48
(g64
g50
NtRp3420
(dp3421
g53
(dp3422
sg62
g3391
sg55
(lp3423
g48
(g69
g50
NtRp3424
(dp3425
g53
(dp3426
sg62
g3420
sg55
(lp3427
g48
(g49
g50
NtRp3428
(dp3429
g53
(dp3430
g61
I1
ssg62
g3424
sg55
(lp3431
S'/admin/default/edit/201056161/static/base.css'
p3432
asbasbasbasbasbasbasbag48
(g64
g50
NtRp3433
(dp3434
g53
(dp3435
sg62
g3213
sg55
(lp3436
g48
(g69
g50
NtRp3437
(dp3438
g53
(dp3439
sg62
g3433
sg55
(lp3440
g48
(g49
g50
NtRp3441
(dp3442
g53
(dp3443
g61
I2
ssg62
g3437
sg55
(lp3444
g48
(g57
g50
NtRp3445
(dp3446
g53
(dp3447
g61
I1
ssg62
Nsg55
(lp3448
g48
(g64
g50
NtRp3449
(dp3450
g53
(dp3451
sg62
g3445
sg55
(lp3452
g48
(g69
g50
NtRp3453
(dp3454
g53
(dp3455
sg62
g3449
sg55
(lp3456
g48
(g49
g50
NtRp3457
(dp3458
g53
(dp3459
g61
I1
ssg62
g3453
sg55
(lp3460
g3104
(S's\x08\x00\x00\x00DB Model'
tRp3461
asbasbasbag48
(g64
g50
NtRp3462
(dp3463
g53
(dp3464
sg62
g3445
sg55
(lp3465
g48
(g69
g50
NtRp3466
(dp3467
g53
(dp3468
sg62
g3462
sg55
(lp3469
g48
(g49
g50
NtRp3470
(dp3471
g53
(dp3472
g61
I1
ssg62
g3466
sg55
(lp3473
I00
asbasbasbag48
(g64
g50
NtRp3474
(dp3475
g53
(dp3476
sg62
g3445
sg55
(lp3477
g48
(g69
g50
NtRp3478
(dp3479
g53
(dp3480
sg62
g3474
sg55
(lp3481
g48
(g49
g50
NtRp3482
(dp3483
g53
(dp3484
g61
I1
ssg62
g3478
sg55
(lp3485
S'/admin/default/edit/201056161/models/db.py'
p3486
asbasbasbasbasbasbasbag48
(g64
g50
NtRp3487
(dp3488
g53
(dp3489
sg62
g3213
sg55
(lp3490
g48
(g69
g50
NtRp3491
(dp3492
g53
(dp3493
sg62
g3487
sg55
(lp3494
g48
(g49
g50
NtRp3495
(dp3496
g53
(dp3497
g61
I2
ssg62
g3491
sg55
(lp3498
g48
(g57
g50
NtRp3499
(dp3500
g53
(dp3501
g61
I1
ssg62
Nsg55
(lp3502
g48
(g64
g50
NtRp3503
(dp3504
g53
(dp3505
sg62
g3499
sg55
(lp3506
g48
(g69
g50
NtRp3507
(dp3508
g53
(dp3509
sg62
g3503
sg55
(lp3510
g48
(g49
g50
NtRp3511
(dp3512
g53
(dp3513
g61
I1
ssg62
g3507
sg55
(lp3514
g3104
(S's\n\x00\x00\x00Menu Model'
tRp3515
asbasbasbag48
(g64
g50
NtRp3516
(dp3517
g53
(dp3518
sg62
g3499
sg55
(lp3519
g48
(g69
g50
NtRp3520
(dp3521
g53
(dp3522
sg62
g3516
sg55
(lp3523
g48
(g49
g50
NtRp3524
(dp3525
g53
(dp3526
g61
I1
ssg62
g3520
sg55
(lp3527
I00
asbasbasbag48
(g64
g50
NtRp3528
(dp3529
g53
(dp3530
sg62
g3499
sg55
(lp3531
g48
(g69
g50
NtRp3532
(dp3533
g53
(dp3534
sg62
g3528
sg55
(lp3535
g48
(g49
g50
NtRp3536
(dp3537
g53
(dp3538
g61
I1
ssg62
g3532
sg55
(lp3539
S'/admin/default/edit/201056161/models/menu.py'
p3540
asbasbasbasbasbasbasbag48
(g64
g50
NtRp3541
(dp3542
g53
(dp3543
sg62
g3213
sg55
(lp3544
g48
(g69
g50
NtRp3545
(dp3546
g53
(dp3547
sg62
g3541
sg55
(lp3548
g48
(g49
g50
NtRp3549
(dp3550
g53
(dp3551
g61
I2
ssg62
g3545
sg55
(lp3552
g48
(g57
g50
NtRp3553
(dp3554
g53
(dp3555
g61
I1
ssg62
Nsg55
(lp3556
g48
(g64
g50
NtRp3557
(dp3558
g53
(dp3559
sg62
g3553
sg55
(lp3560
g48
(g69
g50
NtRp3561
(dp3562
g53
(dp3563
sg62
g3557
sg55
(lp3564
g48
(g49
g50
NtRp3565
(dp3566
g53
(dp3567
g61
I1
ssg62
g3561
sg55
(lp3568
g3104
(S's\x08\x00\x00\x00Database'
tRp3569
asbasbasbag48
(g64
g50
NtRp3570
(dp3571
g53
(dp3572
sg62
g3553
sg55
(lp3573
g48
(g69
g50
NtRp3574
(dp3575
g53
(dp3576
sg62
g3570
sg55
(lp3577
g48
(g49
g50
NtRp3578
(dp3579
g53
(dp3580
g61
I1
ssg62
g3574
sg55
(lp3581
I00
asbasbasbag48
(g64
g50
NtRp3582
(dp3583
g53
(dp3584
sg62
g3553
sg55
(lp3585
g48
(g69
g50
NtRp3586
(dp3587
g53
(dp3588
sg62
g3582
sg55
(lp3589
g48
(g49
g50
NtRp3590
(dp3591
g53
(dp3592
g61
I1
ssg62
g3586
sg55
(lp3593
S'/201056161/appadmin/index'
p3594
asbasbasbasbasbasbasbag48
(g64
g50
NtRp3595
(dp3596
g53
(dp3597
sg62
g3213
sg55
(lp3598
g48
(g69
g50
NtRp3599
(dp3600
g53
(dp3601
sg62
g3595
sg55
(lp3602
g48
(g49
g50
NtRp3603
(dp3604
g53
(dp3605
g61
I2
ssg62
g3599
sg55
(lp3606
g48
(g57
g50
NtRp3607
(dp3608
g53
(dp3609
g61
I1
ssg62
Nsg55
(lp3610
g48
(g64
g50
NtRp3611
(dp3612
g53
(dp3613
sg62
g3607
sg55
(lp3614
g48
(g69
g50
NtRp3615
(dp3616
g53
(dp3617
sg62
g3611
sg55
(lp3618
g48
(g49
g50
NtRp3619
(dp3620
g53
(dp3621
g61
I1
ssg62
g3615
sg55
(lp3622
g3104
(S's\x06\x00\x00\x00Errors'
tRp3623
asbasbasbag48
(g64
g50
NtRp3624
(dp3625
g53
(dp3626
sg62
g3607
sg55
(lp3627
g48
(g69
g50
NtRp3628
(dp3629
g53
(dp3630
sg62
g3624
sg55
(lp3631
g48
(g49
g50
NtRp3632
(dp3633
g53
(dp3634
g61
I1
ssg62
g3628
sg55
(lp3635
I00
asbasbasbag48
(g64
g50
NtRp3636
(dp3637
g53
(dp3638
sg62
g3607
sg55
(lp3639
g48
(g69
g50
NtRp3640
(dp3641
g53
(dp3642
sg62
g3636
sg55
(lp3643
g48
(g49
g50
NtRp3644
(dp3645
g53
(dp3646
g61
I1
ssg62
g3640
sg55
(lp3647
S'/admin/default/errors/201056161'
p3648
asbasbasbasbasbasbasbag48
(g64
g50
NtRp3649
(dp3650
g53
(dp3651
sg62
g3213
sg55
(lp3652
g48
(g69
g50
NtRp3653
(dp3654
g53
(dp3655
sg62
g3649
sg55
(lp3656
g48
(g49
g50
NtRp3657
(dp3658
g53
(dp3659
g61
I2
ssg62
g3653
sg55
(lp3660
g48
(g57
g50
NtRp3661
(dp3662
g53
(dp3663
g61
I1
ssg62
Nsg55
(lp3664
g48
(g64
g50
NtRp3665
(dp3666
g53
(dp3667
sg62
g3661
sg55
(lp3668
g48
(g69
g50
NtRp3669
(dp3670
g53
(dp3671
sg62
g3665
sg55
(lp3672
g48
(g49
g50
NtRp3673
(dp3674
g53
(dp3675
g61
I1
ssg62
g3669
sg55
(lp3676
g3104
(S's\x05\x00\x00\x00About'
tRp3677
asbasbasbag48
(g64
g50
NtRp3678
(dp3679
g53
(dp3680
sg62
g3661
sg55
(lp3681
g48
(g69
g50
NtRp3682
(dp3683
g53
(dp3684
sg62
g3678
sg55
(lp3685
g48
(g49
g50
NtRp3686
(dp3687
g53
(dp3688
g61
I1
ssg62
g3682
sg55
(lp3689
I00
asbasbasbag48
(g64
g50
NtRp3690
(dp3691
g53
(dp3692
sg62
g3661
sg55
(lp3693
g48
(g69
g50
NtRp3694
(dp3695
g53
(dp3696
sg62
g3690
sg55
(lp3697
g48
(g49
g50
NtRp3698
(dp3699
g53
(dp3700
g61
I1
ssg62
g3694
sg55
(lp3701
S'/admin/default/about/201056161'
p3702
asbasbasbasbasbasbasbasbasbasbasbasbasbasbasbag48
(g64
g50
NtRp3703
(dp3704
g53
(dp3705
sg62
g3072
sg55
(lp3706
g48
(g69
g50
NtRp3707
(dp3708
g53
(dp3709
sg62
g3703
sg55
(lp3710
g48
(g49
g50
NtRp3711
(dp3712
g53
(dp3713
g61
I4
ssg62
g3707
sg55
(lp3714
g48
(g57
g50
NtRp3715
(dp3716
g53
(dp3717
g61
I3
ssg62
Nsg55
(lp3718
g48
(g64
g50
NtRp3719
(dp3720
g53
(dp3721
sg62
g3715
sg55
(lp3722
g48
(g69
g50
NtRp3723
(dp3724
g53
(dp3725
sg62
g3719
sg55
(lp3726
g48
(g49
g50
NtRp3727
(dp3728
g53
(dp3729
g61
I3
ssg62
g3723
sg55
(lp3730
g3104
(S's\t\x00\x00\x00Resources'
tRp3731
asbasbasbag48
(g64
g50
NtRp3732
(dp3733
g53
(dp3734
sg62
g3715
sg55
(lp3735
g48
(g69
g50
NtRp3736
(dp3737
g53
(dp3738
sg62
g3732
sg55
(lp3739
g48
(g49
g50
NtRp3740
(dp3741
g53
(dp3742
g61
I3
ssg62
g3736
sg55
(lp3743
g91
asbasbasbag48
(g64
g50
NtRp3744
(dp3745
g53
(dp3746
sg62
g3715
sg55
(lp3747
g48
(g69
g50
NtRp3748
(dp3749
g53
(dp3750
sg62
g3744
sg55
(lp3751
g48
(g49
g50
NtRp3752
(dp3753
g53
(dp3754
g61
I3
ssg62
g3748
sg55
(lp3755
S'None'
p3756
asbasbasbag48
(g64
g50
NtRp3757
(dp3758
g53
(dp3759
sg62
g3715
sg55
(lp3760
g48
(g69
g50
NtRp3761
(dp3762
g53
(dp3763
sg62
g3757
sg55
(lp3764
g48
(g49
g50
NtRp3765
(dp3766
g53
(dp3767
g61
I3
ssg62
g3761
sg55
(lp3768
g48
(g57
g50
NtRp3769
(dp3770
g53
(dp3771
g61
I2
ssg62
Nsg55
(lp3772
g48
(g64
g50
NtRp3773
(dp3774
g53
(dp3775
sg62
g3769
sg55
(lp3776
g48
(g69
g50
NtRp3777
(dp3778
g53
(dp3779
sg62
g3773
sg55
(lp3780
g48
(g49
g50
NtRp3781
(dp3782
g53
(dp3783
g61
I2
ssg62
g3777
sg55
(lp3784
g48
(g57
g50
NtRp3785
(dp3786
g53
(dp3787
g61
I1
ssg62
Nsg55
(lp3788
g48
(g64
g50
NtRp3789
(dp3790
g53
(dp3791
sg62
g3785
sg55
(lp3792
g48
(g69
g50
NtRp3793
(dp3794
g53
(dp3795
sg62
g3789
sg55
(lp3796
g48
(g49
g50
NtRp3797
(dp3798
g53
(dp3799
g61
I1
ssg62
g3793
sg55
(lp3800
g3104
(S's\r\x00\x00\x00Documentation'
tRp3801
asbasbasbag48
(g64
g50
NtRp3802
(dp3803
g53
(dp3804
sg62
g3785
sg55
(lp3805
g48
(g69
g50
NtRp3806
(dp3807
g53
(dp3808
sg62
g3802
sg55
(lp3809
g48
(g49
g50
NtRp3810
(dp3811
g53
(dp3812
g61
I1
ssg62
g3806
sg55
(lp3813
I00
asbasbasbag48
(g64
g50
NtRp3814
(dp3815
g53
(dp3816
sg62
g3785
sg55
(lp3817
g48
(g69
g50
NtRp3818
(dp3819
g53
(dp3820
sg62
g3814
sg55
(lp3821
g48
(g49
g50
NtRp3822
(dp3823
g53
(dp3824
g61
I1
ssg62
g3818
sg55
(lp3825
S'http://www.web2py.com/book'
p3826
asbasbasbag48
(g64
g50
NtRp3827
(dp3828
g53
(dp3829
sg62
g3785
sg55
(lp3830
g48
(g69
g50
NtRp3831
(dp3832
g53
(dp3833
sg62
g3827
sg55
(lp3834
g48
(g49
g50
NtRp3835
(dp3836
g53
(dp3837
g61
I1
ssg62
g3831
sg55
(lp3838
(lp3839
(g3104
(S's\x07\x00\x00\x00Preface'
tRp3840
I00
S'http://www.web2py.com/book/default/chapter/00'
tp3841
a(g3104
(S's\x0c\x00\x00\x00Introduction'
tRp3842
I00
S'http://www.web2py.com/book/default/chapter/01'
tp3843
a(g3104
(S's\x06\x00\x00\x00Python'
tRp3844
I00
S'http://www.web2py.com/book/default/chapter/02'
tp3845
a(g3104
(S's\x08\x00\x00\x00Overview'
tRp3846
I00
S'http://www.web2py.com/book/default/chapter/03'
tp3847
a(g3104
(S's\x08\x00\x00\x00The Core'
tRp3848
I00
S'http://www.web2py.com/book/default/chapter/04'
tp3849
a(g3104
(S's\t\x00\x00\x00The Views'
tRp3850
I00
S'http://www.web2py.com/book/default/chapter/05'
tp3851
a(g3104
(S's\x08\x00\x00\x00Database'
tRp3852
I00
S'http://www.web2py.com/book/default/chapter/06'
tp3853
a(g3104
(S's\x14\x00\x00\x00Forms and Validators'
tRp3854
I00
S'http://www.web2py.com/book/default/chapter/07'
tp3855
a(g3104
(S's\x0e\x00\x00\x00Access Control'
tRp3856
I00
S'http://www.web2py.com/book/default/chapter/08'
tp3857
a(g3104
(S's\x08\x00\x00\x00Services'
tRp3858
I00
S'http://www.web2py.com/book/default/chapter/09'
tp3859
a(g3104
(S's\x0c\x00\x00\x00Ajax Recipes'
tRp3860
I00
S'http://www.web2py.com/book/default/chapter/10'
tp3861
a(g3104
(S's\x12\x00\x00\x00Deployment Recipes'
tRp3862
I00
S'http://www.web2py.com/book/default/chapter/11'
tp3863
a(g3104
(S's\r\x00\x00\x00Other Recipes'
tRp3864
I00
S'http://www.web2py.com/book/default/chapter/12'
tp3865
a(g3104
(S's\r\x00\x00\x00Buy this book'
tRp3866
I00
S'http://stores.lulu.com/web2py'
tp3867
aasbasbasbasbasbasbasbag48
(g64
g50
NtRp3868
(dp3869
g53
(dp3870
sg62
g3769
sg55
(lp3871
g48
(g69
g50
NtRp3872
(dp3873
g53
(dp3874
sg62
g3868
sg55
(lp3875
g48
(g49
g50
NtRp3876
(dp3877
g53
(dp3878
g61
I2
ssg62
g3872
sg55
(lp3879
g48
(g57
g50
NtRp3880
(dp3881
g53
(dp3882
g61
I1
ssg62
Nsg55
(lp3883
g48
(g64
g50
NtRp3884
(dp3885
g53
(dp3886
sg62
g3880
sg55
(lp3887
g48
(g69
g50
NtRp3888
(dp3889
g53
(dp3890
sg62
g3884
sg55
(lp3891
g48
(g49
g50
NtRp3892
(dp3893
g53
(dp3894
g61
I1
ssg62
g3888
sg55
(lp3895
g3104
(S's\t\x00\x00\x00Community'
tRp3896
asbasbasbag48
(g64
g50
NtRp3897
(dp3898
g53
(dp3899
sg62
g3880
sg55
(lp3900
g48
(g69
g50
NtRp3901
(dp3902
g53
(dp3903
sg62
g3897
sg55
(lp3904
g48
(g49
g50
NtRp3905
(dp3906
g53
(dp3907
g61
I1
ssg62
g3901
sg55
(lp3908
I00
asbasbasbag48
(g64
g50
NtRp3909
(dp3910
g53
(dp3911
sg62
g3880
sg55
(lp3912
g48
(g69
g50
NtRp3913
(dp3914
g53
(dp3915
sg62
g3909
sg55
(lp3916
g48
(g49
g50
NtRp3917
(dp3918
g53
(dp3919
g61
I1
ssg62
g3913
sg55
(lp3920
Nasbasbasbag48
(g64
g50
NtRp3921
(dp3922
g53
(dp3923
sg62
g3880
sg55
(lp3924
g48
(g69
g50
NtRp3925
(dp3926
g53
(dp3927
sg62
g3921
sg55
(lp3928
g48
(g49
g50
NtRp3929
(dp3930
g53
(dp3931
g61
I1
ssg62
g3925
sg55
(lp3932
(lp3933
(g3104
(S's\x06\x00\x00\x00Groups'
tRp3934
I00
S'http://www.web2py.com/examples/default/usergroups'
tp3935
a(g3104
(S's\x07\x00\x00\x00Twitter'
tRp3936
I00
S'http://twitter.com/web2py'
tp3937
a(g3104
(S's\t\x00\x00\x00Live chat'
tRp3938
I00
S'http://mibbit.com/?channel=%23web2py&server=irc.mibbit.net'
tp3939
a(g3104
(S's\n\x00\x00\x00User Voice'
tRp3940
I00
S'http://web2py.uservoice.com/'
tp3941
aasbasbasbasbasbasbasbag48
(g64
g50
NtRp3942
(dp3943
g53
(dp3944
sg62
g3769
sg55
(lp3945
g48
(g69
g50
NtRp3946
(dp3947
g53
(dp3948
sg62
g3942
sg55
(lp3949
g48
(g49
g50
NtRp3950
(dp3951
g53
(dp3952
g61
I2
ssg62
g3946
sg55
(lp3953
g48
(g57
g50
NtRp3954
(dp3955
g53
(dp3956
g61
I1
ssg62
Nsg55
(lp3957
g48
(g64
g50
NtRp3958
(dp3959
g53
(dp3960
sg62
g3954
sg55
(lp3961
g48
(g69
g50
NtRp3962
(dp3963
g53
(dp3964
sg62
g3958
sg55
(lp3965
g48
(g49
g50
NtRp3966
(dp3967
g53
(dp3968
g61
I1
ssg62
g3962
sg55
(lp3969
g3104
(S's\x06\x00\x00\x00Web2py'
tRp3970
asbasbasbag48
(g64
g50
NtRp3971
(dp3972
g53
(dp3973
sg62
g3954
sg55
(lp3974
g48
(g69
g50
NtRp3975
(dp3976
g53
(dp3977
sg62
g3971
sg55
(lp3978
g48
(g49
g50
NtRp3979
(dp3980
g53
(dp3981
g61
I1
ssg62
g3975
sg55
(lp3982
I00
asbasbasbag48
(g64
g50
NtRp3983
(dp3984
g53
(dp3985
sg62
g3954
sg55
(lp3986
g48
(g69
g50
NtRp3987
(dp3988
g53
(dp3989
sg62
g3983
sg55
(lp3990
g48
(g49
g50
NtRp3991
(dp3992
g53
(dp3993
g61
I1
ssg62
g3987
sg55
(lp3994
S'http://www.web2py.com'
p3995
asbasbasbag48
(g64
g50
NtRp3996
(dp3997
g53
(dp3998
sg62
g3954
sg55
(lp3999
g48
(g69
g50
NtRp4000
(dp4001
g53
(dp4002
sg62
g3996
sg55
(lp4003
g48
(g49
g50
NtRp4004
(dp4005
g53
(dp4006
g61
I1
ssg62
g4000
sg55
(lp4007
(lp4008
(g3104
(S's\x08\x00\x00\x00Download'
tRp4009
I00
S'http://www.web2py.com/examples/default/download'
tp4010
a(g3104
(S's\x07\x00\x00\x00Support'
tRp4011
I00
S'http://www.web2py.com/examples/default/support'
tp4012
a(g3104
(S's\x0e\x00\x00\x00Quick Examples'
tRp4013
I00
S'http://web2py.com/examples/default/examples'
tp4014
a(g3104
(S's\x03\x00\x00\x00FAQ'
tRp4015
I00
S'http://web2py.com/AlterEgo'
tp4016
a(g3104
(S's\x11\x00\x00\x00Free Applications'
tRp4017
I00
S'http://web2py.com/appliances'
tp4018
a(g3104
(S's\x07\x00\x00\x00Plugins'
tRp4019
I00
S'http://web2py.com/plugins'
tp4020
a(g3104
(S's\x07\x00\x00\x00Recipes'
tRp4021
I00
S'http://web2pyslices.com/'
tp4022
a(g3104
(S's\x04\x00\x00\x00Demo'
tRp4023
I00
S'http://web2py.com/demo_admin'
tp4024
a(g3104
(S's\x08\x00\x00\x00Semantic'
tRp4025
I00
S'http://web2py.com/semantic'
tp4026
a(g3104
(S's\x07\x00\x00\x00Layouts'
tRp4027
I00
S'http://web2py.com/layouts'
tp4028
a(g3104
(S's\x06\x00\x00\x00Videos'
tRp4029
I00
S'http://www.web2py.com/examples/default/videos/'
tp4030
aasbasbasbasbasbasbasbasbasbasbasbasbasbasbasbasbasbasbasbag48
(g64
g50
NtRp4031
(dp4032
g53
(dp4033
sg62
g2619
sg55
(lp4034
g48
(g69
g50
NtRp4035
(dp4036
g53
(dp4037
g73
g74
ssg62
g4031
sg55
(lp4038
S'meta'
p4039
asbag48
(g69
g50
NtRp4040
(dp4041
g53
(dp4042
g80
g81
ssg62
g4031
sg55
(lp4043
S':'
asbag48
(g69
g50
NtRp4044
(dp4045
g53
(dp4046
sg62
g4031
sg55
(lp4047
g48
(g49
g50
NtRp4048
(dp4049
g53
(dp4050
g61
I5
ssg62
g4044
sg55
(lp4051
g48
(g57
g50
NtRp4052
(dp4053
g53
(dp4054
g61
I4
ssg62
Nsg55
(lp4055
g48
(g64
g50
NtRp4056
(dp4057
g53
(dp4058
sg62
g4052
sg55
(lp4059
g48
(g69
g50
NtRp4060
(dp4061
g53
(dp4062
g73
g74
ssg62
g4056
sg55
(lp4063
S'author'
p4064
asbag48
(g69
g50
NtRp4065
(dp4066
g53
(dp4067
g80
g81
ssg62
g4056
sg55
(lp4068
S':'
asbag48
(g69
g50
NtRp4069
(dp4070
g53
(dp4071
sg62
g4056
sg55
(lp4072
g48
(g49
g50
NtRp4073
(dp4074
g53
(dp4075
g61
I4
ssg62
g4069
sg55
(lp4076
S'you'
p4077
asbasbasbag48
(g64
g50
NtRp4078
(dp4079
g53
(dp4080
sg62
g4052
sg55
(lp4081
g48
(g69
g50
NtRp4082
(dp4083
g53
(dp4084
g73
g74
ssg62
g4078
sg55
(lp4085
S'copyright'
p4086
asbag48
(g69
g50
NtRp4087
(dp4088
g53
(dp4089
g80
g81
ssg62
g4078
sg55
(lp4090
S':'
asbag48
(g69
g50
NtRp4091
(dp4092
g53
(dp4093
sg62
g4078
sg55
(lp4094
g48
(g49
g50
NtRp4095
(dp4096
g53
(dp4097
g61
I4
ssg62
g4091
sg55
(lp4098
S'Copyright 2007-2010'
p4099
asbasbasbag48
(g64
g50
NtRp4100
(dp4101
g53
(dp4102
sg62
g4052
sg55
(lp4103
g48
(g69
g50
NtRp4104
(dp4105
g53
(dp4106
g73
g74
ssg62
g4100
sg55
(lp4107
S'description'
p4108
asbag48
(g69
g50
NtRp4109
(dp4110
g53
(dp4111
g80
g81
ssg62
g4100
sg55
(lp4112
S':'
asbag48
(g69
g50
NtRp4113
(dp4114
g53
(dp4115
sg62
g4100
sg55
(lp4116
g48
(g49
g50
NtRp4117
(dp4118
g53
(dp4119
g61
I4
ssg62
g4113
sg55
(lp4120
S'Free and open source full-stack enterprise framework for agile development of fast, scalable, secure and portable database-driven web-based applications. Written and programmable in Python'
p4121
asbasbasbag48
(g64
g50
NtRp4122
(dp4123
g53
(dp4124
sg62
g4052
sg55
(lp4125
g48
(g69
g50
NtRp4126
(dp4127
g53
(dp4128
g73
g74
ssg62
g4122
sg55
(lp4129
S'generator'
p4130
asbag48
(g69
g50
NtRp4131
(dp4132
g53
(dp4133
g80
g81
ssg62
g4122
sg55
(lp4134
S':'
asbag48
(g69
g50
NtRp4135
(dp4136
g53
(dp4137
sg62
g4122
sg55
(lp4138
g48
(g49
g50
NtRp4139
(dp4140
g53
(dp4141
g61
I4
ssg62
g4135
sg55
(lp4142
S'Web2py Enterprise Framework'
p4143
asbasbasbag48
(g64
g50
NtRp4144
(dp4145
g53
(dp4146
sg62
g4052
sg55
(lp4147
g48
(g69
g50
NtRp4148
(dp4149
g53
(dp4150
g73
g74
ssg62
g4144
sg55
(lp4151
S'keywords'
p4152
asbag48
(g69
g50
NtRp4153
(dp4154
g53
(dp4155
g80
g81
ssg62
g4144
sg55
(lp4156
S':'
asbag48
(g69
g50
NtRp4157
(dp4158
g53
(dp4159
sg62
g4144
sg55
(lp4160
g48
(g49
g50
NtRp4161
(dp4162
g53
(dp4163
g61
I4
ssg62
g4157
sg55
(lp4164
S'web2py, python, framework'
p4165
asbasbasbasbasbasbasbag48
(g64
g50
NtRp4166
(dp4167
g53
(dp4168
sg62
g2619
sg55
(lp4169
g48
(g69
g50
NtRp4170
(dp4171
g53
(dp4172
g73
g74
ssg62
g4166
sg55
(lp4173
S'postprocessing'
p4174
asbag48
(g69
g50
NtRp4175
(dp4176
g53
(dp4177
g80
g81
ssg62
g4166
sg55
(lp4178
S':'
asbag48
(g69
g50
NtRp4179
(dp4180
g53
(dp4181
sg62
g4166
sg55
(lp4182
g48
(g49
g50
NtRp4183
(dp4184
g53
(dp4185
g61
I5
ssg62
g4179
sg55
(lp4186
g48
(g57
g50
NtRp4187
(dp4188
g53
(dp4189
g61
I4
ssg62
Nsg55
(lp4190
sbasbasbasbag48
(g64
g50
NtRp4191
(dp4192
g53
(dp4193
sg62
g2619
sg55
(lp4194
g48
(g69
g50
NtRp4195
(dp4196
g53
(dp4197
g73
g74
ssg62
g4191
sg55
(lp4198
S'session_file'
p4199
asbag48
(g69
g50
NtRp4200
(dp4201
g53
(dp4202
g80
g81
ssg62
g4191
sg55
(lp4203
S':'
asbag48
(g69
g50
NtRp4204
(dp4205
g53
(dp4206
sg62
g4191
sg55
(lp4207
g48
(g49
g50
NtRp4208
(dp4209
g53
(dp4210
g61
I5
ssg62
g4204
sg55
(lp4211
S"<open file 'C:\\Users\\AKSHAY\\Desktop\\web2py\\applications\\201056161\\sessions\\127.0.0.1-3bc821ac-4d59-41c6-8699-b3e43edfc478', mode 'rb+' at 0x06BF8188>"
p4212
asbasbasbag48
(g64
g50
NtRp4213
(dp4214
g53
(dp4215
sg62
g2619
sg55
(lp4216
g48
(g69
g50
NtRp4217
(dp4218
g53
(dp4219
g73
g74
ssg62
g4213
sg55
(lp4220
S'session_filename'
p4221
asbag48
(g69
g50
NtRp4222
(dp4223
g53
(dp4224
g80
g81
ssg62
g4213
sg55
(lp4225
S':'
asbag48
(g69
g50
NtRp4226
(dp4227
g53
(dp4228
sg62
g4213
sg55
(lp4229
g48
(g49
g50
NtRp4230
(dp4231
g53
(dp4232
g61
I5
ssg62
g4226
sg55
(lp4233
S'C:\\Users\\AKSHAY\\Desktop\\web2py\\applications\\201056161\\sessions\\127.0.0.1-3bc821ac-4d59-41c6-8699-b3e43edfc478'
p4234
asbasbasbag48
(g64
g50
NtRp4235
(dp4236
g53
(dp4237
sg62
g2619
sg55
(lp4238
g48
(g69
g50
NtRp4239
(dp4240
g53
(dp4241
g73
g74
ssg62
g4235
sg55
(lp4242
S'session_id'
p4243
asbag48
(g69
g50
NtRp4244
(dp4245
g53
(dp4246
g80
g81
ssg62
g4235
sg55
(lp4247
S':'
asbag48
(g69
g50
NtRp4248
(dp4249
g53
(dp4250
sg62
g4235
sg55
(lp4251
g48
(g49
g50
NtRp4252
(dp4253
g53
(dp4254
g61
I5
ssg62
g4248
sg55
(lp4255
S'127.0.0.1-3bc821ac-4d59-41c6-8699-b3e43edfc478'
p4256
asbasbasbag48
(g64
g50
NtRp4257
(dp4258
g53
(dp4259
sg62
g2619
sg55
(lp4260
g48
(g69
g50
NtRp4261
(dp4262
g53
(dp4263
g73
g74
ssg62
g4257
sg55
(lp4264
S'session_id_name'
p4265
asbag48
(g69
g50
NtRp4266
(dp4267
g53
(dp4268
g80
g81
ssg62
g4257
sg55
(lp4269
S':'
asbag48
(g69
g50
NtRp4270
(dp4271
g53
(dp4272
sg62
g4257
sg55
(lp4273
g48
(g49
g50
NtRp4274
(dp4275
g53
(dp4276
g61
I5
ssg62
g4270
sg55
(lp4277
g2676
asbasbasbag48
(g64
g50
NtRp4278
(dp4279
g53
(dp4280
sg62
g2619
sg55
(lp4281
g48
(g69
g50
NtRp4282
(dp4283
g53
(dp4284
g73
g74
ssg62
g4278
sg55
(lp4285
S'session_locked'
p4286
asbag48
(g69
g50
NtRp4287
(dp4288
g53
(dp4289
g80
g81
ssg62
g4278
sg55
(lp4290
S':'
asbag48
(g69
g50
NtRp4291
(dp4292
g53
(dp4293
sg62
g4278
sg55
(lp4294
g48
(g49
g50
NtRp4295
(dp4296
g53
(dp4297
g61
I5
ssg62
g4291
sg55
(lp4298
g1501
asbasbasbag48
(g64
g50
NtRp4299
(dp4300
g53
(dp4301
sg62
g2619
sg55
(lp4302
g48
(g69
g50
NtRp4303
(dp4304
g53
(dp4305
g73
g74
ssg62
g4299
sg55
(lp4306
S'session_new'
p4307
asbag48
(g69
g50
NtRp4308
(dp4309
g53
(dp4310
g80
g81
ssg62
g4299
sg55
(lp4311
S':'
asbag48
(g69
g50
NtRp4312
(dp4313
g53
(dp4314
sg62
g4299
sg55
(lp4315
g48
(g49
g50
NtRp4316
(dp4317
g53
(dp4318
g61
I5
ssg62
g4312
sg55
(lp4319
g91
asbasbasbag48
(g64
g50
NtRp4320
(dp4321
g53
(dp4322
sg62
g2619
sg55
(lp4323
g48
(g69
g50
NtRp4324
(dp4325
g53
(dp4326
g73
g74
ssg62
g4320
sg55
(lp4327
S'status'
p4328
asbag48
(g69
g50
NtRp4329
(dp4330
g53
(dp4331
g80
g81
ssg62
g4320
sg55
(lp4332
S':'
asbag48
(g69
g50
NtRp4333
(dp4334
g53
(dp4335
sg62
g4320
sg55
(lp4336
g48
(g49
g50
NtRp4337
(dp4338
g53
(dp4339
g61
I5
ssg62
g4333
sg55
(lp4340
S'200'
p4341
asbasbasbag48
(g64
g50
NtRp4342
(dp4343
g53
(dp4344
sg62
g2619
sg55
(lp4345
g48
(g69
g50
NtRp4346
(dp4347
g53
(dp4348
g73
g74
ssg62
g4342
sg55
(lp4349
S'subtitle'
p4350
asbag48
(g69
g50
NtRp4351
(dp4352
g53
(dp4353
g80
g81
ssg62
g4342
sg55
(lp4354
S':'
asbag48
(g69
g50
NtRp4355
(dp4356
g53
(dp4357
sg62
g4342
sg55
(lp4358
g48
(g49
g50
NtRp4359
(dp4360
g53
(dp4361
g61
I5
ssg62
g4355
sg55
(lp4362
g3104
(S's\r\x00\x00\x00customize me!'
tRp4363
asbasbasbag48
(g64
g50
NtRp4364
(dp4365
g53
(dp4366
sg62
g2619
sg55
(lp4367
g48
(g69
g50
NtRp4368
(dp4369
g53
(dp4370
g73
g74
ssg62
g4364
sg55
(lp4371
S'title'
p4372
asbag48
(g69
g50
NtRp4373
(dp4374
g53
(dp4375
g80
g81
ssg62
g4364
sg55
(lp4376
S':'
asbag48
(g69
g50
NtRp4377
(dp4378
g53
(dp4379
sg62
g4364
sg55
(lp4380
g48
(g49
g50
NtRp4381
(dp4382
g53
(dp4383
g61
I5
ssg62
g4377
sg55
(lp4384
g113
asbasbasbag48
(g64
g50
NtRp4385
(dp4386
g53
(dp4387
sg62
g2619
sg55
(lp4388
g48
(g69
g50
NtRp4389
(dp4390
g53
(dp4391
g73
g74
ssg62
g4385
sg55
(lp4392
g1846
asbag48
(g69
g50
NtRp4393
(dp4394
g53
(dp4395
g80
g81
ssg62
g4385
sg55
(lp4396
S':'
asbag48
(g69
g50
NtRp4397
(dp4398
g53
(dp4399
sg62
g4385
sg55
(lp4400
g48
(g49
g50
NtRp4401
(dp4402
g53
(dp4403
g61
I5
ssg62
g4397
sg55
(lp4404
g1859
asbasbasbag48
(g64
g50
NtRp4405
(dp4406
g53
(dp4407
sg62
g2619
sg55
(lp4408
g48
(g69
g50
NtRp4409
(dp4410
g53
(dp4411
g73
g74
ssg62
g4405
sg55
(lp4412
S'view'
p4413
asbag48
(g69
g50
NtRp4414
(dp4415
g53
(dp4416
g80
g81
ssg62
g4405
sg55
(lp4417
S':'
asbag48
(g69
g50
NtRp4418
(dp4419
g53
(dp4420
sg62
g4405
sg55
(lp4421
g48
(g49
g50
NtRp4422
(dp4423
g53
(dp4424
g61
I5
ssg62
g4418
sg55
(lp4425
S'default/song_details.html'
p4426
asbasbasbasbasbsS'locals'
p4427
(dp4428
S'idn'
p4429
S'5'
sssS'traceback'
p4430
S'Traceback (most recent call last):\n  File "gluon/restricted.py", line 192, in restricted\n  File "C:\\Users\\AKSHAY\\Desktop\\web2py\\applications\\201056161\\controllers/default.py", line 156, in <module>\n  File "gluon/globals.py", line 137, in <lambda>\n  File "C:\\Users\\AKSHAY\\Desktop\\web2py\\applications\\201056161\\controllers/default.py", line 153, in song_details\nAttributeError: \'function\' object has no attribute \'ALL\'\n'
p4431
s.