(dp1
S'output'
p2
S''
sS'layer'
p3
S'C:\\Users\\AKSHAY\\Desktop\\web2py\\applications\\201056161\\views\\default/index.html'
p4
sS'code'
p5
S'response.write(\'<!DOCTYPE html>\\n<html lang="\', escape=False)\nresponse.write(T.accepted_language or \'en\')\nresponse.write(\'" class="no-js"><!-- no-js need it for modernzr -->\\n  <head>\\n    \\n    <meta charset="utf-8" />\\t  \\t\\n    <!-- www.phpied.com/conditional-comments-block-downloads/ -->\\n    <!--[if IE]><![endif]-->    \\n    <!-- Always force latest IE rendering engine \\n\\t (even in intranet) & Chrome Frame \\n\\t Remove this if you use the .htaccess -->\\n    <meta http-equiv="X-UA-Compatible" content="IE=edge,chrome=1">\\n    \\n    <title>\', escape=False)\nresponse.write(response.title or request.application)\nresponse.write(\'</title>\\n    \\n    <!-- http://dev.w3.org/html5/markup/meta.name.html -->\\n    <meta name="application-name" content="\', escape=False)\nresponse.write(request.application)\nresponse.write(\'" />\\t\\n    \\n    <!-- Speaking of Google, don\\\'t forget to set your site up: \\n\\t http://google.com/webmasters -->\\n    <meta name="google-site-verification" content="" />\\n    \\n    <!--  Mobile Viewport Fix\\n\\t  j.mp/mobileviewport & davidbcalhoun.com/2010/viewport-metatag \\n\\t  device-width: Occupy full width of the screen in its current orientation\\n\\t  initial-scale = 1.0 retains dimensions instead of zooming out if page height > device height\\n\\t  maximum-scale = 1.0 retains dimensions instead of zooming in if page width < device width\\n      -->\\n    <meta name="viewport" content="width=device-width, initial-scale=1.0, maximum-scale=1.0">\\n    \\n    <!-- Place favicon.ico and apple-touch-icon.png in the root of your domain and delete these references -->\\n    <link rel="shortcut icon" href="\', escape=False)\nresponse.write(URL(\'static\',\'favicon.ico\'))\nresponse.write(\'" type="image/x-icon">\\n    <link rel="apple-touch-icon" href="\', escape=False)\nresponse.write(URL(\'static\',\'favicon.png\'))\nresponse.write(\'">\\n\\n    <!-- For the less-enabled mobile browsers like Opera Mini -->\\n    <link rel="stylesheet" media="handheld" href="\', escape=False)\nresponse.write(URL(\'static\',\'css/handheld.css\'))\nresponse.write(\'">\\n    \\n    <!-- All JavaScript at the bottom, except for Modernizr which enables HTML5 elements & feature detects -->\\n    <script src="\', escape=False)\nresponse.write(URL(\'static\',\'js/modernizr-1.7.min.js\'))\nresponse.write(\'"></script>\\n    \\n    \', escape=False)\n#------  require CSS and JS files for this page (read info in base.css) ------\nresponse.write(\'\\n    \', escape=False)\nresponse.files.append(URL(\'static\',\'css/base.css\'))\nresponse.write(\'\\n    \', escape=False)\nresponse.files.append(URL(\'static\',\'css/superfish.css\'))\nresponse.write(\'\\n    \', escape=False)\nresponse.files.append(URL(\'static\',\'js/superfish.js\'))\nresponse.write(\'\\n    \', escape=False)\n#------ include web2py specific js code (jquery, calendar, form stuff) ------\nresponse.write(\'\\n    \', escape=False)\nresponse.files.insert(0,URL(\'static\',\'js/jquery.js\'))\nresponse.files.insert(1,URL(\'static\',\'css/calendar.css\'))\nresponse.files.insert(2,URL(\'static\',\'js/calendar.js\'))\nfor _item in response.meta or []:\n    response.write(\'\\n     <meta name="\', escape=False)\n    response.write(_item)\n    response.write(\'" content="\', escape=False)\n    response.write(response.meta[_item])\n    response.write(\'" />\', escape=False)\n    pass\nfor _k,_file in enumerate(response.files or []):\n    if _file in response.files[:_k]:\n        continue\n    _file0=_file.lower().split(\'?\')[0]\n    if _file0.endswith(\'.css\'):\n        response.write(\'\\n     <link href="\', escape=False)\n        response.write(_file)\n        response.write(\'" rel="stylesheet" type="text/css" />\', escape=False)\n    elif _file0.endswith(\'.js\'):\n        response.write(\'\\n     <script src="\', escape=False)\n        response.write(_file)\n        response.write(\'" type="text/javascript"></script>\', escape=False)\n        pass\n    pass\nresponse.write(\'\\n    <script type="text/javascript"><!--\\n    // These variables are used by the web2py_ajax_init function in web2py_ajax.js (which is loaded below).\\n    var w2p_ajax_confirm_message = "\', escape=False)\nresponse.write(T(\'Are you sure you want to delete this object?\'))\nresponse.write(\'";\\n    var w2p_ajax_date_format = "\', escape=False)\nresponse.write(T(\'%Y-%m-%d\'))\nresponse.write(\'";\\n    var w2p_ajax_datetime_format = "\', escape=False)\nresponse.write(T(\'%Y-%m-%d %H:%M:%S\'))\nresponse.write(\'";\\n    //--></script>\\n    <script src="\', escape=False)\nresponse.write(URL(\'static\',\'js/web2py_ajax.js\'))\nresponse.write(\'" type="text/javascript"></script>\\n\', escape=False)\nresponse.write(\'\\n\\n    \', escape=False)\n#using sidebars need to know what sidebar you want to use\n#prior of using it, because of static width size of content, you can use\n#left_sidebar, right_sidebar, both or none (False left and right)\nleft_sidebar_enabled = globals().get(\'left_sidebar_enabled\',False)\nright_sidebar_enabled = globals().get(\'right_sidebar_enabled\',False)\nif left_sidebar_enabled and right_sidebar_enabled: width_content=\'63%\'\nelif left_sidebar_enabled != right_sidebar_enabled: width_content=\'740px\'\nelse: width_content=\'100%\'\nif left_sidebar_enabled: left_sidebar_style = \'style="display: block;"\'\nelse: left_sidebar_style = \'style="display: none;"\'\nif right_sidebar_enabled: right_sidebar_style = \'style="display: block;"\'\nelse: right_sidebar_style = \'style="display: none;"\'\nstyle_content = \'style="width: %s"\' % width_content\nresponse.write(\'\\n  </head>\\n  \\n  <!-- paulirish.com/2008/conditional-stylesheets-vs-css-hacks-answer-neither/ -->\\t\\n  <!--[if lt IE 7 ]> <body class="ie6"> <![endif]-->\\n  <!--[if IE 7 ]>    <body class="ie7"> <![endif]-->\\n  <!--[if IE 8 ]>    <body class="ie8"> <![endif]-->\\n  <!--[if IE 9 ]>    <body class="ie9"> <![endif]-->\\n  <!--[if (gt IE 9)|!(IE)]><!--> <body> <!--<![endif]-->\\n    \\n    <div class="flash">\', escape=False)\nresponse.write(response.flash or \'\')\nresponse.write(\'</div> <!-- notification div -->\\n    \\n    <div id="container">\\t      \\t\\t      \\t\\n      \\n      <div id="wrapper">\\t\\t\\n\\t\\n\\t<div id="header"> <!-- header and login nav -->\\n\\t  \', escape=False)\nresponse.write(\' <!-- this is default header -->\\n\\t  \', escape=False)\ntry:\n    response.write(auth.navbar(action=URL(\'default\',\'user\')))\nexcept:pass\nresponse.write(\'\\t\\t          \\n\\t  <h1><span id="appname">\', escape=False)\nresponse.write(request.application.capitalize())\nresponse.write(\'</span>App</h1>\\n\\t  <div style="clear: both;"></div><!-- Clear the divs -->\\n\\t  \', escape=False)\nresponse.write(\'\\t\\t\\t\\t  \\t\\t\\t\\t\\t  \\n\\t</div><!-- header  -->\\n\\t\\n\\t<div id="statusbar"><!-- statusbar is menu zone -->\\n\\t  \', escape=False)\nresponse.write(\' <!-- this is default statusbar -->\\n\\t  \', escape=False)\n#------ superfish menu ------\nresponse.write(\'\\n\\t  \', escape=False)\nresponse.write(MENU(response.menu,_class=\'sf-menu\'))\nresponse.write(\'\\n\\t  <script type="text/javascript">\\n\\t    jQuery(document).ready(function(){\\n\\t    jQuery(\\\'ul.sf-menu\\\').superfish();});\\n\\t  </script>\\n\\t  <div style="clear: both;"></div><!-- Clear the divs -->\\t\\n\\t  \', escape=False)\nresponse.write(\'\\t\\t\\t\\t\\n\\t</div><!-- statusbar -->\\n\\t\\n\\t<div id="page"> <!-- Here my central body -->\\t  \\n\\n\\t  \', escape=False)\nif left_sidebar_enabled:\n    response.write(\'\\n          <div id="left_sidebar" \', escape=False)\n    response.write(XML(left_sidebar_style))\n    response.write(\' >\\n            <div style="padding: 4px;">\\n\\t      \', escape=False)\n    response.write(\'Content Left Sidebar\', escape=False)\n    response.write(\'\\t\\t  \\n            </div>\\n          </div><!-- left_sidebar -->\\n\\t  \', escape=False)\n    pass\nresponse.write(\'\\n\\n\\t  <!-- content -->\\n\\t  <div id="content" \', escape=False)\nresponse.write(XML(style_content))\nresponse.write(\' >\\n\\t    \', escape=False)\nresponse.write(\'\\r\\n<h2> Assignment 2</h2>\\r\\nAkshay Minocha \\r\\n201056161 UG2   \\r\\n\', escape=False)\nresponse.write(LI(A(\'1st question\',_href=URL(r=request,f=\'q1f\')))\nresponse.write(\'\\r\\n\\r\\n\', escape=False)\nresponse.write(LI(A(\'2nd question\',_href=URL(r=request,f=\'q2f\')))\nresponse.write(\'\\r\\n\\r\\n\', escape=False)\nresponse.write(LI(A(\'3rd question\',_href=URL(r=request,f=\'q3f\')))\nresponse.write(\'\\r\\n\\r\\n\', escape=False)\nresponse.write(LI(A(\'4th question\',_href=URL(r=request,f=\'q4f\')))\nresponse.write(\'\\r\\n\\r\\n\', escape=False)\nresponse.write(LI(A(\'5th question\',_href=URL(r=request,f=\'q5f\')))\nresponse.write(\'\\r\\n\', escape=False)\nresponse.write(\'\\t\\n\\t  </div>\\n\\t  <!-- content -->\\n\\n\\t  \', escape=False)\nif right_sidebar_enabled:\n    response.write(\'\\n          <div id="right_sidebar" \', escape=False)\n    response.write(XML(right_sidebar_style))\n    response.write(\' >\\n            <div style="padding: 4px;">\\n              \', escape=False)\n    response.write(\'Content Right Sidebar\', escape=False)\n    response.write(\'\\n            </div>\\n\\t  </div><!-- right_sidebar -->\\n          \', escape=False)\n    pass\nresponse.write(\'\\n\\n\\n\\t  <div style="clear: both;"></div><!-- Clear the divs -->\\n\\t  \\n\\t</div><!-- page -->\\t\\t\\t\\t\\t\\t\\t\\n\\t\\n\\t<div id="footer">\\n\\t  \', escape=False)\nresponse.write(\' <!-- this is default footer -->\\n\\t  <a href="http://www.web2py.com/" style="float: left; padding-right: 6px;">\\n\\t    <img src="\', escape=False)\nresponse.write(URL(\'static\',\'images/poweredby.png\'))\nresponse.write(\'"/>\\n\\t  </a>\\n\\t  \', escape=False)\nresponse.write(T(\'Copyright\'))\nresponse.write(\' &#169; 2010\\t\\t\\t\\t\\n\\t  <div style="clear: both;"></div><!-- Clear the divs -->\\n\\t  \', escape=False)\nresponse.write(\'\\n\\n\\t</div><!-- footer -->\\t\\t\\t\\n      </div><!-- wrapper -->\\n    </div><!-- container -->\\t\\t\\n    \\n    <!--[if lt IE 7 ]>\\n\\t<script src="\', escape=False)\nresponse.write(URL(\'static\',\'js/dd_belatedpng.js\'))\nresponse.write(\'"></script>\\n\\t<script> DD_belatedPNG.fix(\\\'img, .png_bg\\\'); //fix any <img> or .png_bg background-images </script>\\n\\t<![endif]-->\\n    \\n    <!-- asynchronous google analytics: mathiasbynens.be/notes/async-analytics-snippet \\n\\t change the UA-XXXXX-X to be your site\\\'s ID -->\\n    <!--   \\n\\t   <script>\\n\\t     var _gaq = [[\\\'_setAccount\\\', \\\'UA-XXXXX-X\\\'], [\\\'_trackPageview\\\']];\\n\\t     (function(d, t) {\\n\\t     var g = d.createElement(t),\\n\\t     s = d.getElementsByTagName(t)[0];\\n\\t     g.async = true;\\n\\t     g.src = \\\'//www.google-analytics.com/ga.js\\\';\\n\\t     s.parentNode.insertBefore(g, s);\\n\\t     })(document, \\\'script\\\');\\n\\t   </script>\\n\\t   -->    \\n  </body>\\n</html>\\n\', escape=False)'
p6
sS'snapshot'
p7
(dp8
S'exception'
p9
(dp10
S'__getslice__'
p11
S"<method-wrapper '__getslice__' of exceptions.SyntaxError object at 0x070B0DB0>"
p12
sS'text'
p13
S'"response.write(\'\\\\r\\\\n\\\\r\\\\n\', escape=False)\\n"'
p14
sS'__str__'
p15
S"<method-wrapper '__str__' of exceptions.SyntaxError object at 0x070B0DB0>"
p16
sS'__reduce__'
p17
S'<built-in method __reduce__ of exceptions.SyntaxError object at 0x070B0DB0>'
p18
sS'__dict__'
p19
S'{}'
p20
sS'__init__'
p21
S"<method-wrapper '__init__' of exceptions.SyntaxError object at 0x070B0DB0>"
p22
sS'__setattr__'
p23
S"<method-wrapper '__setattr__' of exceptions.SyntaxError object at 0x070B0DB0>"
p24
sS'__reduce_ex__'
p25
S'<built-in method __reduce_ex__ of exceptions.SyntaxError object at 0x070B0DB0>'
p26
sS'__new__'
p27
S'<built-in method __new__ of type object at 0x1E1CDBD0>'
p28
sS'__class__'
p29
S"<type 'exceptions.SyntaxError'>"
p30
sS'filename'
p31
S"r'C:\\Users\\AKSHAY\\Desktop\\web2py\\applications\\201056161\\views\\default/index.html'"
p32
sS'lineno'
p33
S'102'
p34
sS'msg'
p35
S"'invalid syntax'"
p36
sS'__doc__'
p37
S"'Invalid syntax.'"
p38
sS'__getitem__'
p39
S"<method-wrapper '__getitem__' of exceptions.SyntaxError object at 0x070B0DB0>"
p40
sS'__setstate__'
p41
S'<built-in method __setstate__ of exceptions.SyntaxError object at 0x070B0DB0>'
p42
sS'__getattribute__'
p43
S"<method-wrapper '__getattribute__' of exceptions.SyntaxError object at 0x070B0DB0>"
p44
sS'print_file_and_line'
p45
S'None'
p46
sS'args'
p47
S'(\'invalid syntax\', (r\'C:\\Users\\AKSHAY\\Desktop\\web2py\\applications\\201056161\\views\\default/index.html\', 102, 8, "response.write(\'\\\\r\\\\n\\\\r\\\\n\', escape=False)\\n"))'
p48
sS'offset'
p49
S'8'
sS'__delattr__'
p50
S"<method-wrapper '__delattr__' of exceptions.SyntaxError object at 0x070B0DB0>"
p51
sS'__repr__'
p52
S"<method-wrapper '__repr__' of exceptions.SyntaxError object at 0x070B0DB0>"
p53
sS'__hash__'
p54
S"<method-wrapper '__hash__' of exceptions.SyntaxError object at 0x070B0DB0>"
p55
ssS'evalue'
p56
S'invalid syntax (default/index.html, line 102)'
p57
sS'request'
p58
ccopy_reg
_reconstructor
p59
(cgluon.html
BEAUTIFY
p60
c__builtin__
object
p61
NtRp62
(dp63
S'attributes'
p64
(dp65
sS'components'
p66
(lp67
g59
(cgluon.html
TABLE
p68
g61
NtRp69
(dp70
g64
(dp71
S'level'
p72
I5
ssS'parent'
p73
Nsg66
(lp74
g59
(cgluon.html
TR
p75
g61
NtRp76
(dp77
g64
(dp78
sg73
g69
sg66
(lp79
g59
(cgluon.html
TD
p80
g61
NtRp81
(dp82
g64
(dp83
S'_style'
p84
S'font-weight:bold;'
p85
ssg73
g76
sg66
(lp86
S'ajax'
p87
asbag59
(g80
g61
NtRp88
(dp89
g64
(dp90
S'_valign'
p91
S'top'
p92
ssg73
g76
sg66
(lp93
S':'
asbag59
(g80
g61
NtRp94
(dp95
g64
(dp96
sg73
g76
sg66
(lp97
g59
(g60
g61
NtRp98
(dp99
g64
(dp100
g72
I5
ssg73
g94
sg66
(lp101
S'False'
p102
asbasbasbag59
(g75
g61
NtRp103
(dp104
g64
(dp105
sg73
g69
sg66
(lp106
g59
(g80
g61
NtRp107
(dp108
g64
(dp109
g84
g85
ssg73
g103
sg66
(lp110
S'application'
p111
asbag59
(g80
g61
NtRp112
(dp113
g64
(dp114
g91
g92
ssg73
g103
sg66
(lp115
S':'
asbag59
(g80
g61
NtRp116
(dp117
g64
(dp118
sg73
g103
sg66
(lp119
g59
(g60
g61
NtRp120
(dp121
g64
(dp122
g72
I5
ssg73
g116
sg66
(lp123
S'201056161'
p124
asbasbasbag59
(g75
g61
NtRp125
(dp126
g64
(dp127
sg73
g69
sg66
(lp128
g59
(g80
g61
NtRp129
(dp130
g64
(dp131
g84
g85
ssg73
g125
sg66
(lp132
g47
asbag59
(g80
g61
NtRp133
(dp134
g64
(dp135
g91
g92
ssg73
g125
sg66
(lp136
S':'
asbag59
(g80
g61
NtRp137
(dp138
g64
(dp139
sg73
g125
sg66
(lp140
g59
(g60
g61
NtRp141
(dp142
g64
(dp143
g72
I5
ssg73
g137
sg66
(lp144
g59
(g68
g61
NtRp145
(dp146
g64
(dp147
g72
I4
ssg73
Nsg66
(lp148
sbasbasbasbag59
(g75
g61
NtRp149
(dp150
g64
(dp151
sg73
g69
sg66
(lp152
g59
(g80
g61
NtRp153
(dp154
g64
(dp155
g84
g85
ssg73
g149
sg66
(lp156
S'body'
p157
asbag59
(g80
g61
NtRp158
(dp159
g64
(dp160
g91
g92
ssg73
g149
sg66
(lp161
S':'
asbag59
(g80
g61
NtRp162
(dp163
g64
(dp164
sg73
g149
sg66
(lp165
g59
(g60
g61
NtRp166
(dp167
g64
(dp168
g72
I5
ssg73
g162
sg66
(lp169
S'<cStringIO.StringO object at 0x070B1A20>'
p170
asbasbasbag59
(g75
g61
NtRp171
(dp172
g64
(dp173
sg73
g69
sg66
(lp174
g59
(g80
g61
NtRp175
(dp176
g64
(dp177
g84
g85
ssg73
g171
sg66
(lp178
S'client'
p179
asbag59
(g80
g61
NtRp180
(dp181
g64
(dp182
g91
g92
ssg73
g171
sg66
(lp183
S':'
asbag59
(g80
g61
NtRp184
(dp185
g64
(dp186
sg73
g171
sg66
(lp187
g59
(g60
g61
NtRp188
(dp189
g64
(dp190
g72
I5
ssg73
g184
sg66
(lp191
S'127.0.0.1'
p192
asbasbasbag59
(g75
g61
NtRp193
(dp194
g64
(dp195
sg73
g69
sg66
(lp196
g59
(g80
g61
NtRp197
(dp198
g64
(dp199
g84
g85
ssg73
g193
sg66
(lp200
S'controller'
p201
asbag59
(g80
g61
NtRp202
(dp203
g64
(dp204
g91
g92
ssg73
g193
sg66
(lp205
S':'
asbag59
(g80
g61
NtRp206
(dp207
g64
(dp208
sg73
g193
sg66
(lp209
g59
(g60
g61
NtRp210
(dp211
g64
(dp212
g72
I5
ssg73
g206
sg66
(lp213
S'default'
p214
asbasbasbag59
(g75
g61
NtRp215
(dp216
g64
(dp217
sg73
g69
sg66
(lp218
g59
(g80
g61
NtRp219
(dp220
g64
(dp221
g84
g85
ssg73
g215
sg66
(lp222
S'cookies'
p223
asbag59
(g80
g61
NtRp224
(dp225
g64
(dp226
g91
g92
ssg73
g215
sg66
(lp227
S':'
asbag59
(g80
g61
NtRp228
(dp229
g64
(dp230
sg73
g215
sg66
(lp231
g59
(g60
g61
NtRp232
(dp233
g64
(dp234
g72
I5
ssg73
g228
sg66
(lp235
g59
(g68
g61
NtRp236
(dp237
g64
(dp238
g72
I4
ssg73
Nsg66
(lp239
g59
(g75
g61
NtRp240
(dp241
g64
(dp242
sg73
g236
sg66
(lp243
g59
(g80
g61
NtRp244
(dp245
g64
(dp246
g84
g85
ssg73
g240
sg66
(lp247
S'session_id_admin'
p248
asbag59
(g80
g61
NtRp249
(dp250
g64
(dp251
g91
g92
ssg73
g240
sg66
(lp252
S':'
asbag59
(g80
g61
NtRp253
(dp254
g64
(dp255
sg73
g240
sg66
(lp256
g59
(g60
g61
NtRp257
(dp258
g64
(dp259
g72
I4
ssg73
g253
sg66
(lp260
g59
(g68
g61
NtRp261
(dp262
g64
(dp263
g72
I3
ssg73
Nsg66
(lp264
g59
(g75
g61
NtRp265
(dp266
g64
(dp267
sg73
g261
sg66
(lp268
g59
(g80
g61
NtRp269
(dp270
g64
(dp271
g84
g85
ssg73
g265
sg66
(lp272
S'comment'
p273
asbag59
(g80
g61
NtRp274
(dp275
g64
(dp276
g91
g92
ssg73
g265
sg66
(lp277
S':'
asbag59
(g80
g61
NtRp278
(dp279
g64
(dp280
sg73
g265
sg66
(lp281
g59
(g60
g61
NtRp282
(dp283
g64
(dp284
g72
I3
ssg73
g278
sg66
(lp285
S''
asbasbasbag59
(g75
g61
NtRp286
(dp287
g64
(dp288
sg73
g261
sg66
(lp289
g59
(g80
g61
NtRp290
(dp291
g64
(dp292
g84
g85
ssg73
g286
sg66
(lp293
S'domain'
p294
asbag59
(g80
g61
NtRp295
(dp296
g64
(dp297
g91
g92
ssg73
g286
sg66
(lp298
S':'
asbag59
(g80
g61
NtRp299
(dp300
g64
(dp301
sg73
g286
sg66
(lp302
g59
(g60
g61
NtRp303
(dp304
g64
(dp305
g72
I3
ssg73
g299
sg66
(lp306
S''
asbasbasbag59
(g75
g61
NtRp307
(dp308
g64
(dp309
sg73
g261
sg66
(lp310
g59
(g80
g61
NtRp311
(dp312
g64
(dp313
g84
g85
ssg73
g307
sg66
(lp314
S'expires'
p315
asbag59
(g80
g61
NtRp316
(dp317
g64
(dp318
g91
g92
ssg73
g307
sg66
(lp319
S':'
asbag59
(g80
g61
NtRp320
(dp321
g64
(dp322
sg73
g307
sg66
(lp323
g59
(g60
g61
NtRp324
(dp325
g64
(dp326
g72
I3
ssg73
g320
sg66
(lp327
S''
asbasbasbag59
(g75
g61
NtRp328
(dp329
g64
(dp330
sg73
g261
sg66
(lp331
g59
(g80
g61
NtRp332
(dp333
g64
(dp334
g84
g85
ssg73
g328
sg66
(lp335
S'max-age'
p336
asbag59
(g80
g61
NtRp337
(dp338
g64
(dp339
g91
g92
ssg73
g328
sg66
(lp340
S':'
asbag59
(g80
g61
NtRp341
(dp342
g64
(dp343
sg73
g328
sg66
(lp344
g59
(g60
g61
NtRp345
(dp346
g64
(dp347
g72
I3
ssg73
g341
sg66
(lp348
S''
asbasbasbag59
(g75
g61
NtRp349
(dp350
g64
(dp351
sg73
g261
sg66
(lp352
g59
(g80
g61
NtRp353
(dp354
g64
(dp355
g84
g85
ssg73
g349
sg66
(lp356
S'path'
p357
asbag59
(g80
g61
NtRp358
(dp359
g64
(dp360
g91
g92
ssg73
g349
sg66
(lp361
S':'
asbag59
(g80
g61
NtRp362
(dp363
g64
(dp364
sg73
g349
sg66
(lp365
g59
(g60
g61
NtRp366
(dp367
g64
(dp368
g72
I3
ssg73
g362
sg66
(lp369
S''
asbasbasbag59
(g75
g61
NtRp370
(dp371
g64
(dp372
sg73
g261
sg66
(lp373
g59
(g80
g61
NtRp374
(dp375
g64
(dp376
g84
g85
ssg73
g370
sg66
(lp377
S'secure'
p378
asbag59
(g80
g61
NtRp379
(dp380
g64
(dp381
g91
g92
ssg73
g370
sg66
(lp382
S':'
asbag59
(g80
g61
NtRp383
(dp384
g64
(dp385
sg73
g370
sg66
(lp386
g59
(g60
g61
NtRp387
(dp388
g64
(dp389
g72
I3
ssg73
g383
sg66
(lp390
S''
asbasbasbag59
(g75
g61
NtRp391
(dp392
g64
(dp393
sg73
g261
sg66
(lp394
g59
(g80
g61
NtRp395
(dp396
g64
(dp397
g84
g85
ssg73
g391
sg66
(lp398
S'version'
p399
asbag59
(g80
g61
NtRp400
(dp401
g64
(dp402
g91
g92
ssg73
g391
sg66
(lp403
S':'
asbag59
(g80
g61
NtRp404
(dp405
g64
(dp406
sg73
g391
sg66
(lp407
g59
(g60
g61
NtRp408
(dp409
g64
(dp410
g72
I3
ssg73
g404
sg66
(lp411
S''
asbasbasbasbasbasbasbag59
(g75
g61
NtRp412
(dp413
g64
(dp414
sg73
g236
sg66
(lp415
g59
(g80
g61
NtRp416
(dp417
g64
(dp418
g84
g85
ssg73
g412
sg66
(lp419
S'session_id_musicrepo'
p420
asbag59
(g80
g61
NtRp421
(dp422
g64
(dp423
g91
g92
ssg73
g412
sg66
(lp424
S':'
asbag59
(g80
g61
NtRp425
(dp426
g64
(dp427
sg73
g412
sg66
(lp428
g59
(g60
g61
NtRp429
(dp430
g64
(dp431
g72
I4
ssg73
g425
sg66
(lp432
g59
(g68
g61
NtRp433
(dp434
g64
(dp435
g72
I3
ssg73
Nsg66
(lp436
g59
(g75
g61
NtRp437
(dp438
g64
(dp439
sg73
g433
sg66
(lp440
g59
(g80
g61
NtRp441
(dp442
g64
(dp443
g84
g85
ssg73
g437
sg66
(lp444
g273
asbag59
(g80
g61
NtRp445
(dp446
g64
(dp447
g91
g92
ssg73
g437
sg66
(lp448
S':'
asbag59
(g80
g61
NtRp449
(dp450
g64
(dp451
sg73
g437
sg66
(lp452
g59
(g60
g61
NtRp453
(dp454
g64
(dp455
g72
I3
ssg73
g449
sg66
(lp456
S''
asbasbasbag59
(g75
g61
NtRp457
(dp458
g64
(dp459
sg73
g433
sg66
(lp460
g59
(g80
g61
NtRp461
(dp462
g64
(dp463
g84
g85
ssg73
g457
sg66
(lp464
g294
asbag59
(g80
g61
NtRp465
(dp466
g64
(dp467
g91
g92
ssg73
g457
sg66
(lp468
S':'
asbag59
(g80
g61
NtRp469
(dp470
g64
(dp471
sg73
g457
sg66
(lp472
g59
(g60
g61
NtRp473
(dp474
g64
(dp475
g72
I3
ssg73
g469
sg66
(lp476
S''
asbasbasbag59
(g75
g61
NtRp477
(dp478
g64
(dp479
sg73
g433
sg66
(lp480
g59
(g80
g61
NtRp481
(dp482
g64
(dp483
g84
g85
ssg73
g477
sg66
(lp484
g315
asbag59
(g80
g61
NtRp485
(dp486
g64
(dp487
g91
g92
ssg73
g477
sg66
(lp488
S':'
asbag59
(g80
g61
NtRp489
(dp490
g64
(dp491
sg73
g477
sg66
(lp492
g59
(g60
g61
NtRp493
(dp494
g64
(dp495
g72
I3
ssg73
g489
sg66
(lp496
S''
asbasbasbag59
(g75
g61
NtRp497
(dp498
g64
(dp499
sg73
g433
sg66
(lp500
g59
(g80
g61
NtRp501
(dp502
g64
(dp503
g84
g85
ssg73
g497
sg66
(lp504
g336
asbag59
(g80
g61
NtRp505
(dp506
g64
(dp507
g91
g92
ssg73
g497
sg66
(lp508
S':'
asbag59
(g80
g61
NtRp509
(dp510
g64
(dp511
sg73
g497
sg66
(lp512
g59
(g60
g61
NtRp513
(dp514
g64
(dp515
g72
I3
ssg73
g509
sg66
(lp516
S''
asbasbasbag59
(g75
g61
NtRp517
(dp518
g64
(dp519
sg73
g433
sg66
(lp520
g59
(g80
g61
NtRp521
(dp522
g64
(dp523
g84
g85
ssg73
g517
sg66
(lp524
g357
asbag59
(g80
g61
NtRp525
(dp526
g64
(dp527
g91
g92
ssg73
g517
sg66
(lp528
S':'
asbag59
(g80
g61
NtRp529
(dp530
g64
(dp531
sg73
g517
sg66
(lp532
g59
(g60
g61
NtRp533
(dp534
g64
(dp535
g72
I3
ssg73
g529
sg66
(lp536
S''
asbasbasbag59
(g75
g61
NtRp537
(dp538
g64
(dp539
sg73
g433
sg66
(lp540
g59
(g80
g61
NtRp541
(dp542
g64
(dp543
g84
g85
ssg73
g537
sg66
(lp544
g378
asbag59
(g80
g61
NtRp545
(dp546
g64
(dp547
g91
g92
ssg73
g537
sg66
(lp548
S':'
asbag59
(g80
g61
NtRp549
(dp550
g64
(dp551
sg73
g537
sg66
(lp552
g59
(g60
g61
NtRp553
(dp554
g64
(dp555
g72
I3
ssg73
g549
sg66
(lp556
S''
asbasbasbag59
(g75
g61
NtRp557
(dp558
g64
(dp559
sg73
g433
sg66
(lp560
g59
(g80
g61
NtRp561
(dp562
g64
(dp563
g84
g85
ssg73
g557
sg66
(lp564
g399
asbag59
(g80
g61
NtRp565
(dp566
g64
(dp567
g91
g92
ssg73
g557
sg66
(lp568
S':'
asbag59
(g80
g61
NtRp569
(dp570
g64
(dp571
sg73
g557
sg66
(lp572
g59
(g60
g61
NtRp573
(dp574
g64
(dp575
g72
I3
ssg73
g569
sg66
(lp576
S''
asbasbasbasbasbasbasbag59
(g75
g61
NtRp577
(dp578
g64
(dp579
sg73
g236
sg66
(lp580
g59
(g80
g61
NtRp581
(dp582
g64
(dp583
g84
g85
ssg73
g577
sg66
(lp584
S'session_id_welcome'
p585
asbag59
(g80
g61
NtRp586
(dp587
g64
(dp588
g91
g92
ssg73
g577
sg66
(lp589
S':'
asbag59
(g80
g61
NtRp590
(dp591
g64
(dp592
sg73
g577
sg66
(lp593
g59
(g60
g61
NtRp594
(dp595
g64
(dp596
g72
I4
ssg73
g590
sg66
(lp597
g59
(g68
g61
NtRp598
(dp599
g64
(dp600
g72
I3
ssg73
Nsg66
(lp601
g59
(g75
g61
NtRp602
(dp603
g64
(dp604
sg73
g598
sg66
(lp605
g59
(g80
g61
NtRp606
(dp607
g64
(dp608
g84
g85
ssg73
g602
sg66
(lp609
g273
asbag59
(g80
g61
NtRp610
(dp611
g64
(dp612
g91
g92
ssg73
g602
sg66
(lp613
S':'
asbag59
(g80
g61
NtRp614
(dp615
g64
(dp616
sg73
g602
sg66
(lp617
g59
(g60
g61
NtRp618
(dp619
g64
(dp620
g72
I3
ssg73
g614
sg66
(lp621
S''
asbasbasbag59
(g75
g61
NtRp622
(dp623
g64
(dp624
sg73
g598
sg66
(lp625
g59
(g80
g61
NtRp626
(dp627
g64
(dp628
g84
g85
ssg73
g622
sg66
(lp629
g294
asbag59
(g80
g61
NtRp630
(dp631
g64
(dp632
g91
g92
ssg73
g622
sg66
(lp633
S':'
asbag59
(g80
g61
NtRp634
(dp635
g64
(dp636
sg73
g622
sg66
(lp637
g59
(g60
g61
NtRp638
(dp639
g64
(dp640
g72
I3
ssg73
g634
sg66
(lp641
S''
asbasbasbag59
(g75
g61
NtRp642
(dp643
g64
(dp644
sg73
g598
sg66
(lp645
g59
(g80
g61
NtRp646
(dp647
g64
(dp648
g84
g85
ssg73
g642
sg66
(lp649
g315
asbag59
(g80
g61
NtRp650
(dp651
g64
(dp652
g91
g92
ssg73
g642
sg66
(lp653
S':'
asbag59
(g80
g61
NtRp654
(dp655
g64
(dp656
sg73
g642
sg66
(lp657
g59
(g60
g61
NtRp658
(dp659
g64
(dp660
g72
I3
ssg73
g654
sg66
(lp661
S''
asbasbasbag59
(g75
g61
NtRp662
(dp663
g64
(dp664
sg73
g598
sg66
(lp665
g59
(g80
g61
NtRp666
(dp667
g64
(dp668
g84
g85
ssg73
g662
sg66
(lp669
g336
asbag59
(g80
g61
NtRp670
(dp671
g64
(dp672
g91
g92
ssg73
g662
sg66
(lp673
S':'
asbag59
(g80
g61
NtRp674
(dp675
g64
(dp676
sg73
g662
sg66
(lp677
g59
(g60
g61
NtRp678
(dp679
g64
(dp680
g72
I3
ssg73
g674
sg66
(lp681
S''
asbasbasbag59
(g75
g61
NtRp682
(dp683
g64
(dp684
sg73
g598
sg66
(lp685
g59
(g80
g61
NtRp686
(dp687
g64
(dp688
g84
g85
ssg73
g682
sg66
(lp689
g357
asbag59
(g80
g61
NtRp690
(dp691
g64
(dp692
g91
g92
ssg73
g682
sg66
(lp693
S':'
asbag59
(g80
g61
NtRp694
(dp695
g64
(dp696
sg73
g682
sg66
(lp697
g59
(g60
g61
NtRp698
(dp699
g64
(dp700
g72
I3
ssg73
g694
sg66
(lp701
S''
asbasbasbag59
(g75
g61
NtRp702
(dp703
g64
(dp704
sg73
g598
sg66
(lp705
g59
(g80
g61
NtRp706
(dp707
g64
(dp708
g84
g85
ssg73
g702
sg66
(lp709
g378
asbag59
(g80
g61
NtRp710
(dp711
g64
(dp712
g91
g92
ssg73
g702
sg66
(lp713
S':'
asbag59
(g80
g61
NtRp714
(dp715
g64
(dp716
sg73
g702
sg66
(lp717
g59
(g60
g61
NtRp718
(dp719
g64
(dp720
g72
I3
ssg73
g714
sg66
(lp721
S''
asbasbasbag59
(g75
g61
NtRp722
(dp723
g64
(dp724
sg73
g598
sg66
(lp725
g59
(g80
g61
NtRp726
(dp727
g64
(dp728
g84
g85
ssg73
g722
sg66
(lp729
g399
asbag59
(g80
g61
NtRp730
(dp731
g64
(dp732
g91
g92
ssg73
g722
sg66
(lp733
S':'
asbag59
(g80
g61
NtRp734
(dp735
g64
(dp736
sg73
g722
sg66
(lp737
g59
(g60
g61
NtRp738
(dp739
g64
(dp740
g72
I3
ssg73
g734
sg66
(lp741
S''
asbasbasbasbasbasbasbasbasbasbasbag59
(g75
g61
NtRp742
(dp743
g64
(dp744
sg73
g69
sg66
(lp745
g59
(g80
g61
NtRp746
(dp747
g64
(dp748
g84
g85
ssg73
g742
sg66
(lp749
S'env'
p750
asbag59
(g80
g61
NtRp751
(dp752
g64
(dp753
g91
g92
ssg73
g742
sg66
(lp754
S':'
asbag59
(g80
g61
NtRp755
(dp756
g64
(dp757
sg73
g742
sg66
(lp758
g59
(g60
g61
NtRp759
(dp760
g64
(dp761
g72
I5
ssg73
g755
sg66
(lp762
g59
(g68
g61
NtRp763
(dp764
g64
(dp765
g72
I4
ssg73
Nsg66
(lp766
g59
(g75
g61
NtRp767
(dp768
g64
(dp769
sg73
g763
sg66
(lp770
g59
(g80
g61
NtRp771
(dp772
g64
(dp773
g84
g85
ssg73
g767
sg66
(lp774
S'app_folders'
p775
asbag59
(g80
g61
NtRp776
(dp777
g64
(dp778
g91
g92
ssg73
g767
sg66
(lp779
S':'
asbag59
(g80
g61
NtRp780
(dp781
g64
(dp782
sg73
g767
sg66
(lp783
g59
(g60
g61
NtRp784
(dp785
g64
(dp786
g72
I4
ssg73
g780
sg66
(lp787
S"set(['C:\\\\Users\\\\AKSHAY\\\\Desktop\\\\web2py\\\\applications\\\\welcome\\\\', 'C:\\\\Users\\\\AKSHAY\\\\Desktop\\\\web2py\\\\applications\\\\201056161\\\\', 'C:\\\\Users\\\\AKSHAY\\\\Desktop\\\\web2py\\\\applications\\\\examples\\\\', 'C:\\\\Users\\\\AKSHAY\\\\Desktop\\\\web2py\\\\applications\\\\admin\\\\', 'C:\\\\Users\\\\AKSHAY\\\\Desktop\\\\web2py\\\\applications\\\\MusicRepo\\\\'])"
p788
asbasbasbag59
(g75
g61
NtRp789
(dp790
g64
(dp791
sg73
g763
sg66
(lp792
g59
(g80
g61
NtRp793
(dp794
g64
(dp795
g84
g85
ssg73
g789
sg66
(lp796
S'applications_parent'
p797
asbag59
(g80
g61
NtRp798
(dp799
g64
(dp800
g91
g92
ssg73
g789
sg66
(lp801
S':'
asbag59
(g80
g61
NtRp802
(dp803
g64
(dp804
sg73
g789
sg66
(lp805
g59
(g60
g61
NtRp806
(dp807
g64
(dp808
g72
I4
ssg73
g802
sg66
(lp809
S'C:\\Users\\AKSHAY\\Desktop\\web2py'
p810
asbasbasbag59
(g75
g61
NtRp811
(dp812
g64
(dp813
sg73
g763
sg66
(lp814
g59
(g80
g61
NtRp815
(dp816
g64
(dp817
g84
g85
ssg73
g811
sg66
(lp818
S'cmd_args'
p819
asbag59
(g80
g61
NtRp820
(dp821
g64
(dp822
g91
g92
ssg73
g811
sg66
(lp823
S':'
asbag59
(g80
g61
NtRp824
(dp825
g64
(dp826
sg73
g811
sg66
(lp827
g59
(g60
g61
NtRp828
(dp829
g64
(dp830
g72
I4
ssg73
g824
sg66
(lp831
g59
(g68
g61
NtRp832
(dp833
g64
(dp834
g72
I3
ssg73
Nsg66
(lp835
sbasbasbasbag59
(g75
g61
NtRp836
(dp837
g64
(dp838
sg73
g763
sg66
(lp839
g59
(g80
g61
NtRp840
(dp841
g64
(dp842
g84
g85
ssg73
g836
sg66
(lp843
S'cmd_options'
p844
asbag59
(g80
g61
NtRp845
(dp846
g64
(dp847
g91
g92
ssg73
g836
sg66
(lp848
S':'
asbag59
(g80
g61
NtRp849
(dp850
g64
(dp851
sg73
g836
sg66
(lp852
g59
(g60
g61
NtRp853
(dp854
g64
(dp855
g72
I4
ssg73
g849
sg66
(lp856
S"<Values at 0x2fcdfd0: {'verbose': False, 'ip': '127.0.0.1', 'shutdown_timeout': 5, 'taskbar': False, 'port': 8000, 'maxthreads': None, 'softcron': False, 'server_name': 'AKSHAY-PC', 'bpython': False, 'nogui': False, 'nocron': False, 'extcron': False, 'debuglevel': 30, 'test': None, 'folder': 'C:\\\\Users\\\\AKSHAY\\\\Desktop\\\\web2py', 'config': '', 'import_models': False, 'winservice': '', 'shell': None, 'run': '', 'log_filename': 'httpserver.log', 'args': [''], 'profiler_filename': None, 'ssl_private_key': '', 'password': '<ask>', 'request_queue_size': 5, 'ssl_certificate': '', 'cronjob': False, 'plain': False, 'quiet': False, 'interfaces': None, 'minthreads': None, 'timeout': 10, 'numthreads': None, 'nobanner': False, 'pid_filename': 'httpserver.pid'}>"
p857
asbasbasbag59
(g75
g61
NtRp858
(dp859
g64
(dp860
sg73
g763
sg66
(lp861
g59
(g80
g61
NtRp862
(dp863
g64
(dp864
g84
g85
ssg73
g858
sg66
(lp865
S'db_sessions'
p866
asbag59
(g80
g61
NtRp867
(dp868
g64
(dp869
g91
g92
ssg73
g858
sg66
(lp870
S':'
asbag59
(g80
g61
NtRp871
(dp872
g64
(dp873
sg73
g858
sg66
(lp874
g59
(g60
g61
NtRp875
(dp876
g64
(dp877
g72
I4
ssg73
g871
sg66
(lp878
S'set([])'
p879
asbasbasbag59
(g75
g61
NtRp880
(dp881
g64
(dp882
sg73
g763
sg66
(lp883
g59
(g80
g61
NtRp884
(dp885
g64
(dp886
g84
g85
ssg73
g880
sg66
(lp887
S'debugging'
p888
asbag59
(g80
g61
NtRp889
(dp890
g64
(dp891
g91
g92
ssg73
g880
sg66
(lp892
S':'
asbag59
(g80
g61
NtRp893
(dp894
g64
(dp895
sg73
g880
sg66
(lp896
g59
(g60
g61
NtRp897
(dp898
g64
(dp899
g72
I4
ssg73
g893
sg66
(lp900
g102
asbasbasbag59
(g75
g61
NtRp901
(dp902
g64
(dp903
sg73
g763
sg66
(lp904
g59
(g80
g61
NtRp905
(dp906
g64
(dp907
g84
g85
ssg73
g901
sg66
(lp908
S'gluon_parent'
p909
asbag59
(g80
g61
NtRp910
(dp911
g64
(dp912
g91
g92
ssg73
g901
sg66
(lp913
S':'
asbag59
(g80
g61
NtRp914
(dp915
g64
(dp916
sg73
g901
sg66
(lp917
g59
(g60
g61
NtRp918
(dp919
g64
(dp920
g72
I4
ssg73
g914
sg66
(lp921
S'C:\\Users\\AKSHAY\\Desktop\\web2py'
p922
asbasbasbag59
(g75
g61
NtRp923
(dp924
g64
(dp925
sg73
g763
sg66
(lp926
g59
(g80
g61
NtRp927
(dp928
g64
(dp929
g84
g85
ssg73
g923
sg66
(lp930
S'http_accept'
p931
asbag59
(g80
g61
NtRp932
(dp933
g64
(dp934
g91
g92
ssg73
g923
sg66
(lp935
S':'
asbag59
(g80
g61
NtRp936
(dp937
g64
(dp938
sg73
g923
sg66
(lp939
g59
(g60
g61
NtRp940
(dp941
g64
(dp942
g72
I4
ssg73
g936
sg66
(lp943
S'text/html,application/xhtml+xml,application/xml;q=0.9,*/*;q=0.8'
p944
asbasbasbag59
(g75
g61
NtRp945
(dp946
g64
(dp947
sg73
g763
sg66
(lp948
g59
(g80
g61
NtRp949
(dp950
g64
(dp951
g84
g85
ssg73
g945
sg66
(lp952
S'http_accept_charset'
p953
asbag59
(g80
g61
NtRp954
(dp955
g64
(dp956
g91
g92
ssg73
g945
sg66
(lp957
S':'
asbag59
(g80
g61
NtRp958
(dp959
g64
(dp960
sg73
g945
sg66
(lp961
g59
(g60
g61
NtRp962
(dp963
g64
(dp964
g72
I4
ssg73
g958
sg66
(lp965
S'ISO-8859-1,utf-8;q=0.7,*;q=0.3'
p966
asbasbasbag59
(g75
g61
NtRp967
(dp968
g64
(dp969
sg73
g763
sg66
(lp970
g59
(g80
g61
NtRp971
(dp972
g64
(dp973
g84
g85
ssg73
g967
sg66
(lp974
S'http_accept_encoding'
p975
asbag59
(g80
g61
NtRp976
(dp977
g64
(dp978
g91
g92
ssg73
g967
sg66
(lp979
S':'
asbag59
(g80
g61
NtRp980
(dp981
g64
(dp982
sg73
g967
sg66
(lp983
g59
(g60
g61
NtRp984
(dp985
g64
(dp986
g72
I4
ssg73
g980
sg66
(lp987
S'gzip,deflate,sdch'
p988
asbasbasbag59
(g75
g61
NtRp989
(dp990
g64
(dp991
sg73
g763
sg66
(lp992
g59
(g80
g61
NtRp993
(dp994
g64
(dp995
g84
g85
ssg73
g989
sg66
(lp996
S'http_accept_language'
p997
asbag59
(g80
g61
NtRp998
(dp999
g64
(dp1000
g91
g92
ssg73
g989
sg66
(lp1001
S':'
asbag59
(g80
g61
NtRp1002
(dp1003
g64
(dp1004
sg73
g989
sg66
(lp1005
g59
(g60
g61
NtRp1006
(dp1007
g64
(dp1008
g72
I4
ssg73
g1002
sg66
(lp1009
S'en-US,en;q=0.8'
p1010
asbasbasbag59
(g75
g61
NtRp1011
(dp1012
g64
(dp1013
sg73
g763
sg66
(lp1014
g59
(g80
g61
NtRp1015
(dp1016
g64
(dp1017
g84
g85
ssg73
g1011
sg66
(lp1018
S'http_cache_control'
p1019
asbag59
(g80
g61
NtRp1020
(dp1021
g64
(dp1022
g91
g92
ssg73
g1011
sg66
(lp1023
S':'
asbag59
(g80
g61
NtRp1024
(dp1025
g64
(dp1026
sg73
g1011
sg66
(lp1027
g59
(g60
g61
NtRp1028
(dp1029
g64
(dp1030
g72
I4
ssg73
g1024
sg66
(lp1031
S'max-age=0'
p1032
asbasbasbag59
(g75
g61
NtRp1033
(dp1034
g64
(dp1035
sg73
g763
sg66
(lp1036
g59
(g80
g61
NtRp1037
(dp1038
g64
(dp1039
g84
g85
ssg73
g1033
sg66
(lp1040
S'http_connection'
p1041
asbag59
(g80
g61
NtRp1042
(dp1043
g64
(dp1044
g91
g92
ssg73
g1033
sg66
(lp1045
S':'
asbag59
(g80
g61
NtRp1046
(dp1047
g64
(dp1048
sg73
g1033
sg66
(lp1049
g59
(g60
g61
NtRp1050
(dp1051
g64
(dp1052
g72
I4
ssg73
g1046
sg66
(lp1053
S'keep-alive'
p1054
asbasbasbag59
(g75
g61
NtRp1055
(dp1056
g64
(dp1057
sg73
g763
sg66
(lp1058
g59
(g80
g61
NtRp1059
(dp1060
g64
(dp1061
g84
g85
ssg73
g1055
sg66
(lp1062
S'http_cookie'
p1063
asbag59
(g80
g61
NtRp1064
(dp1065
g64
(dp1066
g91
g92
ssg73
g1055
sg66
(lp1067
S':'
asbag59
(g80
g61
NtRp1068
(dp1069
g64
(dp1070
sg73
g1055
sg66
(lp1071
g59
(g60
g61
NtRp1072
(dp1073
g64
(dp1074
g72
I4
ssg73
g1068
sg66
(lp1075
S'session_id_musicrepo=127.0.0.1-e029772f-a7db-4b81-ba69-8dddec4e619a; session_id_welcome=127.0.0.1-418cc45f-3159-4c3f-89b5-0ae0f0182eba; session_id_admin=127.0.0.1-0c8b9219-dcb7-4d55-a944-116f9d004722'
p1076
asbasbasbag59
(g75
g61
NtRp1077
(dp1078
g64
(dp1079
sg73
g763
sg66
(lp1080
g59
(g80
g61
NtRp1081
(dp1082
g64
(dp1083
g84
g85
ssg73
g1077
sg66
(lp1084
S'http_host'
p1085
asbag59
(g80
g61
NtRp1086
(dp1087
g64
(dp1088
g91
g92
ssg73
g1077
sg66
(lp1089
S':'
asbag59
(g80
g61
NtRp1090
(dp1091
g64
(dp1092
sg73
g1077
sg66
(lp1093
g59
(g60
g61
NtRp1094
(dp1095
g64
(dp1096
g72
I4
ssg73
g1090
sg66
(lp1097
S'127.0.0.1:8000'
p1098
asbasbasbag59
(g75
g61
NtRp1099
(dp1100
g64
(dp1101
sg73
g763
sg66
(lp1102
g59
(g80
g61
NtRp1103
(dp1104
g64
(dp1105
g84
g85
ssg73
g1099
sg66
(lp1106
S'http_user_agent'
p1107
asbag59
(g80
g61
NtRp1108
(dp1109
g64
(dp1110
g91
g92
ssg73
g1099
sg66
(lp1111
S':'
asbag59
(g80
g61
NtRp1112
(dp1113
g64
(dp1114
sg73
g1099
sg66
(lp1115
g59
(g60
g61
NtRp1116
(dp1117
g64
(dp1118
g72
I4
ssg73
g1112
sg66
(lp1119
S'Mozilla/5.0 (Windows NT 6.1; WOW64) AppleWebKit/535.1 (KHTML, like Gecko) Chrome/13.0.782.112 Safari/535.1'
p1120
asbasbasbag59
(g75
g61
NtRp1121
(dp1122
g64
(dp1123
sg73
g763
sg66
(lp1124
g59
(g80
g61
NtRp1125
(dp1126
g64
(dp1127
g84
g85
ssg73
g1121
sg66
(lp1128
S'path_info'
p1129
asbag59
(g80
g61
NtRp1130
(dp1131
g64
(dp1132
g91
g92
ssg73
g1121
sg66
(lp1133
S':'
asbag59
(g80
g61
NtRp1134
(dp1135
g64
(dp1136
sg73
g1121
sg66
(lp1137
g59
(g60
g61
NtRp1138
(dp1139
g64
(dp1140
g72
I4
ssg73
g1134
sg66
(lp1141
S'/201056161/default'
p1142
asbasbasbag59
(g75
g61
NtRp1143
(dp1144
g64
(dp1145
sg73
g763
sg66
(lp1146
g59
(g80
g61
NtRp1147
(dp1148
g64
(dp1149
g84
g85
ssg73
g1143
sg66
(lp1150
S'query_string'
p1151
asbag59
(g80
g61
NtRp1152
(dp1153
g64
(dp1154
g91
g92
ssg73
g1143
sg66
(lp1155
S':'
asbag59
(g80
g61
NtRp1156
(dp1157
g64
(dp1158
sg73
g1143
sg66
(lp1159
g59
(g60
g61
NtRp1160
(dp1161
g64
(dp1162
g72
I4
ssg73
g1156
sg66
(lp1163
S''
asbasbasbag59
(g75
g61
NtRp1164
(dp1165
g64
(dp1166
sg73
g763
sg66
(lp1167
g59
(g80
g61
NtRp1168
(dp1169
g64
(dp1170
g84
g85
ssg73
g1164
sg66
(lp1171
S'remote_addr'
p1172
asbag59
(g80
g61
NtRp1173
(dp1174
g64
(dp1175
g91
g92
ssg73
g1164
sg66
(lp1176
S':'
asbag59
(g80
g61
NtRp1177
(dp1178
g64
(dp1179
sg73
g1164
sg66
(lp1180
g59
(g60
g61
NtRp1181
(dp1182
g64
(dp1183
g72
I4
ssg73
g1177
sg66
(lp1184
g192
asbasbasbag59
(g75
g61
NtRp1185
(dp1186
g64
(dp1187
sg73
g763
sg66
(lp1188
g59
(g80
g61
NtRp1189
(dp1190
g64
(dp1191
g84
g85
ssg73
g1185
sg66
(lp1192
S'remote_port'
p1193
asbag59
(g80
g61
NtRp1194
(dp1195
g64
(dp1196
g91
g92
ssg73
g1185
sg66
(lp1197
S':'
asbag59
(g80
g61
NtRp1198
(dp1199
g64
(dp1200
sg73
g1185
sg66
(lp1201
g59
(g60
g61
NtRp1202
(dp1203
g64
(dp1204
g72
I4
ssg73
g1198
sg66
(lp1205
S'54811'
p1206
asbasbasbag59
(g75
g61
NtRp1207
(dp1208
g64
(dp1209
sg73
g763
sg66
(lp1210
g59
(g80
g61
NtRp1211
(dp1212
g64
(dp1213
g84
g85
ssg73
g1207
sg66
(lp1214
S'request_method'
p1215
asbag59
(g80
g61
NtRp1216
(dp1217
g64
(dp1218
g91
g92
ssg73
g1207
sg66
(lp1219
S':'
asbag59
(g80
g61
NtRp1220
(dp1221
g64
(dp1222
sg73
g1207
sg66
(lp1223
g59
(g60
g61
NtRp1224
(dp1225
g64
(dp1226
g72
I4
ssg73
g1220
sg66
(lp1227
S'GET'
p1228
asbasbasbag59
(g75
g61
NtRp1229
(dp1230
g64
(dp1231
sg73
g763
sg66
(lp1232
g59
(g80
g61
NtRp1233
(dp1234
g64
(dp1235
g84
g85
ssg73
g1229
sg66
(lp1236
S'script_name'
p1237
asbag59
(g80
g61
NtRp1238
(dp1239
g64
(dp1240
g91
g92
ssg73
g1229
sg66
(lp1241
S':'
asbag59
(g80
g61
NtRp1242
(dp1243
g64
(dp1244
sg73
g1229
sg66
(lp1245
g59
(g60
g61
NtRp1246
(dp1247
g64
(dp1248
g72
I4
ssg73
g1242
sg66
(lp1249
S''
asbasbasbag59
(g75
g61
NtRp1250
(dp1251
g64
(dp1252
sg73
g763
sg66
(lp1253
g59
(g80
g61
NtRp1254
(dp1255
g64
(dp1256
g84
g85
ssg73
g1250
sg66
(lp1257
S'server_name'
p1258
asbag59
(g80
g61
NtRp1259
(dp1260
g64
(dp1261
g91
g92
ssg73
g1250
sg66
(lp1262
S':'
asbag59
(g80
g61
NtRp1263
(dp1264
g64
(dp1265
sg73
g1250
sg66
(lp1266
g59
(g60
g61
NtRp1267
(dp1268
g64
(dp1269
g72
I4
ssg73
g1263
sg66
(lp1270
S'AKSHAY-PC'
p1271
asbasbasbag59
(g75
g61
NtRp1272
(dp1273
g64
(dp1274
sg73
g763
sg66
(lp1275
g59
(g80
g61
NtRp1276
(dp1277
g64
(dp1278
g84
g85
ssg73
g1272
sg66
(lp1279
S'server_port'
p1280
asbag59
(g80
g61
NtRp1281
(dp1282
g64
(dp1283
g91
g92
ssg73
g1272
sg66
(lp1284
S':'
asbag59
(g80
g61
NtRp1285
(dp1286
g64
(dp1287
sg73
g1272
sg66
(lp1288
g59
(g60
g61
NtRp1289
(dp1290
g64
(dp1291
g72
I4
ssg73
g1285
sg66
(lp1292
S'8000'
p1293
asbasbasbag59
(g75
g61
NtRp1294
(dp1295
g64
(dp1296
sg73
g763
sg66
(lp1297
g59
(g80
g61
NtRp1298
(dp1299
g64
(dp1300
g84
g85
ssg73
g1294
sg66
(lp1301
S'server_protocol'
p1302
asbag59
(g80
g61
NtRp1303
(dp1304
g64
(dp1305
g91
g92
ssg73
g1294
sg66
(lp1306
S':'
asbag59
(g80
g61
NtRp1307
(dp1308
g64
(dp1309
sg73
g1294
sg66
(lp1310
g59
(g60
g61
NtRp1311
(dp1312
g64
(dp1313
g72
I4
ssg73
g1307
sg66
(lp1314
S'HTTP/1.1'
p1315
asbasbasbag59
(g75
g61
NtRp1316
(dp1317
g64
(dp1318
sg73
g763
sg66
(lp1319
g59
(g80
g61
NtRp1320
(dp1321
g64
(dp1322
g84
g85
ssg73
g1316
sg66
(lp1323
S'server_software'
p1324
asbag59
(g80
g61
NtRp1325
(dp1326
g64
(dp1327
g91
g92
ssg73
g1316
sg66
(lp1328
S':'
asbag59
(g80
g61
NtRp1329
(dp1330
g64
(dp1331
sg73
g1316
sg66
(lp1332
g59
(g60
g61
NtRp1333
(dp1334
g64
(dp1335
g72
I4
ssg73
g1329
sg66
(lp1336
S'Rocket 1.2.2'
p1337
asbasbasbag59
(g75
g61
NtRp1338
(dp1339
g64
(dp1340
sg73
g763
sg66
(lp1341
g59
(g80
g61
NtRp1342
(dp1343
g64
(dp1344
g84
g85
ssg73
g1338
sg66
(lp1345
S'web2py_crontype'
p1346
asbag59
(g80
g61
NtRp1347
(dp1348
g64
(dp1349
g91
g92
ssg73
g1338
sg66
(lp1350
S':'
asbag59
(g80
g61
NtRp1351
(dp1352
g64
(dp1353
sg73
g1338
sg66
(lp1354
g59
(g60
g61
NtRp1355
(dp1356
g64
(dp1357
g72
I4
ssg73
g1351
sg66
(lp1358
S'hard'
p1359
asbasbasbag59
(g75
g61
NtRp1360
(dp1361
g64
(dp1362
sg73
g763
sg66
(lp1363
g59
(g80
g61
NtRp1364
(dp1365
g64
(dp1366
g84
g85
ssg73
g1360
sg66
(lp1367
S'web2py_path'
p1368
asbag59
(g80
g61
NtRp1369
(dp1370
g64
(dp1371
g91
g92
ssg73
g1360
sg66
(lp1372
S':'
asbag59
(g80
g61
NtRp1373
(dp1374
g64
(dp1375
sg73
g1360
sg66
(lp1376
g59
(g60
g61
NtRp1377
(dp1378
g64
(dp1379
g72
I4
ssg73
g1373
sg66
(lp1380
g810
asbasbasbag59
(g75
g61
NtRp1381
(dp1382
g64
(dp1383
sg73
g763
sg66
(lp1384
g59
(g80
g61
NtRp1385
(dp1386
g64
(dp1387
g84
g85
ssg73
g1381
sg66
(lp1388
S'web2py_version'
p1389
asbag59
(g80
g61
NtRp1390
(dp1391
g64
(dp1392
g91
g92
ssg73
g1381
sg66
(lp1393
S':'
asbag59
(g80
g61
NtRp1394
(dp1395
g64
(dp1396
sg73
g1381
sg66
(lp1397
g59
(g60
g61
NtRp1398
(dp1399
g64
(dp1400
g72
I4
ssg73
g1394
sg66
(lp1401
S'Version 1.97.1 (2011-06-26 19:25:44)\n'
p1402
asbasbasbag59
(g75
g61
NtRp1403
(dp1404
g64
(dp1405
sg73
g763
sg66
(lp1406
g59
(g80
g61
NtRp1407
(dp1408
g64
(dp1409
g84
g85
ssg73
g1403
sg66
(lp1410
S'wsgi_errors'
p1411
asbag59
(g80
g61
NtRp1412
(dp1413
g64
(dp1414
g91
g92
ssg73
g1403
sg66
(lp1415
S':'
asbag59
(g80
g61
NtRp1416
(dp1417
g64
(dp1418
sg73
g1403
sg66
(lp1419
g59
(g60
g61
NtRp1420
(dp1421
g64
(dp1422
g72
I4
ssg73
g1416
sg66
(lp1423
S"<open file '<stderr>', mode 'w' at 0x002F00B0>"
p1424
asbasbasbag59
(g75
g61
NtRp1425
(dp1426
g64
(dp1427
sg73
g763
sg66
(lp1428
g59
(g80
g61
NtRp1429
(dp1430
g64
(dp1431
g84
g85
ssg73
g1425
sg66
(lp1432
S'wsgi_file_wrapper'
p1433
asbag59
(g80
g61
NtRp1434
(dp1435
g64
(dp1436
g91
g92
ssg73
g1425
sg66
(lp1437
S':'
asbag59
(g80
g61
NtRp1438
(dp1439
g64
(dp1440
sg73
g1425
sg66
(lp1441
g59
(g60
g61
NtRp1442
(dp1443
g64
(dp1444
g72
I4
ssg73
g1438
sg66
(lp1445
S'<class gluon.rocket.FileWrapper at 0x02F82BA0>'
p1446
asbasbasbag59
(g75
g61
NtRp1447
(dp1448
g64
(dp1449
sg73
g763
sg66
(lp1450
g59
(g80
g61
NtRp1451
(dp1452
g64
(dp1453
g84
g85
ssg73
g1447
sg66
(lp1454
S'wsgi_input'
p1455
asbag59
(g80
g61
NtRp1456
(dp1457
g64
(dp1458
g91
g92
ssg73
g1447
sg66
(lp1459
S':'
asbag59
(g80
g61
NtRp1460
(dp1461
g64
(dp1462
sg73
g1447
sg66
(lp1463
g59
(g60
g61
NtRp1464
(dp1465
g64
(dp1466
g72
I4
ssg73
g1460
sg66
(lp1467
S'<socket._fileobject object at 0x031C53F0>'
p1468
asbasbasbag59
(g75
g61
NtRp1469
(dp1470
g64
(dp1471
sg73
g763
sg66
(lp1472
g59
(g80
g61
NtRp1473
(dp1474
g64
(dp1475
g84
g85
ssg73
g1469
sg66
(lp1476
S'wsgi_multiprocess'
p1477
asbag59
(g80
g61
NtRp1478
(dp1479
g64
(dp1480
g91
g92
ssg73
g1469
sg66
(lp1481
S':'
asbag59
(g80
g61
NtRp1482
(dp1483
g64
(dp1484
sg73
g1469
sg66
(lp1485
g59
(g60
g61
NtRp1486
(dp1487
g64
(dp1488
g72
I4
ssg73
g1482
sg66
(lp1489
g102
asbasbasbag59
(g75
g61
NtRp1490
(dp1491
g64
(dp1492
sg73
g763
sg66
(lp1493
g59
(g80
g61
NtRp1494
(dp1495
g64
(dp1496
g84
g85
ssg73
g1490
sg66
(lp1497
S'wsgi_multithread'
p1498
asbag59
(g80
g61
NtRp1499
(dp1500
g64
(dp1501
g91
g92
ssg73
g1490
sg66
(lp1502
S':'
asbag59
(g80
g61
NtRp1503
(dp1504
g64
(dp1505
sg73
g1490
sg66
(lp1506
g59
(g60
g61
NtRp1507
(dp1508
g64
(dp1509
g72
I4
ssg73
g1503
sg66
(lp1510
S'True'
p1511
asbasbasbag59
(g75
g61
NtRp1512
(dp1513
g64
(dp1514
sg73
g763
sg66
(lp1515
g59
(g80
g61
NtRp1516
(dp1517
g64
(dp1518
g84
g85
ssg73
g1512
sg66
(lp1519
S'wsgi_run_once'
p1520
asbag59
(g80
g61
NtRp1521
(dp1522
g64
(dp1523
g91
g92
ssg73
g1512
sg66
(lp1524
S':'
asbag59
(g80
g61
NtRp1525
(dp1526
g64
(dp1527
sg73
g1512
sg66
(lp1528
g59
(g60
g61
NtRp1529
(dp1530
g64
(dp1531
g72
I4
ssg73
g1525
sg66
(lp1532
g102
asbasbasbag59
(g75
g61
NtRp1533
(dp1534
g64
(dp1535
sg73
g763
sg66
(lp1536
g59
(g80
g61
NtRp1537
(dp1538
g64
(dp1539
g84
g85
ssg73
g1533
sg66
(lp1540
S'wsgi_url_scheme'
p1541
asbag59
(g80
g61
NtRp1542
(dp1543
g64
(dp1544
g91
g92
ssg73
g1533
sg66
(lp1545
S':'
asbag59
(g80
g61
NtRp1546
(dp1547
g64
(dp1548
sg73
g1533
sg66
(lp1549
g59
(g60
g61
NtRp1550
(dp1551
g64
(dp1552
g72
I4
ssg73
g1546
sg66
(lp1553
S'http'
p1554
asbasbasbag59
(g75
g61
NtRp1555
(dp1556
g64
(dp1557
sg73
g763
sg66
(lp1558
g59
(g80
g61
NtRp1559
(dp1560
g64
(dp1561
g84
g85
ssg73
g1555
sg66
(lp1562
S'wsgi_version'
p1563
asbag59
(g80
g61
NtRp1564
(dp1565
g64
(dp1566
g91
g92
ssg73
g1555
sg66
(lp1567
S':'
asbag59
(g80
g61
NtRp1568
(dp1569
g64
(dp1570
sg73
g1555
sg66
(lp1571
g59
(g60
g61
NtRp1572
(dp1573
g64
(dp1574
g72
I4
ssg73
g1568
sg66
(lp1575
g59
(g68
g61
NtRp1576
(dp1577
g64
(dp1578
g72
I3
ssg73
Nsg66
(lp1579
g59
(g75
g61
NtRp1580
(dp1581
g64
(dp1582
sg73
g1576
sg66
(lp1583
g59
(g80
g61
NtRp1584
(dp1585
g64
(dp1586
sg73
g1580
sg66
(lp1587
g59
(g60
g61
NtRp1588
(dp1589
g64
(dp1590
g72
I3
ssg73
g1584
sg66
(lp1591
S'1'
asbasbasbag59
(g75
g61
NtRp1592
(dp1593
g64
(dp1594
sg73
g1576
sg66
(lp1595
g59
(g80
g61
NtRp1596
(dp1597
g64
(dp1598
sg73
g1592
sg66
(lp1599
g59
(g60
g61
NtRp1600
(dp1601
g64
(dp1602
g72
I3
ssg73
g1596
sg66
(lp1603
S'0'
asbasbasbasbasbasbasbasbasbasbasbag59
(g75
g61
NtRp1604
(dp1605
g64
(dp1606
sg73
g69
sg66
(lp1607
g59
(g80
g61
NtRp1608
(dp1609
g64
(dp1610
g84
g85
ssg73
g1604
sg66
(lp1611
S'extension'
p1612
asbag59
(g80
g61
NtRp1613
(dp1614
g64
(dp1615
g91
g92
ssg73
g1604
sg66
(lp1616
S':'
asbag59
(g80
g61
NtRp1617
(dp1618
g64
(dp1619
sg73
g1604
sg66
(lp1620
g59
(g60
g61
NtRp1621
(dp1622
g64
(dp1623
g72
I5
ssg73
g1617
sg66
(lp1624
S'html'
p1625
asbasbasbag59
(g75
g61
NtRp1626
(dp1627
g64
(dp1628
sg73
g69
sg66
(lp1629
g59
(g80
g61
NtRp1630
(dp1631
g64
(dp1632
g84
g85
ssg73
g1626
sg66
(lp1633
S'folder'
p1634
asbag59
(g80
g61
NtRp1635
(dp1636
g64
(dp1637
g91
g92
ssg73
g1626
sg66
(lp1638
S':'
asbag59
(g80
g61
NtRp1639
(dp1640
g64
(dp1641
sg73
g1626
sg66
(lp1642
g59
(g60
g61
NtRp1643
(dp1644
g64
(dp1645
g72
I5
ssg73
g1639
sg66
(lp1646
S'C:\\Users\\AKSHAY\\Desktop\\web2py\\applications\\201056161\\'
p1647
asbasbasbag59
(g75
g61
NtRp1648
(dp1649
g64
(dp1650
sg73
g69
sg66
(lp1651
g59
(g80
g61
NtRp1652
(dp1653
g64
(dp1654
g84
g85
ssg73
g1648
sg66
(lp1655
S'function'
p1656
asbag59
(g80
g61
NtRp1657
(dp1658
g64
(dp1659
g91
g92
ssg73
g1648
sg66
(lp1660
S':'
asbag59
(g80
g61
NtRp1661
(dp1662
g64
(dp1663
sg73
g1648
sg66
(lp1664
g59
(g60
g61
NtRp1665
(dp1666
g64
(dp1667
g72
I5
ssg73
g1661
sg66
(lp1668
S'index'
p1669
asbasbasbag59
(g75
g61
NtRp1670
(dp1671
g64
(dp1672
sg73
g69
sg66
(lp1673
g59
(g80
g61
NtRp1674
(dp1675
g64
(dp1676
g84
g85
ssg73
g1670
sg66
(lp1677
S'get_vars'
p1678
asbag59
(g80
g61
NtRp1679
(dp1680
g64
(dp1681
g91
g92
ssg73
g1670
sg66
(lp1682
S':'
asbag59
(g80
g61
NtRp1683
(dp1684
g64
(dp1685
sg73
g1670
sg66
(lp1686
g59
(g60
g61
NtRp1687
(dp1688
g64
(dp1689
g72
I5
ssg73
g1683
sg66
(lp1690
g59
(g68
g61
NtRp1691
(dp1692
g64
(dp1693
g72
I4
ssg73
Nsg66
(lp1694
sbasbasbasbag59
(g75
g61
NtRp1695
(dp1696
g64
(dp1697
sg73
g69
sg66
(lp1698
g59
(g80
g61
NtRp1699
(dp1700
g64
(dp1701
g84
g85
ssg73
g1695
sg66
(lp1702
S'is_https'
p1703
asbag59
(g80
g61
NtRp1704
(dp1705
g64
(dp1706
g91
g92
ssg73
g1695
sg66
(lp1707
S':'
asbag59
(g80
g61
NtRp1708
(dp1709
g64
(dp1710
sg73
g1695
sg66
(lp1711
g59
(g60
g61
NtRp1712
(dp1713
g64
(dp1714
g72
I5
ssg73
g1708
sg66
(lp1715
g102
asbasbasbag59
(g75
g61
NtRp1716
(dp1717
g64
(dp1718
sg73
g69
sg66
(lp1719
g59
(g80
g61
NtRp1720
(dp1721
g64
(dp1722
g84
g85
ssg73
g1716
sg66
(lp1723
S'is_local'
p1724
asbag59
(g80
g61
NtRp1725
(dp1726
g64
(dp1727
g91
g92
ssg73
g1716
sg66
(lp1728
S':'
asbag59
(g80
g61
NtRp1729
(dp1730
g64
(dp1731
sg73
g1716
sg66
(lp1732
g59
(g60
g61
NtRp1733
(dp1734
g64
(dp1735
g72
I5
ssg73
g1729
sg66
(lp1736
g1511
asbasbasbag59
(g75
g61
NtRp1737
(dp1738
g64
(dp1739
sg73
g69
sg66
(lp1740
g59
(g80
g61
NtRp1741
(dp1742
g64
(dp1743
g84
g85
ssg73
g1737
sg66
(lp1744
S'is_restful'
p1745
asbag59
(g80
g61
NtRp1746
(dp1747
g64
(dp1748
g91
g92
ssg73
g1737
sg66
(lp1749
S':'
asbag59
(g80
g61
NtRp1750
(dp1751
g64
(dp1752
sg73
g1737
sg66
(lp1753
g59
(g60
g61
NtRp1754
(dp1755
g64
(dp1756
g72
I5
ssg73
g1750
sg66
(lp1757
g102
asbasbasbag59
(g75
g61
NtRp1758
(dp1759
g64
(dp1760
sg73
g69
sg66
(lp1761
g59
(g80
g61
NtRp1762
(dp1763
g64
(dp1764
g84
g85
ssg73
g1758
sg66
(lp1765
S'now'
p1766
asbag59
(g80
g61
NtRp1767
(dp1768
g64
(dp1769
g91
g92
ssg73
g1758
sg66
(lp1770
S':'
asbag59
(g80
g61
NtRp1771
(dp1772
g64
(dp1773
sg73
g1758
sg66
(lp1774
g59
(g60
g61
NtRp1775
(dp1776
g64
(dp1777
g72
I5
ssg73
g1771
sg66
(lp1778
S'datetime.datetime(2011, 8, 24, 15, 4, 57, 680000)'
p1779
asbasbasbag59
(g75
g61
NtRp1780
(dp1781
g64
(dp1782
sg73
g69
sg66
(lp1783
g59
(g80
g61
NtRp1784
(dp1785
g64
(dp1786
g84
g85
ssg73
g1780
sg66
(lp1787
S'post_vars'
p1788
asbag59
(g80
g61
NtRp1789
(dp1790
g64
(dp1791
g91
g92
ssg73
g1780
sg66
(lp1792
S':'
asbag59
(g80
g61
NtRp1793
(dp1794
g64
(dp1795
sg73
g1780
sg66
(lp1796
g59
(g60
g61
NtRp1797
(dp1798
g64
(dp1799
g72
I5
ssg73
g1793
sg66
(lp1800
g59
(g68
g61
NtRp1801
(dp1802
g64
(dp1803
g72
I4
ssg73
Nsg66
(lp1804
sbasbasbasbag59
(g75
g61
NtRp1805
(dp1806
g64
(dp1807
sg73
g69
sg66
(lp1808
g59
(g80
g61
NtRp1809
(dp1810
g64
(dp1811
g84
g85
ssg73
g1805
sg66
(lp1812
S'url'
p1813
asbag59
(g80
g61
NtRp1814
(dp1815
g64
(dp1816
g91
g92
ssg73
g1805
sg66
(lp1817
S':'
asbag59
(g80
g61
NtRp1818
(dp1819
g64
(dp1820
sg73
g1805
sg66
(lp1821
g59
(g60
g61
NtRp1822
(dp1823
g64
(dp1824
g72
I5
ssg73
g1818
sg66
(lp1825
S'/201056161/default/index'
p1826
asbasbasbag59
(g75
g61
NtRp1827
(dp1828
g64
(dp1829
sg73
g69
sg66
(lp1830
g59
(g80
g61
NtRp1831
(dp1832
g64
(dp1833
g84
g85
ssg73
g1827
sg66
(lp1834
S'uuid'
p1835
asbag59
(g80
g61
NtRp1836
(dp1837
g64
(dp1838
g91
g92
ssg73
g1827
sg66
(lp1839
S':'
asbag59
(g80
g61
NtRp1840
(dp1841
g64
(dp1842
sg73
g1827
sg66
(lp1843
g59
(g60
g61
NtRp1844
(dp1845
g64
(dp1846
g72
I5
ssg73
g1840
sg66
(lp1847
S'201056161/127.0.0.1.2011-08-24.15-04-57.21decb4e-1e6c-455e-93d4-03aee90e8568'
p1848
asbasbasbag59
(g75
g61
NtRp1849
(dp1850
g64
(dp1851
sg73
g69
sg66
(lp1852
g59
(g80
g61
NtRp1853
(dp1854
g64
(dp1855
g84
g85
ssg73
g1849
sg66
(lp1856
S'vars'
p1857
asbag59
(g80
g61
NtRp1858
(dp1859
g64
(dp1860
g91
g92
ssg73
g1849
sg66
(lp1861
S':'
asbag59
(g80
g61
NtRp1862
(dp1863
g64
(dp1864
sg73
g1849
sg66
(lp1865
g59
(g60
g61
NtRp1866
(dp1867
g64
(dp1868
g72
I5
ssg73
g1862
sg66
(lp1869
g59
(g68
g61
NtRp1870
(dp1871
g64
(dp1872
g72
I4
ssg73
Nsg66
(lp1873
sbasbasbasbag59
(g75
g61
NtRp1874
(dp1875
g64
(dp1876
sg73
g69
sg66
(lp1877
g59
(g80
g61
NtRp1878
(dp1879
g64
(dp1880
g84
g85
ssg73
g1874
sg66
(lp1881
S'wsgi'
p1882
asbag59
(g80
g61
NtRp1883
(dp1884
g64
(dp1885
g91
g92
ssg73
g1874
sg66
(lp1886
S':'
asbag59
(g80
g61
NtRp1887
(dp1888
g64
(dp1889
sg73
g1874
sg66
(lp1890
g59
(g60
g61
NtRp1891
(dp1892
g64
(dp1893
g72
I5
ssg73
g1887
sg66
(lp1894
g59
(g68
g61
NtRp1895
(dp1896
g64
(dp1897
g72
I4
ssg73
Nsg66
(lp1898
g59
(g75
g61
NtRp1899
(dp1900
g64
(dp1901
sg73
g1895
sg66
(lp1902
g59
(g80
g61
NtRp1903
(dp1904
g64
(dp1905
g84
g85
ssg73
g1899
sg66
(lp1906
S'environ'
p1907
asbag59
(g80
g61
NtRp1908
(dp1909
g64
(dp1910
g91
g92
ssg73
g1899
sg66
(lp1911
S':'
asbag59
(g80
g61
NtRp1912
(dp1913
g64
(dp1914
sg73
g1899
sg66
(lp1915
g59
(g60
g61
NtRp1916
(dp1917
g64
(dp1918
g72
I4
ssg73
g1912
sg66
(lp1919
g59
(g68
g61
NtRp1920
(dp1921
g64
(dp1922
g72
I3
ssg73
Nsg66
(lp1923
g59
(g75
g61
NtRp1924
(dp1925
g64
(dp1926
sg73
g1920
sg66
(lp1927
g59
(g80
g61
NtRp1928
(dp1929
g64
(dp1930
g84
g85
ssg73
g1924
sg66
(lp1931
S'HTTP_ACCEPT'
p1932
asbag59
(g80
g61
NtRp1933
(dp1934
g64
(dp1935
g91
g92
ssg73
g1924
sg66
(lp1936
S':'
asbag59
(g80
g61
NtRp1937
(dp1938
g64
(dp1939
sg73
g1924
sg66
(lp1940
g59
(g60
g61
NtRp1941
(dp1942
g64
(dp1943
g72
I3
ssg73
g1937
sg66
(lp1944
g944
asbasbasbag59
(g75
g61
NtRp1945
(dp1946
g64
(dp1947
sg73
g1920
sg66
(lp1948
g59
(g80
g61
NtRp1949
(dp1950
g64
(dp1951
g84
g85
ssg73
g1945
sg66
(lp1952
S'HTTP_ACCEPT_CHARSET'
p1953
asbag59
(g80
g61
NtRp1954
(dp1955
g64
(dp1956
g91
g92
ssg73
g1945
sg66
(lp1957
S':'
asbag59
(g80
g61
NtRp1958
(dp1959
g64
(dp1960
sg73
g1945
sg66
(lp1961
g59
(g60
g61
NtRp1962
(dp1963
g64
(dp1964
g72
I3
ssg73
g1958
sg66
(lp1965
g966
asbasbasbag59
(g75
g61
NtRp1966
(dp1967
g64
(dp1968
sg73
g1920
sg66
(lp1969
g59
(g80
g61
NtRp1970
(dp1971
g64
(dp1972
g84
g85
ssg73
g1966
sg66
(lp1973
S'HTTP_ACCEPT_ENCODING'
p1974
asbag59
(g80
g61
NtRp1975
(dp1976
g64
(dp1977
g91
g92
ssg73
g1966
sg66
(lp1978
S':'
asbag59
(g80
g61
NtRp1979
(dp1980
g64
(dp1981
sg73
g1966
sg66
(lp1982
g59
(g60
g61
NtRp1983
(dp1984
g64
(dp1985
g72
I3
ssg73
g1979
sg66
(lp1986
g988
asbasbasbag59
(g75
g61
NtRp1987
(dp1988
g64
(dp1989
sg73
g1920
sg66
(lp1990
g59
(g80
g61
NtRp1991
(dp1992
g64
(dp1993
g84
g85
ssg73
g1987
sg66
(lp1994
S'HTTP_ACCEPT_LANGUAGE'
p1995
asbag59
(g80
g61
NtRp1996
(dp1997
g64
(dp1998
g91
g92
ssg73
g1987
sg66
(lp1999
S':'
asbag59
(g80
g61
NtRp2000
(dp2001
g64
(dp2002
sg73
g1987
sg66
(lp2003
g59
(g60
g61
NtRp2004
(dp2005
g64
(dp2006
g72
I3
ssg73
g2000
sg66
(lp2007
g1010
asbasbasbag59
(g75
g61
NtRp2008
(dp2009
g64
(dp2010
sg73
g1920
sg66
(lp2011
g59
(g80
g61
NtRp2012
(dp2013
g64
(dp2014
g84
g85
ssg73
g2008
sg66
(lp2015
S'HTTP_CACHE_CONTROL'
p2016
asbag59
(g80
g61
NtRp2017
(dp2018
g64
(dp2019
g91
g92
ssg73
g2008
sg66
(lp2020
S':'
asbag59
(g80
g61
NtRp2021
(dp2022
g64
(dp2023
sg73
g2008
sg66
(lp2024
g59
(g60
g61
NtRp2025
(dp2026
g64
(dp2027
g72
I3
ssg73
g2021
sg66
(lp2028
g1032
asbasbasbag59
(g75
g61
NtRp2029
(dp2030
g64
(dp2031
sg73
g1920
sg66
(lp2032
g59
(g80
g61
NtRp2033
(dp2034
g64
(dp2035
g84
g85
ssg73
g2029
sg66
(lp2036
S'HTTP_CONNECTION'
p2037
asbag59
(g80
g61
NtRp2038
(dp2039
g64
(dp2040
g91
g92
ssg73
g2029
sg66
(lp2041
S':'
asbag59
(g80
g61
NtRp2042
(dp2043
g64
(dp2044
sg73
g2029
sg66
(lp2045
g59
(g60
g61
NtRp2046
(dp2047
g64
(dp2048
g72
I3
ssg73
g2042
sg66
(lp2049
g1054
asbasbasbag59
(g75
g61
NtRp2050
(dp2051
g64
(dp2052
sg73
g1920
sg66
(lp2053
g59
(g80
g61
NtRp2054
(dp2055
g64
(dp2056
g84
g85
ssg73
g2050
sg66
(lp2057
S'HTTP_COOKIE'
p2058
asbag59
(g80
g61
NtRp2059
(dp2060
g64
(dp2061
g91
g92
ssg73
g2050
sg66
(lp2062
S':'
asbag59
(g80
g61
NtRp2063
(dp2064
g64
(dp2065
sg73
g2050
sg66
(lp2066
g59
(g60
g61
NtRp2067
(dp2068
g64
(dp2069
g72
I3
ssg73
g2063
sg66
(lp2070
g1076
asbasbasbag59
(g75
g61
NtRp2071
(dp2072
g64
(dp2073
sg73
g1920
sg66
(lp2074
g59
(g80
g61
NtRp2075
(dp2076
g64
(dp2077
g84
g85
ssg73
g2071
sg66
(lp2078
S'HTTP_HOST'
p2079
asbag59
(g80
g61
NtRp2080
(dp2081
g64
(dp2082
g91
g92
ssg73
g2071
sg66
(lp2083
S':'
asbag59
(g80
g61
NtRp2084
(dp2085
g64
(dp2086
sg73
g2071
sg66
(lp2087
g59
(g60
g61
NtRp2088
(dp2089
g64
(dp2090
g72
I3
ssg73
g2084
sg66
(lp2091
g1098
asbasbasbag59
(g75
g61
NtRp2092
(dp2093
g64
(dp2094
sg73
g1920
sg66
(lp2095
g59
(g80
g61
NtRp2096
(dp2097
g64
(dp2098
g84
g85
ssg73
g2092
sg66
(lp2099
S'HTTP_USER_AGENT'
p2100
asbag59
(g80
g61
NtRp2101
(dp2102
g64
(dp2103
g91
g92
ssg73
g2092
sg66
(lp2104
S':'
asbag59
(g80
g61
NtRp2105
(dp2106
g64
(dp2107
sg73
g2092
sg66
(lp2108
g59
(g60
g61
NtRp2109
(dp2110
g64
(dp2111
g72
I3
ssg73
g2105
sg66
(lp2112
g1120
asbasbasbag59
(g75
g61
NtRp2113
(dp2114
g64
(dp2115
sg73
g1920
sg66
(lp2116
g59
(g80
g61
NtRp2117
(dp2118
g64
(dp2119
g84
g85
ssg73
g2113
sg66
(lp2120
S'PATH_INFO'
p2121
asbag59
(g80
g61
NtRp2122
(dp2123
g64
(dp2124
g91
g92
ssg73
g2113
sg66
(lp2125
S':'
asbag59
(g80
g61
NtRp2126
(dp2127
g64
(dp2128
sg73
g2113
sg66
(lp2129
g59
(g60
g61
NtRp2130
(dp2131
g64
(dp2132
g72
I3
ssg73
g2126
sg66
(lp2133
g1142
asbasbasbag59
(g75
g61
NtRp2134
(dp2135
g64
(dp2136
sg73
g1920
sg66
(lp2137
g59
(g80
g61
NtRp2138
(dp2139
g64
(dp2140
g84
g85
ssg73
g2134
sg66
(lp2141
S'QUERY_STRING'
p2142
asbag59
(g80
g61
NtRp2143
(dp2144
g64
(dp2145
g91
g92
ssg73
g2134
sg66
(lp2146
S':'
asbag59
(g80
g61
NtRp2147
(dp2148
g64
(dp2149
sg73
g2134
sg66
(lp2150
g59
(g60
g61
NtRp2151
(dp2152
g64
(dp2153
g72
I3
ssg73
g2147
sg66
(lp2154
S''
asbasbasbag59
(g75
g61
NtRp2155
(dp2156
g64
(dp2157
sg73
g1920
sg66
(lp2158
g59
(g80
g61
NtRp2159
(dp2160
g64
(dp2161
g84
g85
ssg73
g2155
sg66
(lp2162
S'REMOTE_ADDR'
p2163
asbag59
(g80
g61
NtRp2164
(dp2165
g64
(dp2166
g91
g92
ssg73
g2155
sg66
(lp2167
S':'
asbag59
(g80
g61
NtRp2168
(dp2169
g64
(dp2170
sg73
g2155
sg66
(lp2171
g59
(g60
g61
NtRp2172
(dp2173
g64
(dp2174
g72
I3
ssg73
g2168
sg66
(lp2175
g192
asbasbasbag59
(g75
g61
NtRp2176
(dp2177
g64
(dp2178
sg73
g1920
sg66
(lp2179
g59
(g80
g61
NtRp2180
(dp2181
g64
(dp2182
g84
g85
ssg73
g2176
sg66
(lp2183
S'REMOTE_PORT'
p2184
asbag59
(g80
g61
NtRp2185
(dp2186
g64
(dp2187
g91
g92
ssg73
g2176
sg66
(lp2188
S':'
asbag59
(g80
g61
NtRp2189
(dp2190
g64
(dp2191
sg73
g2176
sg66
(lp2192
g59
(g60
g61
NtRp2193
(dp2194
g64
(dp2195
g72
I3
ssg73
g2189
sg66
(lp2196
g1206
asbasbasbag59
(g75
g61
NtRp2197
(dp2198
g64
(dp2199
sg73
g1920
sg66
(lp2200
g59
(g80
g61
NtRp2201
(dp2202
g64
(dp2203
g84
g85
ssg73
g2197
sg66
(lp2204
S'REQUEST_METHOD'
p2205
asbag59
(g80
g61
NtRp2206
(dp2207
g64
(dp2208
g91
g92
ssg73
g2197
sg66
(lp2209
S':'
asbag59
(g80
g61
NtRp2210
(dp2211
g64
(dp2212
sg73
g2197
sg66
(lp2213
g59
(g60
g61
NtRp2214
(dp2215
g64
(dp2216
g72
I3
ssg73
g2210
sg66
(lp2217
g1228
asbasbasbag59
(g75
g61
NtRp2218
(dp2219
g64
(dp2220
sg73
g1920
sg66
(lp2221
g59
(g80
g61
NtRp2222
(dp2223
g64
(dp2224
g84
g85
ssg73
g2218
sg66
(lp2225
S'SCRIPT_NAME'
p2226
asbag59
(g80
g61
NtRp2227
(dp2228
g64
(dp2229
g91
g92
ssg73
g2218
sg66
(lp2230
S':'
asbag59
(g80
g61
NtRp2231
(dp2232
g64
(dp2233
sg73
g2218
sg66
(lp2234
g59
(g60
g61
NtRp2235
(dp2236
g64
(dp2237
g72
I3
ssg73
g2231
sg66
(lp2238
S''
asbasbasbag59
(g75
g61
NtRp2239
(dp2240
g64
(dp2241
sg73
g1920
sg66
(lp2242
g59
(g80
g61
NtRp2243
(dp2244
g64
(dp2245
g84
g85
ssg73
g2239
sg66
(lp2246
S'SERVER_NAME'
p2247
asbag59
(g80
g61
NtRp2248
(dp2249
g64
(dp2250
g91
g92
ssg73
g2239
sg66
(lp2251
S':'
asbag59
(g80
g61
NtRp2252
(dp2253
g64
(dp2254
sg73
g2239
sg66
(lp2255
g59
(g60
g61
NtRp2256
(dp2257
g64
(dp2258
g72
I3
ssg73
g2252
sg66
(lp2259
g1271
asbasbasbag59
(g75
g61
NtRp2260
(dp2261
g64
(dp2262
sg73
g1920
sg66
(lp2263
g59
(g80
g61
NtRp2264
(dp2265
g64
(dp2266
g84
g85
ssg73
g2260
sg66
(lp2267
S'SERVER_PORT'
p2268
asbag59
(g80
g61
NtRp2269
(dp2270
g64
(dp2271
g91
g92
ssg73
g2260
sg66
(lp2272
S':'
asbag59
(g80
g61
NtRp2273
(dp2274
g64
(dp2275
sg73
g2260
sg66
(lp2276
g59
(g60
g61
NtRp2277
(dp2278
g64
(dp2279
g72
I3
ssg73
g2273
sg66
(lp2280
g1293
asbasbasbag59
(g75
g61
NtRp2281
(dp2282
g64
(dp2283
sg73
g1920
sg66
(lp2284
g59
(g80
g61
NtRp2285
(dp2286
g64
(dp2287
g84
g85
ssg73
g2281
sg66
(lp2288
S'SERVER_PROTOCOL'
p2289
asbag59
(g80
g61
NtRp2290
(dp2291
g64
(dp2292
g91
g92
ssg73
g2281
sg66
(lp2293
S':'
asbag59
(g80
g61
NtRp2294
(dp2295
g64
(dp2296
sg73
g2281
sg66
(lp2297
g59
(g60
g61
NtRp2298
(dp2299
g64
(dp2300
g72
I3
ssg73
g2294
sg66
(lp2301
g1315
asbasbasbag59
(g75
g61
NtRp2302
(dp2303
g64
(dp2304
sg73
g1920
sg66
(lp2305
g59
(g80
g61
NtRp2306
(dp2307
g64
(dp2308
g84
g85
ssg73
g2302
sg66
(lp2309
S'SERVER_SOFTWARE'
p2310
asbag59
(g80
g61
NtRp2311
(dp2312
g64
(dp2313
g91
g92
ssg73
g2302
sg66
(lp2314
S':'
asbag59
(g80
g61
NtRp2315
(dp2316
g64
(dp2317
sg73
g2302
sg66
(lp2318
g59
(g60
g61
NtRp2319
(dp2320
g64
(dp2321
g72
I3
ssg73
g2315
sg66
(lp2322
g1337
asbasbasbag59
(g75
g61
NtRp2323
(dp2324
g64
(dp2325
sg73
g1920
sg66
(lp2326
g59
(g80
g61
NtRp2327
(dp2328
g64
(dp2329
g84
g85
ssg73
g2323
sg66
(lp2330
S'wsgi.errors'
p2331
asbag59
(g80
g61
NtRp2332
(dp2333
g64
(dp2334
g91
g92
ssg73
g2323
sg66
(lp2335
S':'
asbag59
(g80
g61
NtRp2336
(dp2337
g64
(dp2338
sg73
g2323
sg66
(lp2339
g59
(g60
g61
NtRp2340
(dp2341
g64
(dp2342
g72
I3
ssg73
g2336
sg66
(lp2343
S"<open file '<stderr>', mode 'w' at 0x002F00B0>"
p2344
asbasbasbag59
(g75
g61
NtRp2345
(dp2346
g64
(dp2347
sg73
g1920
sg66
(lp2348
g59
(g80
g61
NtRp2349
(dp2350
g64
(dp2351
g84
g85
ssg73
g2345
sg66
(lp2352
S'wsgi.file_wrapper'
p2353
asbag59
(g80
g61
NtRp2354
(dp2355
g64
(dp2356
g91
g92
ssg73
g2345
sg66
(lp2357
S':'
asbag59
(g80
g61
NtRp2358
(dp2359
g64
(dp2360
sg73
g2345
sg66
(lp2361
g59
(g60
g61
NtRp2362
(dp2363
g64
(dp2364
g72
I3
ssg73
g2358
sg66
(lp2365
S'<class gluon.rocket.FileWrapper at 0x02F82BA0>'
p2366
asbasbasbag59
(g75
g61
NtRp2367
(dp2368
g64
(dp2369
sg73
g1920
sg66
(lp2370
g59
(g80
g61
NtRp2371
(dp2372
g64
(dp2373
g84
g85
ssg73
g2367
sg66
(lp2374
S'wsgi.input'
p2375
asbag59
(g80
g61
NtRp2376
(dp2377
g64
(dp2378
g91
g92
ssg73
g2367
sg66
(lp2379
S':'
asbag59
(g80
g61
NtRp2380
(dp2381
g64
(dp2382
sg73
g2367
sg66
(lp2383
g59
(g60
g61
NtRp2384
(dp2385
g64
(dp2386
g72
I3
ssg73
g2380
sg66
(lp2387
S'<cStringIO.StringO object at 0x070B1A20>'
p2388
asbasbasbag59
(g75
g61
NtRp2389
(dp2390
g64
(dp2391
sg73
g1920
sg66
(lp2392
g59
(g80
g61
NtRp2393
(dp2394
g64
(dp2395
g84
g85
ssg73
g2389
sg66
(lp2396
S'wsgi.multiprocess'
p2397
asbag59
(g80
g61
NtRp2398
(dp2399
g64
(dp2400
g91
g92
ssg73
g2389
sg66
(lp2401
S':'
asbag59
(g80
g61
NtRp2402
(dp2403
g64
(dp2404
sg73
g2389
sg66
(lp2405
g59
(g60
g61
NtRp2406
(dp2407
g64
(dp2408
g72
I3
ssg73
g2402
sg66
(lp2409
g102
asbasbasbag59
(g75
g61
NtRp2410
(dp2411
g64
(dp2412
sg73
g1920
sg66
(lp2413
g59
(g80
g61
NtRp2414
(dp2415
g64
(dp2416
g84
g85
ssg73
g2410
sg66
(lp2417
S'wsgi.multithread'
p2418
asbag59
(g80
g61
NtRp2419
(dp2420
g64
(dp2421
g91
g92
ssg73
g2410
sg66
(lp2422
S':'
asbag59
(g80
g61
NtRp2423
(dp2424
g64
(dp2425
sg73
g2410
sg66
(lp2426
g59
(g60
g61
NtRp2427
(dp2428
g64
(dp2429
g72
I3
ssg73
g2423
sg66
(lp2430
g1511
asbasbasbag59
(g75
g61
NtRp2431
(dp2432
g64
(dp2433
sg73
g1920
sg66
(lp2434
g59
(g80
g61
NtRp2435
(dp2436
g64
(dp2437
g84
g85
ssg73
g2431
sg66
(lp2438
S'wsgi.run_once'
p2439
asbag59
(g80
g61
NtRp2440
(dp2441
g64
(dp2442
g91
g92
ssg73
g2431
sg66
(lp2443
S':'
asbag59
(g80
g61
NtRp2444
(dp2445
g64
(dp2446
sg73
g2431
sg66
(lp2447
g59
(g60
g61
NtRp2448
(dp2449
g64
(dp2450
g72
I3
ssg73
g2444
sg66
(lp2451
g102
asbasbasbag59
(g75
g61
NtRp2452
(dp2453
g64
(dp2454
sg73
g1920
sg66
(lp2455
g59
(g80
g61
NtRp2456
(dp2457
g64
(dp2458
g84
g85
ssg73
g2452
sg66
(lp2459
S'wsgi.url_scheme'
p2460
asbag59
(g80
g61
NtRp2461
(dp2462
g64
(dp2463
g91
g92
ssg73
g2452
sg66
(lp2464
S':'
asbag59
(g80
g61
NtRp2465
(dp2466
g64
(dp2467
sg73
g2452
sg66
(lp2468
g59
(g60
g61
NtRp2469
(dp2470
g64
(dp2471
g72
I3
ssg73
g2465
sg66
(lp2472
g1554
asbasbasbag59
(g75
g61
NtRp2473
(dp2474
g64
(dp2475
sg73
g1920
sg66
(lp2476
g59
(g80
g61
NtRp2477
(dp2478
g64
(dp2479
g84
g85
ssg73
g2473
sg66
(lp2480
S'wsgi.version'
p2481
asbag59
(g80
g61
NtRp2482
(dp2483
g64
(dp2484
g91
g92
ssg73
g2473
sg66
(lp2485
S':'
asbag59
(g80
g61
NtRp2486
(dp2487
g64
(dp2488
sg73
g2473
sg66
(lp2489
g59
(g60
g61
NtRp2490
(dp2491
g64
(dp2492
g72
I3
ssg73
g2486
sg66
(lp2493
S'1'
asbasbasbasbasbasbasbasbasbasbasbasbasbsS'frames'
p2494
(lp2495
(dp2496
S'file'
p2497
S'C:\\Users\\AKSHAY\\Desktop\\web2py\\gluon\\restricted.py'
p2498
sS'dump'
p2499
(dp2500
sS'lnum'
p2501
I191
sS'lines'
p2502
(dp2503
sS'call'
p2504
S'(code=\'response.write(\\\'<!DOCTYPE html>\\\\n<html lang="\\\', ...t   -->    \\\\n  </body>\\\\n</html>\\\\n\\\', escape=False)\', environment={\'A\': <class \'gluon.html.A\'>, \'Auth\': <class \'gluon.tools.Auth\'>, \'B\': <class \'gluon.html.B\'>, \'BEAUTIFY\': <class \'gluon.html.BEAUTIFY\'>, \'BODY\': <class \'gluon.html.BODY\'>, \'BR\': <class \'gluon.html.BR\'>, \'BUTTON\': <class \'gluon.html.BUTTON\'>, \'CENTER\': <class \'gluon.html.CENTER\'>, \'CLEANUP\': <class \'gluon.validators.CLEANUP\'>, \'CODE\': <class \'gluon.html.CODE\'>, ...}, layer=r\'C:\\Users\\AKSHAY\\Desktop\\web2py\\applications\\201056161\\views\\default/index.html\')'
p2505
sS'func'
p2506
S'restricted'
p2507
sa(dp2508
g2497
S'C:\\Users\\AKSHAY\\Desktop\\web2py\\gluon\\restricted.py'
p2509
sg2499
(dp2510
sg2501
I178
sg2502
(dp2511
sg2504
S'(code=\'response.write(\\\'<!DOCTYPE html>\\\\n<html lang="\\\', ...t   -->    \\\\n  </body>\\\\n</html>\\\\n\\\', escape=False)\', layer=r\'C:\\Users\\AKSHAY\\Desktop\\web2py\\applications\\201056161\\views\\default/index.html\')'
p2512
sg2506
S'compile2'
p2513
sasS'pyver'
p2514
S'Python 2.5.4: C:\\Users\\AKSHAY\\Desktop\\web2py\\web2py.exe'
p2515
sS'session'
p2516
g59
(g60
g61
NtRp2517
(dp2518
g64
(dp2519
sg66
(lp2520
g59
(g68
g61
NtRp2521
(dp2522
g64
(dp2523
g72
I5
ssg73
Nsg66
(lp2524
sbasbsS'etype'
p2525
S"<type 'exceptions.SyntaxError'>"
p2526
sS'date'
p2527
S'Wed Aug 24 15:04:57 2011'
p2528
sS'response'
p2529
g59
(g60
g61
NtRp2530
(dp2531
g64
(dp2532
sg66
(lp2533
g59
(g68
g61
NtRp2534
(dp2535
g64
(dp2536
g72
I5
ssg73
Nsg66
(lp2537
g59
(g75
g61
NtRp2538
(dp2539
g64
(dp2540
sg73
g2534
sg66
(lp2541
g59
(g80
g61
NtRp2542
(dp2543
g64
(dp2544
g84
g85
ssg73
g2538
sg66
(lp2545
g157
asbag59
(g80
g61
NtRp2546
(dp2547
g64
(dp2548
g91
g92
ssg73
g2538
sg66
(lp2549
S':'
asbag59
(g80
g61
NtRp2550
(dp2551
g64
(dp2552
sg73
g2538
sg66
(lp2553
g59
(g60
g61
NtRp2554
(dp2555
g64
(dp2556
g72
I5
ssg73
g2550
sg66
(lp2557
S'<cStringIO.StringO object at 0x070B18C0>'
p2558
asbasbasbag59
(g75
g61
NtRp2559
(dp2560
g64
(dp2561
sg73
g2534
sg66
(lp2562
g59
(g80
g61
NtRp2563
(dp2564
g64
(dp2565
g84
g85
ssg73
g2559
sg66
(lp2566
g223
asbag59
(g80
g61
NtRp2567
(dp2568
g64
(dp2569
g91
g92
ssg73
g2559
sg66
(lp2570
S':'
asbag59
(g80
g61
NtRp2571
(dp2572
g64
(dp2573
sg73
g2559
sg66
(lp2574
g59
(g60
g61
NtRp2575
(dp2576
g64
(dp2577
g72
I5
ssg73
g2571
sg66
(lp2578
g59
(g68
g61
NtRp2579
(dp2580
g64
(dp2581
g72
I4
ssg73
Nsg66
(lp2582
g59
(g75
g61
NtRp2583
(dp2584
g64
(dp2585
sg73
g2579
sg66
(lp2586
g59
(g80
g61
NtRp2587
(dp2588
g64
(dp2589
g84
g85
ssg73
g2583
sg66
(lp2590
S'session_id_201056161'
p2591
asbag59
(g80
g61
NtRp2592
(dp2593
g64
(dp2594
g91
g92
ssg73
g2583
sg66
(lp2595
S':'
asbag59
(g80
g61
NtRp2596
(dp2597
g64
(dp2598
sg73
g2583
sg66
(lp2599
g59
(g60
g61
NtRp2600
(dp2601
g64
(dp2602
g72
I4
ssg73
g2596
sg66
(lp2603
g59
(g68
g61
NtRp2604
(dp2605
g64
(dp2606
g72
I3
ssg73
Nsg66
(lp2607
g59
(g75
g61
NtRp2608
(dp2609
g64
(dp2610
sg73
g2604
sg66
(lp2611
g59
(g80
g61
NtRp2612
(dp2613
g64
(dp2614
g84
g85
ssg73
g2608
sg66
(lp2615
g273
asbag59
(g80
g61
NtRp2616
(dp2617
g64
(dp2618
g91
g92
ssg73
g2608
sg66
(lp2619
S':'
asbag59
(g80
g61
NtRp2620
(dp2621
g64
(dp2622
sg73
g2608
sg66
(lp2623
g59
(g60
g61
NtRp2624
(dp2625
g64
(dp2626
g72
I3
ssg73
g2620
sg66
(lp2627
S''
asbasbasbag59
(g75
g61
NtRp2628
(dp2629
g64
(dp2630
sg73
g2604
sg66
(lp2631
g59
(g80
g61
NtRp2632
(dp2633
g64
(dp2634
g84
g85
ssg73
g2628
sg66
(lp2635
g294
asbag59
(g80
g61
NtRp2636
(dp2637
g64
(dp2638
g91
g92
ssg73
g2628
sg66
(lp2639
S':'
asbag59
(g80
g61
NtRp2640
(dp2641
g64
(dp2642
sg73
g2628
sg66
(lp2643
g59
(g60
g61
NtRp2644
(dp2645
g64
(dp2646
g72
I3
ssg73
g2640
sg66
(lp2647
S''
asbasbasbag59
(g75
g61
NtRp2648
(dp2649
g64
(dp2650
sg73
g2604
sg66
(lp2651
g59
(g80
g61
NtRp2652
(dp2653
g64
(dp2654
g84
g85
ssg73
g2648
sg66
(lp2655
g315
asbag59
(g80
g61
NtRp2656
(dp2657
g64
(dp2658
g91
g92
ssg73
g2648
sg66
(lp2659
S':'
asbag59
(g80
g61
NtRp2660
(dp2661
g64
(dp2662
sg73
g2648
sg66
(lp2663
g59
(g60
g61
NtRp2664
(dp2665
g64
(dp2666
g72
I3
ssg73
g2660
sg66
(lp2667
S''
asbasbasbag59
(g75
g61
NtRp2668
(dp2669
g64
(dp2670
sg73
g2604
sg66
(lp2671
g59
(g80
g61
NtRp2672
(dp2673
g64
(dp2674
g84
g85
ssg73
g2668
sg66
(lp2675
g336
asbag59
(g80
g61
NtRp2676
(dp2677
g64
(dp2678
g91
g92
ssg73
g2668
sg66
(lp2679
S':'
asbag59
(g80
g61
NtRp2680
(dp2681
g64
(dp2682
sg73
g2668
sg66
(lp2683
g59
(g60
g61
NtRp2684
(dp2685
g64
(dp2686
g72
I3
ssg73
g2680
sg66
(lp2687
S''
asbasbasbag59
(g75
g61
NtRp2688
(dp2689
g64
(dp2690
sg73
g2604
sg66
(lp2691
g59
(g80
g61
NtRp2692
(dp2693
g64
(dp2694
g84
g85
ssg73
g2688
sg66
(lp2695
g357
asbag59
(g80
g61
NtRp2696
(dp2697
g64
(dp2698
g91
g92
ssg73
g2688
sg66
(lp2699
S':'
asbag59
(g80
g61
NtRp2700
(dp2701
g64
(dp2702
sg73
g2688
sg66
(lp2703
g59
(g60
g61
NtRp2704
(dp2705
g64
(dp2706
g72
I3
ssg73
g2700
sg66
(lp2707
S'/'
asbasbasbag59
(g75
g61
NtRp2708
(dp2709
g64
(dp2710
sg73
g2604
sg66
(lp2711
g59
(g80
g61
NtRp2712
(dp2713
g64
(dp2714
g84
g85
ssg73
g2708
sg66
(lp2715
g378
asbag59
(g80
g61
NtRp2716
(dp2717
g64
(dp2718
g91
g92
ssg73
g2708
sg66
(lp2719
S':'
asbag59
(g80
g61
NtRp2720
(dp2721
g64
(dp2722
sg73
g2708
sg66
(lp2723
g59
(g60
g61
NtRp2724
(dp2725
g64
(dp2726
g72
I3
ssg73
g2720
sg66
(lp2727
S''
asbasbasbag59
(g75
g61
NtRp2728
(dp2729
g64
(dp2730
sg73
g2604
sg66
(lp2731
g59
(g80
g61
NtRp2732
(dp2733
g64
(dp2734
g84
g85
ssg73
g2728
sg66
(lp2735
g399
asbag59
(g80
g61
NtRp2736
(dp2737
g64
(dp2738
g91
g92
ssg73
g2728
sg66
(lp2739
S':'
asbag59
(g80
g61
NtRp2740
(dp2741
g64
(dp2742
sg73
g2728
sg66
(lp2743
g59
(g60
g61
NtRp2744
(dp2745
g64
(dp2746
g72
I3
ssg73
g2740
sg66
(lp2747
S''
asbasbasbasbasbasbasbasbasbasbasbag59
(g75
g61
NtRp2748
(dp2749
g64
(dp2750
sg73
g2534
sg66
(lp2751
g59
(g80
g61
NtRp2752
(dp2753
g64
(dp2754
g84
g85
ssg73
g2748
sg66
(lp2755
S'files'
p2756
asbag59
(g80
g61
NtRp2757
(dp2758
g64
(dp2759
g91
g92
ssg73
g2748
sg66
(lp2760
S':'
asbag59
(g80
g61
NtRp2761
(dp2762
g64
(dp2763
sg73
g2748
sg66
(lp2764
g59
(g60
g61
NtRp2765
(dp2766
g64
(dp2767
g72
I5
ssg73
g2761
sg66
(lp2768
g59
(g68
g61
NtRp2769
(dp2770
g64
(dp2771
g72
I4
ssg73
Nsg66
(lp2772
sbasbasbasbag59
(g75
g61
NtRp2773
(dp2774
g64
(dp2775
sg73
g2534
sg66
(lp2776
g59
(g80
g61
NtRp2777
(dp2778
g64
(dp2779
g84
g85
ssg73
g2773
sg66
(lp2780
S'flash'
p2781
asbag59
(g80
g61
NtRp2782
(dp2783
g64
(dp2784
g91
g92
ssg73
g2773
sg66
(lp2785
S':'
asbag59
(g80
g61
NtRp2786
(dp2787
g64
(dp2788
sg73
g2773
sg66
(lp2789
g59
(g60
g61
NtRp2790
(dp2791
g64
(dp2792
g72
I5
ssg73
g2786
sg66
(lp2793
S''
asbasbasbag59
(g75
g61
NtRp2794
(dp2795
g64
(dp2796
sg73
g2534
sg66
(lp2797
g59
(g80
g61
NtRp2798
(dp2799
g64
(dp2800
g84
g85
ssg73
g2794
sg66
(lp2801
S'generic_patterns'
p2802
asbag59
(g80
g61
NtRp2803
(dp2804
g64
(dp2805
g91
g92
ssg73
g2794
sg66
(lp2806
S':'
asbag59
(g80
g61
NtRp2807
(dp2808
g64
(dp2809
sg73
g2794
sg66
(lp2810
g59
(g60
g61
NtRp2811
(dp2812
g64
(dp2813
g72
I5
ssg73
g2807
sg66
(lp2814
g59
(g68
g61
NtRp2815
(dp2816
g64
(dp2817
g72
I4
ssg73
Nsg66
(lp2818
g59
(g75
g61
NtRp2819
(dp2820
g64
(dp2821
sg73
g2815
sg66
(lp2822
g59
(g80
g61
NtRp2823
(dp2824
g64
(dp2825
sg73
g2819
sg66
(lp2826
g59
(g60
g61
NtRp2827
(dp2828
g64
(dp2829
g72
I4
ssg73
g2823
sg66
(lp2830
S'*'
asbasbasbasbasbasbasbag59
(g75
g61
NtRp2831
(dp2832
g64
(dp2833
sg73
g2534
sg66
(lp2834
g59
(g80
g61
NtRp2835
(dp2836
g64
(dp2837
g84
g85
ssg73
g2831
sg66
(lp2838
S'headers'
p2839
asbag59
(g80
g61
NtRp2840
(dp2841
g64
(dp2842
g91
g92
ssg73
g2831
sg66
(lp2843
S':'
asbag59
(g80
g61
NtRp2844
(dp2845
g64
(dp2846
sg73
g2831
sg66
(lp2847
g59
(g60
g61
NtRp2848
(dp2849
g64
(dp2850
g72
I5
ssg73
g2844
sg66
(lp2851
g59
(g68
g61
NtRp2852
(dp2853
g64
(dp2854
g72
I4
ssg73
Nsg66
(lp2855
g59
(g75
g61
NtRp2856
(dp2857
g64
(dp2858
sg73
g2852
sg66
(lp2859
g59
(g80
g61
NtRp2860
(dp2861
g64
(dp2862
g84
g85
ssg73
g2856
sg66
(lp2863
S'Cache-Control'
p2864
asbag59
(g80
g61
NtRp2865
(dp2866
g64
(dp2867
g91
g92
ssg73
g2856
sg66
(lp2868
S':'
asbag59
(g80
g61
NtRp2869
(dp2870
g64
(dp2871
sg73
g2856
sg66
(lp2872
g59
(g60
g61
NtRp2873
(dp2874
g64
(dp2875
g72
I4
ssg73
g2869
sg66
(lp2876
S'no-store, no-cache, must-revalidate, post-check=0, pre-check=0'
p2877
asbasbasbag59
(g75
g61
NtRp2878
(dp2879
g64
(dp2880
sg73
g2852
sg66
(lp2881
g59
(g80
g61
NtRp2882
(dp2883
g64
(dp2884
g84
g85
ssg73
g2878
sg66
(lp2885
S'Content-Type'
p2886
asbag59
(g80
g61
NtRp2887
(dp2888
g64
(dp2889
g91
g92
ssg73
g2878
sg66
(lp2890
S':'
asbag59
(g80
g61
NtRp2891
(dp2892
g64
(dp2893
sg73
g2878
sg66
(lp2894
g59
(g60
g61
NtRp2895
(dp2896
g64
(dp2897
g72
I4
ssg73
g2891
sg66
(lp2898
S'text/html; charset=utf-8'
p2899
asbasbasbag59
(g75
g61
NtRp2900
(dp2901
g64
(dp2902
sg73
g2852
sg66
(lp2903
g59
(g80
g61
NtRp2904
(dp2905
g64
(dp2906
g84
g85
ssg73
g2900
sg66
(lp2907
S'Expires'
p2908
asbag59
(g80
g61
NtRp2909
(dp2910
g64
(dp2911
g91
g92
ssg73
g2900
sg66
(lp2912
S':'
asbag59
(g80
g61
NtRp2913
(dp2914
g64
(dp2915
sg73
g2900
sg66
(lp2916
g59
(g60
g61
NtRp2917
(dp2918
g64
(dp2919
g72
I4
ssg73
g2913
sg66
(lp2920
S'Wed, 24 Aug 2011 09:34:57 GMT'
p2921
asbasbasbag59
(g75
g61
NtRp2922
(dp2923
g64
(dp2924
sg73
g2852
sg66
(lp2925
g59
(g80
g61
NtRp2926
(dp2927
g64
(dp2928
g84
g85
ssg73
g2922
sg66
(lp2929
S'Pragma'
p2930
asbag59
(g80
g61
NtRp2931
(dp2932
g64
(dp2933
g91
g92
ssg73
g2922
sg66
(lp2934
S':'
asbag59
(g80
g61
NtRp2935
(dp2936
g64
(dp2937
sg73
g2922
sg66
(lp2938
g59
(g60
g61
NtRp2939
(dp2940
g64
(dp2941
g72
I4
ssg73
g2935
sg66
(lp2942
S'no-cache'
p2943
asbasbasbag59
(g75
g61
NtRp2944
(dp2945
g64
(dp2946
sg73
g2852
sg66
(lp2947
g59
(g80
g61
NtRp2948
(dp2949
g64
(dp2950
g84
g85
ssg73
g2944
sg66
(lp2951
S'X-Powered-By'
p2952
asbag59
(g80
g61
NtRp2953
(dp2954
g64
(dp2955
g91
g92
ssg73
g2944
sg66
(lp2956
S':'
asbag59
(g80
g61
NtRp2957
(dp2958
g64
(dp2959
sg73
g2944
sg66
(lp2960
g59
(g60
g61
NtRp2961
(dp2962
g64
(dp2963
g72
I4
ssg73
g2957
sg66
(lp2964
S'web2py'
p2965
asbasbasbasbasbasbasbag59
(g75
g61
NtRp2966
(dp2967
g64
(dp2968
sg73
g2534
sg66
(lp2969
g59
(g80
g61
NtRp2970
(dp2971
g64
(dp2972
g84
g85
ssg73
g2966
sg66
(lp2973
S'menu'
p2974
asbag59
(g80
g61
NtRp2975
(dp2976
g64
(dp2977
g91
g92
ssg73
g2966
sg66
(lp2978
S':'
asbag59
(g80
g61
NtRp2979
(dp2980
g64
(dp2981
sg73
g2966
sg66
(lp2982
g59
(g60
g61
NtRp2983
(dp2984
g64
(dp2985
g72
I5
ssg73
g2979
sg66
(lp2986
g59
(g68
g61
NtRp2987
(dp2988
g64
(dp2989
g72
I4
ssg73
Nsg66
(lp2990
g59
(g75
g61
NtRp2991
(dp2992
g64
(dp2993
sg73
g2987
sg66
(lp2994
g59
(g80
g61
NtRp2995
(dp2996
g64
(dp2997
sg73
g2991
sg66
(lp2998
g59
(g60
g61
NtRp2999
(dp3000
g64
(dp3001
g72
I4
ssg73
g2995
sg66
(lp3002
g59
(g68
g61
NtRp3003
(dp3004
g64
(dp3005
g72
I3
ssg73
Nsg66
(lp3006
g59
(g75
g61
NtRp3007
(dp3008
g64
(dp3009
sg73
g3003
sg66
(lp3010
g59
(g80
g61
NtRp3011
(dp3012
g64
(dp3013
sg73
g3007
sg66
(lp3014
g59
(g60
g61
NtRp3015
(dp3016
g64
(dp3017
g72
I3
ssg73
g3011
sg66
(lp3018
cgluon.languages
lazyT_unpickle
p3019
(S's\x04\x00\x00\x00Home'
tRp3020
asbasbasbag59
(g75
g61
NtRp3021
(dp3022
g64
(dp3023
sg73
g3003
sg66
(lp3024
g59
(g80
g61
NtRp3025
(dp3026
g64
(dp3027
sg73
g3021
sg66
(lp3028
g59
(g60
g61
NtRp3029
(dp3030
g64
(dp3031
g72
I3
ssg73
g3025
sg66
(lp3032
g102
asbasbasbag59
(g75
g61
NtRp3033
(dp3034
g64
(dp3035
sg73
g3003
sg66
(lp3036
g59
(g80
g61
NtRp3037
(dp3038
g64
(dp3039
sg73
g3033
sg66
(lp3040
g59
(g60
g61
NtRp3041
(dp3042
g64
(dp3043
g72
I3
ssg73
g3037
sg66
(lp3044
S'/201056161/default/index'
p3045
asbasbasbag59
(g75
g61
NtRp3046
(dp3047
g64
(dp3048
sg73
g3003
sg66
(lp3049
g59
(g80
g61
NtRp3050
(dp3051
g64
(dp3052
sg73
g3046
sg66
(lp3053
g59
(g60
g61
NtRp3054
(dp3055
g64
(dp3056
g72
I3
ssg73
g3050
sg66
(lp3057
g59
(g68
g61
NtRp3058
(dp3059
g64
(dp3060
g72
I2
ssg73
Nsg66
(lp3061
sbasbasbasbasbasbasbasbag59
(g75
g61
NtRp3062
(dp3063
g64
(dp3064
sg73
g2987
sg66
(lp3065
g59
(g80
g61
NtRp3066
(dp3067
g64
(dp3068
sg73
g3062
sg66
(lp3069
g59
(g60
g61
NtRp3070
(dp3071
g64
(dp3072
g72
I4
ssg73
g3066
sg66
(lp3073
g59
(g68
g61
NtRp3074
(dp3075
g64
(dp3076
g72
I3
ssg73
Nsg66
(lp3077
g59
(g75
g61
NtRp3078
(dp3079
g64
(dp3080
sg73
g3074
sg66
(lp3081
g59
(g80
g61
NtRp3082
(dp3083
g64
(dp3084
sg73
g3078
sg66
(lp3085
g59
(g60
g61
NtRp3086
(dp3087
g64
(dp3088
g72
I3
ssg73
g3082
sg66
(lp3089
g3019
(S's\x08\x00\x00\x00This App'
tRp3090
asbasbasbag59
(g75
g61
NtRp3091
(dp3092
g64
(dp3093
sg73
g3074
sg66
(lp3094
g59
(g80
g61
NtRp3095
(dp3096
g64
(dp3097
sg73
g3091
sg66
(lp3098
g59
(g60
g61
NtRp3099
(dp3100
g64
(dp3101
g72
I3
ssg73
g3095
sg66
(lp3102
g102
asbasbasbag59
(g75
g61
NtRp3103
(dp3104
g64
(dp3105
sg73
g3074
sg66
(lp3106
g59
(g80
g61
NtRp3107
(dp3108
g64
(dp3109
sg73
g3103
sg66
(lp3110
g59
(g60
g61
NtRp3111
(dp3112
g64
(dp3113
g72
I3
ssg73
g3107
sg66
(lp3114
S'/admin/default/design/201056161'
p3115
asbasbasbag59
(g75
g61
NtRp3116
(dp3117
g64
(dp3118
sg73
g3074
sg66
(lp3119
g59
(g80
g61
NtRp3120
(dp3121
g64
(dp3122
sg73
g3116
sg66
(lp3123
g59
(g60
g61
NtRp3124
(dp3125
g64
(dp3126
g72
I3
ssg73
g3120
sg66
(lp3127
g59
(g68
g61
NtRp3128
(dp3129
g64
(dp3130
g72
I2
ssg73
Nsg66
(lp3131
g59
(g75
g61
NtRp3132
(dp3133
g64
(dp3134
sg73
g3128
sg66
(lp3135
g59
(g80
g61
NtRp3136
(dp3137
g64
(dp3138
sg73
g3132
sg66
(lp3139
g59
(g60
g61
NtRp3140
(dp3141
g64
(dp3142
g72
I2
ssg73
g3136
sg66
(lp3143
g59
(g68
g61
NtRp3144
(dp3145
g64
(dp3146
g72
I1
ssg73
Nsg66
(lp3147
g59
(g75
g61
NtRp3148
(dp3149
g64
(dp3150
sg73
g3144
sg66
(lp3151
g59
(g80
g61
NtRp3152
(dp3153
g64
(dp3154
sg73
g3148
sg66
(lp3155
g59
(g60
g61
NtRp3156
(dp3157
g64
(dp3158
g72
I1
ssg73
g3152
sg66
(lp3159
g3019
(S's\n\x00\x00\x00Controller'
tRp3160
asbasbasbag59
(g75
g61
NtRp3161
(dp3162
g64
(dp3163
sg73
g3144
sg66
(lp3164
g59
(g80
g61
NtRp3165
(dp3166
g64
(dp3167
sg73
g3161
sg66
(lp3168
g59
(g60
g61
NtRp3169
(dp3170
g64
(dp3171
g72
I1
ssg73
g3165
sg66
(lp3172
I00
asbasbasbag59
(g75
g61
NtRp3173
(dp3174
g64
(dp3175
sg73
g3144
sg66
(lp3176
g59
(g80
g61
NtRp3177
(dp3178
g64
(dp3179
sg73
g3173
sg66
(lp3180
g59
(g60
g61
NtRp3181
(dp3182
g64
(dp3183
g72
I1
ssg73
g3177
sg66
(lp3184
S'/admin/default/edit/201056161/controllers/default.py'
p3185
asbasbasbasbasbasbasbag59
(g75
g61
NtRp3186
(dp3187
g64
(dp3188
sg73
g3128
sg66
(lp3189
g59
(g80
g61
NtRp3190
(dp3191
g64
(dp3192
sg73
g3186
sg66
(lp3193
g59
(g60
g61
NtRp3194
(dp3195
g64
(dp3196
g72
I2
ssg73
g3190
sg66
(lp3197
g59
(g68
g61
NtRp3198
(dp3199
g64
(dp3200
g72
I1
ssg73
Nsg66
(lp3201
g59
(g75
g61
NtRp3202
(dp3203
g64
(dp3204
sg73
g3198
sg66
(lp3205
g59
(g80
g61
NtRp3206
(dp3207
g64
(dp3208
sg73
g3202
sg66
(lp3209
g59
(g60
g61
NtRp3210
(dp3211
g64
(dp3212
g72
I1
ssg73
g3206
sg66
(lp3213
g3019
(S's\x04\x00\x00\x00View'
tRp3214
asbasbasbag59
(g75
g61
NtRp3215
(dp3216
g64
(dp3217
sg73
g3198
sg66
(lp3218
g59
(g80
g61
NtRp3219
(dp3220
g64
(dp3221
sg73
g3215
sg66
(lp3222
g59
(g60
g61
NtRp3223
(dp3224
g64
(dp3225
g72
I1
ssg73
g3219
sg66
(lp3226
I00
asbasbasbag59
(g75
g61
NtRp3227
(dp3228
g64
(dp3229
sg73
g3198
sg66
(lp3230
g59
(g80
g61
NtRp3231
(dp3232
g64
(dp3233
sg73
g3227
sg66
(lp3234
g59
(g60
g61
NtRp3235
(dp3236
g64
(dp3237
g72
I1
ssg73
g3231
sg66
(lp3238
S'/admin/default/edit/201056161/views/default/index.html'
p3239
asbasbasbasbasbasbasbag59
(g75
g61
NtRp3240
(dp3241
g64
(dp3242
sg73
g3128
sg66
(lp3243
g59
(g80
g61
NtRp3244
(dp3245
g64
(dp3246
sg73
g3240
sg66
(lp3247
g59
(g60
g61
NtRp3248
(dp3249
g64
(dp3250
g72
I2
ssg73
g3244
sg66
(lp3251
g59
(g68
g61
NtRp3252
(dp3253
g64
(dp3254
g72
I1
ssg73
Nsg66
(lp3255
g59
(g75
g61
NtRp3256
(dp3257
g64
(dp3258
sg73
g3252
sg66
(lp3259
g59
(g80
g61
NtRp3260
(dp3261
g64
(dp3262
sg73
g3256
sg66
(lp3263
g59
(g60
g61
NtRp3264
(dp3265
g64
(dp3266
g72
I1
ssg73
g3260
sg66
(lp3267
g3019
(S's\x06\x00\x00\x00Layout'
tRp3268
asbasbasbag59
(g75
g61
NtRp3269
(dp3270
g64
(dp3271
sg73
g3252
sg66
(lp3272
g59
(g80
g61
NtRp3273
(dp3274
g64
(dp3275
sg73
g3269
sg66
(lp3276
g59
(g60
g61
NtRp3277
(dp3278
g64
(dp3279
g72
I1
ssg73
g3273
sg66
(lp3280
I00
asbasbasbag59
(g75
g61
NtRp3281
(dp3282
g64
(dp3283
sg73
g3252
sg66
(lp3284
g59
(g80
g61
NtRp3285
(dp3286
g64
(dp3287
sg73
g3281
sg66
(lp3288
g59
(g60
g61
NtRp3289
(dp3290
g64
(dp3291
g72
I1
ssg73
g3285
sg66
(lp3292
S'/admin/default/edit/201056161/views/layout.html'
p3293
asbasbasbasbasbasbasbag59
(g75
g61
NtRp3294
(dp3295
g64
(dp3296
sg73
g3128
sg66
(lp3297
g59
(g80
g61
NtRp3298
(dp3299
g64
(dp3300
sg73
g3294
sg66
(lp3301
g59
(g60
g61
NtRp3302
(dp3303
g64
(dp3304
g72
I2
ssg73
g3298
sg66
(lp3305
g59
(g68
g61
NtRp3306
(dp3307
g64
(dp3308
g72
I1
ssg73
Nsg66
(lp3309
g59
(g75
g61
NtRp3310
(dp3311
g64
(dp3312
sg73
g3306
sg66
(lp3313
g59
(g80
g61
NtRp3314
(dp3315
g64
(dp3316
sg73
g3310
sg66
(lp3317
g59
(g60
g61
NtRp3318
(dp3319
g64
(dp3320
g72
I1
ssg73
g3314
sg66
(lp3321
g3019
(S's\n\x00\x00\x00Stylesheet'
tRp3322
asbasbasbag59
(g75
g61
NtRp3323
(dp3324
g64
(dp3325
sg73
g3306
sg66
(lp3326
g59
(g80
g61
NtRp3327
(dp3328
g64
(dp3329
sg73
g3323
sg66
(lp3330
g59
(g60
g61
NtRp3331
(dp3332
g64
(dp3333
g72
I1
ssg73
g3327
sg66
(lp3334
I00
asbasbasbag59
(g75
g61
NtRp3335
(dp3336
g64
(dp3337
sg73
g3306
sg66
(lp3338
g59
(g80
g61
NtRp3339
(dp3340
g64
(dp3341
sg73
g3335
sg66
(lp3342
g59
(g60
g61
NtRp3343
(dp3344
g64
(dp3345
g72
I1
ssg73
g3339
sg66
(lp3346
S'/admin/default/edit/201056161/static/base.css'
p3347
asbasbasbasbasbasbasbag59
(g75
g61
NtRp3348
(dp3349
g64
(dp3350
sg73
g3128
sg66
(lp3351
g59
(g80
g61
NtRp3352
(dp3353
g64
(dp3354
sg73
g3348
sg66
(lp3355
g59
(g60
g61
NtRp3356
(dp3357
g64
(dp3358
g72
I2
ssg73
g3352
sg66
(lp3359
g59
(g68
g61
NtRp3360
(dp3361
g64
(dp3362
g72
I1
ssg73
Nsg66
(lp3363
g59
(g75
g61
NtRp3364
(dp3365
g64
(dp3366
sg73
g3360
sg66
(lp3367
g59
(g80
g61
NtRp3368
(dp3369
g64
(dp3370
sg73
g3364
sg66
(lp3371
g59
(g60
g61
NtRp3372
(dp3373
g64
(dp3374
g72
I1
ssg73
g3368
sg66
(lp3375
g3019
(S's\x08\x00\x00\x00DB Model'
tRp3376
asbasbasbag59
(g75
g61
NtRp3377
(dp3378
g64
(dp3379
sg73
g3360
sg66
(lp3380
g59
(g80
g61
NtRp3381
(dp3382
g64
(dp3383
sg73
g3377
sg66
(lp3384
g59
(g60
g61
NtRp3385
(dp3386
g64
(dp3387
g72
I1
ssg73
g3381
sg66
(lp3388
I00
asbasbasbag59
(g75
g61
NtRp3389
(dp3390
g64
(dp3391
sg73
g3360
sg66
(lp3392
g59
(g80
g61
NtRp3393
(dp3394
g64
(dp3395
sg73
g3389
sg66
(lp3396
g59
(g60
g61
NtRp3397
(dp3398
g64
(dp3399
g72
I1
ssg73
g3393
sg66
(lp3400
S'/admin/default/edit/201056161/models/db.py'
p3401
asbasbasbasbasbasbasbag59
(g75
g61
NtRp3402
(dp3403
g64
(dp3404
sg73
g3128
sg66
(lp3405
g59
(g80
g61
NtRp3406
(dp3407
g64
(dp3408
sg73
g3402
sg66
(lp3409
g59
(g60
g61
NtRp3410
(dp3411
g64
(dp3412
g72
I2
ssg73
g3406
sg66
(lp3413
g59
(g68
g61
NtRp3414
(dp3415
g64
(dp3416
g72
I1
ssg73
Nsg66
(lp3417
g59
(g75
g61
NtRp3418
(dp3419
g64
(dp3420
sg73
g3414
sg66
(lp3421
g59
(g80
g61
NtRp3422
(dp3423
g64
(dp3424
sg73
g3418
sg66
(lp3425
g59
(g60
g61
NtRp3426
(dp3427
g64
(dp3428
g72
I1
ssg73
g3422
sg66
(lp3429
g3019
(S's\n\x00\x00\x00Menu Model'
tRp3430
asbasbasbag59
(g75
g61
NtRp3431
(dp3432
g64
(dp3433
sg73
g3414
sg66
(lp3434
g59
(g80
g61
NtRp3435
(dp3436
g64
(dp3437
sg73
g3431
sg66
(lp3438
g59
(g60
g61
NtRp3439
(dp3440
g64
(dp3441
g72
I1
ssg73
g3435
sg66
(lp3442
I00
asbasbasbag59
(g75
g61
NtRp3443
(dp3444
g64
(dp3445
sg73
g3414
sg66
(lp3446
g59
(g80
g61
NtRp3447
(dp3448
g64
(dp3449
sg73
g3443
sg66
(lp3450
g59
(g60
g61
NtRp3451
(dp3452
g64
(dp3453
g72
I1
ssg73
g3447
sg66
(lp3454
S'/admin/default/edit/201056161/models/menu.py'
p3455
asbasbasbasbasbasbasbag59
(g75
g61
NtRp3456
(dp3457
g64
(dp3458
sg73
g3128
sg66
(lp3459
g59
(g80
g61
NtRp3460
(dp3461
g64
(dp3462
sg73
g3456
sg66
(lp3463
g59
(g60
g61
NtRp3464
(dp3465
g64
(dp3466
g72
I2
ssg73
g3460
sg66
(lp3467
g59
(g68
g61
NtRp3468
(dp3469
g64
(dp3470
g72
I1
ssg73
Nsg66
(lp3471
g59
(g75
g61
NtRp3472
(dp3473
g64
(dp3474
sg73
g3468
sg66
(lp3475
g59
(g80
g61
NtRp3476
(dp3477
g64
(dp3478
sg73
g3472
sg66
(lp3479
g59
(g60
g61
NtRp3480
(dp3481
g64
(dp3482
g72
I1
ssg73
g3476
sg66
(lp3483
g3019
(S's\x08\x00\x00\x00Database'
tRp3484
asbasbasbag59
(g75
g61
NtRp3485
(dp3486
g64
(dp3487
sg73
g3468
sg66
(lp3488
g59
(g80
g61
NtRp3489
(dp3490
g64
(dp3491
sg73
g3485
sg66
(lp3492
g59
(g60
g61
NtRp3493
(dp3494
g64
(dp3495
g72
I1
ssg73
g3489
sg66
(lp3496
I00
asbasbasbag59
(g75
g61
NtRp3497
(dp3498
g64
(dp3499
sg73
g3468
sg66
(lp3500
g59
(g80
g61
NtRp3501
(dp3502
g64
(dp3503
sg73
g3497
sg66
(lp3504
g59
(g60
g61
NtRp3505
(dp3506
g64
(dp3507
g72
I1
ssg73
g3501
sg66
(lp3508
S'/201056161/appadmin/index'
p3509
asbasbasbasbasbasbasbag59
(g75
g61
NtRp3510
(dp3511
g64
(dp3512
sg73
g3128
sg66
(lp3513
g59
(g80
g61
NtRp3514
(dp3515
g64
(dp3516
sg73
g3510
sg66
(lp3517
g59
(g60
g61
NtRp3518
(dp3519
g64
(dp3520
g72
I2
ssg73
g3514
sg66
(lp3521
g59
(g68
g61
NtRp3522
(dp3523
g64
(dp3524
g72
I1
ssg73
Nsg66
(lp3525
g59
(g75
g61
NtRp3526
(dp3527
g64
(dp3528
sg73
g3522
sg66
(lp3529
g59
(g80
g61
NtRp3530
(dp3531
g64
(dp3532
sg73
g3526
sg66
(lp3533
g59
(g60
g61
NtRp3534
(dp3535
g64
(dp3536
g72
I1
ssg73
g3530
sg66
(lp3537
g3019
(S's\x06\x00\x00\x00Errors'
tRp3538
asbasbasbag59
(g75
g61
NtRp3539
(dp3540
g64
(dp3541
sg73
g3522
sg66
(lp3542
g59
(g80
g61
NtRp3543
(dp3544
g64
(dp3545
sg73
g3539
sg66
(lp3546
g59
(g60
g61
NtRp3547
(dp3548
g64
(dp3549
g72
I1
ssg73
g3543
sg66
(lp3550
I00
asbasbasbag59
(g75
g61
NtRp3551
(dp3552
g64
(dp3553
sg73
g3522
sg66
(lp3554
g59
(g80
g61
NtRp3555
(dp3556
g64
(dp3557
sg73
g3551
sg66
(lp3558
g59
(g60
g61
NtRp3559
(dp3560
g64
(dp3561
g72
I1
ssg73
g3555
sg66
(lp3562
S'/admin/default/errors/201056161'
p3563
asbasbasbasbasbasbasbag59
(g75
g61
NtRp3564
(dp3565
g64
(dp3566
sg73
g3128
sg66
(lp3567
g59
(g80
g61
NtRp3568
(dp3569
g64
(dp3570
sg73
g3564
sg66
(lp3571
g59
(g60
g61
NtRp3572
(dp3573
g64
(dp3574
g72
I2
ssg73
g3568
sg66
(lp3575
g59
(g68
g61
NtRp3576
(dp3577
g64
(dp3578
g72
I1
ssg73
Nsg66
(lp3579
g59
(g75
g61
NtRp3580
(dp3581
g64
(dp3582
sg73
g3576
sg66
(lp3583
g59
(g80
g61
NtRp3584
(dp3585
g64
(dp3586
sg73
g3580
sg66
(lp3587
g59
(g60
g61
NtRp3588
(dp3589
g64
(dp3590
g72
I1
ssg73
g3584
sg66
(lp3591
g3019
(S's\x05\x00\x00\x00About'
tRp3592
asbasbasbag59
(g75
g61
NtRp3593
(dp3594
g64
(dp3595
sg73
g3576
sg66
(lp3596
g59
(g80
g61
NtRp3597
(dp3598
g64
(dp3599
sg73
g3593
sg66
(lp3600
g59
(g60
g61
NtRp3601
(dp3602
g64
(dp3603
g72
I1
ssg73
g3597
sg66
(lp3604
I00
asbasbasbag59
(g75
g61
NtRp3605
(dp3606
g64
(dp3607
sg73
g3576
sg66
(lp3608
g59
(g80
g61
NtRp3609
(dp3610
g64
(dp3611
sg73
g3605
sg66
(lp3612
g59
(g60
g61
NtRp3613
(dp3614
g64
(dp3615
g72
I1
ssg73
g3609
sg66
(lp3616
S'/admin/default/about/201056161'
p3617
asbasbasbasbasbasbasbasbasbasbasbasbasbasbasbag59
(g75
g61
NtRp3618
(dp3619
g64
(dp3620
sg73
g2987
sg66
(lp3621
g59
(g80
g61
NtRp3622
(dp3623
g64
(dp3624
sg73
g3618
sg66
(lp3625
g59
(g60
g61
NtRp3626
(dp3627
g64
(dp3628
g72
I4
ssg73
g3622
sg66
(lp3629
g59
(g68
g61
NtRp3630
(dp3631
g64
(dp3632
g72
I3
ssg73
Nsg66
(lp3633
g59
(g75
g61
NtRp3634
(dp3635
g64
(dp3636
sg73
g3630
sg66
(lp3637
g59
(g80
g61
NtRp3638
(dp3639
g64
(dp3640
sg73
g3634
sg66
(lp3641
g59
(g60
g61
NtRp3642
(dp3643
g64
(dp3644
g72
I3
ssg73
g3638
sg66
(lp3645
g3019
(S's\t\x00\x00\x00Resources'
tRp3646
asbasbasbag59
(g75
g61
NtRp3647
(dp3648
g64
(dp3649
sg73
g3630
sg66
(lp3650
g59
(g80
g61
NtRp3651
(dp3652
g64
(dp3653
sg73
g3647
sg66
(lp3654
g59
(g60
g61
NtRp3655
(dp3656
g64
(dp3657
g72
I3
ssg73
g3651
sg66
(lp3658
g102
asbasbasbag59
(g75
g61
NtRp3659
(dp3660
g64
(dp3661
sg73
g3630
sg66
(lp3662
g59
(g80
g61
NtRp3663
(dp3664
g64
(dp3665
sg73
g3659
sg66
(lp3666
g59
(g60
g61
NtRp3667
(dp3668
g64
(dp3669
g72
I3
ssg73
g3663
sg66
(lp3670
S'None'
p3671
asbasbasbag59
(g75
g61
NtRp3672
(dp3673
g64
(dp3674
sg73
g3630
sg66
(lp3675
g59
(g80
g61
NtRp3676
(dp3677
g64
(dp3678
sg73
g3672
sg66
(lp3679
g59
(g60
g61
NtRp3680
(dp3681
g64
(dp3682
g72
I3
ssg73
g3676
sg66
(lp3683
g59
(g68
g61
NtRp3684
(dp3685
g64
(dp3686
g72
I2
ssg73
Nsg66
(lp3687
g59
(g75
g61
NtRp3688
(dp3689
g64
(dp3690
sg73
g3684
sg66
(lp3691
g59
(g80
g61
NtRp3692
(dp3693
g64
(dp3694
sg73
g3688
sg66
(lp3695
g59
(g60
g61
NtRp3696
(dp3697
g64
(dp3698
g72
I2
ssg73
g3692
sg66
(lp3699
g59
(g68
g61
NtRp3700
(dp3701
g64
(dp3702
g72
I1
ssg73
Nsg66
(lp3703
g59
(g75
g61
NtRp3704
(dp3705
g64
(dp3706
sg73
g3700
sg66
(lp3707
g59
(g80
g61
NtRp3708
(dp3709
g64
(dp3710
sg73
g3704
sg66
(lp3711
g59
(g60
g61
NtRp3712
(dp3713
g64
(dp3714
g72
I1
ssg73
g3708
sg66
(lp3715
g3019
(S's\r\x00\x00\x00Documentation'
tRp3716
asbasbasbag59
(g75
g61
NtRp3717
(dp3718
g64
(dp3719
sg73
g3700
sg66
(lp3720
g59
(g80
g61
NtRp3721
(dp3722
g64
(dp3723
sg73
g3717
sg66
(lp3724
g59
(g60
g61
NtRp3725
(dp3726
g64
(dp3727
g72
I1
ssg73
g3721
sg66
(lp3728
I00
asbasbasbag59
(g75
g61
NtRp3729
(dp3730
g64
(dp3731
sg73
g3700
sg66
(lp3732
g59
(g80
g61
NtRp3733
(dp3734
g64
(dp3735
sg73
g3729
sg66
(lp3736
g59
(g60
g61
NtRp3737
(dp3738
g64
(dp3739
g72
I1
ssg73
g3733
sg66
(lp3740
S'http://www.web2py.com/book'
p3741
asbasbasbag59
(g75
g61
NtRp3742
(dp3743
g64
(dp3744
sg73
g3700
sg66
(lp3745
g59
(g80
g61
NtRp3746
(dp3747
g64
(dp3748
sg73
g3742
sg66
(lp3749
g59
(g60
g61
NtRp3750
(dp3751
g64
(dp3752
g72
I1
ssg73
g3746
sg66
(lp3753
(lp3754
(g3019
(S's\x07\x00\x00\x00Preface'
tRp3755
I00
S'http://www.web2py.com/book/default/chapter/00'
tp3756
a(g3019
(S's\x0c\x00\x00\x00Introduction'
tRp3757
I00
S'http://www.web2py.com/book/default/chapter/01'
tp3758
a(g3019
(S's\x06\x00\x00\x00Python'
tRp3759
I00
S'http://www.web2py.com/book/default/chapter/02'
tp3760
a(g3019
(S's\x08\x00\x00\x00Overview'
tRp3761
I00
S'http://www.web2py.com/book/default/chapter/03'
tp3762
a(g3019
(S's\x08\x00\x00\x00The Core'
tRp3763
I00
S'http://www.web2py.com/book/default/chapter/04'
tp3764
a(g3019
(S's\t\x00\x00\x00The Views'
tRp3765
I00
S'http://www.web2py.com/book/default/chapter/05'
tp3766
a(g3019
(S's\x08\x00\x00\x00Database'
tRp3767
I00
S'http://www.web2py.com/book/default/chapter/06'
tp3768
a(g3019
(S's\x14\x00\x00\x00Forms and Validators'
tRp3769
I00
S'http://www.web2py.com/book/default/chapter/07'
tp3770
a(g3019
(S's\x0e\x00\x00\x00Access Control'
tRp3771
I00
S'http://www.web2py.com/book/default/chapter/08'
tp3772
a(g3019
(S's\x08\x00\x00\x00Services'
tRp3773
I00
S'http://www.web2py.com/book/default/chapter/09'
tp3774
a(g3019
(S's\x0c\x00\x00\x00Ajax Recipes'
tRp3775
I00
S'http://www.web2py.com/book/default/chapter/10'
tp3776
a(g3019
(S's\x12\x00\x00\x00Deployment Recipes'
tRp3777
I00
S'http://www.web2py.com/book/default/chapter/11'
tp3778
a(g3019
(S's\r\x00\x00\x00Other Recipes'
tRp3779
I00
S'http://www.web2py.com/book/default/chapter/12'
tp3780
a(g3019
(S's\r\x00\x00\x00Buy this book'
tRp3781
I00
S'http://stores.lulu.com/web2py'
tp3782
aasbasbasbasbasbasbasbag59
(g75
g61
NtRp3783
(dp3784
g64
(dp3785
sg73
g3684
sg66
(lp3786
g59
(g80
g61
NtRp3787
(dp3788
g64
(dp3789
sg73
g3783
sg66
(lp3790
g59
(g60
g61
NtRp3791
(dp3792
g64
(dp3793
g72
I2
ssg73
g3787
sg66
(lp3794
g59
(g68
g61
NtRp3795
(dp3796
g64
(dp3797
g72
I1
ssg73
Nsg66
(lp3798
g59
(g75
g61
NtRp3799
(dp3800
g64
(dp3801
sg73
g3795
sg66
(lp3802
g59
(g80
g61
NtRp3803
(dp3804
g64
(dp3805
sg73
g3799
sg66
(lp3806
g59
(g60
g61
NtRp3807
(dp3808
g64
(dp3809
g72
I1
ssg73
g3803
sg66
(lp3810
g3019
(S's\t\x00\x00\x00Community'
tRp3811
asbasbasbag59
(g75
g61
NtRp3812
(dp3813
g64
(dp3814
sg73
g3795
sg66
(lp3815
g59
(g80
g61
NtRp3816
(dp3817
g64
(dp3818
sg73
g3812
sg66
(lp3819
g59
(g60
g61
NtRp3820
(dp3821
g64
(dp3822
g72
I1
ssg73
g3816
sg66
(lp3823
I00
asbasbasbag59
(g75
g61
NtRp3824
(dp3825
g64
(dp3826
sg73
g3795
sg66
(lp3827
g59
(g80
g61
NtRp3828
(dp3829
g64
(dp3830
sg73
g3824
sg66
(lp3831
g59
(g60
g61
NtRp3832
(dp3833
g64
(dp3834
g72
I1
ssg73
g3828
sg66
(lp3835
Nasbasbasbag59
(g75
g61
NtRp3836
(dp3837
g64
(dp3838
sg73
g3795
sg66
(lp3839
g59
(g80
g61
NtRp3840
(dp3841
g64
(dp3842
sg73
g3836
sg66
(lp3843
g59
(g60
g61
NtRp3844
(dp3845
g64
(dp3846
g72
I1
ssg73
g3840
sg66
(lp3847
(lp3848
(g3019
(S's\x06\x00\x00\x00Groups'
tRp3849
I00
S'http://www.web2py.com/examples/default/usergroups'
tp3850
a(g3019
(S's\x07\x00\x00\x00Twitter'
tRp3851
I00
S'http://twitter.com/web2py'
tp3852
a(g3019
(S's\t\x00\x00\x00Live chat'
tRp3853
I00
S'http://mibbit.com/?channel=%23web2py&server=irc.mibbit.net'
tp3854
a(g3019
(S's\n\x00\x00\x00User Voice'
tRp3855
I00
S'http://web2py.uservoice.com/'
tp3856
aasbasbasbasbasbasbasbag59
(g75
g61
NtRp3857
(dp3858
g64
(dp3859
sg73
g3684
sg66
(lp3860
g59
(g80
g61
NtRp3861
(dp3862
g64
(dp3863
sg73
g3857
sg66
(lp3864
g59
(g60
g61
NtRp3865
(dp3866
g64
(dp3867
g72
I2
ssg73
g3861
sg66
(lp3868
g59
(g68
g61
NtRp3869
(dp3870
g64
(dp3871
g72
I1
ssg73
Nsg66
(lp3872
g59
(g75
g61
NtRp3873
(dp3874
g64
(dp3875
sg73
g3869
sg66
(lp3876
g59
(g80
g61
NtRp3877
(dp3878
g64
(dp3879
sg73
g3873
sg66
(lp3880
g59
(g60
g61
NtRp3881
(dp3882
g64
(dp3883
g72
I1
ssg73
g3877
sg66
(lp3884
g3019
(S's\x06\x00\x00\x00Web2py'
tRp3885
asbasbasbag59
(g75
g61
NtRp3886
(dp3887
g64
(dp3888
sg73
g3869
sg66
(lp3889
g59
(g80
g61
NtRp3890
(dp3891
g64
(dp3892
sg73
g3886
sg66
(lp3893
g59
(g60
g61
NtRp3894
(dp3895
g64
(dp3896
g72
I1
ssg73
g3890
sg66
(lp3897
I00
asbasbasbag59
(g75
g61
NtRp3898
(dp3899
g64
(dp3900
sg73
g3869
sg66
(lp3901
g59
(g80
g61
NtRp3902
(dp3903
g64
(dp3904
sg73
g3898
sg66
(lp3905
g59
(g60
g61
NtRp3906
(dp3907
g64
(dp3908
g72
I1
ssg73
g3902
sg66
(lp3909
S'http://www.web2py.com'
p3910
asbasbasbag59
(g75
g61
NtRp3911
(dp3912
g64
(dp3913
sg73
g3869
sg66
(lp3914
g59
(g80
g61
NtRp3915
(dp3916
g64
(dp3917
sg73
g3911
sg66
(lp3918
g59
(g60
g61
NtRp3919
(dp3920
g64
(dp3921
g72
I1
ssg73
g3915
sg66
(lp3922
(lp3923
(g3019
(S's\x08\x00\x00\x00Download'
tRp3924
I00
S'http://www.web2py.com/examples/default/download'
tp3925
a(g3019
(S's\x07\x00\x00\x00Support'
tRp3926
I00
S'http://www.web2py.com/examples/default/support'
tp3927
a(g3019
(S's\x0e\x00\x00\x00Quick Examples'
tRp3928
I00
S'http://web2py.com/examples/default/examples'
tp3929
a(g3019
(S's\x03\x00\x00\x00FAQ'
tRp3930
I00
S'http://web2py.com/AlterEgo'
tp3931
a(g3019
(S's\x11\x00\x00\x00Free Applications'
tRp3932
I00
S'http://web2py.com/appliances'
tp3933
a(g3019
(S's\x07\x00\x00\x00Plugins'
tRp3934
I00
S'http://web2py.com/plugins'
tp3935
a(g3019
(S's\x07\x00\x00\x00Recipes'
tRp3936
I00
S'http://web2pyslices.com/'
tp3937
a(g3019
(S's\x04\x00\x00\x00Demo'
tRp3938
I00
S'http://web2py.com/demo_admin'
tp3939
a(g3019
(S's\x08\x00\x00\x00Semantic'
tRp3940
I00
S'http://web2py.com/semantic'
tp3941
a(g3019
(S's\x07\x00\x00\x00Layouts'
tRp3942
I00
S'http://web2py.com/layouts'
tp3943
a(g3019
(S's\x06\x00\x00\x00Videos'
tRp3944
I00
S'http://www.web2py.com/examples/default/videos/'
tp3945
aasbasbasbasbasbasbasbasbasbasbasbasbasbasbasbasbasbasbasbag59
(g75
g61
NtRp3946
(dp3947
g64
(dp3948
sg73
g2534
sg66
(lp3949
g59
(g80
g61
NtRp3950
(dp3951
g64
(dp3952
g84
g85
ssg73
g3946
sg66
(lp3953
S'meta'
p3954
asbag59
(g80
g61
NtRp3955
(dp3956
g64
(dp3957
g91
g92
ssg73
g3946
sg66
(lp3958
S':'
asbag59
(g80
g61
NtRp3959
(dp3960
g64
(dp3961
sg73
g3946
sg66
(lp3962
g59
(g60
g61
NtRp3963
(dp3964
g64
(dp3965
g72
I5
ssg73
g3959
sg66
(lp3966
g59
(g68
g61
NtRp3967
(dp3968
g64
(dp3969
g72
I4
ssg73
Nsg66
(lp3970
g59
(g75
g61
NtRp3971
(dp3972
g64
(dp3973
sg73
g3967
sg66
(lp3974
g59
(g80
g61
NtRp3975
(dp3976
g64
(dp3977
g84
g85
ssg73
g3971
sg66
(lp3978
S'author'
p3979
asbag59
(g80
g61
NtRp3980
(dp3981
g64
(dp3982
g91
g92
ssg73
g3971
sg66
(lp3983
S':'
asbag59
(g80
g61
NtRp3984
(dp3985
g64
(dp3986
sg73
g3971
sg66
(lp3987
g59
(g60
g61
NtRp3988
(dp3989
g64
(dp3990
g72
I4
ssg73
g3984
sg66
(lp3991
S'you'
p3992
asbasbasbag59
(g75
g61
NtRp3993
(dp3994
g64
(dp3995
sg73
g3967
sg66
(lp3996
g59
(g80
g61
NtRp3997
(dp3998
g64
(dp3999
g84
g85
ssg73
g3993
sg66
(lp4000
S'copyright'
p4001
asbag59
(g80
g61
NtRp4002
(dp4003
g64
(dp4004
g91
g92
ssg73
g3993
sg66
(lp4005
S':'
asbag59
(g80
g61
NtRp4006
(dp4007
g64
(dp4008
sg73
g3993
sg66
(lp4009
g59
(g60
g61
NtRp4010
(dp4011
g64
(dp4012
g72
I4
ssg73
g4006
sg66
(lp4013
S'Copyright 2007-2010'
p4014
asbasbasbag59
(g75
g61
NtRp4015
(dp4016
g64
(dp4017
sg73
g3967
sg66
(lp4018
g59
(g80
g61
NtRp4019
(dp4020
g64
(dp4021
g84
g85
ssg73
g4015
sg66
(lp4022
S'description'
p4023
asbag59
(g80
g61
NtRp4024
(dp4025
g64
(dp4026
g91
g92
ssg73
g4015
sg66
(lp4027
S':'
asbag59
(g80
g61
NtRp4028
(dp4029
g64
(dp4030
sg73
g4015
sg66
(lp4031
g59
(g60
g61
NtRp4032
(dp4033
g64
(dp4034
g72
I4
ssg73
g4028
sg66
(lp4035
S'Free and open source full-stack enterprise framework for agile development of fast, scalable, secure and portable database-driven web-based applications. Written and programmable in Python'
p4036
asbasbasbag59
(g75
g61
NtRp4037
(dp4038
g64
(dp4039
sg73
g3967
sg66
(lp4040
g59
(g80
g61
NtRp4041
(dp4042
g64
(dp4043
g84
g85
ssg73
g4037
sg66
(lp4044
S'generator'
p4045
asbag59
(g80
g61
NtRp4046
(dp4047
g64
(dp4048
g91
g92
ssg73
g4037
sg66
(lp4049
S':'
asbag59
(g80
g61
NtRp4050
(dp4051
g64
(dp4052
sg73
g4037
sg66
(lp4053
g59
(g60
g61
NtRp4054
(dp4055
g64
(dp4056
g72
I4
ssg73
g4050
sg66
(lp4057
S'Web2py Enterprise Framework'
p4058
asbasbasbag59
(g75
g61
NtRp4059
(dp4060
g64
(dp4061
sg73
g3967
sg66
(lp4062
g59
(g80
g61
NtRp4063
(dp4064
g64
(dp4065
g84
g85
ssg73
g4059
sg66
(lp4066
S'keywords'
p4067
asbag59
(g80
g61
NtRp4068
(dp4069
g64
(dp4070
g91
g92
ssg73
g4059
sg66
(lp4071
S':'
asbag59
(g80
g61
NtRp4072
(dp4073
g64
(dp4074
sg73
g4059
sg66
(lp4075
g59
(g60
g61
NtRp4076
(dp4077
g64
(dp4078
g72
I4
ssg73
g4072
sg66
(lp4079
S'web2py, python, framework'
p4080
asbasbasbasbasbasbasbag59
(g75
g61
NtRp4081
(dp4082
g64
(dp4083
sg73
g2534
sg66
(lp4084
g59
(g80
g61
NtRp4085
(dp4086
g64
(dp4087
g84
g85
ssg73
g4081
sg66
(lp4088
S'postprocessing'
p4089
asbag59
(g80
g61
NtRp4090
(dp4091
g64
(dp4092
g91
g92
ssg73
g4081
sg66
(lp4093
S':'
asbag59
(g80
g61
NtRp4094
(dp4095
g64
(dp4096
sg73
g4081
sg66
(lp4097
g59
(g60
g61
NtRp4098
(dp4099
g64
(dp4100
g72
I5
ssg73
g4094
sg66
(lp4101
g59
(g68
g61
NtRp4102
(dp4103
g64
(dp4104
g72
I4
ssg73
Nsg66
(lp4105
sbasbasbasbag59
(g75
g61
NtRp4106
(dp4107
g64
(dp4108
sg73
g2534
sg66
(lp4109
g59
(g80
g61
NtRp4110
(dp4111
g64
(dp4112
g84
g85
ssg73
g4106
sg66
(lp4113
S'session_filename'
p4114
asbag59
(g80
g61
NtRp4115
(dp4116
g64
(dp4117
g91
g92
ssg73
g4106
sg66
(lp4118
S':'
asbag59
(g80
g61
NtRp4119
(dp4120
g64
(dp4121
sg73
g4106
sg66
(lp4122
g59
(g60
g61
NtRp4123
(dp4124
g64
(dp4125
g72
I5
ssg73
g4119
sg66
(lp4126
S'C:\\Users\\AKSHAY\\Desktop\\web2py\\applications\\201056161\\sessions\\127.0.0.1-7d70c8dc-611b-40b7-805e-367cfbb4b2be'
p4127
asbasbasbag59
(g75
g61
NtRp4128
(dp4129
g64
(dp4130
sg73
g2534
sg66
(lp4131
g59
(g80
g61
NtRp4132
(dp4133
g64
(dp4134
g84
g85
ssg73
g4128
sg66
(lp4135
S'session_id'
p4136
asbag59
(g80
g61
NtRp4137
(dp4138
g64
(dp4139
g91
g92
ssg73
g4128
sg66
(lp4140
S':'
asbag59
(g80
g61
NtRp4141
(dp4142
g64
(dp4143
sg73
g4128
sg66
(lp4144
g59
(g60
g61
NtRp4145
(dp4146
g64
(dp4147
g72
I5
ssg73
g4141
sg66
(lp4148
S'127.0.0.1-7d70c8dc-611b-40b7-805e-367cfbb4b2be'
p4149
asbasbasbag59
(g75
g61
NtRp4150
(dp4151
g64
(dp4152
sg73
g2534
sg66
(lp4153
g59
(g80
g61
NtRp4154
(dp4155
g64
(dp4156
g84
g85
ssg73
g4150
sg66
(lp4157
S'session_id_name'
p4158
asbag59
(g80
g61
NtRp4159
(dp4160
g64
(dp4161
g91
g92
ssg73
g4150
sg66
(lp4162
S':'
asbag59
(g80
g61
NtRp4163
(dp4164
g64
(dp4165
sg73
g4150
sg66
(lp4166
g59
(g60
g61
NtRp4167
(dp4168
g64
(dp4169
g72
I5
ssg73
g4163
sg66
(lp4170
g2591
asbasbasbag59
(g75
g61
NtRp4171
(dp4172
g64
(dp4173
sg73
g2534
sg66
(lp4174
g59
(g80
g61
NtRp4175
(dp4176
g64
(dp4177
g84
g85
ssg73
g4171
sg66
(lp4178
S'session_new'
p4179
asbag59
(g80
g61
NtRp4180
(dp4181
g64
(dp4182
g91
g92
ssg73
g4171
sg66
(lp4183
S':'
asbag59
(g80
g61
NtRp4184
(dp4185
g64
(dp4186
sg73
g4171
sg66
(lp4187
g59
(g60
g61
NtRp4188
(dp4189
g64
(dp4190
g72
I5
ssg73
g4184
sg66
(lp4191
g1511
asbasbasbag59
(g75
g61
NtRp4192
(dp4193
g64
(dp4194
sg73
g2534
sg66
(lp4195
g59
(g80
g61
NtRp4196
(dp4197
g64
(dp4198
g84
g85
ssg73
g4192
sg66
(lp4199
S'status'
p4200
asbag59
(g80
g61
NtRp4201
(dp4202
g64
(dp4203
g91
g92
ssg73
g4192
sg66
(lp4204
S':'
asbag59
(g80
g61
NtRp4205
(dp4206
g64
(dp4207
sg73
g4192
sg66
(lp4208
g59
(g60
g61
NtRp4209
(dp4210
g64
(dp4211
g72
I5
ssg73
g4205
sg66
(lp4212
S'200'
p4213
asbasbasbag59
(g75
g61
NtRp4214
(dp4215
g64
(dp4216
sg73
g2534
sg66
(lp4217
g59
(g80
g61
NtRp4218
(dp4219
g64
(dp4220
g84
g85
ssg73
g4214
sg66
(lp4221
S'subtitle'
p4222
asbag59
(g80
g61
NtRp4223
(dp4224
g64
(dp4225
g91
g92
ssg73
g4214
sg66
(lp4226
S':'
asbag59
(g80
g61
NtRp4227
(dp4228
g64
(dp4229
sg73
g4214
sg66
(lp4230
g59
(g60
g61
NtRp4231
(dp4232
g64
(dp4233
g72
I5
ssg73
g4227
sg66
(lp4234
g3019
(S's\r\x00\x00\x00customize me!'
tRp4235
asbasbasbag59
(g75
g61
NtRp4236
(dp4237
g64
(dp4238
sg73
g2534
sg66
(lp4239
g59
(g80
g61
NtRp4240
(dp4241
g64
(dp4242
g84
g85
ssg73
g4236
sg66
(lp4243
S'title'
p4244
asbag59
(g80
g61
NtRp4245
(dp4246
g64
(dp4247
g91
g92
ssg73
g4236
sg66
(lp4248
S':'
asbag59
(g80
g61
NtRp4249
(dp4250
g64
(dp4251
sg73
g4236
sg66
(lp4252
g59
(g60
g61
NtRp4253
(dp4254
g64
(dp4255
g72
I5
ssg73
g4249
sg66
(lp4256
g124
asbasbasbag59
(g75
g61
NtRp4257
(dp4258
g64
(dp4259
sg73
g2534
sg66
(lp4260
g59
(g80
g61
NtRp4261
(dp4262
g64
(dp4263
g84
g85
ssg73
g4257
sg66
(lp4264
g1835
asbag59
(g80
g61
NtRp4265
(dp4266
g64
(dp4267
g91
g92
ssg73
g4257
sg66
(lp4268
S':'
asbag59
(g80
g61
NtRp4269
(dp4270
g64
(dp4271
sg73
g4257
sg66
(lp4272
g59
(g60
g61
NtRp4273
(dp4274
g64
(dp4275
g72
I5
ssg73
g4269
sg66
(lp4276
g1848
asbasbasbag59
(g75
g61
NtRp4277
(dp4278
g64
(dp4279
sg73
g2534
sg66
(lp4280
g59
(g80
g61
NtRp4281
(dp4282
g64
(dp4283
g84
g85
ssg73
g4277
sg66
(lp4284
S'view'
p4285
asbag59
(g80
g61
NtRp4286
(dp4287
g64
(dp4288
g91
g92
ssg73
g4277
sg66
(lp4289
S':'
asbag59
(g80
g61
NtRp4290
(dp4291
g64
(dp4292
sg73
g4277
sg66
(lp4293
g59
(g60
g61
NtRp4294
(dp4295
g64
(dp4296
g72
I5
ssg73
g4290
sg66
(lp4297
S'default/index.html'
p4298
asbasbasbasbasbsS'locals'
p4299
(dp4300
g3
S"r'C:\\Users\\AKSHAY\\Desktop\\web2py\\applications\\201056161\\views\\default/index.html'"
p4301
sg5
S'\'response.write(\\\'<!DOCTYPE html>\\\\n<html lang="\\\', ...t   -->    \\\\n  </body>\\\\n</html>\\\\n\\\', escape=False)\''
p4302
sssS'traceback'
p4303
S'Traceback (most recent call last):\n  File "gluon/restricted.py", line 191, in restricted\n  File "gluon/restricted.py", line 178, in compile2\n  File "C:\\Users\\AKSHAY\\Desktop\\web2py\\applications\\201056161\\views\\default/index.html", line 102\n    response.write(\'\\r\\n\\r\\n\', escape=False)\n           ^\nSyntaxError: invalid syntax\n'
p4304
s.