(dp1
S'output'
p2
S''
sS'layer'
p3
S'C:\\Users\\AKSHAY\\Desktop\\web2py\\applications\\201056161\\controllers/default.py'
p4
sS'code'
p5
S'# -*- coding: utf-8 -*-\n# this file is released under public domain and you can use without limitations\n\n#########################################################################\n## This is a samples controller\n## - index is the default action of any application\n## - user is required for authentication and authorization\n## - download is for downloading files uploaded in the db (does streaming)\n## - call exposes all registered services (none by default)\n#########################################################################\n\ndef index():\n    return dict()\n\ndef user():\n    """\n    exposes:\n    http://..../[app]/default/user/login\n    http://..../[app]/default/user/logout\n    http://..../[app]/default/user/register\n    http://..../[app]/default/user/profile\n    http://..../[app]/default/user/retrieve_password\n    http://..../[app]/default/user/change_password\n    use @auth.requires_login()\n        @auth.requires_membership(\'group name\')\n        @auth.requires_permission(\'read\',\'table name\',record_id)\n    to decorate functions that need access control\n    """\n    return dict(form=auth())\n\n\ndef download():\n    """\n    allows downloading of uploaded files\n    http://..../[app]/default/download/[filename]\n    """\n    return response.download(request,db)\n\n\ndef call():\n    """\n    exposes services. for example:\n    http://..../[app]/default/call/jsonrpc\n    decorate with @services.jsonrpc the functions to expose\n    supports xml, json, xmlrpc, jsonrpc, amfrpc, rss, csv\n    """\n    return service()\n\n\n@auth.requires_signature()\ndef data():\n    """\n    http://..../[app]/default/data/tables\n    http://..../[app]/default/data/create/[table]\n    http://..../[app]/default/data/read/[table]/[id]\n    http://..../[app]/default/data/update/[table]/[id]\n    http://..../[app]/default/data/delete/[table]/[id[\n    http://..../[app]/default/data/select/[table]\n    http://..../[app]/default/data/search/[table]\n    but URLs bust be signed, i.e. linked with\n      A(\'table\',_href=URL(\'data/tables\',user_signature=True))\n    or with the signed load operator\n      LOAD(\'default\',\'data.load\',args=\'tables\',ajax=True,user_signature=True)\n    """\n    return dict(form=crud())\ndef q1f():\n#  form=SQLFORM.factory(db.Field(\'id\',db.artist,requires=IS_IN_DB(db,\'artist.id\'),required=True,label=\'Select Singer id\'))#  form=SQLFORM(db.query) #form=FORM(INPUT(_name=\'singer\',requires=IS_NOT_EMPTY()),INPUT(_type=\'submit\')) #\n  form = SQLFORM.factory(db.Field(\'idn\',db.artist,requires=IS_IN_DB(db,\'artist.id\',\'artist.id\'),label=\'Select id of Artist\'))\n  if form.accepts(request.vars,session):\n    redirect(URL(r=request, f=\'q1s?idn=\'+form.vars.idn))\n  elif form.errors:\n    response.flash=\'Errors in form Please re-enter\'\n  return dict(form=form)  \ndef q1s():\n  sname = int(request.vars.idn)\n  rows=db(db.song.singer==sname).select(db.song.name)\n  """count=1\n  for row in rows:\n    count+=1\n    if count==2:\n      snames=str(row.artist_name)\n  rows1=db(db.song.singer is snames).select(db.song.name)"""\n  return dict(rows=rows)\ndef q2f():\n  form = SQLFORM.factory(db.Field(\'namen\',db.artist,requires=IS_IN_DB(db,\'artist.id\',\'artist.artist_name\'),label=\'Select artist name\'))\n  if form.accepts(request.vars,session):\n    redirect(URL(r=request, f=\'q2s?namen=\'+form.vars.namen))\n  elif form.errors:\n    response.flash=\'Errors in form Please re-enter\'\n  return dict(form=form)  \ndef q2s():\n  sname=str(request.vars.namen)\n  #here whatever be always sname will be referred by id ! \n  rows=db(db.song.singer==sname).select(db.song.name)\n  return dict(rows=rows)\ndef q3f():\n  form = SQLFORM.factory(db.Field(\'namen\',db.artist,requires=IS_IN_DB(db,\'artist.id\',\'artist.artist_name\'),label=\'Select Artist\'),\n                         db.Field(\'movien\',db.movie,requires=IS_IN_DB(db,\'movie.id\',\'movie.name\'),label=\'Select movie\'))\n  if form.accepts(request.vars,session):\n    redirect(URL(r=request, f=\'q3s?namen=\'+form.vars.namen+\'&movien=\'+form.vars.movien))\n  elif form.errors:\n    response.flash=\'Errors in form Please re-enter\'\n  return dict(form=form)                         \ndef q3s():\n  sname=str(request.vars.namen)\n  movien=str(request.vars.movien)\n  rows=db((db.song.singer==sname) & (db.song.movie==movien)).select(db.song.name)\n  return dict(rows=rows)\ndef q4f():\n  form = SQLFORM.factory(db.Field(\'namen\',db.artist,requires=IS_IN_DB(db,\'artist.id\',\'artist.artist_name\'),label=\'Select Artist\'),\n                         db.Field(\'yearbe\',db.movie,label=\'Select year before\'))\n  if form.accepts(request.vars,session):\n    redirect(URL(r=request, f=\'q4s?namen=\'+form.vars.namen+\'&yearbe=\'+form.vars.yearbe))\n  elif form.errors:\n    response.flash=\'Errors in form Please re-enter\'\n  return dict(form=form)\ndef q4s():\n  import datetime\n  sname=str(request.vars.namen)\n  yearbe=int(request.vars.yearbe)\n  rows=db((db.song.singer==sname) & (db.movie.release_date<datetime.date(yearbe,1,1))).select(db.song.name,db.song.singing_actor)\n  return dict(rows=rows)\ndef q5f():\n  form = SQLFORM.factory(db.Field(\'namen\',db.rating,requires=IS_IN_DB(db,\'song.id\',\'song.name\'),label=\'Select song name to check if rating is more than 4\'))\n  if form.accepts(request.vars,session):\n    redirect(URL(r=request, f=\'q5s?namen=\'+form.vars.namen))\n  elif form.errors:\n    response.flash=\'Errors in form Please re-enter\'\n  return dict(form=form)\ndef q5s():\n  sname=int(request.vars.namen)\n  rows=db(db.rating.song_n==sname).select(db.rating.ratingn)\n  count=0\n  sum=0\n  for row in rows:\n    count+=1\n    sum+=int(row.ratingn)\n  if count:  \n    avg=sum/count\n  return dict(avg=avg)\ndef insong():\n  form = SQLFORM(db.song)\n  if form.accepts(request.vars,session):\n      #redirect(URL(r=request, f=\'student_details?rollno=%d\' % form.vars.rollno))\n      response.flash=\'New Song Record Inserted\'\n  elif form.errors:\n      response.flash=\'Errors in form\'\n  return dict(form=form)\ndef new():\n  form = SQLFORM.factory(db.Field(\'namen\',db.artist,requires=IS_IN_DB(db,\'artist.id\',\'artist.artist_name\'),label=\'Select Artist\'),\n                         db.Field(\'movien\',db.movie,requires=IS_NULL_OR(IS_IN_DB(db,\'movie.id\',\'movie.name\'),label=\'Select movie\')))\n  if form.accepts(request.vars,session):\n    redirect(URL(r=request, f=\'new2?namen=\'+form.vars.namen+\'&movien=\'+form.vars.movien))\n  elif form.errors:\n    response.flash=\'Errors in form Please re-enter\'\n  return dict(form=form)     \ndef new2():\n  if request.vars.movien==NULL:\n    sname=str(request.vars.namen)\n    #here whatever be always sname will be referred by id ! \n    rows=db(db.song.singer==sname).select(db.song.name)\n    return dict(rows=rows)\n  else:\n    sname=str(request.vars.namen)\n    movien=str(request.vars.movien)\n    rows=db((db.song.singer==sname) & (db.song.movie==movien)).select(db.song.name)\n    return dict(rows=rows)\n\nresponse._vars=response._caller(new)\n'
p6
sS'snapshot'
p7
(dp8
S'exception'
p9
(dp10
S'__hash__'
p11
S"<method-wrapper '__hash__' of exceptions.TypeError object at 0x0688FFA8>"
p12
sS'__setattr__'
p13
S"<method-wrapper '__setattr__' of exceptions.TypeError object at 0x0688FFA8>"
p14
sS'__reduce_ex__'
p15
S'<built-in method __reduce_ex__ of exceptions.TypeError object at 0x0688FFA8>'
p16
sS'__getslice__'
p17
S"<method-wrapper '__getslice__' of exceptions.TypeError object at 0x0688FFA8>"
p18
sS'__getitem__'
p19
S"<method-wrapper '__getitem__' of exceptions.TypeError object at 0x0688FFA8>"
p20
sS'__setstate__'
p21
S'<built-in method __setstate__ of exceptions.TypeError object at 0x0688FFA8>'
p22
sS'__reduce__'
p23
S'<built-in method __reduce__ of exceptions.TypeError object at 0x0688FFA8>'
p24
sS'__str__'
p25
S"<method-wrapper '__str__' of exceptions.TypeError object at 0x0688FFA8>"
p26
sS'args'
p27
S'("__init__() got an unexpected keyword argument \'label\'",)'
p28
sS'__getattribute__'
p29
S"<method-wrapper '__getattribute__' of exceptions.TypeError object at 0x0688FFA8>"
p30
sS'__class__'
p31
S"<type 'exceptions.TypeError'>"
p32
sS'__delattr__'
p33
S"<method-wrapper '__delattr__' of exceptions.TypeError object at 0x0688FFA8>"
p34
sS'__repr__'
p35
S"<method-wrapper '__repr__' of exceptions.TypeError object at 0x0688FFA8>"
p36
sS'__dict__'
p37
S'{}'
p38
sS'__doc__'
p39
S"'Inappropriate argument type.'"
p40
sS'__init__'
p41
S"<method-wrapper '__init__' of exceptions.TypeError object at 0x0688FFA8>"
p42
sS'__new__'
p43
S'<built-in method __new__ of type object at 0x1E1CCD78>'
p44
ssS'evalue'
p45
S"__init__() got an unexpected keyword argument 'label'"
p46
sS'request'
p47
ccopy_reg
_reconstructor
p48
(cgluon.html
BEAUTIFY
p49
c__builtin__
object
p50
NtRp51
(dp52
S'attributes'
p53
(dp54
sS'components'
p55
(lp56
g48
(cgluon.html
TABLE
p57
g50
NtRp58
(dp59
g53
(dp60
S'level'
p61
I5
ssS'parent'
p62
Nsg55
(lp63
g48
(cgluon.html
TR
p64
g50
NtRp65
(dp66
g53
(dp67
sg62
g58
sg55
(lp68
g48
(cgluon.html
TD
p69
g50
NtRp70
(dp71
g53
(dp72
S'_style'
p73
S'font-weight:bold;'
p74
ssg62
g65
sg55
(lp75
S'ajax'
p76
asbag48
(g69
g50
NtRp77
(dp78
g53
(dp79
S'_valign'
p80
S'top'
p81
ssg62
g65
sg55
(lp82
S':'
asbag48
(g69
g50
NtRp83
(dp84
g53
(dp85
sg62
g65
sg55
(lp86
g48
(g49
g50
NtRp87
(dp88
g53
(dp89
g61
I5
ssg62
g83
sg55
(lp90
S'False'
p91
asbasbasbag48
(g64
g50
NtRp92
(dp93
g53
(dp94
sg62
g58
sg55
(lp95
g48
(g69
g50
NtRp96
(dp97
g53
(dp98
g73
g74
ssg62
g92
sg55
(lp99
S'application'
p100
asbag48
(g69
g50
NtRp101
(dp102
g53
(dp103
g80
g81
ssg62
g92
sg55
(lp104
S':'
asbag48
(g69
g50
NtRp105
(dp106
g53
(dp107
sg62
g92
sg55
(lp108
g48
(g49
g50
NtRp109
(dp110
g53
(dp111
g61
I5
ssg62
g105
sg55
(lp112
S'201056161'
p113
asbasbasbag48
(g64
g50
NtRp114
(dp115
g53
(dp116
sg62
g58
sg55
(lp117
g48
(g69
g50
NtRp118
(dp119
g53
(dp120
g73
g74
ssg62
g114
sg55
(lp121
g27
asbag48
(g69
g50
NtRp122
(dp123
g53
(dp124
g80
g81
ssg62
g114
sg55
(lp125
S':'
asbag48
(g69
g50
NtRp126
(dp127
g53
(dp128
sg62
g114
sg55
(lp129
g48
(g49
g50
NtRp130
(dp131
g53
(dp132
g61
I5
ssg62
g126
sg55
(lp133
g48
(g57
g50
NtRp134
(dp135
g53
(dp136
g61
I4
ssg62
Nsg55
(lp137
sbasbasbasbag48
(g64
g50
NtRp138
(dp139
g53
(dp140
sg62
g58
sg55
(lp141
g48
(g69
g50
NtRp142
(dp143
g53
(dp144
g73
g74
ssg62
g138
sg55
(lp145
S'body'
p146
asbag48
(g69
g50
NtRp147
(dp148
g53
(dp149
g80
g81
ssg62
g138
sg55
(lp150
S':'
asbag48
(g69
g50
NtRp151
(dp152
g53
(dp153
sg62
g138
sg55
(lp154
g48
(g49
g50
NtRp155
(dp156
g53
(dp157
g61
I5
ssg62
g151
sg55
(lp158
S'<cStringIO.StringO object at 0x06E77100>'
p159
asbasbasbag48
(g64
g50
NtRp160
(dp161
g53
(dp162
sg62
g58
sg55
(lp163
g48
(g69
g50
NtRp164
(dp165
g53
(dp166
g73
g74
ssg62
g160
sg55
(lp167
S'client'
p168
asbag48
(g69
g50
NtRp169
(dp170
g53
(dp171
g80
g81
ssg62
g160
sg55
(lp172
S':'
asbag48
(g69
g50
NtRp173
(dp174
g53
(dp175
sg62
g160
sg55
(lp176
g48
(g49
g50
NtRp177
(dp178
g53
(dp179
g61
I5
ssg62
g173
sg55
(lp180
S'127.0.0.1'
p181
asbasbasbag48
(g64
g50
NtRp182
(dp183
g53
(dp184
sg62
g58
sg55
(lp185
g48
(g69
g50
NtRp186
(dp187
g53
(dp188
g73
g74
ssg62
g182
sg55
(lp189
S'controller'
p190
asbag48
(g69
g50
NtRp191
(dp192
g53
(dp193
g80
g81
ssg62
g182
sg55
(lp194
S':'
asbag48
(g69
g50
NtRp195
(dp196
g53
(dp197
sg62
g182
sg55
(lp198
g48
(g49
g50
NtRp199
(dp200
g53
(dp201
g61
I5
ssg62
g195
sg55
(lp202
S'default'
p203
asbasbasbag48
(g64
g50
NtRp204
(dp205
g53
(dp206
sg62
g58
sg55
(lp207
g48
(g69
g50
NtRp208
(dp209
g53
(dp210
g73
g74
ssg62
g204
sg55
(lp211
S'cookies'
p212
asbag48
(g69
g50
NtRp213
(dp214
g53
(dp215
g80
g81
ssg62
g204
sg55
(lp216
S':'
asbag48
(g69
g50
NtRp217
(dp218
g53
(dp219
sg62
g204
sg55
(lp220
g48
(g49
g50
NtRp221
(dp222
g53
(dp223
g61
I5
ssg62
g217
sg55
(lp224
g48
(g57
g50
NtRp225
(dp226
g53
(dp227
g61
I4
ssg62
Nsg55
(lp228
g48
(g64
g50
NtRp229
(dp230
g53
(dp231
sg62
g225
sg55
(lp232
g48
(g69
g50
NtRp233
(dp234
g53
(dp235
g73
g74
ssg62
g229
sg55
(lp236
S'session_id_201056161'
p237
asbag48
(g69
g50
NtRp238
(dp239
g53
(dp240
g80
g81
ssg62
g229
sg55
(lp241
S':'
asbag48
(g69
g50
NtRp242
(dp243
g53
(dp244
sg62
g229
sg55
(lp245
g48
(g49
g50
NtRp246
(dp247
g53
(dp248
g61
I4
ssg62
g242
sg55
(lp249
g48
(g57
g50
NtRp250
(dp251
g53
(dp252
g61
I3
ssg62
Nsg55
(lp253
g48
(g64
g50
NtRp254
(dp255
g53
(dp256
sg62
g250
sg55
(lp257
g48
(g69
g50
NtRp258
(dp259
g53
(dp260
g73
g74
ssg62
g254
sg55
(lp261
S'comment'
p262
asbag48
(g69
g50
NtRp263
(dp264
g53
(dp265
g80
g81
ssg62
g254
sg55
(lp266
S':'
asbag48
(g69
g50
NtRp267
(dp268
g53
(dp269
sg62
g254
sg55
(lp270
g48
(g49
g50
NtRp271
(dp272
g53
(dp273
g61
I3
ssg62
g267
sg55
(lp274
S''
asbasbasbag48
(g64
g50
NtRp275
(dp276
g53
(dp277
sg62
g250
sg55
(lp278
g48
(g69
g50
NtRp279
(dp280
g53
(dp281
g73
g74
ssg62
g275
sg55
(lp282
S'domain'
p283
asbag48
(g69
g50
NtRp284
(dp285
g53
(dp286
g80
g81
ssg62
g275
sg55
(lp287
S':'
asbag48
(g69
g50
NtRp288
(dp289
g53
(dp290
sg62
g275
sg55
(lp291
g48
(g49
g50
NtRp292
(dp293
g53
(dp294
g61
I3
ssg62
g288
sg55
(lp295
S''
asbasbasbag48
(g64
g50
NtRp296
(dp297
g53
(dp298
sg62
g250
sg55
(lp299
g48
(g69
g50
NtRp300
(dp301
g53
(dp302
g73
g74
ssg62
g296
sg55
(lp303
S'expires'
p304
asbag48
(g69
g50
NtRp305
(dp306
g53
(dp307
g80
g81
ssg62
g296
sg55
(lp308
S':'
asbag48
(g69
g50
NtRp309
(dp310
g53
(dp311
sg62
g296
sg55
(lp312
g48
(g49
g50
NtRp313
(dp314
g53
(dp315
g61
I3
ssg62
g309
sg55
(lp316
S''
asbasbasbag48
(g64
g50
NtRp317
(dp318
g53
(dp319
sg62
g250
sg55
(lp320
g48
(g69
g50
NtRp321
(dp322
g53
(dp323
g73
g74
ssg62
g317
sg55
(lp324
S'max-age'
p325
asbag48
(g69
g50
NtRp326
(dp327
g53
(dp328
g80
g81
ssg62
g317
sg55
(lp329
S':'
asbag48
(g69
g50
NtRp330
(dp331
g53
(dp332
sg62
g317
sg55
(lp333
g48
(g49
g50
NtRp334
(dp335
g53
(dp336
g61
I3
ssg62
g330
sg55
(lp337
S''
asbasbasbag48
(g64
g50
NtRp338
(dp339
g53
(dp340
sg62
g250
sg55
(lp341
g48
(g69
g50
NtRp342
(dp343
g53
(dp344
g73
g74
ssg62
g338
sg55
(lp345
S'path'
p346
asbag48
(g69
g50
NtRp347
(dp348
g53
(dp349
g80
g81
ssg62
g338
sg55
(lp350
S':'
asbag48
(g69
g50
NtRp351
(dp352
g53
(dp353
sg62
g338
sg55
(lp354
g48
(g49
g50
NtRp355
(dp356
g53
(dp357
g61
I3
ssg62
g351
sg55
(lp358
S''
asbasbasbag48
(g64
g50
NtRp359
(dp360
g53
(dp361
sg62
g250
sg55
(lp362
g48
(g69
g50
NtRp363
(dp364
g53
(dp365
g73
g74
ssg62
g359
sg55
(lp366
S'secure'
p367
asbag48
(g69
g50
NtRp368
(dp369
g53
(dp370
g80
g81
ssg62
g359
sg55
(lp371
S':'
asbag48
(g69
g50
NtRp372
(dp373
g53
(dp374
sg62
g359
sg55
(lp375
g48
(g49
g50
NtRp376
(dp377
g53
(dp378
g61
I3
ssg62
g372
sg55
(lp379
S''
asbasbasbag48
(g64
g50
NtRp380
(dp381
g53
(dp382
sg62
g250
sg55
(lp383
g48
(g69
g50
NtRp384
(dp385
g53
(dp386
g73
g74
ssg62
g380
sg55
(lp387
S'version'
p388
asbag48
(g69
g50
NtRp389
(dp390
g53
(dp391
g80
g81
ssg62
g380
sg55
(lp392
S':'
asbag48
(g69
g50
NtRp393
(dp394
g53
(dp395
sg62
g380
sg55
(lp396
g48
(g49
g50
NtRp397
(dp398
g53
(dp399
g61
I3
ssg62
g393
sg55
(lp400
S''
asbasbasbasbasbasbasbag48
(g64
g50
NtRp401
(dp402
g53
(dp403
sg62
g225
sg55
(lp404
g48
(g69
g50
NtRp405
(dp406
g53
(dp407
g73
g74
ssg62
g401
sg55
(lp408
S'session_id_admin'
p409
asbag48
(g69
g50
NtRp410
(dp411
g53
(dp412
g80
g81
ssg62
g401
sg55
(lp413
S':'
asbag48
(g69
g50
NtRp414
(dp415
g53
(dp416
sg62
g401
sg55
(lp417
g48
(g49
g50
NtRp418
(dp419
g53
(dp420
g61
I4
ssg62
g414
sg55
(lp421
g48
(g57
g50
NtRp422
(dp423
g53
(dp424
g61
I3
ssg62
Nsg55
(lp425
g48
(g64
g50
NtRp426
(dp427
g53
(dp428
sg62
g422
sg55
(lp429
g48
(g69
g50
NtRp430
(dp431
g53
(dp432
g73
g74
ssg62
g426
sg55
(lp433
g262
asbag48
(g69
g50
NtRp434
(dp435
g53
(dp436
g80
g81
ssg62
g426
sg55
(lp437
S':'
asbag48
(g69
g50
NtRp438
(dp439
g53
(dp440
sg62
g426
sg55
(lp441
g48
(g49
g50
NtRp442
(dp443
g53
(dp444
g61
I3
ssg62
g438
sg55
(lp445
S''
asbasbasbag48
(g64
g50
NtRp446
(dp447
g53
(dp448
sg62
g422
sg55
(lp449
g48
(g69
g50
NtRp450
(dp451
g53
(dp452
g73
g74
ssg62
g446
sg55
(lp453
g283
asbag48
(g69
g50
NtRp454
(dp455
g53
(dp456
g80
g81
ssg62
g446
sg55
(lp457
S':'
asbag48
(g69
g50
NtRp458
(dp459
g53
(dp460
sg62
g446
sg55
(lp461
g48
(g49
g50
NtRp462
(dp463
g53
(dp464
g61
I3
ssg62
g458
sg55
(lp465
S''
asbasbasbag48
(g64
g50
NtRp466
(dp467
g53
(dp468
sg62
g422
sg55
(lp469
g48
(g69
g50
NtRp470
(dp471
g53
(dp472
g73
g74
ssg62
g466
sg55
(lp473
g304
asbag48
(g69
g50
NtRp474
(dp475
g53
(dp476
g80
g81
ssg62
g466
sg55
(lp477
S':'
asbag48
(g69
g50
NtRp478
(dp479
g53
(dp480
sg62
g466
sg55
(lp481
g48
(g49
g50
NtRp482
(dp483
g53
(dp484
g61
I3
ssg62
g478
sg55
(lp485
S''
asbasbasbag48
(g64
g50
NtRp486
(dp487
g53
(dp488
sg62
g422
sg55
(lp489
g48
(g69
g50
NtRp490
(dp491
g53
(dp492
g73
g74
ssg62
g486
sg55
(lp493
g325
asbag48
(g69
g50
NtRp494
(dp495
g53
(dp496
g80
g81
ssg62
g486
sg55
(lp497
S':'
asbag48
(g69
g50
NtRp498
(dp499
g53
(dp500
sg62
g486
sg55
(lp501
g48
(g49
g50
NtRp502
(dp503
g53
(dp504
g61
I3
ssg62
g498
sg55
(lp505
S''
asbasbasbag48
(g64
g50
NtRp506
(dp507
g53
(dp508
sg62
g422
sg55
(lp509
g48
(g69
g50
NtRp510
(dp511
g53
(dp512
g73
g74
ssg62
g506
sg55
(lp513
g346
asbag48
(g69
g50
NtRp514
(dp515
g53
(dp516
g80
g81
ssg62
g506
sg55
(lp517
S':'
asbag48
(g69
g50
NtRp518
(dp519
g53
(dp520
sg62
g506
sg55
(lp521
g48
(g49
g50
NtRp522
(dp523
g53
(dp524
g61
I3
ssg62
g518
sg55
(lp525
S''
asbasbasbag48
(g64
g50
NtRp526
(dp527
g53
(dp528
sg62
g422
sg55
(lp529
g48
(g69
g50
NtRp530
(dp531
g53
(dp532
g73
g74
ssg62
g526
sg55
(lp533
g367
asbag48
(g69
g50
NtRp534
(dp535
g53
(dp536
g80
g81
ssg62
g526
sg55
(lp537
S':'
asbag48
(g69
g50
NtRp538
(dp539
g53
(dp540
sg62
g526
sg55
(lp541
g48
(g49
g50
NtRp542
(dp543
g53
(dp544
g61
I3
ssg62
g538
sg55
(lp545
S''
asbasbasbag48
(g64
g50
NtRp546
(dp547
g53
(dp548
sg62
g422
sg55
(lp549
g48
(g69
g50
NtRp550
(dp551
g53
(dp552
g73
g74
ssg62
g546
sg55
(lp553
g388
asbag48
(g69
g50
NtRp554
(dp555
g53
(dp556
g80
g81
ssg62
g546
sg55
(lp557
S':'
asbag48
(g69
g50
NtRp558
(dp559
g53
(dp560
sg62
g546
sg55
(lp561
g48
(g49
g50
NtRp562
(dp563
g53
(dp564
g61
I3
ssg62
g558
sg55
(lp565
S''
asbasbasbasbasbasbasbag48
(g64
g50
NtRp566
(dp567
g53
(dp568
sg62
g225
sg55
(lp569
g48
(g69
g50
NtRp570
(dp571
g53
(dp572
g73
g74
ssg62
g566
sg55
(lp573
S'session_id_welcome'
p574
asbag48
(g69
g50
NtRp575
(dp576
g53
(dp577
g80
g81
ssg62
g566
sg55
(lp578
S':'
asbag48
(g69
g50
NtRp579
(dp580
g53
(dp581
sg62
g566
sg55
(lp582
g48
(g49
g50
NtRp583
(dp584
g53
(dp585
g61
I4
ssg62
g579
sg55
(lp586
g48
(g57
g50
NtRp587
(dp588
g53
(dp589
g61
I3
ssg62
Nsg55
(lp590
g48
(g64
g50
NtRp591
(dp592
g53
(dp593
sg62
g587
sg55
(lp594
g48
(g69
g50
NtRp595
(dp596
g53
(dp597
g73
g74
ssg62
g591
sg55
(lp598
g262
asbag48
(g69
g50
NtRp599
(dp600
g53
(dp601
g80
g81
ssg62
g591
sg55
(lp602
S':'
asbag48
(g69
g50
NtRp603
(dp604
g53
(dp605
sg62
g591
sg55
(lp606
g48
(g49
g50
NtRp607
(dp608
g53
(dp609
g61
I3
ssg62
g603
sg55
(lp610
S''
asbasbasbag48
(g64
g50
NtRp611
(dp612
g53
(dp613
sg62
g587
sg55
(lp614
g48
(g69
g50
NtRp615
(dp616
g53
(dp617
g73
g74
ssg62
g611
sg55
(lp618
g283
asbag48
(g69
g50
NtRp619
(dp620
g53
(dp621
g80
g81
ssg62
g611
sg55
(lp622
S':'
asbag48
(g69
g50
NtRp623
(dp624
g53
(dp625
sg62
g611
sg55
(lp626
g48
(g49
g50
NtRp627
(dp628
g53
(dp629
g61
I3
ssg62
g623
sg55
(lp630
S''
asbasbasbag48
(g64
g50
NtRp631
(dp632
g53
(dp633
sg62
g587
sg55
(lp634
g48
(g69
g50
NtRp635
(dp636
g53
(dp637
g73
g74
ssg62
g631
sg55
(lp638
g304
asbag48
(g69
g50
NtRp639
(dp640
g53
(dp641
g80
g81
ssg62
g631
sg55
(lp642
S':'
asbag48
(g69
g50
NtRp643
(dp644
g53
(dp645
sg62
g631
sg55
(lp646
g48
(g49
g50
NtRp647
(dp648
g53
(dp649
g61
I3
ssg62
g643
sg55
(lp650
S''
asbasbasbag48
(g64
g50
NtRp651
(dp652
g53
(dp653
sg62
g587
sg55
(lp654
g48
(g69
g50
NtRp655
(dp656
g53
(dp657
g73
g74
ssg62
g651
sg55
(lp658
g325
asbag48
(g69
g50
NtRp659
(dp660
g53
(dp661
g80
g81
ssg62
g651
sg55
(lp662
S':'
asbag48
(g69
g50
NtRp663
(dp664
g53
(dp665
sg62
g651
sg55
(lp666
g48
(g49
g50
NtRp667
(dp668
g53
(dp669
g61
I3
ssg62
g663
sg55
(lp670
S''
asbasbasbag48
(g64
g50
NtRp671
(dp672
g53
(dp673
sg62
g587
sg55
(lp674
g48
(g69
g50
NtRp675
(dp676
g53
(dp677
g73
g74
ssg62
g671
sg55
(lp678
g346
asbag48
(g69
g50
NtRp679
(dp680
g53
(dp681
g80
g81
ssg62
g671
sg55
(lp682
S':'
asbag48
(g69
g50
NtRp683
(dp684
g53
(dp685
sg62
g671
sg55
(lp686
g48
(g49
g50
NtRp687
(dp688
g53
(dp689
g61
I3
ssg62
g683
sg55
(lp690
S''
asbasbasbag48
(g64
g50
NtRp691
(dp692
g53
(dp693
sg62
g587
sg55
(lp694
g48
(g69
g50
NtRp695
(dp696
g53
(dp697
g73
g74
ssg62
g691
sg55
(lp698
g367
asbag48
(g69
g50
NtRp699
(dp700
g53
(dp701
g80
g81
ssg62
g691
sg55
(lp702
S':'
asbag48
(g69
g50
NtRp703
(dp704
g53
(dp705
sg62
g691
sg55
(lp706
g48
(g49
g50
NtRp707
(dp708
g53
(dp709
g61
I3
ssg62
g703
sg55
(lp710
S''
asbasbasbag48
(g64
g50
NtRp711
(dp712
g53
(dp713
sg62
g587
sg55
(lp714
g48
(g69
g50
NtRp715
(dp716
g53
(dp717
g73
g74
ssg62
g711
sg55
(lp718
g388
asbag48
(g69
g50
NtRp719
(dp720
g53
(dp721
g80
g81
ssg62
g711
sg55
(lp722
S':'
asbag48
(g69
g50
NtRp723
(dp724
g53
(dp725
sg62
g711
sg55
(lp726
g48
(g49
g50
NtRp727
(dp728
g53
(dp729
g61
I3
ssg62
g723
sg55
(lp730
S''
asbasbasbasbasbasbasbasbasbasbasbag48
(g64
g50
NtRp731
(dp732
g53
(dp733
sg62
g58
sg55
(lp734
g48
(g69
g50
NtRp735
(dp736
g53
(dp737
g73
g74
ssg62
g731
sg55
(lp738
S'env'
p739
asbag48
(g69
g50
NtRp740
(dp741
g53
(dp742
g80
g81
ssg62
g731
sg55
(lp743
S':'
asbag48
(g69
g50
NtRp744
(dp745
g53
(dp746
sg62
g731
sg55
(lp747
g48
(g49
g50
NtRp748
(dp749
g53
(dp750
g61
I5
ssg62
g744
sg55
(lp751
g48
(g57
g50
NtRp752
(dp753
g53
(dp754
g61
I4
ssg62
Nsg55
(lp755
g48
(g64
g50
NtRp756
(dp757
g53
(dp758
sg62
g752
sg55
(lp759
g48
(g69
g50
NtRp760
(dp761
g53
(dp762
g73
g74
ssg62
g756
sg55
(lp763
S'app_folders'
p764
asbag48
(g69
g50
NtRp765
(dp766
g53
(dp767
g80
g81
ssg62
g756
sg55
(lp768
S':'
asbag48
(g69
g50
NtRp769
(dp770
g53
(dp771
sg62
g756
sg55
(lp772
g48
(g49
g50
NtRp773
(dp774
g53
(dp775
g61
I4
ssg62
g769
sg55
(lp776
S"set(['C:\\\\Users\\\\AKSHAY\\\\Desktop\\\\web2py\\\\applications\\\\welcome\\\\', 'C:\\\\Users\\\\AKSHAY\\\\Desktop\\\\web2py\\\\applications\\\\201056161\\\\', 'C:\\\\Users\\\\AKSHAY\\\\Desktop\\\\web2py\\\\applications\\\\examples\\\\', 'C:\\\\Users\\\\AKSHAY\\\\Desktop\\\\web2py\\\\applications\\\\admin\\\\', 'C:\\\\Users\\\\AKSHAY\\\\Desktop\\\\web2py\\\\applications\\\\MusicRepo\\\\'])"
p777
asbasbasbag48
(g64
g50
NtRp778
(dp779
g53
(dp780
sg62
g752
sg55
(lp781
g48
(g69
g50
NtRp782
(dp783
g53
(dp784
g73
g74
ssg62
g778
sg55
(lp785
S'applications_parent'
p786
asbag48
(g69
g50
NtRp787
(dp788
g53
(dp789
g80
g81
ssg62
g778
sg55
(lp790
S':'
asbag48
(g69
g50
NtRp791
(dp792
g53
(dp793
sg62
g778
sg55
(lp794
g48
(g49
g50
NtRp795
(dp796
g53
(dp797
g61
I4
ssg62
g791
sg55
(lp798
S'C:\\Users\\AKSHAY\\Desktop\\web2py'
p799
asbasbasbag48
(g64
g50
NtRp800
(dp801
g53
(dp802
sg62
g752
sg55
(lp803
g48
(g69
g50
NtRp804
(dp805
g53
(dp806
g73
g74
ssg62
g800
sg55
(lp807
S'cmd_args'
p808
asbag48
(g69
g50
NtRp809
(dp810
g53
(dp811
g80
g81
ssg62
g800
sg55
(lp812
S':'
asbag48
(g69
g50
NtRp813
(dp814
g53
(dp815
sg62
g800
sg55
(lp816
g48
(g49
g50
NtRp817
(dp818
g53
(dp819
g61
I4
ssg62
g813
sg55
(lp820
g48
(g57
g50
NtRp821
(dp822
g53
(dp823
g61
I3
ssg62
Nsg55
(lp824
sbasbasbasbag48
(g64
g50
NtRp825
(dp826
g53
(dp827
sg62
g752
sg55
(lp828
g48
(g69
g50
NtRp829
(dp830
g53
(dp831
g73
g74
ssg62
g825
sg55
(lp832
S'cmd_options'
p833
asbag48
(g69
g50
NtRp834
(dp835
g53
(dp836
g80
g81
ssg62
g825
sg55
(lp837
S':'
asbag48
(g69
g50
NtRp838
(dp839
g53
(dp840
sg62
g825
sg55
(lp841
g48
(g49
g50
NtRp842
(dp843
g53
(dp844
g61
I4
ssg62
g838
sg55
(lp845
S"<Values at 0x317dfd0: {'verbose': False, 'ip': '127.0.0.1', 'shutdown_timeout': 5, 'taskbar': False, 'port': 8000, 'maxthreads': None, 'softcron': False, 'server_name': 'AKSHAY-PC', 'bpython': False, 'nogui': False, 'nocron': False, 'extcron': False, 'debuglevel': 30, 'test': None, 'folder': 'C:\\\\Users\\\\AKSHAY\\\\Desktop\\\\web2py', 'config': '', 'import_models': False, 'winservice': '', 'shell': None, 'run': '', 'log_filename': 'httpserver.log', 'args': [''], 'profiler_filename': None, 'ssl_private_key': '', 'password': '<ask>', 'request_queue_size': 5, 'ssl_certificate': '', 'cronjob': False, 'plain': False, 'quiet': False, 'interfaces': None, 'minthreads': None, 'timeout': 10, 'numthreads': None, 'nobanner': False, 'pid_filename': 'httpserver.pid'}>"
p846
asbasbasbag48
(g64
g50
NtRp847
(dp848
g53
(dp849
sg62
g752
sg55
(lp850
g48
(g69
g50
NtRp851
(dp852
g53
(dp853
g73
g74
ssg62
g847
sg55
(lp854
S'db_sessions'
p855
asbag48
(g69
g50
NtRp856
(dp857
g53
(dp858
g80
g81
ssg62
g847
sg55
(lp859
S':'
asbag48
(g69
g50
NtRp860
(dp861
g53
(dp862
sg62
g847
sg55
(lp863
g48
(g49
g50
NtRp864
(dp865
g53
(dp866
g61
I4
ssg62
g860
sg55
(lp867
S'set([])'
p868
asbasbasbag48
(g64
g50
NtRp869
(dp870
g53
(dp871
sg62
g752
sg55
(lp872
g48
(g69
g50
NtRp873
(dp874
g53
(dp875
g73
g74
ssg62
g869
sg55
(lp876
S'debugging'
p877
asbag48
(g69
g50
NtRp878
(dp879
g53
(dp880
g80
g81
ssg62
g869
sg55
(lp881
S':'
asbag48
(g69
g50
NtRp882
(dp883
g53
(dp884
sg62
g869
sg55
(lp885
g48
(g49
g50
NtRp886
(dp887
g53
(dp888
g61
I4
ssg62
g882
sg55
(lp889
g91
asbasbasbag48
(g64
g50
NtRp890
(dp891
g53
(dp892
sg62
g752
sg55
(lp893
g48
(g69
g50
NtRp894
(dp895
g53
(dp896
g73
g74
ssg62
g890
sg55
(lp897
S'gluon_parent'
p898
asbag48
(g69
g50
NtRp899
(dp900
g53
(dp901
g80
g81
ssg62
g890
sg55
(lp902
S':'
asbag48
(g69
g50
NtRp903
(dp904
g53
(dp905
sg62
g890
sg55
(lp906
g48
(g49
g50
NtRp907
(dp908
g53
(dp909
g61
I4
ssg62
g903
sg55
(lp910
S'C:\\Users\\AKSHAY\\Desktop\\web2py'
p911
asbasbasbag48
(g64
g50
NtRp912
(dp913
g53
(dp914
sg62
g752
sg55
(lp915
g48
(g69
g50
NtRp916
(dp917
g53
(dp918
g73
g74
ssg62
g912
sg55
(lp919
S'http_accept'
p920
asbag48
(g69
g50
NtRp921
(dp922
g53
(dp923
g80
g81
ssg62
g912
sg55
(lp924
S':'
asbag48
(g69
g50
NtRp925
(dp926
g53
(dp927
sg62
g912
sg55
(lp928
g48
(g49
g50
NtRp929
(dp930
g53
(dp931
g61
I4
ssg62
g925
sg55
(lp932
S'text/html,application/xhtml+xml,application/xml;q=0.9,*/*;q=0.8'
p933
asbasbasbag48
(g64
g50
NtRp934
(dp935
g53
(dp936
sg62
g752
sg55
(lp937
g48
(g69
g50
NtRp938
(dp939
g53
(dp940
g73
g74
ssg62
g934
sg55
(lp941
S'http_accept_charset'
p942
asbag48
(g69
g50
NtRp943
(dp944
g53
(dp945
g80
g81
ssg62
g934
sg55
(lp946
S':'
asbag48
(g69
g50
NtRp947
(dp948
g53
(dp949
sg62
g934
sg55
(lp950
g48
(g49
g50
NtRp951
(dp952
g53
(dp953
g61
I4
ssg62
g947
sg55
(lp954
S'ISO-8859-1,utf-8;q=0.7,*;q=0.3'
p955
asbasbasbag48
(g64
g50
NtRp956
(dp957
g53
(dp958
sg62
g752
sg55
(lp959
g48
(g69
g50
NtRp960
(dp961
g53
(dp962
g73
g74
ssg62
g956
sg55
(lp963
S'http_accept_encoding'
p964
asbag48
(g69
g50
NtRp965
(dp966
g53
(dp967
g80
g81
ssg62
g956
sg55
(lp968
S':'
asbag48
(g69
g50
NtRp969
(dp970
g53
(dp971
sg62
g956
sg55
(lp972
g48
(g49
g50
NtRp973
(dp974
g53
(dp975
g61
I4
ssg62
g969
sg55
(lp976
S'gzip,deflate,sdch'
p977
asbasbasbag48
(g64
g50
NtRp978
(dp979
g53
(dp980
sg62
g752
sg55
(lp981
g48
(g69
g50
NtRp982
(dp983
g53
(dp984
g73
g74
ssg62
g978
sg55
(lp985
S'http_accept_language'
p986
asbag48
(g69
g50
NtRp987
(dp988
g53
(dp989
g80
g81
ssg62
g978
sg55
(lp990
S':'
asbag48
(g69
g50
NtRp991
(dp992
g53
(dp993
sg62
g978
sg55
(lp994
g48
(g49
g50
NtRp995
(dp996
g53
(dp997
g61
I4
ssg62
g991
sg55
(lp998
S'en-US,en;q=0.8'
p999
asbasbasbag48
(g64
g50
NtRp1000
(dp1001
g53
(dp1002
sg62
g752
sg55
(lp1003
g48
(g69
g50
NtRp1004
(dp1005
g53
(dp1006
g73
g74
ssg62
g1000
sg55
(lp1007
S'http_connection'
p1008
asbag48
(g69
g50
NtRp1009
(dp1010
g53
(dp1011
g80
g81
ssg62
g1000
sg55
(lp1012
S':'
asbag48
(g69
g50
NtRp1013
(dp1014
g53
(dp1015
sg62
g1000
sg55
(lp1016
g48
(g49
g50
NtRp1017
(dp1018
g53
(dp1019
g61
I4
ssg62
g1013
sg55
(lp1020
S'keep-alive'
p1021
asbasbasbag48
(g64
g50
NtRp1022
(dp1023
g53
(dp1024
sg62
g752
sg55
(lp1025
g48
(g69
g50
NtRp1026
(dp1027
g53
(dp1028
g73
g74
ssg62
g1022
sg55
(lp1029
S'http_cookie'
p1030
asbag48
(g69
g50
NtRp1031
(dp1032
g53
(dp1033
g80
g81
ssg62
g1022
sg55
(lp1034
S':'
asbag48
(g69
g50
NtRp1035
(dp1036
g53
(dp1037
sg62
g1022
sg55
(lp1038
g48
(g49
g50
NtRp1039
(dp1040
g53
(dp1041
g61
I4
ssg62
g1035
sg55
(lp1042
S'session_id_welcome=127.0.0.1-59771078-5064-4769-bad5-36c10b98c15f; session_id_admin=127.0.0.1-0f74329a-39f0-47c2-95cf-7f42bb528a7b; session_id_201056161=127.0.0.1-3bc821ac-4d59-41c6-8699-b3e43edfc478'
p1043
asbasbasbag48
(g64
g50
NtRp1044
(dp1045
g53
(dp1046
sg62
g752
sg55
(lp1047
g48
(g69
g50
NtRp1048
(dp1049
g53
(dp1050
g73
g74
ssg62
g1044
sg55
(lp1051
S'http_host'
p1052
asbag48
(g69
g50
NtRp1053
(dp1054
g53
(dp1055
g80
g81
ssg62
g1044
sg55
(lp1056
S':'
asbag48
(g69
g50
NtRp1057
(dp1058
g53
(dp1059
sg62
g1044
sg55
(lp1060
g48
(g49
g50
NtRp1061
(dp1062
g53
(dp1063
g61
I4
ssg62
g1057
sg55
(lp1064
S'127.0.0.1:8000'
p1065
asbasbasbag48
(g64
g50
NtRp1066
(dp1067
g53
(dp1068
sg62
g752
sg55
(lp1069
g48
(g69
g50
NtRp1070
(dp1071
g53
(dp1072
g73
g74
ssg62
g1066
sg55
(lp1073
S'http_referer'
p1074
asbag48
(g69
g50
NtRp1075
(dp1076
g53
(dp1077
g80
g81
ssg62
g1066
sg55
(lp1078
S':'
asbag48
(g69
g50
NtRp1079
(dp1080
g53
(dp1081
sg62
g1066
sg55
(lp1082
g48
(g49
g50
NtRp1083
(dp1084
g53
(dp1085
g61
I4
ssg62
g1079
sg55
(lp1086
S'http://127.0.0.1:8000/201056161/default'
p1087
asbasbasbag48
(g64
g50
NtRp1088
(dp1089
g53
(dp1090
sg62
g752
sg55
(lp1091
g48
(g69
g50
NtRp1092
(dp1093
g53
(dp1094
g73
g74
ssg62
g1088
sg55
(lp1095
S'http_user_agent'
p1096
asbag48
(g69
g50
NtRp1097
(dp1098
g53
(dp1099
g80
g81
ssg62
g1088
sg55
(lp1100
S':'
asbag48
(g69
g50
NtRp1101
(dp1102
g53
(dp1103
sg62
g1088
sg55
(lp1104
g48
(g49
g50
NtRp1105
(dp1106
g53
(dp1107
g61
I4
ssg62
g1101
sg55
(lp1108
S'Mozilla/5.0 (Windows NT 6.1; WOW64) AppleWebKit/535.1 (KHTML, like Gecko) Chrome/13.0.782.218 Safari/535.1'
p1109
asbasbasbag48
(g64
g50
NtRp1110
(dp1111
g53
(dp1112
sg62
g752
sg55
(lp1113
g48
(g69
g50
NtRp1114
(dp1115
g53
(dp1116
g73
g74
ssg62
g1110
sg55
(lp1117
S'path_info'
p1118
asbag48
(g69
g50
NtRp1119
(dp1120
g53
(dp1121
g80
g81
ssg62
g1110
sg55
(lp1122
S':'
asbag48
(g69
g50
NtRp1123
(dp1124
g53
(dp1125
sg62
g1110
sg55
(lp1126
g48
(g49
g50
NtRp1127
(dp1128
g53
(dp1129
g61
I4
ssg62
g1123
sg55
(lp1130
S'/201056161/default/new'
p1131
asbasbasbag48
(g64
g50
NtRp1132
(dp1133
g53
(dp1134
sg62
g752
sg55
(lp1135
g48
(g69
g50
NtRp1136
(dp1137
g53
(dp1138
g73
g74
ssg62
g1132
sg55
(lp1139
S'query_string'
p1140
asbag48
(g69
g50
NtRp1141
(dp1142
g53
(dp1143
g80
g81
ssg62
g1132
sg55
(lp1144
S':'
asbag48
(g69
g50
NtRp1145
(dp1146
g53
(dp1147
sg62
g1132
sg55
(lp1148
g48
(g49
g50
NtRp1149
(dp1150
g53
(dp1151
g61
I4
ssg62
g1145
sg55
(lp1152
S''
asbasbasbag48
(g64
g50
NtRp1153
(dp1154
g53
(dp1155
sg62
g752
sg55
(lp1156
g48
(g69
g50
NtRp1157
(dp1158
g53
(dp1159
g73
g74
ssg62
g1153
sg55
(lp1160
S'remote_addr'
p1161
asbag48
(g69
g50
NtRp1162
(dp1163
g53
(dp1164
g80
g81
ssg62
g1153
sg55
(lp1165
S':'
asbag48
(g69
g50
NtRp1166
(dp1167
g53
(dp1168
sg62
g1153
sg55
(lp1169
g48
(g49
g50
NtRp1170
(dp1171
g53
(dp1172
g61
I4
ssg62
g1166
sg55
(lp1173
g181
asbasbasbag48
(g64
g50
NtRp1174
(dp1175
g53
(dp1176
sg62
g752
sg55
(lp1177
g48
(g69
g50
NtRp1178
(dp1179
g53
(dp1180
g73
g74
ssg62
g1174
sg55
(lp1181
S'remote_port'
p1182
asbag48
(g69
g50
NtRp1183
(dp1184
g53
(dp1185
g80
g81
ssg62
g1174
sg55
(lp1186
S':'
asbag48
(g69
g50
NtRp1187
(dp1188
g53
(dp1189
sg62
g1174
sg55
(lp1190
g48
(g49
g50
NtRp1191
(dp1192
g53
(dp1193
g61
I4
ssg62
g1187
sg55
(lp1194
S'51254'
p1195
asbasbasbag48
(g64
g50
NtRp1196
(dp1197
g53
(dp1198
sg62
g752
sg55
(lp1199
g48
(g69
g50
NtRp1200
(dp1201
g53
(dp1202
g73
g74
ssg62
g1196
sg55
(lp1203
S'request_method'
p1204
asbag48
(g69
g50
NtRp1205
(dp1206
g53
(dp1207
g80
g81
ssg62
g1196
sg55
(lp1208
S':'
asbag48
(g69
g50
NtRp1209
(dp1210
g53
(dp1211
sg62
g1196
sg55
(lp1212
g48
(g49
g50
NtRp1213
(dp1214
g53
(dp1215
g61
I4
ssg62
g1209
sg55
(lp1216
S'GET'
p1217
asbasbasbag48
(g64
g50
NtRp1218
(dp1219
g53
(dp1220
sg62
g752
sg55
(lp1221
g48
(g69
g50
NtRp1222
(dp1223
g53
(dp1224
g73
g74
ssg62
g1218
sg55
(lp1225
S'script_name'
p1226
asbag48
(g69
g50
NtRp1227
(dp1228
g53
(dp1229
g80
g81
ssg62
g1218
sg55
(lp1230
S':'
asbag48
(g69
g50
NtRp1231
(dp1232
g53
(dp1233
sg62
g1218
sg55
(lp1234
g48
(g49
g50
NtRp1235
(dp1236
g53
(dp1237
g61
I4
ssg62
g1231
sg55
(lp1238
S''
asbasbasbag48
(g64
g50
NtRp1239
(dp1240
g53
(dp1241
sg62
g752
sg55
(lp1242
g48
(g69
g50
NtRp1243
(dp1244
g53
(dp1245
g73
g74
ssg62
g1239
sg55
(lp1246
S'server_name'
p1247
asbag48
(g69
g50
NtRp1248
(dp1249
g53
(dp1250
g80
g81
ssg62
g1239
sg55
(lp1251
S':'
asbag48
(g69
g50
NtRp1252
(dp1253
g53
(dp1254
sg62
g1239
sg55
(lp1255
g48
(g49
g50
NtRp1256
(dp1257
g53
(dp1258
g61
I4
ssg62
g1252
sg55
(lp1259
S'AKSHAY-PC'
p1260
asbasbasbag48
(g64
g50
NtRp1261
(dp1262
g53
(dp1263
sg62
g752
sg55
(lp1264
g48
(g69
g50
NtRp1265
(dp1266
g53
(dp1267
g73
g74
ssg62
g1261
sg55
(lp1268
S'server_port'
p1269
asbag48
(g69
g50
NtRp1270
(dp1271
g53
(dp1272
g80
g81
ssg62
g1261
sg55
(lp1273
S':'
asbag48
(g69
g50
NtRp1274
(dp1275
g53
(dp1276
sg62
g1261
sg55
(lp1277
g48
(g49
g50
NtRp1278
(dp1279
g53
(dp1280
g61
I4
ssg62
g1274
sg55
(lp1281
S'8000'
p1282
asbasbasbag48
(g64
g50
NtRp1283
(dp1284
g53
(dp1285
sg62
g752
sg55
(lp1286
g48
(g69
g50
NtRp1287
(dp1288
g53
(dp1289
g73
g74
ssg62
g1283
sg55
(lp1290
S'server_protocol'
p1291
asbag48
(g69
g50
NtRp1292
(dp1293
g53
(dp1294
g80
g81
ssg62
g1283
sg55
(lp1295
S':'
asbag48
(g69
g50
NtRp1296
(dp1297
g53
(dp1298
sg62
g1283
sg55
(lp1299
g48
(g49
g50
NtRp1300
(dp1301
g53
(dp1302
g61
I4
ssg62
g1296
sg55
(lp1303
S'HTTP/1.1'
p1304
asbasbasbag48
(g64
g50
NtRp1305
(dp1306
g53
(dp1307
sg62
g752
sg55
(lp1308
g48
(g69
g50
NtRp1309
(dp1310
g53
(dp1311
g73
g74
ssg62
g1305
sg55
(lp1312
S'server_software'
p1313
asbag48
(g69
g50
NtRp1314
(dp1315
g53
(dp1316
g80
g81
ssg62
g1305
sg55
(lp1317
S':'
asbag48
(g69
g50
NtRp1318
(dp1319
g53
(dp1320
sg62
g1305
sg55
(lp1321
g48
(g49
g50
NtRp1322
(dp1323
g53
(dp1324
g61
I4
ssg62
g1318
sg55
(lp1325
S'Rocket 1.2.2'
p1326
asbasbasbag48
(g64
g50
NtRp1327
(dp1328
g53
(dp1329
sg62
g752
sg55
(lp1330
g48
(g69
g50
NtRp1331
(dp1332
g53
(dp1333
g73
g74
ssg62
g1327
sg55
(lp1334
S'web2py_crontype'
p1335
asbag48
(g69
g50
NtRp1336
(dp1337
g53
(dp1338
g80
g81
ssg62
g1327
sg55
(lp1339
S':'
asbag48
(g69
g50
NtRp1340
(dp1341
g53
(dp1342
sg62
g1327
sg55
(lp1343
g48
(g49
g50
NtRp1344
(dp1345
g53
(dp1346
g61
I4
ssg62
g1340
sg55
(lp1347
S'hard'
p1348
asbasbasbag48
(g64
g50
NtRp1349
(dp1350
g53
(dp1351
sg62
g752
sg55
(lp1352
g48
(g69
g50
NtRp1353
(dp1354
g53
(dp1355
g73
g74
ssg62
g1349
sg55
(lp1356
S'web2py_path'
p1357
asbag48
(g69
g50
NtRp1358
(dp1359
g53
(dp1360
g80
g81
ssg62
g1349
sg55
(lp1361
S':'
asbag48
(g69
g50
NtRp1362
(dp1363
g53
(dp1364
sg62
g1349
sg55
(lp1365
g48
(g49
g50
NtRp1366
(dp1367
g53
(dp1368
g61
I4
ssg62
g1362
sg55
(lp1369
g799
asbasbasbag48
(g64
g50
NtRp1370
(dp1371
g53
(dp1372
sg62
g752
sg55
(lp1373
g48
(g69
g50
NtRp1374
(dp1375
g53
(dp1376
g73
g74
ssg62
g1370
sg55
(lp1377
S'web2py_version'
p1378
asbag48
(g69
g50
NtRp1379
(dp1380
g53
(dp1381
g80
g81
ssg62
g1370
sg55
(lp1382
S':'
asbag48
(g69
g50
NtRp1383
(dp1384
g53
(dp1385
sg62
g1370
sg55
(lp1386
g48
(g49
g50
NtRp1387
(dp1388
g53
(dp1389
g61
I4
ssg62
g1383
sg55
(lp1390
S'Version 1.97.1 (2011-06-26 19:25:44)\n'
p1391
asbasbasbag48
(g64
g50
NtRp1392
(dp1393
g53
(dp1394
sg62
g752
sg55
(lp1395
g48
(g69
g50
NtRp1396
(dp1397
g53
(dp1398
g73
g74
ssg62
g1392
sg55
(lp1399
S'wsgi_errors'
p1400
asbag48
(g69
g50
NtRp1401
(dp1402
g53
(dp1403
g80
g81
ssg62
g1392
sg55
(lp1404
S':'
asbag48
(g69
g50
NtRp1405
(dp1406
g53
(dp1407
sg62
g1392
sg55
(lp1408
g48
(g49
g50
NtRp1409
(dp1410
g53
(dp1411
g61
I4
ssg62
g1405
sg55
(lp1412
S"<open file '<stderr>', mode 'w' at 0x002500B0>"
p1413
asbasbasbag48
(g64
g50
NtRp1414
(dp1415
g53
(dp1416
sg62
g752
sg55
(lp1417
g48
(g69
g50
NtRp1418
(dp1419
g53
(dp1420
g73
g74
ssg62
g1414
sg55
(lp1421
S'wsgi_file_wrapper'
p1422
asbag48
(g69
g50
NtRp1423
(dp1424
g53
(dp1425
g80
g81
ssg62
g1414
sg55
(lp1426
S':'
asbag48
(g69
g50
NtRp1427
(dp1428
g53
(dp1429
sg62
g1414
sg55
(lp1430
g48
(g49
g50
NtRp1431
(dp1432
g53
(dp1433
g61
I4
ssg62
g1427
sg55
(lp1434
S'<class gluon.rocket.FileWrapper at 0x03132BA0>'
p1435
asbasbasbag48
(g64
g50
NtRp1436
(dp1437
g53
(dp1438
sg62
g752
sg55
(lp1439
g48
(g69
g50
NtRp1440
(dp1441
g53
(dp1442
g73
g74
ssg62
g1436
sg55
(lp1443
S'wsgi_input'
p1444
asbag48
(g69
g50
NtRp1445
(dp1446
g53
(dp1447
g80
g81
ssg62
g1436
sg55
(lp1448
S':'
asbag48
(g69
g50
NtRp1449
(dp1450
g53
(dp1451
sg62
g1436
sg55
(lp1452
g48
(g49
g50
NtRp1453
(dp1454
g53
(dp1455
g61
I4
ssg62
g1449
sg55
(lp1456
S'<socket._fileobject object at 0x06C3A3B0>'
p1457
asbasbasbag48
(g64
g50
NtRp1458
(dp1459
g53
(dp1460
sg62
g752
sg55
(lp1461
g48
(g69
g50
NtRp1462
(dp1463
g53
(dp1464
g73
g74
ssg62
g1458
sg55
(lp1465
S'wsgi_multiprocess'
p1466
asbag48
(g69
g50
NtRp1467
(dp1468
g53
(dp1469
g80
g81
ssg62
g1458
sg55
(lp1470
S':'
asbag48
(g69
g50
NtRp1471
(dp1472
g53
(dp1473
sg62
g1458
sg55
(lp1474
g48
(g49
g50
NtRp1475
(dp1476
g53
(dp1477
g61
I4
ssg62
g1471
sg55
(lp1478
g91
asbasbasbag48
(g64
g50
NtRp1479
(dp1480
g53
(dp1481
sg62
g752
sg55
(lp1482
g48
(g69
g50
NtRp1483
(dp1484
g53
(dp1485
g73
g74
ssg62
g1479
sg55
(lp1486
S'wsgi_multithread'
p1487
asbag48
(g69
g50
NtRp1488
(dp1489
g53
(dp1490
g80
g81
ssg62
g1479
sg55
(lp1491
S':'
asbag48
(g69
g50
NtRp1492
(dp1493
g53
(dp1494
sg62
g1479
sg55
(lp1495
g48
(g49
g50
NtRp1496
(dp1497
g53
(dp1498
g61
I4
ssg62
g1492
sg55
(lp1499
S'True'
p1500
asbasbasbag48
(g64
g50
NtRp1501
(dp1502
g53
(dp1503
sg62
g752
sg55
(lp1504
g48
(g69
g50
NtRp1505
(dp1506
g53
(dp1507
g73
g74
ssg62
g1501
sg55
(lp1508
S'wsgi_run_once'
p1509
asbag48
(g69
g50
NtRp1510
(dp1511
g53
(dp1512
g80
g81
ssg62
g1501
sg55
(lp1513
S':'
asbag48
(g69
g50
NtRp1514
(dp1515
g53
(dp1516
sg62
g1501
sg55
(lp1517
g48
(g49
g50
NtRp1518
(dp1519
g53
(dp1520
g61
I4
ssg62
g1514
sg55
(lp1521
g91
asbasbasbag48
(g64
g50
NtRp1522
(dp1523
g53
(dp1524
sg62
g752
sg55
(lp1525
g48
(g69
g50
NtRp1526
(dp1527
g53
(dp1528
g73
g74
ssg62
g1522
sg55
(lp1529
S'wsgi_url_scheme'
p1530
asbag48
(g69
g50
NtRp1531
(dp1532
g53
(dp1533
g80
g81
ssg62
g1522
sg55
(lp1534
S':'
asbag48
(g69
g50
NtRp1535
(dp1536
g53
(dp1537
sg62
g1522
sg55
(lp1538
g48
(g49
g50
NtRp1539
(dp1540
g53
(dp1541
g61
I4
ssg62
g1535
sg55
(lp1542
S'http'
p1543
asbasbasbag48
(g64
g50
NtRp1544
(dp1545
g53
(dp1546
sg62
g752
sg55
(lp1547
g48
(g69
g50
NtRp1548
(dp1549
g53
(dp1550
g73
g74
ssg62
g1544
sg55
(lp1551
S'wsgi_version'
p1552
asbag48
(g69
g50
NtRp1553
(dp1554
g53
(dp1555
g80
g81
ssg62
g1544
sg55
(lp1556
S':'
asbag48
(g69
g50
NtRp1557
(dp1558
g53
(dp1559
sg62
g1544
sg55
(lp1560
g48
(g49
g50
NtRp1561
(dp1562
g53
(dp1563
g61
I4
ssg62
g1557
sg55
(lp1564
g48
(g57
g50
NtRp1565
(dp1566
g53
(dp1567
g61
I3
ssg62
Nsg55
(lp1568
g48
(g64
g50
NtRp1569
(dp1570
g53
(dp1571
sg62
g1565
sg55
(lp1572
g48
(g69
g50
NtRp1573
(dp1574
g53
(dp1575
sg62
g1569
sg55
(lp1576
g48
(g49
g50
NtRp1577
(dp1578
g53
(dp1579
g61
I3
ssg62
g1573
sg55
(lp1580
S'1'
asbasbasbag48
(g64
g50
NtRp1581
(dp1582
g53
(dp1583
sg62
g1565
sg55
(lp1584
g48
(g69
g50
NtRp1585
(dp1586
g53
(dp1587
sg62
g1581
sg55
(lp1588
g48
(g49
g50
NtRp1589
(dp1590
g53
(dp1591
g61
I3
ssg62
g1585
sg55
(lp1592
S'0'
asbasbasbasbasbasbasbasbasbasbasbag48
(g64
g50
NtRp1593
(dp1594
g53
(dp1595
sg62
g58
sg55
(lp1596
g48
(g69
g50
NtRp1597
(dp1598
g53
(dp1599
g73
g74
ssg62
g1593
sg55
(lp1600
S'extension'
p1601
asbag48
(g69
g50
NtRp1602
(dp1603
g53
(dp1604
g80
g81
ssg62
g1593
sg55
(lp1605
S':'
asbag48
(g69
g50
NtRp1606
(dp1607
g53
(dp1608
sg62
g1593
sg55
(lp1609
g48
(g49
g50
NtRp1610
(dp1611
g53
(dp1612
g61
I5
ssg62
g1606
sg55
(lp1613
S'html'
p1614
asbasbasbag48
(g64
g50
NtRp1615
(dp1616
g53
(dp1617
sg62
g58
sg55
(lp1618
g48
(g69
g50
NtRp1619
(dp1620
g53
(dp1621
g73
g74
ssg62
g1615
sg55
(lp1622
S'folder'
p1623
asbag48
(g69
g50
NtRp1624
(dp1625
g53
(dp1626
g80
g81
ssg62
g1615
sg55
(lp1627
S':'
asbag48
(g69
g50
NtRp1628
(dp1629
g53
(dp1630
sg62
g1615
sg55
(lp1631
g48
(g49
g50
NtRp1632
(dp1633
g53
(dp1634
g61
I5
ssg62
g1628
sg55
(lp1635
S'C:\\Users\\AKSHAY\\Desktop\\web2py\\applications\\201056161\\'
p1636
asbasbasbag48
(g64
g50
NtRp1637
(dp1638
g53
(dp1639
sg62
g58
sg55
(lp1640
g48
(g69
g50
NtRp1641
(dp1642
g53
(dp1643
g73
g74
ssg62
g1637
sg55
(lp1644
S'function'
p1645
asbag48
(g69
g50
NtRp1646
(dp1647
g53
(dp1648
g80
g81
ssg62
g1637
sg55
(lp1649
S':'
asbag48
(g69
g50
NtRp1650
(dp1651
g53
(dp1652
sg62
g1637
sg55
(lp1653
g48
(g49
g50
NtRp1654
(dp1655
g53
(dp1656
g61
I5
ssg62
g1650
sg55
(lp1657
S'new'
p1658
asbasbasbag48
(g64
g50
NtRp1659
(dp1660
g53
(dp1661
sg62
g58
sg55
(lp1662
g48
(g69
g50
NtRp1663
(dp1664
g53
(dp1665
g73
g74
ssg62
g1659
sg55
(lp1666
S'get_vars'
p1667
asbag48
(g69
g50
NtRp1668
(dp1669
g53
(dp1670
g80
g81
ssg62
g1659
sg55
(lp1671
S':'
asbag48
(g69
g50
NtRp1672
(dp1673
g53
(dp1674
sg62
g1659
sg55
(lp1675
g48
(g49
g50
NtRp1676
(dp1677
g53
(dp1678
g61
I5
ssg62
g1672
sg55
(lp1679
g48
(g57
g50
NtRp1680
(dp1681
g53
(dp1682
g61
I4
ssg62
Nsg55
(lp1683
sbasbasbasbag48
(g64
g50
NtRp1684
(dp1685
g53
(dp1686
sg62
g58
sg55
(lp1687
g48
(g69
g50
NtRp1688
(dp1689
g53
(dp1690
g73
g74
ssg62
g1684
sg55
(lp1691
S'is_https'
p1692
asbag48
(g69
g50
NtRp1693
(dp1694
g53
(dp1695
g80
g81
ssg62
g1684
sg55
(lp1696
S':'
asbag48
(g69
g50
NtRp1697
(dp1698
g53
(dp1699
sg62
g1684
sg55
(lp1700
g48
(g49
g50
NtRp1701
(dp1702
g53
(dp1703
g61
I5
ssg62
g1697
sg55
(lp1704
g91
asbasbasbag48
(g64
g50
NtRp1705
(dp1706
g53
(dp1707
sg62
g58
sg55
(lp1708
g48
(g69
g50
NtRp1709
(dp1710
g53
(dp1711
g73
g74
ssg62
g1705
sg55
(lp1712
S'is_local'
p1713
asbag48
(g69
g50
NtRp1714
(dp1715
g53
(dp1716
g80
g81
ssg62
g1705
sg55
(lp1717
S':'
asbag48
(g69
g50
NtRp1718
(dp1719
g53
(dp1720
sg62
g1705
sg55
(lp1721
g48
(g49
g50
NtRp1722
(dp1723
g53
(dp1724
g61
I5
ssg62
g1718
sg55
(lp1725
g1500
asbasbasbag48
(g64
g50
NtRp1726
(dp1727
g53
(dp1728
sg62
g58
sg55
(lp1729
g48
(g69
g50
NtRp1730
(dp1731
g53
(dp1732
g73
g74
ssg62
g1726
sg55
(lp1733
S'is_restful'
p1734
asbag48
(g69
g50
NtRp1735
(dp1736
g53
(dp1737
g80
g81
ssg62
g1726
sg55
(lp1738
S':'
asbag48
(g69
g50
NtRp1739
(dp1740
g53
(dp1741
sg62
g1726
sg55
(lp1742
g48
(g49
g50
NtRp1743
(dp1744
g53
(dp1745
g61
I5
ssg62
g1739
sg55
(lp1746
g91
asbasbasbag48
(g64
g50
NtRp1747
(dp1748
g53
(dp1749
sg62
g58
sg55
(lp1750
g48
(g69
g50
NtRp1751
(dp1752
g53
(dp1753
g73
g74
ssg62
g1747
sg55
(lp1754
S'now'
p1755
asbag48
(g69
g50
NtRp1756
(dp1757
g53
(dp1758
g80
g81
ssg62
g1747
sg55
(lp1759
S':'
asbag48
(g69
g50
NtRp1760
(dp1761
g53
(dp1762
sg62
g1747
sg55
(lp1763
g48
(g49
g50
NtRp1764
(dp1765
g53
(dp1766
g61
I5
ssg62
g1760
sg55
(lp1767
S'datetime.datetime(2011, 9, 7, 2, 27, 28, 945000)'
p1768
asbasbasbag48
(g64
g50
NtRp1769
(dp1770
g53
(dp1771
sg62
g58
sg55
(lp1772
g48
(g69
g50
NtRp1773
(dp1774
g53
(dp1775
g73
g74
ssg62
g1769
sg55
(lp1776
S'post_vars'
p1777
asbag48
(g69
g50
NtRp1778
(dp1779
g53
(dp1780
g80
g81
ssg62
g1769
sg55
(lp1781
S':'
asbag48
(g69
g50
NtRp1782
(dp1783
g53
(dp1784
sg62
g1769
sg55
(lp1785
g48
(g49
g50
NtRp1786
(dp1787
g53
(dp1788
g61
I5
ssg62
g1782
sg55
(lp1789
g48
(g57
g50
NtRp1790
(dp1791
g53
(dp1792
g61
I4
ssg62
Nsg55
(lp1793
sbasbasbasbag48
(g64
g50
NtRp1794
(dp1795
g53
(dp1796
sg62
g58
sg55
(lp1797
g48
(g69
g50
NtRp1798
(dp1799
g53
(dp1800
g73
g74
ssg62
g1794
sg55
(lp1801
S'url'
p1802
asbag48
(g69
g50
NtRp1803
(dp1804
g53
(dp1805
g80
g81
ssg62
g1794
sg55
(lp1806
S':'
asbag48
(g69
g50
NtRp1807
(dp1808
g53
(dp1809
sg62
g1794
sg55
(lp1810
g48
(g49
g50
NtRp1811
(dp1812
g53
(dp1813
g61
I5
ssg62
g1807
sg55
(lp1814
S'/201056161/default/new'
p1815
asbasbasbag48
(g64
g50
NtRp1816
(dp1817
g53
(dp1818
sg62
g58
sg55
(lp1819
g48
(g69
g50
NtRp1820
(dp1821
g53
(dp1822
g73
g74
ssg62
g1816
sg55
(lp1823
S'uuid'
p1824
asbag48
(g69
g50
NtRp1825
(dp1826
g53
(dp1827
g80
g81
ssg62
g1816
sg55
(lp1828
S':'
asbag48
(g69
g50
NtRp1829
(dp1830
g53
(dp1831
sg62
g1816
sg55
(lp1832
g48
(g49
g50
NtRp1833
(dp1834
g53
(dp1835
g61
I5
ssg62
g1829
sg55
(lp1836
S'201056161/127.0.0.1.2011-09-07.02-27-28.8d0b6abf-361c-45ce-8efc-0bb15bb68e2e'
p1837
asbasbasbag48
(g64
g50
NtRp1838
(dp1839
g53
(dp1840
sg62
g58
sg55
(lp1841
g48
(g69
g50
NtRp1842
(dp1843
g53
(dp1844
g73
g74
ssg62
g1838
sg55
(lp1845
S'vars'
p1846
asbag48
(g69
g50
NtRp1847
(dp1848
g53
(dp1849
g80
g81
ssg62
g1838
sg55
(lp1850
S':'
asbag48
(g69
g50
NtRp1851
(dp1852
g53
(dp1853
sg62
g1838
sg55
(lp1854
g48
(g49
g50
NtRp1855
(dp1856
g53
(dp1857
g61
I5
ssg62
g1851
sg55
(lp1858
g48
(g57
g50
NtRp1859
(dp1860
g53
(dp1861
g61
I4
ssg62
Nsg55
(lp1862
sbasbasbasbag48
(g64
g50
NtRp1863
(dp1864
g53
(dp1865
sg62
g58
sg55
(lp1866
g48
(g69
g50
NtRp1867
(dp1868
g53
(dp1869
g73
g74
ssg62
g1863
sg55
(lp1870
S'wsgi'
p1871
asbag48
(g69
g50
NtRp1872
(dp1873
g53
(dp1874
g80
g81
ssg62
g1863
sg55
(lp1875
S':'
asbag48
(g69
g50
NtRp1876
(dp1877
g53
(dp1878
sg62
g1863
sg55
(lp1879
g48
(g49
g50
NtRp1880
(dp1881
g53
(dp1882
g61
I5
ssg62
g1876
sg55
(lp1883
g48
(g57
g50
NtRp1884
(dp1885
g53
(dp1886
g61
I4
ssg62
Nsg55
(lp1887
g48
(g64
g50
NtRp1888
(dp1889
g53
(dp1890
sg62
g1884
sg55
(lp1891
g48
(g69
g50
NtRp1892
(dp1893
g53
(dp1894
g73
g74
ssg62
g1888
sg55
(lp1895
S'environ'
p1896
asbag48
(g69
g50
NtRp1897
(dp1898
g53
(dp1899
g80
g81
ssg62
g1888
sg55
(lp1900
S':'
asbag48
(g69
g50
NtRp1901
(dp1902
g53
(dp1903
sg62
g1888
sg55
(lp1904
g48
(g49
g50
NtRp1905
(dp1906
g53
(dp1907
g61
I4
ssg62
g1901
sg55
(lp1908
g48
(g57
g50
NtRp1909
(dp1910
g53
(dp1911
g61
I3
ssg62
Nsg55
(lp1912
g48
(g64
g50
NtRp1913
(dp1914
g53
(dp1915
sg62
g1909
sg55
(lp1916
g48
(g69
g50
NtRp1917
(dp1918
g53
(dp1919
g73
g74
ssg62
g1913
sg55
(lp1920
S'HTTP_ACCEPT'
p1921
asbag48
(g69
g50
NtRp1922
(dp1923
g53
(dp1924
g80
g81
ssg62
g1913
sg55
(lp1925
S':'
asbag48
(g69
g50
NtRp1926
(dp1927
g53
(dp1928
sg62
g1913
sg55
(lp1929
g48
(g49
g50
NtRp1930
(dp1931
g53
(dp1932
g61
I3
ssg62
g1926
sg55
(lp1933
g933
asbasbasbag48
(g64
g50
NtRp1934
(dp1935
g53
(dp1936
sg62
g1909
sg55
(lp1937
g48
(g69
g50
NtRp1938
(dp1939
g53
(dp1940
g73
g74
ssg62
g1934
sg55
(lp1941
S'HTTP_ACCEPT_CHARSET'
p1942
asbag48
(g69
g50
NtRp1943
(dp1944
g53
(dp1945
g80
g81
ssg62
g1934
sg55
(lp1946
S':'
asbag48
(g69
g50
NtRp1947
(dp1948
g53
(dp1949
sg62
g1934
sg55
(lp1950
g48
(g49
g50
NtRp1951
(dp1952
g53
(dp1953
g61
I3
ssg62
g1947
sg55
(lp1954
g955
asbasbasbag48
(g64
g50
NtRp1955
(dp1956
g53
(dp1957
sg62
g1909
sg55
(lp1958
g48
(g69
g50
NtRp1959
(dp1960
g53
(dp1961
g73
g74
ssg62
g1955
sg55
(lp1962
S'HTTP_ACCEPT_ENCODING'
p1963
asbag48
(g69
g50
NtRp1964
(dp1965
g53
(dp1966
g80
g81
ssg62
g1955
sg55
(lp1967
S':'
asbag48
(g69
g50
NtRp1968
(dp1969
g53
(dp1970
sg62
g1955
sg55
(lp1971
g48
(g49
g50
NtRp1972
(dp1973
g53
(dp1974
g61
I3
ssg62
g1968
sg55
(lp1975
g977
asbasbasbag48
(g64
g50
NtRp1976
(dp1977
g53
(dp1978
sg62
g1909
sg55
(lp1979
g48
(g69
g50
NtRp1980
(dp1981
g53
(dp1982
g73
g74
ssg62
g1976
sg55
(lp1983
S'HTTP_ACCEPT_LANGUAGE'
p1984
asbag48
(g69
g50
NtRp1985
(dp1986
g53
(dp1987
g80
g81
ssg62
g1976
sg55
(lp1988
S':'
asbag48
(g69
g50
NtRp1989
(dp1990
g53
(dp1991
sg62
g1976
sg55
(lp1992
g48
(g49
g50
NtRp1993
(dp1994
g53
(dp1995
g61
I3
ssg62
g1989
sg55
(lp1996
g999
asbasbasbag48
(g64
g50
NtRp1997
(dp1998
g53
(dp1999
sg62
g1909
sg55
(lp2000
g48
(g69
g50
NtRp2001
(dp2002
g53
(dp2003
g73
g74
ssg62
g1997
sg55
(lp2004
S'HTTP_CONNECTION'
p2005
asbag48
(g69
g50
NtRp2006
(dp2007
g53
(dp2008
g80
g81
ssg62
g1997
sg55
(lp2009
S':'
asbag48
(g69
g50
NtRp2010
(dp2011
g53
(dp2012
sg62
g1997
sg55
(lp2013
g48
(g49
g50
NtRp2014
(dp2015
g53
(dp2016
g61
I3
ssg62
g2010
sg55
(lp2017
g1021
asbasbasbag48
(g64
g50
NtRp2018
(dp2019
g53
(dp2020
sg62
g1909
sg55
(lp2021
g48
(g69
g50
NtRp2022
(dp2023
g53
(dp2024
g73
g74
ssg62
g2018
sg55
(lp2025
S'HTTP_COOKIE'
p2026
asbag48
(g69
g50
NtRp2027
(dp2028
g53
(dp2029
g80
g81
ssg62
g2018
sg55
(lp2030
S':'
asbag48
(g69
g50
NtRp2031
(dp2032
g53
(dp2033
sg62
g2018
sg55
(lp2034
g48
(g49
g50
NtRp2035
(dp2036
g53
(dp2037
g61
I3
ssg62
g2031
sg55
(lp2038
g1043
asbasbasbag48
(g64
g50
NtRp2039
(dp2040
g53
(dp2041
sg62
g1909
sg55
(lp2042
g48
(g69
g50
NtRp2043
(dp2044
g53
(dp2045
g73
g74
ssg62
g2039
sg55
(lp2046
S'HTTP_HOST'
p2047
asbag48
(g69
g50
NtRp2048
(dp2049
g53
(dp2050
g80
g81
ssg62
g2039
sg55
(lp2051
S':'
asbag48
(g69
g50
NtRp2052
(dp2053
g53
(dp2054
sg62
g2039
sg55
(lp2055
g48
(g49
g50
NtRp2056
(dp2057
g53
(dp2058
g61
I3
ssg62
g2052
sg55
(lp2059
g1065
asbasbasbag48
(g64
g50
NtRp2060
(dp2061
g53
(dp2062
sg62
g1909
sg55
(lp2063
g48
(g69
g50
NtRp2064
(dp2065
g53
(dp2066
g73
g74
ssg62
g2060
sg55
(lp2067
S'HTTP_REFERER'
p2068
asbag48
(g69
g50
NtRp2069
(dp2070
g53
(dp2071
g80
g81
ssg62
g2060
sg55
(lp2072
S':'
asbag48
(g69
g50
NtRp2073
(dp2074
g53
(dp2075
sg62
g2060
sg55
(lp2076
g48
(g49
g50
NtRp2077
(dp2078
g53
(dp2079
g61
I3
ssg62
g2073
sg55
(lp2080
g1087
asbasbasbag48
(g64
g50
NtRp2081
(dp2082
g53
(dp2083
sg62
g1909
sg55
(lp2084
g48
(g69
g50
NtRp2085
(dp2086
g53
(dp2087
g73
g74
ssg62
g2081
sg55
(lp2088
S'HTTP_USER_AGENT'
p2089
asbag48
(g69
g50
NtRp2090
(dp2091
g53
(dp2092
g80
g81
ssg62
g2081
sg55
(lp2093
S':'
asbag48
(g69
g50
NtRp2094
(dp2095
g53
(dp2096
sg62
g2081
sg55
(lp2097
g48
(g49
g50
NtRp2098
(dp2099
g53
(dp2100
g61
I3
ssg62
g2094
sg55
(lp2101
g1109
asbasbasbag48
(g64
g50
NtRp2102
(dp2103
g53
(dp2104
sg62
g1909
sg55
(lp2105
g48
(g69
g50
NtRp2106
(dp2107
g53
(dp2108
g73
g74
ssg62
g2102
sg55
(lp2109
S'PATH_INFO'
p2110
asbag48
(g69
g50
NtRp2111
(dp2112
g53
(dp2113
g80
g81
ssg62
g2102
sg55
(lp2114
S':'
asbag48
(g69
g50
NtRp2115
(dp2116
g53
(dp2117
sg62
g2102
sg55
(lp2118
g48
(g49
g50
NtRp2119
(dp2120
g53
(dp2121
g61
I3
ssg62
g2115
sg55
(lp2122
g1131
asbasbasbag48
(g64
g50
NtRp2123
(dp2124
g53
(dp2125
sg62
g1909
sg55
(lp2126
g48
(g69
g50
NtRp2127
(dp2128
g53
(dp2129
g73
g74
ssg62
g2123
sg55
(lp2130
S'QUERY_STRING'
p2131
asbag48
(g69
g50
NtRp2132
(dp2133
g53
(dp2134
g80
g81
ssg62
g2123
sg55
(lp2135
S':'
asbag48
(g69
g50
NtRp2136
(dp2137
g53
(dp2138
sg62
g2123
sg55
(lp2139
g48
(g49
g50
NtRp2140
(dp2141
g53
(dp2142
g61
I3
ssg62
g2136
sg55
(lp2143
S''
asbasbasbag48
(g64
g50
NtRp2144
(dp2145
g53
(dp2146
sg62
g1909
sg55
(lp2147
g48
(g69
g50
NtRp2148
(dp2149
g53
(dp2150
g73
g74
ssg62
g2144
sg55
(lp2151
S'REMOTE_ADDR'
p2152
asbag48
(g69
g50
NtRp2153
(dp2154
g53
(dp2155
g80
g81
ssg62
g2144
sg55
(lp2156
S':'
asbag48
(g69
g50
NtRp2157
(dp2158
g53
(dp2159
sg62
g2144
sg55
(lp2160
g48
(g49
g50
NtRp2161
(dp2162
g53
(dp2163
g61
I3
ssg62
g2157
sg55
(lp2164
g181
asbasbasbag48
(g64
g50
NtRp2165
(dp2166
g53
(dp2167
sg62
g1909
sg55
(lp2168
g48
(g69
g50
NtRp2169
(dp2170
g53
(dp2171
g73
g74
ssg62
g2165
sg55
(lp2172
S'REMOTE_PORT'
p2173
asbag48
(g69
g50
NtRp2174
(dp2175
g53
(dp2176
g80
g81
ssg62
g2165
sg55
(lp2177
S':'
asbag48
(g69
g50
NtRp2178
(dp2179
g53
(dp2180
sg62
g2165
sg55
(lp2181
g48
(g49
g50
NtRp2182
(dp2183
g53
(dp2184
g61
I3
ssg62
g2178
sg55
(lp2185
g1195
asbasbasbag48
(g64
g50
NtRp2186
(dp2187
g53
(dp2188
sg62
g1909
sg55
(lp2189
g48
(g69
g50
NtRp2190
(dp2191
g53
(dp2192
g73
g74
ssg62
g2186
sg55
(lp2193
S'REQUEST_METHOD'
p2194
asbag48
(g69
g50
NtRp2195
(dp2196
g53
(dp2197
g80
g81
ssg62
g2186
sg55
(lp2198
S':'
asbag48
(g69
g50
NtRp2199
(dp2200
g53
(dp2201
sg62
g2186
sg55
(lp2202
g48
(g49
g50
NtRp2203
(dp2204
g53
(dp2205
g61
I3
ssg62
g2199
sg55
(lp2206
g1217
asbasbasbag48
(g64
g50
NtRp2207
(dp2208
g53
(dp2209
sg62
g1909
sg55
(lp2210
g48
(g69
g50
NtRp2211
(dp2212
g53
(dp2213
g73
g74
ssg62
g2207
sg55
(lp2214
S'SCRIPT_NAME'
p2215
asbag48
(g69
g50
NtRp2216
(dp2217
g53
(dp2218
g80
g81
ssg62
g2207
sg55
(lp2219
S':'
asbag48
(g69
g50
NtRp2220
(dp2221
g53
(dp2222
sg62
g2207
sg55
(lp2223
g48
(g49
g50
NtRp2224
(dp2225
g53
(dp2226
g61
I3
ssg62
g2220
sg55
(lp2227
S''
asbasbasbag48
(g64
g50
NtRp2228
(dp2229
g53
(dp2230
sg62
g1909
sg55
(lp2231
g48
(g69
g50
NtRp2232
(dp2233
g53
(dp2234
g73
g74
ssg62
g2228
sg55
(lp2235
S'SERVER_NAME'
p2236
asbag48
(g69
g50
NtRp2237
(dp2238
g53
(dp2239
g80
g81
ssg62
g2228
sg55
(lp2240
S':'
asbag48
(g69
g50
NtRp2241
(dp2242
g53
(dp2243
sg62
g2228
sg55
(lp2244
g48
(g49
g50
NtRp2245
(dp2246
g53
(dp2247
g61
I3
ssg62
g2241
sg55
(lp2248
g1260
asbasbasbag48
(g64
g50
NtRp2249
(dp2250
g53
(dp2251
sg62
g1909
sg55
(lp2252
g48
(g69
g50
NtRp2253
(dp2254
g53
(dp2255
g73
g74
ssg62
g2249
sg55
(lp2256
S'SERVER_PORT'
p2257
asbag48
(g69
g50
NtRp2258
(dp2259
g53
(dp2260
g80
g81
ssg62
g2249
sg55
(lp2261
S':'
asbag48
(g69
g50
NtRp2262
(dp2263
g53
(dp2264
sg62
g2249
sg55
(lp2265
g48
(g49
g50
NtRp2266
(dp2267
g53
(dp2268
g61
I3
ssg62
g2262
sg55
(lp2269
g1282
asbasbasbag48
(g64
g50
NtRp2270
(dp2271
g53
(dp2272
sg62
g1909
sg55
(lp2273
g48
(g69
g50
NtRp2274
(dp2275
g53
(dp2276
g73
g74
ssg62
g2270
sg55
(lp2277
S'SERVER_PROTOCOL'
p2278
asbag48
(g69
g50
NtRp2279
(dp2280
g53
(dp2281
g80
g81
ssg62
g2270
sg55
(lp2282
S':'
asbag48
(g69
g50
NtRp2283
(dp2284
g53
(dp2285
sg62
g2270
sg55
(lp2286
g48
(g49
g50
NtRp2287
(dp2288
g53
(dp2289
g61
I3
ssg62
g2283
sg55
(lp2290
g1304
asbasbasbag48
(g64
g50
NtRp2291
(dp2292
g53
(dp2293
sg62
g1909
sg55
(lp2294
g48
(g69
g50
NtRp2295
(dp2296
g53
(dp2297
g73
g74
ssg62
g2291
sg55
(lp2298
S'SERVER_SOFTWARE'
p2299
asbag48
(g69
g50
NtRp2300
(dp2301
g53
(dp2302
g80
g81
ssg62
g2291
sg55
(lp2303
S':'
asbag48
(g69
g50
NtRp2304
(dp2305
g53
(dp2306
sg62
g2291
sg55
(lp2307
g48
(g49
g50
NtRp2308
(dp2309
g53
(dp2310
g61
I3
ssg62
g2304
sg55
(lp2311
g1326
asbasbasbag48
(g64
g50
NtRp2312
(dp2313
g53
(dp2314
sg62
g1909
sg55
(lp2315
g48
(g69
g50
NtRp2316
(dp2317
g53
(dp2318
g73
g74
ssg62
g2312
sg55
(lp2319
S'wsgi.errors'
p2320
asbag48
(g69
g50
NtRp2321
(dp2322
g53
(dp2323
g80
g81
ssg62
g2312
sg55
(lp2324
S':'
asbag48
(g69
g50
NtRp2325
(dp2326
g53
(dp2327
sg62
g2312
sg55
(lp2328
g48
(g49
g50
NtRp2329
(dp2330
g53
(dp2331
g61
I3
ssg62
g2325
sg55
(lp2332
S"<open file '<stderr>', mode 'w' at 0x002500B0>"
p2333
asbasbasbag48
(g64
g50
NtRp2334
(dp2335
g53
(dp2336
sg62
g1909
sg55
(lp2337
g48
(g69
g50
NtRp2338
(dp2339
g53
(dp2340
g73
g74
ssg62
g2334
sg55
(lp2341
S'wsgi.file_wrapper'
p2342
asbag48
(g69
g50
NtRp2343
(dp2344
g53
(dp2345
g80
g81
ssg62
g2334
sg55
(lp2346
S':'
asbag48
(g69
g50
NtRp2347
(dp2348
g53
(dp2349
sg62
g2334
sg55
(lp2350
g48
(g49
g50
NtRp2351
(dp2352
g53
(dp2353
g61
I3
ssg62
g2347
sg55
(lp2354
S'<class gluon.rocket.FileWrapper at 0x03132BA0>'
p2355
asbasbasbag48
(g64
g50
NtRp2356
(dp2357
g53
(dp2358
sg62
g1909
sg55
(lp2359
g48
(g69
g50
NtRp2360
(dp2361
g53
(dp2362
g73
g74
ssg62
g2356
sg55
(lp2363
S'wsgi.input'
p2364
asbag48
(g69
g50
NtRp2365
(dp2366
g53
(dp2367
g80
g81
ssg62
g2356
sg55
(lp2368
S':'
asbag48
(g69
g50
NtRp2369
(dp2370
g53
(dp2371
sg62
g2356
sg55
(lp2372
g48
(g49
g50
NtRp2373
(dp2374
g53
(dp2375
g61
I3
ssg62
g2369
sg55
(lp2376
S'<cStringIO.StringO object at 0x06E77100>'
p2377
asbasbasbag48
(g64
g50
NtRp2378
(dp2379
g53
(dp2380
sg62
g1909
sg55
(lp2381
g48
(g69
g50
NtRp2382
(dp2383
g53
(dp2384
g73
g74
ssg62
g2378
sg55
(lp2385
S'wsgi.multiprocess'
p2386
asbag48
(g69
g50
NtRp2387
(dp2388
g53
(dp2389
g80
g81
ssg62
g2378
sg55
(lp2390
S':'
asbag48
(g69
g50
NtRp2391
(dp2392
g53
(dp2393
sg62
g2378
sg55
(lp2394
g48
(g49
g50
NtRp2395
(dp2396
g53
(dp2397
g61
I3
ssg62
g2391
sg55
(lp2398
g91
asbasbasbag48
(g64
g50
NtRp2399
(dp2400
g53
(dp2401
sg62
g1909
sg55
(lp2402
g48
(g69
g50
NtRp2403
(dp2404
g53
(dp2405
g73
g74
ssg62
g2399
sg55
(lp2406
S'wsgi.multithread'
p2407
asbag48
(g69
g50
NtRp2408
(dp2409
g53
(dp2410
g80
g81
ssg62
g2399
sg55
(lp2411
S':'
asbag48
(g69
g50
NtRp2412
(dp2413
g53
(dp2414
sg62
g2399
sg55
(lp2415
g48
(g49
g50
NtRp2416
(dp2417
g53
(dp2418
g61
I3
ssg62
g2412
sg55
(lp2419
g1500
asbasbasbag48
(g64
g50
NtRp2420
(dp2421
g53
(dp2422
sg62
g1909
sg55
(lp2423
g48
(g69
g50
NtRp2424
(dp2425
g53
(dp2426
g73
g74
ssg62
g2420
sg55
(lp2427
S'wsgi.run_once'
p2428
asbag48
(g69
g50
NtRp2429
(dp2430
g53
(dp2431
g80
g81
ssg62
g2420
sg55
(lp2432
S':'
asbag48
(g69
g50
NtRp2433
(dp2434
g53
(dp2435
sg62
g2420
sg55
(lp2436
g48
(g49
g50
NtRp2437
(dp2438
g53
(dp2439
g61
I3
ssg62
g2433
sg55
(lp2440
g91
asbasbasbag48
(g64
g50
NtRp2441
(dp2442
g53
(dp2443
sg62
g1909
sg55
(lp2444
g48
(g69
g50
NtRp2445
(dp2446
g53
(dp2447
g73
g74
ssg62
g2441
sg55
(lp2448
S'wsgi.url_scheme'
p2449
asbag48
(g69
g50
NtRp2450
(dp2451
g53
(dp2452
g80
g81
ssg62
g2441
sg55
(lp2453
S':'
asbag48
(g69
g50
NtRp2454
(dp2455
g53
(dp2456
sg62
g2441
sg55
(lp2457
g48
(g49
g50
NtRp2458
(dp2459
g53
(dp2460
g61
I3
ssg62
g2454
sg55
(lp2461
g1543
asbasbasbag48
(g64
g50
NtRp2462
(dp2463
g53
(dp2464
sg62
g1909
sg55
(lp2465
g48
(g69
g50
NtRp2466
(dp2467
g53
(dp2468
g73
g74
ssg62
g2462
sg55
(lp2469
S'wsgi.version'
p2470
asbag48
(g69
g50
NtRp2471
(dp2472
g53
(dp2473
g80
g81
ssg62
g2462
sg55
(lp2474
S':'
asbag48
(g69
g50
NtRp2475
(dp2476
g53
(dp2477
sg62
g2462
sg55
(lp2478
g48
(g49
g50
NtRp2479
(dp2480
g53
(dp2481
g61
I3
ssg62
g2475
sg55
(lp2482
S'1'
asbasbasbasbasbasbasbasbasbasbasbasbasbsS'frames'
p2483
(lp2484
(dp2485
S'file'
p2486
S'C:\\Users\\AKSHAY\\Desktop\\web2py\\gluon\\restricted.py'
p2487
sS'dump'
p2488
(dp2489
sS'lnum'
p2490
I192
sS'lines'
p2491
(dp2492
sS'call'
p2493
S"(code='# -*- coding: utf-8 -*-\\n# this file is released ...rows=rows)\\n\\nresponse._vars=response._caller(new)\\n', environment={'A': <class 'gluon.html.A'>, 'Auth': <class 'gluon.tools.Auth'>, 'B': <class 'gluon.html.B'>, 'BEAUTIFY': <class 'gluon.html.BEAUTIFY'>, 'BODY': <class 'gluon.html.BODY'>, 'BR': <class 'gluon.html.BR'>, 'BUTTON': <class 'gluon.html.BUTTON'>, 'CENTER': <class 'gluon.html.CENTER'>, 'CLEANUP': <class 'gluon.validators.CLEANUP'>, 'CODE': <class 'gluon.html.CODE'>, ...}, layer=r'C:\\Users\\AKSHAY\\Desktop\\web2py\\applications\\201056161\\controllers/default.py')"
p2494
sS'func'
p2495
S'restricted'
p2496
sa(dp2497
g2486
S'C:\\Users\\AKSHAY\\Desktop\\web2py\\applications\\201056161\\controllers\\default.py'
p2498
sg2488
(dp2499
sg2490
I169
sg2491
(dp2500
I160
S'    #here whatever be always sname will be referred by id !'
p2501
sI161
S'    rows=db(db.song.singer==sname).select(db.song.name)'
p2502
sI162
S'    return dict(rows=rows)'
p2503
sI163
S'  else:'
p2504
sI164
S'    sname=str(request.vars.namen)'
p2505
sI165
S'    movien=str(request.vars.movien)'
p2506
sI166
S'    rows=db((db.song.singer==sname) & (db.song.movie==movien)).select(db.song.name)'
p2507
sI167
S'    return dict(rows=rows)'
p2508
sI158
S'  if request.vars.movien==NULL:'
p2509
sI159
S'    sname=str(request.vars.namen)'
p2510
ssg2493
S'()'
p2511
sg2495
S'<module>'
p2512
sa(dp2513
g2486
S'C:\\Users\\AKSHAY\\Desktop\\web2py\\gluon\\globals.py'
p2514
sg2488
(dp2515
sg2490
I137
sg2491
(dp2516
sg2493
S'(f=<function new at 0x031E6DB0>)'
p2517
sg2495
S'<lambda>'
p2518
sa(dp2519
g2486
S'C:\\Users\\AKSHAY\\Desktop\\web2py\\applications\\201056161\\controllers\\default.py'
p2520
sg2488
(dp2521
sg2490
I151
sg2491
(dp2522
I146
S'  elif form.errors:'
p2523
sI147
S"      response.flash='Errors in form'"
p2524
sI148
S'  return dict(form=form)'
p2525
sI149
S'def new():'
p2526
sI150
S"  form = SQLFORM.factory(db.Field('namen',db.artist,requires=IS_IN_DB(db,'artist.id','artist.artist_name'),label='Select Artist'),"
p2527
sI151
S"                         db.Field('movien',db.movie,requires=IS_NULL_OR(IS_IN_DB(db,'movie.id','movie.name'),label='Select movie')))"
p2528
sI152
S'  if form.accepts(request.vars,session):'
p2529
sI153
S"    redirect(URL(r=request, f='new2?namen='+form.vars.namen+'&movien='+form.vars.movien))"
p2530
sI154
S'  elif form.errors:'
p2531
sI155
S"    response.flash='Errors in form Please re-enter'"
p2532
ssg2493
S'()'
p2533
sg2495
S'new'
p2534
sasS'pyver'
p2535
S'Python 2.5.4: C:\\Users\\AKSHAY\\Desktop\\web2py\\web2py.exe'
p2536
sS'session'
p2537
g48
(g49
g50
NtRp2538
(dp2539
g53
(dp2540
sg55
(lp2541
g48
(g57
g50
NtRp2542
(dp2543
g53
(dp2544
g61
I5
ssg62
Nsg55
(lp2545
sbasbsS'etype'
p2546
S"<type 'exceptions.TypeError'>"
p2547
sS'date'
p2548
S'Wed Sep 07 02:27:28 2011'
p2549
sS'response'
p2550
g48
(g49
g50
NtRp2551
(dp2552
g53
(dp2553
sg55
(lp2554
g48
(g57
g50
NtRp2555
(dp2556
g53
(dp2557
g61
I5
ssg62
Nsg55
(lp2558
g48
(g64
g50
NtRp2559
(dp2560
g53
(dp2561
sg62
g2555
sg55
(lp2562
g48
(g69
g50
NtRp2563
(dp2564
g53
(dp2565
g73
g74
ssg62
g2559
sg55
(lp2566
g146
asbag48
(g69
g50
NtRp2567
(dp2568
g53
(dp2569
g80
g81
ssg62
g2559
sg55
(lp2570
S':'
asbag48
(g69
g50
NtRp2571
(dp2572
g53
(dp2573
sg62
g2559
sg55
(lp2574
g48
(g49
g50
NtRp2575
(dp2576
g53
(dp2577
g61
I5
ssg62
g2571
sg55
(lp2578
S'<cStringIO.StringO object at 0x06E77E60>'
p2579
asbasbasbag48
(g64
g50
NtRp2580
(dp2581
g53
(dp2582
sg62
g2555
sg55
(lp2583
g48
(g69
g50
NtRp2584
(dp2585
g53
(dp2586
g73
g74
ssg62
g2580
sg55
(lp2587
g212
asbag48
(g69
g50
NtRp2588
(dp2589
g53
(dp2590
g80
g81
ssg62
g2580
sg55
(lp2591
S':'
asbag48
(g69
g50
NtRp2592
(dp2593
g53
(dp2594
sg62
g2580
sg55
(lp2595
g48
(g49
g50
NtRp2596
(dp2597
g53
(dp2598
g61
I5
ssg62
g2592
sg55
(lp2599
g48
(g57
g50
NtRp2600
(dp2601
g53
(dp2602
g61
I4
ssg62
Nsg55
(lp2603
g48
(g64
g50
NtRp2604
(dp2605
g53
(dp2606
sg62
g2600
sg55
(lp2607
g48
(g69
g50
NtRp2608
(dp2609
g53
(dp2610
g73
g74
ssg62
g2604
sg55
(lp2611
S'session_id_201056161'
p2612
asbag48
(g69
g50
NtRp2613
(dp2614
g53
(dp2615
g80
g81
ssg62
g2604
sg55
(lp2616
S':'
asbag48
(g69
g50
NtRp2617
(dp2618
g53
(dp2619
sg62
g2604
sg55
(lp2620
g48
(g49
g50
NtRp2621
(dp2622
g53
(dp2623
g61
I4
ssg62
g2617
sg55
(lp2624
g48
(g57
g50
NtRp2625
(dp2626
g53
(dp2627
g61
I3
ssg62
Nsg55
(lp2628
g48
(g64
g50
NtRp2629
(dp2630
g53
(dp2631
sg62
g2625
sg55
(lp2632
g48
(g69
g50
NtRp2633
(dp2634
g53
(dp2635
g73
g74
ssg62
g2629
sg55
(lp2636
g262
asbag48
(g69
g50
NtRp2637
(dp2638
g53
(dp2639
g80
g81
ssg62
g2629
sg55
(lp2640
S':'
asbag48
(g69
g50
NtRp2641
(dp2642
g53
(dp2643
sg62
g2629
sg55
(lp2644
g48
(g49
g50
NtRp2645
(dp2646
g53
(dp2647
g61
I3
ssg62
g2641
sg55
(lp2648
S''
asbasbasbag48
(g64
g50
NtRp2649
(dp2650
g53
(dp2651
sg62
g2625
sg55
(lp2652
g48
(g69
g50
NtRp2653
(dp2654
g53
(dp2655
g73
g74
ssg62
g2649
sg55
(lp2656
g283
asbag48
(g69
g50
NtRp2657
(dp2658
g53
(dp2659
g80
g81
ssg62
g2649
sg55
(lp2660
S':'
asbag48
(g69
g50
NtRp2661
(dp2662
g53
(dp2663
sg62
g2649
sg55
(lp2664
g48
(g49
g50
NtRp2665
(dp2666
g53
(dp2667
g61
I3
ssg62
g2661
sg55
(lp2668
S''
asbasbasbag48
(g64
g50
NtRp2669
(dp2670
g53
(dp2671
sg62
g2625
sg55
(lp2672
g48
(g69
g50
NtRp2673
(dp2674
g53
(dp2675
g73
g74
ssg62
g2669
sg55
(lp2676
g304
asbag48
(g69
g50
NtRp2677
(dp2678
g53
(dp2679
g80
g81
ssg62
g2669
sg55
(lp2680
S':'
asbag48
(g69
g50
NtRp2681
(dp2682
g53
(dp2683
sg62
g2669
sg55
(lp2684
g48
(g49
g50
NtRp2685
(dp2686
g53
(dp2687
g61
I3
ssg62
g2681
sg55
(lp2688
S''
asbasbasbag48
(g64
g50
NtRp2689
(dp2690
g53
(dp2691
sg62
g2625
sg55
(lp2692
g48
(g69
g50
NtRp2693
(dp2694
g53
(dp2695
g73
g74
ssg62
g2689
sg55
(lp2696
g325
asbag48
(g69
g50
NtRp2697
(dp2698
g53
(dp2699
g80
g81
ssg62
g2689
sg55
(lp2700
S':'
asbag48
(g69
g50
NtRp2701
(dp2702
g53
(dp2703
sg62
g2689
sg55
(lp2704
g48
(g49
g50
NtRp2705
(dp2706
g53
(dp2707
g61
I3
ssg62
g2701
sg55
(lp2708
S''
asbasbasbag48
(g64
g50
NtRp2709
(dp2710
g53
(dp2711
sg62
g2625
sg55
(lp2712
g48
(g69
g50
NtRp2713
(dp2714
g53
(dp2715
g73
g74
ssg62
g2709
sg55
(lp2716
g346
asbag48
(g69
g50
NtRp2717
(dp2718
g53
(dp2719
g80
g81
ssg62
g2709
sg55
(lp2720
S':'
asbag48
(g69
g50
NtRp2721
(dp2722
g53
(dp2723
sg62
g2709
sg55
(lp2724
g48
(g49
g50
NtRp2725
(dp2726
g53
(dp2727
g61
I3
ssg62
g2721
sg55
(lp2728
S'/'
asbasbasbag48
(g64
g50
NtRp2729
(dp2730
g53
(dp2731
sg62
g2625
sg55
(lp2732
g48
(g69
g50
NtRp2733
(dp2734
g53
(dp2735
g73
g74
ssg62
g2729
sg55
(lp2736
g367
asbag48
(g69
g50
NtRp2737
(dp2738
g53
(dp2739
g80
g81
ssg62
g2729
sg55
(lp2740
S':'
asbag48
(g69
g50
NtRp2741
(dp2742
g53
(dp2743
sg62
g2729
sg55
(lp2744
g48
(g49
g50
NtRp2745
(dp2746
g53
(dp2747
g61
I3
ssg62
g2741
sg55
(lp2748
S''
asbasbasbag48
(g64
g50
NtRp2749
(dp2750
g53
(dp2751
sg62
g2625
sg55
(lp2752
g48
(g69
g50
NtRp2753
(dp2754
g53
(dp2755
g73
g74
ssg62
g2749
sg55
(lp2756
g388
asbag48
(g69
g50
NtRp2757
(dp2758
g53
(dp2759
g80
g81
ssg62
g2749
sg55
(lp2760
S':'
asbag48
(g69
g50
NtRp2761
(dp2762
g53
(dp2763
sg62
g2749
sg55
(lp2764
g48
(g49
g50
NtRp2765
(dp2766
g53
(dp2767
g61
I3
ssg62
g2761
sg55
(lp2768
S''
asbasbasbasbasbasbasbasbasbasbasbag48
(g64
g50
NtRp2769
(dp2770
g53
(dp2771
sg62
g2555
sg55
(lp2772
g48
(g69
g50
NtRp2773
(dp2774
g53
(dp2775
g73
g74
ssg62
g2769
sg55
(lp2776
S'files'
p2777
asbag48
(g69
g50
NtRp2778
(dp2779
g53
(dp2780
g80
g81
ssg62
g2769
sg55
(lp2781
S':'
asbag48
(g69
g50
NtRp2782
(dp2783
g53
(dp2784
sg62
g2769
sg55
(lp2785
g48
(g49
g50
NtRp2786
(dp2787
g53
(dp2788
g61
I5
ssg62
g2782
sg55
(lp2789
g48
(g57
g50
NtRp2790
(dp2791
g53
(dp2792
g61
I4
ssg62
Nsg55
(lp2793
sbasbasbasbag48
(g64
g50
NtRp2794
(dp2795
g53
(dp2796
sg62
g2555
sg55
(lp2797
g48
(g69
g50
NtRp2798
(dp2799
g53
(dp2800
g73
g74
ssg62
g2794
sg55
(lp2801
S'flash'
p2802
asbag48
(g69
g50
NtRp2803
(dp2804
g53
(dp2805
g80
g81
ssg62
g2794
sg55
(lp2806
S':'
asbag48
(g69
g50
NtRp2807
(dp2808
g53
(dp2809
sg62
g2794
sg55
(lp2810
g48
(g49
g50
NtRp2811
(dp2812
g53
(dp2813
g61
I5
ssg62
g2807
sg55
(lp2814
S''
asbasbasbag48
(g64
g50
NtRp2815
(dp2816
g53
(dp2817
sg62
g2555
sg55
(lp2818
g48
(g69
g50
NtRp2819
(dp2820
g53
(dp2821
g73
g74
ssg62
g2815
sg55
(lp2822
S'generic_patterns'
p2823
asbag48
(g69
g50
NtRp2824
(dp2825
g53
(dp2826
g80
g81
ssg62
g2815
sg55
(lp2827
S':'
asbag48
(g69
g50
NtRp2828
(dp2829
g53
(dp2830
sg62
g2815
sg55
(lp2831
g48
(g49
g50
NtRp2832
(dp2833
g53
(dp2834
g61
I5
ssg62
g2828
sg55
(lp2835
g48
(g57
g50
NtRp2836
(dp2837
g53
(dp2838
g61
I4
ssg62
Nsg55
(lp2839
g48
(g64
g50
NtRp2840
(dp2841
g53
(dp2842
sg62
g2836
sg55
(lp2843
g48
(g69
g50
NtRp2844
(dp2845
g53
(dp2846
sg62
g2840
sg55
(lp2847
g48
(g49
g50
NtRp2848
(dp2849
g53
(dp2850
g61
I4
ssg62
g2844
sg55
(lp2851
S'*'
asbasbasbasbasbasbasbag48
(g64
g50
NtRp2852
(dp2853
g53
(dp2854
sg62
g2555
sg55
(lp2855
g48
(g69
g50
NtRp2856
(dp2857
g53
(dp2858
g73
g74
ssg62
g2852
sg55
(lp2859
S'headers'
p2860
asbag48
(g69
g50
NtRp2861
(dp2862
g53
(dp2863
g80
g81
ssg62
g2852
sg55
(lp2864
S':'
asbag48
(g69
g50
NtRp2865
(dp2866
g53
(dp2867
sg62
g2852
sg55
(lp2868
g48
(g49
g50
NtRp2869
(dp2870
g53
(dp2871
g61
I5
ssg62
g2865
sg55
(lp2872
g48
(g57
g50
NtRp2873
(dp2874
g53
(dp2875
g61
I4
ssg62
Nsg55
(lp2876
g48
(g64
g50
NtRp2877
(dp2878
g53
(dp2879
sg62
g2873
sg55
(lp2880
g48
(g69
g50
NtRp2881
(dp2882
g53
(dp2883
g73
g74
ssg62
g2877
sg55
(lp2884
S'Cache-Control'
p2885
asbag48
(g69
g50
NtRp2886
(dp2887
g53
(dp2888
g80
g81
ssg62
g2877
sg55
(lp2889
S':'
asbag48
(g69
g50
NtRp2890
(dp2891
g53
(dp2892
sg62
g2877
sg55
(lp2893
g48
(g49
g50
NtRp2894
(dp2895
g53
(dp2896
g61
I4
ssg62
g2890
sg55
(lp2897
S'no-store, no-cache, must-revalidate, post-check=0, pre-check=0'
p2898
asbasbasbag48
(g64
g50
NtRp2899
(dp2900
g53
(dp2901
sg62
g2873
sg55
(lp2902
g48
(g69
g50
NtRp2903
(dp2904
g53
(dp2905
g73
g74
ssg62
g2899
sg55
(lp2906
S'Content-Type'
p2907
asbag48
(g69
g50
NtRp2908
(dp2909
g53
(dp2910
g80
g81
ssg62
g2899
sg55
(lp2911
S':'
asbag48
(g69
g50
NtRp2912
(dp2913
g53
(dp2914
sg62
g2899
sg55
(lp2915
g48
(g49
g50
NtRp2916
(dp2917
g53
(dp2918
g61
I4
ssg62
g2912
sg55
(lp2919
S'text/html; charset=utf-8'
p2920
asbasbasbag48
(g64
g50
NtRp2921
(dp2922
g53
(dp2923
sg62
g2873
sg55
(lp2924
g48
(g69
g50
NtRp2925
(dp2926
g53
(dp2927
g73
g74
ssg62
g2921
sg55
(lp2928
S'Expires'
p2929
asbag48
(g69
g50
NtRp2930
(dp2931
g53
(dp2932
g80
g81
ssg62
g2921
sg55
(lp2933
S':'
asbag48
(g69
g50
NtRp2934
(dp2935
g53
(dp2936
sg62
g2921
sg55
(lp2937
g48
(g49
g50
NtRp2938
(dp2939
g53
(dp2940
g61
I4
ssg62
g2934
sg55
(lp2941
S'Tue, 06 Sep 2011 20:57:28 GMT'
p2942
asbasbasbag48
(g64
g50
NtRp2943
(dp2944
g53
(dp2945
sg62
g2873
sg55
(lp2946
g48
(g69
g50
NtRp2947
(dp2948
g53
(dp2949
g73
g74
ssg62
g2943
sg55
(lp2950
S'Pragma'
p2951
asbag48
(g69
g50
NtRp2952
(dp2953
g53
(dp2954
g80
g81
ssg62
g2943
sg55
(lp2955
S':'
asbag48
(g69
g50
NtRp2956
(dp2957
g53
(dp2958
sg62
g2943
sg55
(lp2959
g48
(g49
g50
NtRp2960
(dp2961
g53
(dp2962
g61
I4
ssg62
g2956
sg55
(lp2963
S'no-cache'
p2964
asbasbasbag48
(g64
g50
NtRp2965
(dp2966
g53
(dp2967
sg62
g2873
sg55
(lp2968
g48
(g69
g50
NtRp2969
(dp2970
g53
(dp2971
g73
g74
ssg62
g2965
sg55
(lp2972
S'X-Powered-By'
p2973
asbag48
(g69
g50
NtRp2974
(dp2975
g53
(dp2976
g80
g81
ssg62
g2965
sg55
(lp2977
S':'
asbag48
(g69
g50
NtRp2978
(dp2979
g53
(dp2980
sg62
g2965
sg55
(lp2981
g48
(g49
g50
NtRp2982
(dp2983
g53
(dp2984
g61
I4
ssg62
g2978
sg55
(lp2985
S'web2py'
p2986
asbasbasbasbasbasbasbag48
(g64
g50
NtRp2987
(dp2988
g53
(dp2989
sg62
g2555
sg55
(lp2990
g48
(g69
g50
NtRp2991
(dp2992
g53
(dp2993
g73
g74
ssg62
g2987
sg55
(lp2994
S'menu'
p2995
asbag48
(g69
g50
NtRp2996
(dp2997
g53
(dp2998
g80
g81
ssg62
g2987
sg55
(lp2999
S':'
asbag48
(g69
g50
NtRp3000
(dp3001
g53
(dp3002
sg62
g2987
sg55
(lp3003
g48
(g49
g50
NtRp3004
(dp3005
g53
(dp3006
g61
I5
ssg62
g3000
sg55
(lp3007
g48
(g57
g50
NtRp3008
(dp3009
g53
(dp3010
g61
I4
ssg62
Nsg55
(lp3011
g48
(g64
g50
NtRp3012
(dp3013
g53
(dp3014
sg62
g3008
sg55
(lp3015
g48
(g69
g50
NtRp3016
(dp3017
g53
(dp3018
sg62
g3012
sg55
(lp3019
g48
(g49
g50
NtRp3020
(dp3021
g53
(dp3022
g61
I4
ssg62
g3016
sg55
(lp3023
g48
(g57
g50
NtRp3024
(dp3025
g53
(dp3026
g61
I3
ssg62
Nsg55
(lp3027
g48
(g64
g50
NtRp3028
(dp3029
g53
(dp3030
sg62
g3024
sg55
(lp3031
g48
(g69
g50
NtRp3032
(dp3033
g53
(dp3034
sg62
g3028
sg55
(lp3035
g48
(g49
g50
NtRp3036
(dp3037
g53
(dp3038
g61
I3
ssg62
g3032
sg55
(lp3039
cgluon.languages
lazyT_unpickle
p3040
(S's\x04\x00\x00\x00Home'
tRp3041
asbasbasbag48
(g64
g50
NtRp3042
(dp3043
g53
(dp3044
sg62
g3024
sg55
(lp3045
g48
(g69
g50
NtRp3046
(dp3047
g53
(dp3048
sg62
g3042
sg55
(lp3049
g48
(g49
g50
NtRp3050
(dp3051
g53
(dp3052
g61
I3
ssg62
g3046
sg55
(lp3053
g91
asbasbasbag48
(g64
g50
NtRp3054
(dp3055
g53
(dp3056
sg62
g3024
sg55
(lp3057
g48
(g69
g50
NtRp3058
(dp3059
g53
(dp3060
sg62
g3054
sg55
(lp3061
g48
(g49
g50
NtRp3062
(dp3063
g53
(dp3064
g61
I3
ssg62
g3058
sg55
(lp3065
S'/201056161/default/index'
p3066
asbasbasbag48
(g64
g50
NtRp3067
(dp3068
g53
(dp3069
sg62
g3024
sg55
(lp3070
g48
(g69
g50
NtRp3071
(dp3072
g53
(dp3073
sg62
g3067
sg55
(lp3074
g48
(g49
g50
NtRp3075
(dp3076
g53
(dp3077
g61
I3
ssg62
g3071
sg55
(lp3078
g48
(g57
g50
NtRp3079
(dp3080
g53
(dp3081
g61
I2
ssg62
Nsg55
(lp3082
sbasbasbasbasbasbasbasbag48
(g64
g50
NtRp3083
(dp3084
g53
(dp3085
sg62
g3008
sg55
(lp3086
g48
(g69
g50
NtRp3087
(dp3088
g53
(dp3089
sg62
g3083
sg55
(lp3090
g48
(g49
g50
NtRp3091
(dp3092
g53
(dp3093
g61
I4
ssg62
g3087
sg55
(lp3094
g48
(g57
g50
NtRp3095
(dp3096
g53
(dp3097
g61
I3
ssg62
Nsg55
(lp3098
g48
(g64
g50
NtRp3099
(dp3100
g53
(dp3101
sg62
g3095
sg55
(lp3102
g48
(g69
g50
NtRp3103
(dp3104
g53
(dp3105
sg62
g3099
sg55
(lp3106
g48
(g49
g50
NtRp3107
(dp3108
g53
(dp3109
g61
I3
ssg62
g3103
sg55
(lp3110
g3040
(S's\x08\x00\x00\x00This App'
tRp3111
asbasbasbag48
(g64
g50
NtRp3112
(dp3113
g53
(dp3114
sg62
g3095
sg55
(lp3115
g48
(g69
g50
NtRp3116
(dp3117
g53
(dp3118
sg62
g3112
sg55
(lp3119
g48
(g49
g50
NtRp3120
(dp3121
g53
(dp3122
g61
I3
ssg62
g3116
sg55
(lp3123
g91
asbasbasbag48
(g64
g50
NtRp3124
(dp3125
g53
(dp3126
sg62
g3095
sg55
(lp3127
g48
(g69
g50
NtRp3128
(dp3129
g53
(dp3130
sg62
g3124
sg55
(lp3131
g48
(g49
g50
NtRp3132
(dp3133
g53
(dp3134
g61
I3
ssg62
g3128
sg55
(lp3135
S'/admin/default/design/201056161'
p3136
asbasbasbag48
(g64
g50
NtRp3137
(dp3138
g53
(dp3139
sg62
g3095
sg55
(lp3140
g48
(g69
g50
NtRp3141
(dp3142
g53
(dp3143
sg62
g3137
sg55
(lp3144
g48
(g49
g50
NtRp3145
(dp3146
g53
(dp3147
g61
I3
ssg62
g3141
sg55
(lp3148
g48
(g57
g50
NtRp3149
(dp3150
g53
(dp3151
g61
I2
ssg62
Nsg55
(lp3152
g48
(g64
g50
NtRp3153
(dp3154
g53
(dp3155
sg62
g3149
sg55
(lp3156
g48
(g69
g50
NtRp3157
(dp3158
g53
(dp3159
sg62
g3153
sg55
(lp3160
g48
(g49
g50
NtRp3161
(dp3162
g53
(dp3163
g61
I2
ssg62
g3157
sg55
(lp3164
g48
(g57
g50
NtRp3165
(dp3166
g53
(dp3167
g61
I1
ssg62
Nsg55
(lp3168
g48
(g64
g50
NtRp3169
(dp3170
g53
(dp3171
sg62
g3165
sg55
(lp3172
g48
(g69
g50
NtRp3173
(dp3174
g53
(dp3175
sg62
g3169
sg55
(lp3176
g48
(g49
g50
NtRp3177
(dp3178
g53
(dp3179
g61
I1
ssg62
g3173
sg55
(lp3180
g3040
(S's\n\x00\x00\x00Controller'
tRp3181
asbasbasbag48
(g64
g50
NtRp3182
(dp3183
g53
(dp3184
sg62
g3165
sg55
(lp3185
g48
(g69
g50
NtRp3186
(dp3187
g53
(dp3188
sg62
g3182
sg55
(lp3189
g48
(g49
g50
NtRp3190
(dp3191
g53
(dp3192
g61
I1
ssg62
g3186
sg55
(lp3193
I00
asbasbasbag48
(g64
g50
NtRp3194
(dp3195
g53
(dp3196
sg62
g3165
sg55
(lp3197
g48
(g69
g50
NtRp3198
(dp3199
g53
(dp3200
sg62
g3194
sg55
(lp3201
g48
(g49
g50
NtRp3202
(dp3203
g53
(dp3204
g61
I1
ssg62
g3198
sg55
(lp3205
S'/admin/default/edit/201056161/controllers/default.py'
p3206
asbasbasbasbasbasbasbag48
(g64
g50
NtRp3207
(dp3208
g53
(dp3209
sg62
g3149
sg55
(lp3210
g48
(g69
g50
NtRp3211
(dp3212
g53
(dp3213
sg62
g3207
sg55
(lp3214
g48
(g49
g50
NtRp3215
(dp3216
g53
(dp3217
g61
I2
ssg62
g3211
sg55
(lp3218
g48
(g57
g50
NtRp3219
(dp3220
g53
(dp3221
g61
I1
ssg62
Nsg55
(lp3222
g48
(g64
g50
NtRp3223
(dp3224
g53
(dp3225
sg62
g3219
sg55
(lp3226
g48
(g69
g50
NtRp3227
(dp3228
g53
(dp3229
sg62
g3223
sg55
(lp3230
g48
(g49
g50
NtRp3231
(dp3232
g53
(dp3233
g61
I1
ssg62
g3227
sg55
(lp3234
g3040
(S's\x04\x00\x00\x00View'
tRp3235
asbasbasbag48
(g64
g50
NtRp3236
(dp3237
g53
(dp3238
sg62
g3219
sg55
(lp3239
g48
(g69
g50
NtRp3240
(dp3241
g53
(dp3242
sg62
g3236
sg55
(lp3243
g48
(g49
g50
NtRp3244
(dp3245
g53
(dp3246
g61
I1
ssg62
g3240
sg55
(lp3247
I00
asbasbasbag48
(g64
g50
NtRp3248
(dp3249
g53
(dp3250
sg62
g3219
sg55
(lp3251
g48
(g69
g50
NtRp3252
(dp3253
g53
(dp3254
sg62
g3248
sg55
(lp3255
g48
(g49
g50
NtRp3256
(dp3257
g53
(dp3258
g61
I1
ssg62
g3252
sg55
(lp3259
S'/admin/default/edit/201056161/views/default/new.html'
p3260
asbasbasbasbasbasbasbag48
(g64
g50
NtRp3261
(dp3262
g53
(dp3263
sg62
g3149
sg55
(lp3264
g48
(g69
g50
NtRp3265
(dp3266
g53
(dp3267
sg62
g3261
sg55
(lp3268
g48
(g49
g50
NtRp3269
(dp3270
g53
(dp3271
g61
I2
ssg62
g3265
sg55
(lp3272
g48
(g57
g50
NtRp3273
(dp3274
g53
(dp3275
g61
I1
ssg62
Nsg55
(lp3276
g48
(g64
g50
NtRp3277
(dp3278
g53
(dp3279
sg62
g3273
sg55
(lp3280
g48
(g69
g50
NtRp3281
(dp3282
g53
(dp3283
sg62
g3277
sg55
(lp3284
g48
(g49
g50
NtRp3285
(dp3286
g53
(dp3287
g61
I1
ssg62
g3281
sg55
(lp3288
g3040
(S's\x06\x00\x00\x00Layout'
tRp3289
asbasbasbag48
(g64
g50
NtRp3290
(dp3291
g53
(dp3292
sg62
g3273
sg55
(lp3293
g48
(g69
g50
NtRp3294
(dp3295
g53
(dp3296
sg62
g3290
sg55
(lp3297
g48
(g49
g50
NtRp3298
(dp3299
g53
(dp3300
g61
I1
ssg62
g3294
sg55
(lp3301
I00
asbasbasbag48
(g64
g50
NtRp3302
(dp3303
g53
(dp3304
sg62
g3273
sg55
(lp3305
g48
(g69
g50
NtRp3306
(dp3307
g53
(dp3308
sg62
g3302
sg55
(lp3309
g48
(g49
g50
NtRp3310
(dp3311
g53
(dp3312
g61
I1
ssg62
g3306
sg55
(lp3313
S'/admin/default/edit/201056161/views/layout.html'
p3314
asbasbasbasbasbasbasbag48
(g64
g50
NtRp3315
(dp3316
g53
(dp3317
sg62
g3149
sg55
(lp3318
g48
(g69
g50
NtRp3319
(dp3320
g53
(dp3321
sg62
g3315
sg55
(lp3322
g48
(g49
g50
NtRp3323
(dp3324
g53
(dp3325
g61
I2
ssg62
g3319
sg55
(lp3326
g48
(g57
g50
NtRp3327
(dp3328
g53
(dp3329
g61
I1
ssg62
Nsg55
(lp3330
g48
(g64
g50
NtRp3331
(dp3332
g53
(dp3333
sg62
g3327
sg55
(lp3334
g48
(g69
g50
NtRp3335
(dp3336
g53
(dp3337
sg62
g3331
sg55
(lp3338
g48
(g49
g50
NtRp3339
(dp3340
g53
(dp3341
g61
I1
ssg62
g3335
sg55
(lp3342
g3040
(S's\n\x00\x00\x00Stylesheet'
tRp3343
asbasbasbag48
(g64
g50
NtRp3344
(dp3345
g53
(dp3346
sg62
g3327
sg55
(lp3347
g48
(g69
g50
NtRp3348
(dp3349
g53
(dp3350
sg62
g3344
sg55
(lp3351
g48
(g49
g50
NtRp3352
(dp3353
g53
(dp3354
g61
I1
ssg62
g3348
sg55
(lp3355
I00
asbasbasbag48
(g64
g50
NtRp3356
(dp3357
g53
(dp3358
sg62
g3327
sg55
(lp3359
g48
(g69
g50
NtRp3360
(dp3361
g53
(dp3362
sg62
g3356
sg55
(lp3363
g48
(g49
g50
NtRp3364
(dp3365
g53
(dp3366
g61
I1
ssg62
g3360
sg55
(lp3367
S'/admin/default/edit/201056161/static/base.css'
p3368
asbasbasbasbasbasbasbag48
(g64
g50
NtRp3369
(dp3370
g53
(dp3371
sg62
g3149
sg55
(lp3372
g48
(g69
g50
NtRp3373
(dp3374
g53
(dp3375
sg62
g3369
sg55
(lp3376
g48
(g49
g50
NtRp3377
(dp3378
g53
(dp3379
g61
I2
ssg62
g3373
sg55
(lp3380
g48
(g57
g50
NtRp3381
(dp3382
g53
(dp3383
g61
I1
ssg62
Nsg55
(lp3384
g48
(g64
g50
NtRp3385
(dp3386
g53
(dp3387
sg62
g3381
sg55
(lp3388
g48
(g69
g50
NtRp3389
(dp3390
g53
(dp3391
sg62
g3385
sg55
(lp3392
g48
(g49
g50
NtRp3393
(dp3394
g53
(dp3395
g61
I1
ssg62
g3389
sg55
(lp3396
g3040
(S's\x08\x00\x00\x00DB Model'
tRp3397
asbasbasbag48
(g64
g50
NtRp3398
(dp3399
g53
(dp3400
sg62
g3381
sg55
(lp3401
g48
(g69
g50
NtRp3402
(dp3403
g53
(dp3404
sg62
g3398
sg55
(lp3405
g48
(g49
g50
NtRp3406
(dp3407
g53
(dp3408
g61
I1
ssg62
g3402
sg55
(lp3409
I00
asbasbasbag48
(g64
g50
NtRp3410
(dp3411
g53
(dp3412
sg62
g3381
sg55
(lp3413
g48
(g69
g50
NtRp3414
(dp3415
g53
(dp3416
sg62
g3410
sg55
(lp3417
g48
(g49
g50
NtRp3418
(dp3419
g53
(dp3420
g61
I1
ssg62
g3414
sg55
(lp3421
S'/admin/default/edit/201056161/models/db.py'
p3422
asbasbasbasbasbasbasbag48
(g64
g50
NtRp3423
(dp3424
g53
(dp3425
sg62
g3149
sg55
(lp3426
g48
(g69
g50
NtRp3427
(dp3428
g53
(dp3429
sg62
g3423
sg55
(lp3430
g48
(g49
g50
NtRp3431
(dp3432
g53
(dp3433
g61
I2
ssg62
g3427
sg55
(lp3434
g48
(g57
g50
NtRp3435
(dp3436
g53
(dp3437
g61
I1
ssg62
Nsg55
(lp3438
g48
(g64
g50
NtRp3439
(dp3440
g53
(dp3441
sg62
g3435
sg55
(lp3442
g48
(g69
g50
NtRp3443
(dp3444
g53
(dp3445
sg62
g3439
sg55
(lp3446
g48
(g49
g50
NtRp3447
(dp3448
g53
(dp3449
g61
I1
ssg62
g3443
sg55
(lp3450
g3040
(S's\n\x00\x00\x00Menu Model'
tRp3451
asbasbasbag48
(g64
g50
NtRp3452
(dp3453
g53
(dp3454
sg62
g3435
sg55
(lp3455
g48
(g69
g50
NtRp3456
(dp3457
g53
(dp3458
sg62
g3452
sg55
(lp3459
g48
(g49
g50
NtRp3460
(dp3461
g53
(dp3462
g61
I1
ssg62
g3456
sg55
(lp3463
I00
asbasbasbag48
(g64
g50
NtRp3464
(dp3465
g53
(dp3466
sg62
g3435
sg55
(lp3467
g48
(g69
g50
NtRp3468
(dp3469
g53
(dp3470
sg62
g3464
sg55
(lp3471
g48
(g49
g50
NtRp3472
(dp3473
g53
(dp3474
g61
I1
ssg62
g3468
sg55
(lp3475
S'/admin/default/edit/201056161/models/menu.py'
p3476
asbasbasbasbasbasbasbag48
(g64
g50
NtRp3477
(dp3478
g53
(dp3479
sg62
g3149
sg55
(lp3480
g48
(g69
g50
NtRp3481
(dp3482
g53
(dp3483
sg62
g3477
sg55
(lp3484
g48
(g49
g50
NtRp3485
(dp3486
g53
(dp3487
g61
I2
ssg62
g3481
sg55
(lp3488
g48
(g57
g50
NtRp3489
(dp3490
g53
(dp3491
g61
I1
ssg62
Nsg55
(lp3492
g48
(g64
g50
NtRp3493
(dp3494
g53
(dp3495
sg62
g3489
sg55
(lp3496
g48
(g69
g50
NtRp3497
(dp3498
g53
(dp3499
sg62
g3493
sg55
(lp3500
g48
(g49
g50
NtRp3501
(dp3502
g53
(dp3503
g61
I1
ssg62
g3497
sg55
(lp3504
g3040
(S's\x08\x00\x00\x00Database'
tRp3505
asbasbasbag48
(g64
g50
NtRp3506
(dp3507
g53
(dp3508
sg62
g3489
sg55
(lp3509
g48
(g69
g50
NtRp3510
(dp3511
g53
(dp3512
sg62
g3506
sg55
(lp3513
g48
(g49
g50
NtRp3514
(dp3515
g53
(dp3516
g61
I1
ssg62
g3510
sg55
(lp3517
I00
asbasbasbag48
(g64
g50
NtRp3518
(dp3519
g53
(dp3520
sg62
g3489
sg55
(lp3521
g48
(g69
g50
NtRp3522
(dp3523
g53
(dp3524
sg62
g3518
sg55
(lp3525
g48
(g49
g50
NtRp3526
(dp3527
g53
(dp3528
g61
I1
ssg62
g3522
sg55
(lp3529
S'/201056161/appadmin/index'
p3530
asbasbasbasbasbasbasbag48
(g64
g50
NtRp3531
(dp3532
g53
(dp3533
sg62
g3149
sg55
(lp3534
g48
(g69
g50
NtRp3535
(dp3536
g53
(dp3537
sg62
g3531
sg55
(lp3538
g48
(g49
g50
NtRp3539
(dp3540
g53
(dp3541
g61
I2
ssg62
g3535
sg55
(lp3542
g48
(g57
g50
NtRp3543
(dp3544
g53
(dp3545
g61
I1
ssg62
Nsg55
(lp3546
g48
(g64
g50
NtRp3547
(dp3548
g53
(dp3549
sg62
g3543
sg55
(lp3550
g48
(g69
g50
NtRp3551
(dp3552
g53
(dp3553
sg62
g3547
sg55
(lp3554
g48
(g49
g50
NtRp3555
(dp3556
g53
(dp3557
g61
I1
ssg62
g3551
sg55
(lp3558
g3040
(S's\x06\x00\x00\x00Errors'
tRp3559
asbasbasbag48
(g64
g50
NtRp3560
(dp3561
g53
(dp3562
sg62
g3543
sg55
(lp3563
g48
(g69
g50
NtRp3564
(dp3565
g53
(dp3566
sg62
g3560
sg55
(lp3567
g48
(g49
g50
NtRp3568
(dp3569
g53
(dp3570
g61
I1
ssg62
g3564
sg55
(lp3571
I00
asbasbasbag48
(g64
g50
NtRp3572
(dp3573
g53
(dp3574
sg62
g3543
sg55
(lp3575
g48
(g69
g50
NtRp3576
(dp3577
g53
(dp3578
sg62
g3572
sg55
(lp3579
g48
(g49
g50
NtRp3580
(dp3581
g53
(dp3582
g61
I1
ssg62
g3576
sg55
(lp3583
S'/admin/default/errors/201056161'
p3584
asbasbasbasbasbasbasbag48
(g64
g50
NtRp3585
(dp3586
g53
(dp3587
sg62
g3149
sg55
(lp3588
g48
(g69
g50
NtRp3589
(dp3590
g53
(dp3591
sg62
g3585
sg55
(lp3592
g48
(g49
g50
NtRp3593
(dp3594
g53
(dp3595
g61
I2
ssg62
g3589
sg55
(lp3596
g48
(g57
g50
NtRp3597
(dp3598
g53
(dp3599
g61
I1
ssg62
Nsg55
(lp3600
g48
(g64
g50
NtRp3601
(dp3602
g53
(dp3603
sg62
g3597
sg55
(lp3604
g48
(g69
g50
NtRp3605
(dp3606
g53
(dp3607
sg62
g3601
sg55
(lp3608
g48
(g49
g50
NtRp3609
(dp3610
g53
(dp3611
g61
I1
ssg62
g3605
sg55
(lp3612
g3040
(S's\x05\x00\x00\x00About'
tRp3613
asbasbasbag48
(g64
g50
NtRp3614
(dp3615
g53
(dp3616
sg62
g3597
sg55
(lp3617
g48
(g69
g50
NtRp3618
(dp3619
g53
(dp3620
sg62
g3614
sg55
(lp3621
g48
(g49
g50
NtRp3622
(dp3623
g53
(dp3624
g61
I1
ssg62
g3618
sg55
(lp3625
I00
asbasbasbag48
(g64
g50
NtRp3626
(dp3627
g53
(dp3628
sg62
g3597
sg55
(lp3629
g48
(g69
g50
NtRp3630
(dp3631
g53
(dp3632
sg62
g3626
sg55
(lp3633
g48
(g49
g50
NtRp3634
(dp3635
g53
(dp3636
g61
I1
ssg62
g3630
sg55
(lp3637
S'/admin/default/about/201056161'
p3638
asbasbasbasbasbasbasbasbasbasbasbasbasbasbasbag48
(g64
g50
NtRp3639
(dp3640
g53
(dp3641
sg62
g3008
sg55
(lp3642
g48
(g69
g50
NtRp3643
(dp3644
g53
(dp3645
sg62
g3639
sg55
(lp3646
g48
(g49
g50
NtRp3647
(dp3648
g53
(dp3649
g61
I4
ssg62
g3643
sg55
(lp3650
g48
(g57
g50
NtRp3651
(dp3652
g53
(dp3653
g61
I3
ssg62
Nsg55
(lp3654
g48
(g64
g50
NtRp3655
(dp3656
g53
(dp3657
sg62
g3651
sg55
(lp3658
g48
(g69
g50
NtRp3659
(dp3660
g53
(dp3661
sg62
g3655
sg55
(lp3662
g48
(g49
g50
NtRp3663
(dp3664
g53
(dp3665
g61
I3
ssg62
g3659
sg55
(lp3666
g3040
(S's\t\x00\x00\x00Resources'
tRp3667
asbasbasbag48
(g64
g50
NtRp3668
(dp3669
g53
(dp3670
sg62
g3651
sg55
(lp3671
g48
(g69
g50
NtRp3672
(dp3673
g53
(dp3674
sg62
g3668
sg55
(lp3675
g48
(g49
g50
NtRp3676
(dp3677
g53
(dp3678
g61
I3
ssg62
g3672
sg55
(lp3679
g91
asbasbasbag48
(g64
g50
NtRp3680
(dp3681
g53
(dp3682
sg62
g3651
sg55
(lp3683
g48
(g69
g50
NtRp3684
(dp3685
g53
(dp3686
sg62
g3680
sg55
(lp3687
g48
(g49
g50
NtRp3688
(dp3689
g53
(dp3690
g61
I3
ssg62
g3684
sg55
(lp3691
S'None'
p3692
asbasbasbag48
(g64
g50
NtRp3693
(dp3694
g53
(dp3695
sg62
g3651
sg55
(lp3696
g48
(g69
g50
NtRp3697
(dp3698
g53
(dp3699
sg62
g3693
sg55
(lp3700
g48
(g49
g50
NtRp3701
(dp3702
g53
(dp3703
g61
I3
ssg62
g3697
sg55
(lp3704
g48
(g57
g50
NtRp3705
(dp3706
g53
(dp3707
g61
I2
ssg62
Nsg55
(lp3708
g48
(g64
g50
NtRp3709
(dp3710
g53
(dp3711
sg62
g3705
sg55
(lp3712
g48
(g69
g50
NtRp3713
(dp3714
g53
(dp3715
sg62
g3709
sg55
(lp3716
g48
(g49
g50
NtRp3717
(dp3718
g53
(dp3719
g61
I2
ssg62
g3713
sg55
(lp3720
g48
(g57
g50
NtRp3721
(dp3722
g53
(dp3723
g61
I1
ssg62
Nsg55
(lp3724
g48
(g64
g50
NtRp3725
(dp3726
g53
(dp3727
sg62
g3721
sg55
(lp3728
g48
(g69
g50
NtRp3729
(dp3730
g53
(dp3731
sg62
g3725
sg55
(lp3732
g48
(g49
g50
NtRp3733
(dp3734
g53
(dp3735
g61
I1
ssg62
g3729
sg55
(lp3736
g3040
(S's\r\x00\x00\x00Documentation'
tRp3737
asbasbasbag48
(g64
g50
NtRp3738
(dp3739
g53
(dp3740
sg62
g3721
sg55
(lp3741
g48
(g69
g50
NtRp3742
(dp3743
g53
(dp3744
sg62
g3738
sg55
(lp3745
g48
(g49
g50
NtRp3746
(dp3747
g53
(dp3748
g61
I1
ssg62
g3742
sg55
(lp3749
I00
asbasbasbag48
(g64
g50
NtRp3750
(dp3751
g53
(dp3752
sg62
g3721
sg55
(lp3753
g48
(g69
g50
NtRp3754
(dp3755
g53
(dp3756
sg62
g3750
sg55
(lp3757
g48
(g49
g50
NtRp3758
(dp3759
g53
(dp3760
g61
I1
ssg62
g3754
sg55
(lp3761
S'http://www.web2py.com/book'
p3762
asbasbasbag48
(g64
g50
NtRp3763
(dp3764
g53
(dp3765
sg62
g3721
sg55
(lp3766
g48
(g69
g50
NtRp3767
(dp3768
g53
(dp3769
sg62
g3763
sg55
(lp3770
g48
(g49
g50
NtRp3771
(dp3772
g53
(dp3773
g61
I1
ssg62
g3767
sg55
(lp3774
(lp3775
(g3040
(S's\x07\x00\x00\x00Preface'
tRp3776
I00
S'http://www.web2py.com/book/default/chapter/00'
tp3777
a(g3040
(S's\x0c\x00\x00\x00Introduction'
tRp3778
I00
S'http://www.web2py.com/book/default/chapter/01'
tp3779
a(g3040
(S's\x06\x00\x00\x00Python'
tRp3780
I00
S'http://www.web2py.com/book/default/chapter/02'
tp3781
a(g3040
(S's\x08\x00\x00\x00Overview'
tRp3782
I00
S'http://www.web2py.com/book/default/chapter/03'
tp3783
a(g3040
(S's\x08\x00\x00\x00The Core'
tRp3784
I00
S'http://www.web2py.com/book/default/chapter/04'
tp3785
a(g3040
(S's\t\x00\x00\x00The Views'
tRp3786
I00
S'http://www.web2py.com/book/default/chapter/05'
tp3787
a(g3040
(S's\x08\x00\x00\x00Database'
tRp3788
I00
S'http://www.web2py.com/book/default/chapter/06'
tp3789
a(g3040
(S's\x14\x00\x00\x00Forms and Validators'
tRp3790
I00
S'http://www.web2py.com/book/default/chapter/07'
tp3791
a(g3040
(S's\x0e\x00\x00\x00Access Control'
tRp3792
I00
S'http://www.web2py.com/book/default/chapter/08'
tp3793
a(g3040
(S's\x08\x00\x00\x00Services'
tRp3794
I00
S'http://www.web2py.com/book/default/chapter/09'
tp3795
a(g3040
(S's\x0c\x00\x00\x00Ajax Recipes'
tRp3796
I00
S'http://www.web2py.com/book/default/chapter/10'
tp3797
a(g3040
(S's\x12\x00\x00\x00Deployment Recipes'
tRp3798
I00
S'http://www.web2py.com/book/default/chapter/11'
tp3799
a(g3040
(S's\r\x00\x00\x00Other Recipes'
tRp3800
I00
S'http://www.web2py.com/book/default/chapter/12'
tp3801
a(g3040
(S's\r\x00\x00\x00Buy this book'
tRp3802
I00
S'http://stores.lulu.com/web2py'
tp3803
aasbasbasbasbasbasbasbag48
(g64
g50
NtRp3804
(dp3805
g53
(dp3806
sg62
g3705
sg55
(lp3807
g48
(g69
g50
NtRp3808
(dp3809
g53
(dp3810
sg62
g3804
sg55
(lp3811
g48
(g49
g50
NtRp3812
(dp3813
g53
(dp3814
g61
I2
ssg62
g3808
sg55
(lp3815
g48
(g57
g50
NtRp3816
(dp3817
g53
(dp3818
g61
I1
ssg62
Nsg55
(lp3819
g48
(g64
g50
NtRp3820
(dp3821
g53
(dp3822
sg62
g3816
sg55
(lp3823
g48
(g69
g50
NtRp3824
(dp3825
g53
(dp3826
sg62
g3820
sg55
(lp3827
g48
(g49
g50
NtRp3828
(dp3829
g53
(dp3830
g61
I1
ssg62
g3824
sg55
(lp3831
g3040
(S's\t\x00\x00\x00Community'
tRp3832
asbasbasbag48
(g64
g50
NtRp3833
(dp3834
g53
(dp3835
sg62
g3816
sg55
(lp3836
g48
(g69
g50
NtRp3837
(dp3838
g53
(dp3839
sg62
g3833
sg55
(lp3840
g48
(g49
g50
NtRp3841
(dp3842
g53
(dp3843
g61
I1
ssg62
g3837
sg55
(lp3844
I00
asbasbasbag48
(g64
g50
NtRp3845
(dp3846
g53
(dp3847
sg62
g3816
sg55
(lp3848
g48
(g69
g50
NtRp3849
(dp3850
g53
(dp3851
sg62
g3845
sg55
(lp3852
g48
(g49
g50
NtRp3853
(dp3854
g53
(dp3855
g61
I1
ssg62
g3849
sg55
(lp3856
Nasbasbasbag48
(g64
g50
NtRp3857
(dp3858
g53
(dp3859
sg62
g3816
sg55
(lp3860
g48
(g69
g50
NtRp3861
(dp3862
g53
(dp3863
sg62
g3857
sg55
(lp3864
g48
(g49
g50
NtRp3865
(dp3866
g53
(dp3867
g61
I1
ssg62
g3861
sg55
(lp3868
(lp3869
(g3040
(S's\x06\x00\x00\x00Groups'
tRp3870
I00
S'http://www.web2py.com/examples/default/usergroups'
tp3871
a(g3040
(S's\x07\x00\x00\x00Twitter'
tRp3872
I00
S'http://twitter.com/web2py'
tp3873
a(g3040
(S's\t\x00\x00\x00Live chat'
tRp3874
I00
S'http://mibbit.com/?channel=%23web2py&server=irc.mibbit.net'
tp3875
a(g3040
(S's\n\x00\x00\x00User Voice'
tRp3876
I00
S'http://web2py.uservoice.com/'
tp3877
aasbasbasbasbasbasbasbag48
(g64
g50
NtRp3878
(dp3879
g53
(dp3880
sg62
g3705
sg55
(lp3881
g48
(g69
g50
NtRp3882
(dp3883
g53
(dp3884
sg62
g3878
sg55
(lp3885
g48
(g49
g50
NtRp3886
(dp3887
g53
(dp3888
g61
I2
ssg62
g3882
sg55
(lp3889
g48
(g57
g50
NtRp3890
(dp3891
g53
(dp3892
g61
I1
ssg62
Nsg55
(lp3893
g48
(g64
g50
NtRp3894
(dp3895
g53
(dp3896
sg62
g3890
sg55
(lp3897
g48
(g69
g50
NtRp3898
(dp3899
g53
(dp3900
sg62
g3894
sg55
(lp3901
g48
(g49
g50
NtRp3902
(dp3903
g53
(dp3904
g61
I1
ssg62
g3898
sg55
(lp3905
g3040
(S's\x06\x00\x00\x00Web2py'
tRp3906
asbasbasbag48
(g64
g50
NtRp3907
(dp3908
g53
(dp3909
sg62
g3890
sg55
(lp3910
g48
(g69
g50
NtRp3911
(dp3912
g53
(dp3913
sg62
g3907
sg55
(lp3914
g48
(g49
g50
NtRp3915
(dp3916
g53
(dp3917
g61
I1
ssg62
g3911
sg55
(lp3918
I00
asbasbasbag48
(g64
g50
NtRp3919
(dp3920
g53
(dp3921
sg62
g3890
sg55
(lp3922
g48
(g69
g50
NtRp3923
(dp3924
g53
(dp3925
sg62
g3919
sg55
(lp3926
g48
(g49
g50
NtRp3927
(dp3928
g53
(dp3929
g61
I1
ssg62
g3923
sg55
(lp3930
S'http://www.web2py.com'
p3931
asbasbasbag48
(g64
g50
NtRp3932
(dp3933
g53
(dp3934
sg62
g3890
sg55
(lp3935
g48
(g69
g50
NtRp3936
(dp3937
g53
(dp3938
sg62
g3932
sg55
(lp3939
g48
(g49
g50
NtRp3940
(dp3941
g53
(dp3942
g61
I1
ssg62
g3936
sg55
(lp3943
(lp3944
(g3040
(S's\x08\x00\x00\x00Download'
tRp3945
I00
S'http://www.web2py.com/examples/default/download'
tp3946
a(g3040
(S's\x07\x00\x00\x00Support'
tRp3947
I00
S'http://www.web2py.com/examples/default/support'
tp3948
a(g3040
(S's\x0e\x00\x00\x00Quick Examples'
tRp3949
I00
S'http://web2py.com/examples/default/examples'
tp3950
a(g3040
(S's\x03\x00\x00\x00FAQ'
tRp3951
I00
S'http://web2py.com/AlterEgo'
tp3952
a(g3040
(S's\x11\x00\x00\x00Free Applications'
tRp3953
I00
S'http://web2py.com/appliances'
tp3954
a(g3040
(S's\x07\x00\x00\x00Plugins'
tRp3955
I00
S'http://web2py.com/plugins'
tp3956
a(g3040
(S's\x07\x00\x00\x00Recipes'
tRp3957
I00
S'http://web2pyslices.com/'
tp3958
a(g3040
(S's\x04\x00\x00\x00Demo'
tRp3959
I00
S'http://web2py.com/demo_admin'
tp3960
a(g3040
(S's\x08\x00\x00\x00Semantic'
tRp3961
I00
S'http://web2py.com/semantic'
tp3962
a(g3040
(S's\x07\x00\x00\x00Layouts'
tRp3963
I00
S'http://web2py.com/layouts'
tp3964
a(g3040
(S's\x06\x00\x00\x00Videos'
tRp3965
I00
S'http://www.web2py.com/examples/default/videos/'
tp3966
aasbasbasbasbasbasbasbasbasbasbasbasbasbasbasbasbasbasbasbag48
(g64
g50
NtRp3967
(dp3968
g53
(dp3969
sg62
g2555
sg55
(lp3970
g48
(g69
g50
NtRp3971
(dp3972
g53
(dp3973
g73
g74
ssg62
g3967
sg55
(lp3974
S'meta'
p3975
asbag48
(g69
g50
NtRp3976
(dp3977
g53
(dp3978
g80
g81
ssg62
g3967
sg55
(lp3979
S':'
asbag48
(g69
g50
NtRp3980
(dp3981
g53
(dp3982
sg62
g3967
sg55
(lp3983
g48
(g49
g50
NtRp3984
(dp3985
g53
(dp3986
g61
I5
ssg62
g3980
sg55
(lp3987
g48
(g57
g50
NtRp3988
(dp3989
g53
(dp3990
g61
I4
ssg62
Nsg55
(lp3991
g48
(g64
g50
NtRp3992
(dp3993
g53
(dp3994
sg62
g3988
sg55
(lp3995
g48
(g69
g50
NtRp3996
(dp3997
g53
(dp3998
g73
g74
ssg62
g3992
sg55
(lp3999
S'author'
p4000
asbag48
(g69
g50
NtRp4001
(dp4002
g53
(dp4003
g80
g81
ssg62
g3992
sg55
(lp4004
S':'
asbag48
(g69
g50
NtRp4005
(dp4006
g53
(dp4007
sg62
g3992
sg55
(lp4008
g48
(g49
g50
NtRp4009
(dp4010
g53
(dp4011
g61
I4
ssg62
g4005
sg55
(lp4012
S'you'
p4013
asbasbasbag48
(g64
g50
NtRp4014
(dp4015
g53
(dp4016
sg62
g3988
sg55
(lp4017
g48
(g69
g50
NtRp4018
(dp4019
g53
(dp4020
g73
g74
ssg62
g4014
sg55
(lp4021
S'copyright'
p4022
asbag48
(g69
g50
NtRp4023
(dp4024
g53
(dp4025
g80
g81
ssg62
g4014
sg55
(lp4026
S':'
asbag48
(g69
g50
NtRp4027
(dp4028
g53
(dp4029
sg62
g4014
sg55
(lp4030
g48
(g49
g50
NtRp4031
(dp4032
g53
(dp4033
g61
I4
ssg62
g4027
sg55
(lp4034
S'Copyright 2007-2010'
p4035
asbasbasbag48
(g64
g50
NtRp4036
(dp4037
g53
(dp4038
sg62
g3988
sg55
(lp4039
g48
(g69
g50
NtRp4040
(dp4041
g53
(dp4042
g73
g74
ssg62
g4036
sg55
(lp4043
S'description'
p4044
asbag48
(g69
g50
NtRp4045
(dp4046
g53
(dp4047
g80
g81
ssg62
g4036
sg55
(lp4048
S':'
asbag48
(g69
g50
NtRp4049
(dp4050
g53
(dp4051
sg62
g4036
sg55
(lp4052
g48
(g49
g50
NtRp4053
(dp4054
g53
(dp4055
g61
I4
ssg62
g4049
sg55
(lp4056
S'Free and open source full-stack enterprise framework for agile development of fast, scalable, secure and portable database-driven web-based applications. Written and programmable in Python'
p4057
asbasbasbag48
(g64
g50
NtRp4058
(dp4059
g53
(dp4060
sg62
g3988
sg55
(lp4061
g48
(g69
g50
NtRp4062
(dp4063
g53
(dp4064
g73
g74
ssg62
g4058
sg55
(lp4065
S'generator'
p4066
asbag48
(g69
g50
NtRp4067
(dp4068
g53
(dp4069
g80
g81
ssg62
g4058
sg55
(lp4070
S':'
asbag48
(g69
g50
NtRp4071
(dp4072
g53
(dp4073
sg62
g4058
sg55
(lp4074
g48
(g49
g50
NtRp4075
(dp4076
g53
(dp4077
g61
I4
ssg62
g4071
sg55
(lp4078
S'Web2py Enterprise Framework'
p4079
asbasbasbag48
(g64
g50
NtRp4080
(dp4081
g53
(dp4082
sg62
g3988
sg55
(lp4083
g48
(g69
g50
NtRp4084
(dp4085
g53
(dp4086
g73
g74
ssg62
g4080
sg55
(lp4087
S'keywords'
p4088
asbag48
(g69
g50
NtRp4089
(dp4090
g53
(dp4091
g80
g81
ssg62
g4080
sg55
(lp4092
S':'
asbag48
(g69
g50
NtRp4093
(dp4094
g53
(dp4095
sg62
g4080
sg55
(lp4096
g48
(g49
g50
NtRp4097
(dp4098
g53
(dp4099
g61
I4
ssg62
g4093
sg55
(lp4100
S'web2py, python, framework'
p4101
asbasbasbasbasbasbasbag48
(g64
g50
NtRp4102
(dp4103
g53
(dp4104
sg62
g2555
sg55
(lp4105
g48
(g69
g50
NtRp4106
(dp4107
g53
(dp4108
g73
g74
ssg62
g4102
sg55
(lp4109
S'postprocessing'
p4110
asbag48
(g69
g50
NtRp4111
(dp4112
g53
(dp4113
g80
g81
ssg62
g4102
sg55
(lp4114
S':'
asbag48
(g69
g50
NtRp4115
(dp4116
g53
(dp4117
sg62
g4102
sg55
(lp4118
g48
(g49
g50
NtRp4119
(dp4120
g53
(dp4121
g61
I5
ssg62
g4115
sg55
(lp4122
g48
(g57
g50
NtRp4123
(dp4124
g53
(dp4125
g61
I4
ssg62
Nsg55
(lp4126
sbasbasbasbag48
(g64
g50
NtRp4127
(dp4128
g53
(dp4129
sg62
g2555
sg55
(lp4130
g48
(g69
g50
NtRp4131
(dp4132
g53
(dp4133
g73
g74
ssg62
g4127
sg55
(lp4134
S'session_file'
p4135
asbag48
(g69
g50
NtRp4136
(dp4137
g53
(dp4138
g80
g81
ssg62
g4127
sg55
(lp4139
S':'
asbag48
(g69
g50
NtRp4140
(dp4141
g53
(dp4142
sg62
g4127
sg55
(lp4143
g48
(g49
g50
NtRp4144
(dp4145
g53
(dp4146
g61
I5
ssg62
g4140
sg55
(lp4147
S"<open file 'C:\\Users\\AKSHAY\\Desktop\\web2py\\applications\\201056161\\sessions\\127.0.0.1-3bc821ac-4d59-41c6-8699-b3e43edfc478', mode 'rb+' at 0x06C34338>"
p4148
asbasbasbag48
(g64
g50
NtRp4149
(dp4150
g53
(dp4151
sg62
g2555
sg55
(lp4152
g48
(g69
g50
NtRp4153
(dp4154
g53
(dp4155
g73
g74
ssg62
g4149
sg55
(lp4156
S'session_filename'
p4157
asbag48
(g69
g50
NtRp4158
(dp4159
g53
(dp4160
g80
g81
ssg62
g4149
sg55
(lp4161
S':'
asbag48
(g69
g50
NtRp4162
(dp4163
g53
(dp4164
sg62
g4149
sg55
(lp4165
g48
(g49
g50
NtRp4166
(dp4167
g53
(dp4168
g61
I5
ssg62
g4162
sg55
(lp4169
S'C:\\Users\\AKSHAY\\Desktop\\web2py\\applications\\201056161\\sessions\\127.0.0.1-3bc821ac-4d59-41c6-8699-b3e43edfc478'
p4170
asbasbasbag48
(g64
g50
NtRp4171
(dp4172
g53
(dp4173
sg62
g2555
sg55
(lp4174
g48
(g69
g50
NtRp4175
(dp4176
g53
(dp4177
g73
g74
ssg62
g4171
sg55
(lp4178
S'session_id'
p4179
asbag48
(g69
g50
NtRp4180
(dp4181
g53
(dp4182
g80
g81
ssg62
g4171
sg55
(lp4183
S':'
asbag48
(g69
g50
NtRp4184
(dp4185
g53
(dp4186
sg62
g4171
sg55
(lp4187
g48
(g49
g50
NtRp4188
(dp4189
g53
(dp4190
g61
I5
ssg62
g4184
sg55
(lp4191
S'127.0.0.1-3bc821ac-4d59-41c6-8699-b3e43edfc478'
p4192
asbasbasbag48
(g64
g50
NtRp4193
(dp4194
g53
(dp4195
sg62
g2555
sg55
(lp4196
g48
(g69
g50
NtRp4197
(dp4198
g53
(dp4199
g73
g74
ssg62
g4193
sg55
(lp4200
S'session_id_name'
p4201
asbag48
(g69
g50
NtRp4202
(dp4203
g53
(dp4204
g80
g81
ssg62
g4193
sg55
(lp4205
S':'
asbag48
(g69
g50
NtRp4206
(dp4207
g53
(dp4208
sg62
g4193
sg55
(lp4209
g48
(g49
g50
NtRp4210
(dp4211
g53
(dp4212
g61
I5
ssg62
g4206
sg55
(lp4213
g2612
asbasbasbag48
(g64
g50
NtRp4214
(dp4215
g53
(dp4216
sg62
g2555
sg55
(lp4217
g48
(g69
g50
NtRp4218
(dp4219
g53
(dp4220
g73
g74
ssg62
g4214
sg55
(lp4221
S'session_locked'
p4222
asbag48
(g69
g50
NtRp4223
(dp4224
g53
(dp4225
g80
g81
ssg62
g4214
sg55
(lp4226
S':'
asbag48
(g69
g50
NtRp4227
(dp4228
g53
(dp4229
sg62
g4214
sg55
(lp4230
g48
(g49
g50
NtRp4231
(dp4232
g53
(dp4233
g61
I5
ssg62
g4227
sg55
(lp4234
g1500
asbasbasbag48
(g64
g50
NtRp4235
(dp4236
g53
(dp4237
sg62
g2555
sg55
(lp4238
g48
(g69
g50
NtRp4239
(dp4240
g53
(dp4241
g73
g74
ssg62
g4235
sg55
(lp4242
S'session_new'
p4243
asbag48
(g69
g50
NtRp4244
(dp4245
g53
(dp4246
g80
g81
ssg62
g4235
sg55
(lp4247
S':'
asbag48
(g69
g50
NtRp4248
(dp4249
g53
(dp4250
sg62
g4235
sg55
(lp4251
g48
(g49
g50
NtRp4252
(dp4253
g53
(dp4254
g61
I5
ssg62
g4248
sg55
(lp4255
g91
asbasbasbag48
(g64
g50
NtRp4256
(dp4257
g53
(dp4258
sg62
g2555
sg55
(lp4259
g48
(g69
g50
NtRp4260
(dp4261
g53
(dp4262
g73
g74
ssg62
g4256
sg55
(lp4263
S'status'
p4264
asbag48
(g69
g50
NtRp4265
(dp4266
g53
(dp4267
g80
g81
ssg62
g4256
sg55
(lp4268
S':'
asbag48
(g69
g50
NtRp4269
(dp4270
g53
(dp4271
sg62
g4256
sg55
(lp4272
g48
(g49
g50
NtRp4273
(dp4274
g53
(dp4275
g61
I5
ssg62
g4269
sg55
(lp4276
S'200'
p4277
asbasbasbag48
(g64
g50
NtRp4278
(dp4279
g53
(dp4280
sg62
g2555
sg55
(lp4281
g48
(g69
g50
NtRp4282
(dp4283
g53
(dp4284
g73
g74
ssg62
g4278
sg55
(lp4285
S'subtitle'
p4286
asbag48
(g69
g50
NtRp4287
(dp4288
g53
(dp4289
g80
g81
ssg62
g4278
sg55
(lp4290
S':'
asbag48
(g69
g50
NtRp4291
(dp4292
g53
(dp4293
sg62
g4278
sg55
(lp4294
g48
(g49
g50
NtRp4295
(dp4296
g53
(dp4297
g61
I5
ssg62
g4291
sg55
(lp4298
g3040
(S's\r\x00\x00\x00customize me!'
tRp4299
asbasbasbag48
(g64
g50
NtRp4300
(dp4301
g53
(dp4302
sg62
g2555
sg55
(lp4303
g48
(g69
g50
NtRp4304
(dp4305
g53
(dp4306
g73
g74
ssg62
g4300
sg55
(lp4307
S'title'
p4308
asbag48
(g69
g50
NtRp4309
(dp4310
g53
(dp4311
g80
g81
ssg62
g4300
sg55
(lp4312
S':'
asbag48
(g69
g50
NtRp4313
(dp4314
g53
(dp4315
sg62
g4300
sg55
(lp4316
g48
(g49
g50
NtRp4317
(dp4318
g53
(dp4319
g61
I5
ssg62
g4313
sg55
(lp4320
g113
asbasbasbag48
(g64
g50
NtRp4321
(dp4322
g53
(dp4323
sg62
g2555
sg55
(lp4324
g48
(g69
g50
NtRp4325
(dp4326
g53
(dp4327
g73
g74
ssg62
g4321
sg55
(lp4328
g1824
asbag48
(g69
g50
NtRp4329
(dp4330
g53
(dp4331
g80
g81
ssg62
g4321
sg55
(lp4332
S':'
asbag48
(g69
g50
NtRp4333
(dp4334
g53
(dp4335
sg62
g4321
sg55
(lp4336
g48
(g49
g50
NtRp4337
(dp4338
g53
(dp4339
g61
I5
ssg62
g4333
sg55
(lp4340
g1837
asbasbasbag48
(g64
g50
NtRp4341
(dp4342
g53
(dp4343
sg62
g2555
sg55
(lp4344
g48
(g69
g50
NtRp4345
(dp4346
g53
(dp4347
g73
g74
ssg62
g4341
sg55
(lp4348
S'view'
p4349
asbag48
(g69
g50
NtRp4350
(dp4351
g53
(dp4352
g80
g81
ssg62
g4341
sg55
(lp4353
S':'
asbag48
(g69
g50
NtRp4354
(dp4355
g53
(dp4356
sg62
g4341
sg55
(lp4357
g48
(g49
g50
NtRp4358
(dp4359
g53
(dp4360
g61
I5
ssg62
g4354
sg55
(lp4361
S'default/new.html'
p4362
asbasbasbasbasbsS'locals'
p4363
(dp4364
ssS'traceback'
p4365
S'Traceback (most recent call last):\n  File "gluon/restricted.py", line 192, in restricted\n  File "C:\\Users\\AKSHAY\\Desktop\\web2py\\applications\\201056161\\controllers/default.py", line 169, in <module>\n  File "gluon/globals.py", line 137, in <lambda>\n  File "C:\\Users\\AKSHAY\\Desktop\\web2py\\applications\\201056161\\controllers/default.py", line 151, in new\nTypeError: __init__() got an unexpected keyword argument \'label\'\n'
p4366
s.