(dp1
S'output'
p2
S''
sS'layer'
p3
S'C:\\Users\\AKSHAY\\Desktop\\web2py\\applications\\201056161\\views\\default/index.html'
p4
sS'code'
p5
S'left_sidebar_enabled=right_sidebar_enabled=False\nresponse.write(\'\\r\\n\', escape=False)\nresponse.write(\'<!DOCTYPE html>\\n<html lang="\', escape=False)\nresponse.write(T.accepted_language or \'en\')\nresponse.write(\'" class="no-js"><!-- no-js need it for modernzr -->\\n  <head>\\n    \\n    <meta charset="utf-8" />\\t  \\t\\n    <!-- www.phpied.com/conditional-comments-block-downloads/ -->\\n    <!--[if IE]><![endif]-->    \\n    <!-- Always force latest IE rendering engine \\n\\t (even in intranet) & Chrome Frame \\n\\t Remove this if you use the .htaccess -->\\n    <meta http-equiv="X-UA-Compatible" content="IE=edge,chrome=1">\\n    \\n    <title>\', escape=False)\nresponse.write(response.title or request.application)\nresponse.write(\'</title>\\n    \\n    <!-- http://dev.w3.org/html5/markup/meta.name.html -->\\n    <meta name="application-name" content="\', escape=False)\nresponse.write(request.application)\nresponse.write(\'" />\\t\\n    \\n    <!-- Speaking of Google, don\\\'t forget to set your site up: \\n\\t http://google.com/webmasters -->\\n    <meta name="google-site-verification" content="" />\\n    \\n    <!--  Mobile Viewport Fix\\n\\t  j.mp/mobileviewport & davidbcalhoun.com/2010/viewport-metatag \\n\\t  device-width: Occupy full width of the screen in its current orientation\\n\\t  initial-scale = 1.0 retains dimensions instead of zooming out if page height > device height\\n\\t  maximum-scale = 1.0 retains dimensions instead of zooming in if page width < device width\\n      -->\\n    <meta name="viewport" content="width=device-width, initial-scale=1.0, maximum-scale=1.0">\\n    \\n    <!-- Place favicon.ico and apple-touch-icon.png in the root of your domain and delete these references -->\\n    <link rel="shortcut icon" href="\', escape=False)\nresponse.write(URL(\'static\',\'favicon.ico\'))\nresponse.write(\'" type="image/x-icon">\\n    <link rel="apple-touch-icon" href="\', escape=False)\nresponse.write(URL(\'static\',\'favicon.png\'))\nresponse.write(\'">\\n\\n    <!-- For the less-enabled mobile browsers like Opera Mini -->\\n    <link rel="stylesheet" media="handheld" href="\', escape=False)\nresponse.write(URL(\'static\',\'css/handheld.css\'))\nresponse.write(\'">\\n    \\n    <!-- All JavaScript at the bottom, except for Modernizr which enables HTML5 elements & feature detects -->\\n    <script src="\', escape=False)\nresponse.write(URL(\'static\',\'js/modernizr-1.7.min.js\'))\nresponse.write(\'"></script>\\n    \\n    \', escape=False)\n#------  require CSS and JS files for this page (read info in base.css) ------\nresponse.write(\'\\n    \', escape=False)\nresponse.files.append(URL(\'static\',\'css/base.css\'))\nresponse.write(\'\\n    \', escape=False)\nresponse.files.append(URL(\'static\',\'css/superfish.css\'))\nresponse.write(\'\\n    \', escape=False)\nresponse.files.append(URL(\'static\',\'js/superfish.js\'))\nresponse.write(\'\\n    \', escape=False)\n#------ include web2py specific js code (jquery, calendar, form stuff) ------\nresponse.write(\'\\n    \', escape=False)\nresponse.files.insert(0,URL(\'static\',\'js/jquery.js\'))\nresponse.files.insert(1,URL(\'static\',\'css/calendar.css\'))\nresponse.files.insert(2,URL(\'static\',\'js/calendar.js\'))\nfor _item in response.meta or []:\n    response.write(\'\\n     <meta name="\', escape=False)\n    response.write(_item)\n    response.write(\'" content="\', escape=False)\n    response.write(response.meta[_item])\n    response.write(\'" />\', escape=False)\n    pass\nfor _k,_file in enumerate(response.files or []):\n    if _file in response.files[:_k]:\n        continue\n    _file0=_file.lower().split(\'?\')[0]\n    if _file0.endswith(\'.css\'):\n        response.write(\'\\n     <link href="\', escape=False)\n        response.write(_file)\n        response.write(\'" rel="stylesheet" type="text/css" />\', escape=False)\n    elif _file0.endswith(\'.js\'):\n        response.write(\'\\n     <script src="\', escape=False)\n        response.write(_file)\n        response.write(\'" type="text/javascript"></script>\', escape=False)\n        pass\n    pass\nresponse.write(\'\\n    <script type="text/javascript"><!--\\n    // These variables are used by the web2py_ajax_init function in web2py_ajax.js (which is loaded below).\\n    var w2p_ajax_confirm_message = "\', escape=False)\nresponse.write(T(\'Are you sure you want to delete this object?\'))\nresponse.write(\'";\\n    var w2p_ajax_date_format = "\', escape=False)\nresponse.write(T(\'%Y-%m-%d\'))\nresponse.write(\'";\\n    var w2p_ajax_datetime_format = "\', escape=False)\nresponse.write(T(\'%Y-%m-%d %H:%M:%S\'))\nresponse.write(\'";\\n    //--></script>\\n    <script src="\', escape=False)\nresponse.write(URL(\'static\',\'js/web2py_ajax.js\'))\nresponse.write(\'" type="text/javascript"></script>\\n\', escape=False)\nresponse.write(\'\\n\\n    \', escape=False)\n#using sidebars need to know what sidebar you want to use\n#prior of using it, because of static width size of content, you can use\n#left_sidebar, right_sidebar, both or none (False left and right)\nleft_sidebar_enabled = globals().get(\'left_sidebar_enabled\',False)\nright_sidebar_enabled = globals().get(\'right_sidebar_enabled\',False)\nif left_sidebar_enabled and right_sidebar_enabled: width_content=\'63%\'\nelif left_sidebar_enabled != right_sidebar_enabled: width_content=\'740px\'\nelse: width_content=\'100%\'\nif left_sidebar_enabled: left_sidebar_style = \'style="display: block;"\'\nelse: left_sidebar_style = \'style="display: none;"\'\nif right_sidebar_enabled: right_sidebar_style = \'style="display: block;"\'\nelse: right_sidebar_style = \'style="display: none;"\'\nstyle_content = \'style="width: %s"\' % width_content\nresponse.write(\'\\n  </head>\\n  \\n  <!-- paulirish.com/2008/conditional-stylesheets-vs-css-hacks-answer-neither/ -->\\t\\n  <!--[if lt IE 7 ]> <body class="ie6"> <![endif]-->\\n  <!--[if IE 7 ]>    <body class="ie7"> <![endif]-->\\n  <!--[if IE 8 ]>    <body class="ie8"> <![endif]-->\\n  <!--[if IE 9 ]>    <body class="ie9"> <![endif]-->\\n  <!--[if (gt IE 9)|!(IE)]><!--> <body> <!--<![endif]-->\\n    \\n    <div class="flash">\', escape=False)\nresponse.write(response.flash or \'\')\nresponse.write(\'</div> <!-- notification div -->\\n    \\n    <div id="container">\\t      \\t\\t      \\t\\n      \\n      <div id="wrapper">\\t\\t\\n\\t\\n\\t<div id="header"> <!-- header and login nav -->\\n\\t  \', escape=False)\nresponse.write(\' <!-- this is default header -->\\n\\t  \', escape=False)\ntry:\n    response.write(auth.navbar(action=URL(\'default\',\'user\')))\nexcept:pass\nresponse.write(\'\\t\\t          \\n\\t  <h1><span id="appname">\', escape=False)\nresponse.write(request.application.capitalize())\nresponse.write(\'</span>App</h1>\\n\\t  <div style="clear: both;"></div><!-- Clear the divs -->\\n\\t  \', escape=False)\nresponse.write(\'\\t\\t\\t\\t  \\t\\t\\t\\t\\t  \\n\\t</div><!-- header  -->\\n\\t\\n\\t<div id="statusbar"><!-- statusbar is menu zone -->\\n\\t  \', escape=False)\nresponse.write(\' <!-- this is default statusbar -->\\n\\t  \', escape=False)\n#------ superfish menu ------\nresponse.write(\'\\n\\t  \', escape=False)\nresponse.write(MENU(response.menu,_class=\'sf-menu\'))\nresponse.write(\'\\n\\t  <script type="text/javascript">\\n\\t    jQuery(document).ready(function(){\\n\\t    jQuery(\\\'ul.sf-menu\\\').superfish();});\\n\\t  </script>\\n\\t  <div style="clear: both;"></div><!-- Clear the divs -->\\t\\n\\t  \', escape=False)\nresponse.write(\'\\t\\t\\t\\t\\n\\t</div><!-- statusbar -->\\n\\t\\n\\t<div id="page"> <!-- Here my central body -->\\t  \\n\\n\\t  \', escape=False)\nif left_sidebar_enabled:\n    response.write(\'\\n          <div id="left_sidebar" \', escape=False)\n    response.write(XML(left_sidebar_style))\n    response.write(\' >\\n            <div style="padding: 4px;">\\n\\t      \', escape=False)\n    response.write(\'Content Left Sidebar\', escape=False)\n    response.write(\'\\t\\t  \\n            </div>\\n          </div><!-- left_sidebar -->\\n\\t  \', escape=False)\n    pass\nresponse.write(\'\\n\\n\\t  <!-- content -->\\n\\t  <div id="content" \', escape=False)\nresponse.write(XML(style_content))\nresponse.write(\' >\\n\\t    \', escape=False)\nresponse.write(\'\\r\\n<h2> Assignment 2</h2>\\r\\nAkshay Minocha </br>\\r\\n201056161 UG2   </br>\\r\\n\', escape=False)\nresponse.write(LI(A(\'1st question\',_href=URL(r=request,f=\'q1f\')))\nresponse.write(\'\\r\\n</br>\\r\\n\', escape=False)\nresponse.write(LI(A(\'2nd question\',_href=URL(r=request,f=\'q2f\')))\nresponse.write(\'\\r\\n</br>\\r\\n\', escape=False)\nresponse.write(LI(A(\'3rd question\',_href=URL(r=request,f=\'q3f\')))\nresponse.write(\'\\r\\n</br>\\r\\n\', escape=False)\nresponse.write(LI(A(\'4th question\',_href=URL(r=request,f=\'q4f\')))\nresponse.write(\'\\r\\n</br>\\r\\n\', escape=False)\nresponse.write(LI(A(\'5th question\',_href=URL(r=request,f=\'q5f\')))\nresponse.write(\'\\r\\n</br>\\r\\n\', escape=False)\nresponse.write(\'\\t\\n\\t  </div>\\n\\t  <!-- content -->\\n\\n\\t  \', escape=False)\nif right_sidebar_enabled:\n    response.write(\'\\n          <div id="right_sidebar" \', escape=False)\n    response.write(XML(right_sidebar_style))\n    response.write(\' >\\n            <div style="padding: 4px;">\\n              \', escape=False)\n    response.write(\'Content Right Sidebar\', escape=False)\n    response.write(\'\\n            </div>\\n\\t  </div><!-- right_sidebar -->\\n          \', escape=False)\n    pass\nresponse.write(\'\\n\\n\\n\\t  <div style="clear: both;"></div><!-- Clear the divs -->\\n\\t  \\n\\t</div><!-- page -->\\t\\t\\t\\t\\t\\t\\t\\n\\t\\n\\t<div id="footer">\\n\\t  \', escape=False)\nresponse.write(\' <!-- this is default footer -->\\n\\t  <a href="http://www.web2py.com/" style="float: left; padding-right: 6px;">\\n\\t    <img src="\', escape=False)\nresponse.write(URL(\'static\',\'images/poweredby.png\'))\nresponse.write(\'"/>\\n\\t  </a>\\n\\t  \', escape=False)\nresponse.write(T(\'Copyright\'))\nresponse.write(\' &#169; 2010\\t\\t\\t\\t\\n\\t  <div style="clear: both;"></div><!-- Clear the divs -->\\n\\t  \', escape=False)\nresponse.write(\'\\n\\n\\t</div><!-- footer -->\\t\\t\\t\\n      </div><!-- wrapper -->\\n    </div><!-- container -->\\t\\t\\n    \\n    <!--[if lt IE 7 ]>\\n\\t<script src="\', escape=False)\nresponse.write(URL(\'static\',\'js/dd_belatedpng.js\'))\nresponse.write(\'"></script>\\n\\t<script> DD_belatedPNG.fix(\\\'img, .png_bg\\\'); //fix any <img> or .png_bg background-images </script>\\n\\t<![endif]-->\\n    \\n    <!-- asynchronous google analytics: mathiasbynens.be/notes/async-analytics-snippet \\n\\t change the UA-XXXXX-X to be your site\\\'s ID -->\\n    <!--   \\n\\t   <script>\\n\\t     var _gaq = [[\\\'_setAccount\\\', \\\'UA-XXXXX-X\\\'], [\\\'_trackPageview\\\']];\\n\\t     (function(d, t) {\\n\\t     var g = d.createElement(t),\\n\\t     s = d.getElementsByTagName(t)[0];\\n\\t     g.async = true;\\n\\t     g.src = \\\'//www.google-analytics.com/ga.js\\\';\\n\\t     s.parentNode.insertBefore(g, s);\\n\\t     })(document, \\\'script\\\');\\n\\t   </script>\\n\\t   -->    \\n  </body>\\n</html>\\n\', escape=False)'
p6
sS'snapshot'
p7
(dp8
S'exception'
p9
(dp10
S'__getslice__'
p11
S"<method-wrapper '__getslice__' of exceptions.SyntaxError object at 0x06DC3830>"
p12
sS'text'
p13
S'"response.write(\'\\\\r\\\\n</br>\\\\r\\\\n\', escape=False)\\n"'
p14
sS'__str__'
p15
S"<method-wrapper '__str__' of exceptions.SyntaxError object at 0x06DC3830>"
p16
sS'__reduce__'
p17
S'<built-in method __reduce__ of exceptions.SyntaxError object at 0x06DC3830>'
p18
sS'__dict__'
p19
S'{}'
p20
sS'__init__'
p21
S"<method-wrapper '__init__' of exceptions.SyntaxError object at 0x06DC3830>"
p22
sS'__setattr__'
p23
S"<method-wrapper '__setattr__' of exceptions.SyntaxError object at 0x06DC3830>"
p24
sS'__reduce_ex__'
p25
S'<built-in method __reduce_ex__ of exceptions.SyntaxError object at 0x06DC3830>'
p26
sS'__new__'
p27
S'<built-in method __new__ of type object at 0x1E1CDBD0>'
p28
sS'__class__'
p29
S"<type 'exceptions.SyntaxError'>"
p30
sS'filename'
p31
S"r'C:\\Users\\AKSHAY\\Desktop\\web2py\\applications\\201056161\\views\\default/index.html'"
p32
sS'lineno'
p33
S'104'
p34
sS'msg'
p35
S"'invalid syntax'"
p36
sS'__doc__'
p37
S"'Invalid syntax.'"
p38
sS'__getitem__'
p39
S"<method-wrapper '__getitem__' of exceptions.SyntaxError object at 0x06DC3830>"
p40
sS'__setstate__'
p41
S'<built-in method __setstate__ of exceptions.SyntaxError object at 0x06DC3830>'
p42
sS'__getattribute__'
p43
S"<method-wrapper '__getattribute__' of exceptions.SyntaxError object at 0x06DC3830>"
p44
sS'print_file_and_line'
p45
S'None'
p46
sS'args'
p47
S'(\'invalid syntax\', (r\'C:\\Users\\AKSHAY\\Desktop\\web2py\\applications\\201056161\\views\\default/index.html\', 104, 8, "response.write(\'\\\\r\\\\n</br>\\\\r\\\\n\', escape=False)\\n"))'
p48
sS'offset'
p49
S'8'
sS'__delattr__'
p50
S"<method-wrapper '__delattr__' of exceptions.SyntaxError object at 0x06DC3830>"
p51
sS'__repr__'
p52
S"<method-wrapper '__repr__' of exceptions.SyntaxError object at 0x06DC3830>"
p53
sS'__hash__'
p54
S"<method-wrapper '__hash__' of exceptions.SyntaxError object at 0x06DC3830>"
p55
ssS'evalue'
p56
S'invalid syntax (default/index.html, line 104)'
p57
sS'request'
p58
ccopy_reg
_reconstructor
p59
(cgluon.html
BEAUTIFY
p60
c__builtin__
object
p61
NtRp62
(dp63
S'attributes'
p64
(dp65
sS'components'
p66
(lp67
g59
(cgluon.html
TABLE
p68
g61
NtRp69
(dp70
g64
(dp71
S'level'
p72
I5
ssS'parent'
p73
Nsg66
(lp74
g59
(cgluon.html
TR
p75
g61
NtRp76
(dp77
g64
(dp78
sg73
g69
sg66
(lp79
g59
(cgluon.html
TD
p80
g61
NtRp81
(dp82
g64
(dp83
S'_style'
p84
S'font-weight:bold;'
p85
ssg73
g76
sg66
(lp86
S'ajax'
p87
asbag59
(g80
g61
NtRp88
(dp89
g64
(dp90
S'_valign'
p91
S'top'
p92
ssg73
g76
sg66
(lp93
S':'
asbag59
(g80
g61
NtRp94
(dp95
g64
(dp96
sg73
g76
sg66
(lp97
g59
(g60
g61
NtRp98
(dp99
g64
(dp100
g72
I5
ssg73
g94
sg66
(lp101
S'False'
p102
asbasbasbag59
(g75
g61
NtRp103
(dp104
g64
(dp105
sg73
g69
sg66
(lp106
g59
(g80
g61
NtRp107
(dp108
g64
(dp109
g84
g85
ssg73
g103
sg66
(lp110
S'application'
p111
asbag59
(g80
g61
NtRp112
(dp113
g64
(dp114
g91
g92
ssg73
g103
sg66
(lp115
S':'
asbag59
(g80
g61
NtRp116
(dp117
g64
(dp118
sg73
g103
sg66
(lp119
g59
(g60
g61
NtRp120
(dp121
g64
(dp122
g72
I5
ssg73
g116
sg66
(lp123
S'201056161'
p124
asbasbasbag59
(g75
g61
NtRp125
(dp126
g64
(dp127
sg73
g69
sg66
(lp128
g59
(g80
g61
NtRp129
(dp130
g64
(dp131
g84
g85
ssg73
g125
sg66
(lp132
g47
asbag59
(g80
g61
NtRp133
(dp134
g64
(dp135
g91
g92
ssg73
g125
sg66
(lp136
S':'
asbag59
(g80
g61
NtRp137
(dp138
g64
(dp139
sg73
g125
sg66
(lp140
g59
(g60
g61
NtRp141
(dp142
g64
(dp143
g72
I5
ssg73
g137
sg66
(lp144
g59
(g68
g61
NtRp145
(dp146
g64
(dp147
g72
I4
ssg73
Nsg66
(lp148
sbasbasbasbag59
(g75
g61
NtRp149
(dp150
g64
(dp151
sg73
g69
sg66
(lp152
g59
(g80
g61
NtRp153
(dp154
g64
(dp155
g84
g85
ssg73
g149
sg66
(lp156
S'body'
p157
asbag59
(g80
g61
NtRp158
(dp159
g64
(dp160
g91
g92
ssg73
g149
sg66
(lp161
S':'
asbag59
(g80
g61
NtRp162
(dp163
g64
(dp164
sg73
g149
sg66
(lp165
g59
(g60
g61
NtRp166
(dp167
g64
(dp168
g72
I5
ssg73
g162
sg66
(lp169
S'<cStringIO.StringO object at 0x06F7F860>'
p170
asbasbasbag59
(g75
g61
NtRp171
(dp172
g64
(dp173
sg73
g69
sg66
(lp174
g59
(g80
g61
NtRp175
(dp176
g64
(dp177
g84
g85
ssg73
g171
sg66
(lp178
S'client'
p179
asbag59
(g80
g61
NtRp180
(dp181
g64
(dp182
g91
g92
ssg73
g171
sg66
(lp183
S':'
asbag59
(g80
g61
NtRp184
(dp185
g64
(dp186
sg73
g171
sg66
(lp187
g59
(g60
g61
NtRp188
(dp189
g64
(dp190
g72
I5
ssg73
g184
sg66
(lp191
S'127.0.0.1'
p192
asbasbasbag59
(g75
g61
NtRp193
(dp194
g64
(dp195
sg73
g69
sg66
(lp196
g59
(g80
g61
NtRp197
(dp198
g64
(dp199
g84
g85
ssg73
g193
sg66
(lp200
S'controller'
p201
asbag59
(g80
g61
NtRp202
(dp203
g64
(dp204
g91
g92
ssg73
g193
sg66
(lp205
S':'
asbag59
(g80
g61
NtRp206
(dp207
g64
(dp208
sg73
g193
sg66
(lp209
g59
(g60
g61
NtRp210
(dp211
g64
(dp212
g72
I5
ssg73
g206
sg66
(lp213
S'default'
p214
asbasbasbag59
(g75
g61
NtRp215
(dp216
g64
(dp217
sg73
g69
sg66
(lp218
g59
(g80
g61
NtRp219
(dp220
g64
(dp221
g84
g85
ssg73
g215
sg66
(lp222
S'cookies'
p223
asbag59
(g80
g61
NtRp224
(dp225
g64
(dp226
g91
g92
ssg73
g215
sg66
(lp227
S':'
asbag59
(g80
g61
NtRp228
(dp229
g64
(dp230
sg73
g215
sg66
(lp231
g59
(g60
g61
NtRp232
(dp233
g64
(dp234
g72
I5
ssg73
g228
sg66
(lp235
g59
(g68
g61
NtRp236
(dp237
g64
(dp238
g72
I4
ssg73
Nsg66
(lp239
g59
(g75
g61
NtRp240
(dp241
g64
(dp242
sg73
g236
sg66
(lp243
g59
(g80
g61
NtRp244
(dp245
g64
(dp246
g84
g85
ssg73
g240
sg66
(lp247
S'session_id_admin'
p248
asbag59
(g80
g61
NtRp249
(dp250
g64
(dp251
g91
g92
ssg73
g240
sg66
(lp252
S':'
asbag59
(g80
g61
NtRp253
(dp254
g64
(dp255
sg73
g240
sg66
(lp256
g59
(g60
g61
NtRp257
(dp258
g64
(dp259
g72
I4
ssg73
g253
sg66
(lp260
g59
(g68
g61
NtRp261
(dp262
g64
(dp263
g72
I3
ssg73
Nsg66
(lp264
g59
(g75
g61
NtRp265
(dp266
g64
(dp267
sg73
g261
sg66
(lp268
g59
(g80
g61
NtRp269
(dp270
g64
(dp271
g84
g85
ssg73
g265
sg66
(lp272
S'comment'
p273
asbag59
(g80
g61
NtRp274
(dp275
g64
(dp276
g91
g92
ssg73
g265
sg66
(lp277
S':'
asbag59
(g80
g61
NtRp278
(dp279
g64
(dp280
sg73
g265
sg66
(lp281
g59
(g60
g61
NtRp282
(dp283
g64
(dp284
g72
I3
ssg73
g278
sg66
(lp285
S''
asbasbasbag59
(g75
g61
NtRp286
(dp287
g64
(dp288
sg73
g261
sg66
(lp289
g59
(g80
g61
NtRp290
(dp291
g64
(dp292
g84
g85
ssg73
g286
sg66
(lp293
S'domain'
p294
asbag59
(g80
g61
NtRp295
(dp296
g64
(dp297
g91
g92
ssg73
g286
sg66
(lp298
S':'
asbag59
(g80
g61
NtRp299
(dp300
g64
(dp301
sg73
g286
sg66
(lp302
g59
(g60
g61
NtRp303
(dp304
g64
(dp305
g72
I3
ssg73
g299
sg66
(lp306
S''
asbasbasbag59
(g75
g61
NtRp307
(dp308
g64
(dp309
sg73
g261
sg66
(lp310
g59
(g80
g61
NtRp311
(dp312
g64
(dp313
g84
g85
ssg73
g307
sg66
(lp314
S'expires'
p315
asbag59
(g80
g61
NtRp316
(dp317
g64
(dp318
g91
g92
ssg73
g307
sg66
(lp319
S':'
asbag59
(g80
g61
NtRp320
(dp321
g64
(dp322
sg73
g307
sg66
(lp323
g59
(g60
g61
NtRp324
(dp325
g64
(dp326
g72
I3
ssg73
g320
sg66
(lp327
S''
asbasbasbag59
(g75
g61
NtRp328
(dp329
g64
(dp330
sg73
g261
sg66
(lp331
g59
(g80
g61
NtRp332
(dp333
g64
(dp334
g84
g85
ssg73
g328
sg66
(lp335
S'max-age'
p336
asbag59
(g80
g61
NtRp337
(dp338
g64
(dp339
g91
g92
ssg73
g328
sg66
(lp340
S':'
asbag59
(g80
g61
NtRp341
(dp342
g64
(dp343
sg73
g328
sg66
(lp344
g59
(g60
g61
NtRp345
(dp346
g64
(dp347
g72
I3
ssg73
g341
sg66
(lp348
S''
asbasbasbag59
(g75
g61
NtRp349
(dp350
g64
(dp351
sg73
g261
sg66
(lp352
g59
(g80
g61
NtRp353
(dp354
g64
(dp355
g84
g85
ssg73
g349
sg66
(lp356
S'path'
p357
asbag59
(g80
g61
NtRp358
(dp359
g64
(dp360
g91
g92
ssg73
g349
sg66
(lp361
S':'
asbag59
(g80
g61
NtRp362
(dp363
g64
(dp364
sg73
g349
sg66
(lp365
g59
(g60
g61
NtRp366
(dp367
g64
(dp368
g72
I3
ssg73
g362
sg66
(lp369
S''
asbasbasbag59
(g75
g61
NtRp370
(dp371
g64
(dp372
sg73
g261
sg66
(lp373
g59
(g80
g61
NtRp374
(dp375
g64
(dp376
g84
g85
ssg73
g370
sg66
(lp377
S'secure'
p378
asbag59
(g80
g61
NtRp379
(dp380
g64
(dp381
g91
g92
ssg73
g370
sg66
(lp382
S':'
asbag59
(g80
g61
NtRp383
(dp384
g64
(dp385
sg73
g370
sg66
(lp386
g59
(g60
g61
NtRp387
(dp388
g64
(dp389
g72
I3
ssg73
g383
sg66
(lp390
S''
asbasbasbag59
(g75
g61
NtRp391
(dp392
g64
(dp393
sg73
g261
sg66
(lp394
g59
(g80
g61
NtRp395
(dp396
g64
(dp397
g84
g85
ssg73
g391
sg66
(lp398
S'version'
p399
asbag59
(g80
g61
NtRp400
(dp401
g64
(dp402
g91
g92
ssg73
g391
sg66
(lp403
S':'
asbag59
(g80
g61
NtRp404
(dp405
g64
(dp406
sg73
g391
sg66
(lp407
g59
(g60
g61
NtRp408
(dp409
g64
(dp410
g72
I3
ssg73
g404
sg66
(lp411
S''
asbasbasbasbasbasbasbag59
(g75
g61
NtRp412
(dp413
g64
(dp414
sg73
g236
sg66
(lp415
g59
(g80
g61
NtRp416
(dp417
g64
(dp418
g84
g85
ssg73
g412
sg66
(lp419
S'session_id_musicrepo'
p420
asbag59
(g80
g61
NtRp421
(dp422
g64
(dp423
g91
g92
ssg73
g412
sg66
(lp424
S':'
asbag59
(g80
g61
NtRp425
(dp426
g64
(dp427
sg73
g412
sg66
(lp428
g59
(g60
g61
NtRp429
(dp430
g64
(dp431
g72
I4
ssg73
g425
sg66
(lp432
g59
(g68
g61
NtRp433
(dp434
g64
(dp435
g72
I3
ssg73
Nsg66
(lp436
g59
(g75
g61
NtRp437
(dp438
g64
(dp439
sg73
g433
sg66
(lp440
g59
(g80
g61
NtRp441
(dp442
g64
(dp443
g84
g85
ssg73
g437
sg66
(lp444
g273
asbag59
(g80
g61
NtRp445
(dp446
g64
(dp447
g91
g92
ssg73
g437
sg66
(lp448
S':'
asbag59
(g80
g61
NtRp449
(dp450
g64
(dp451
sg73
g437
sg66
(lp452
g59
(g60
g61
NtRp453
(dp454
g64
(dp455
g72
I3
ssg73
g449
sg66
(lp456
S''
asbasbasbag59
(g75
g61
NtRp457
(dp458
g64
(dp459
sg73
g433
sg66
(lp460
g59
(g80
g61
NtRp461
(dp462
g64
(dp463
g84
g85
ssg73
g457
sg66
(lp464
g294
asbag59
(g80
g61
NtRp465
(dp466
g64
(dp467
g91
g92
ssg73
g457
sg66
(lp468
S':'
asbag59
(g80
g61
NtRp469
(dp470
g64
(dp471
sg73
g457
sg66
(lp472
g59
(g60
g61
NtRp473
(dp474
g64
(dp475
g72
I3
ssg73
g469
sg66
(lp476
S''
asbasbasbag59
(g75
g61
NtRp477
(dp478
g64
(dp479
sg73
g433
sg66
(lp480
g59
(g80
g61
NtRp481
(dp482
g64
(dp483
g84
g85
ssg73
g477
sg66
(lp484
g315
asbag59
(g80
g61
NtRp485
(dp486
g64
(dp487
g91
g92
ssg73
g477
sg66
(lp488
S':'
asbag59
(g80
g61
NtRp489
(dp490
g64
(dp491
sg73
g477
sg66
(lp492
g59
(g60
g61
NtRp493
(dp494
g64
(dp495
g72
I3
ssg73
g489
sg66
(lp496
S''
asbasbasbag59
(g75
g61
NtRp497
(dp498
g64
(dp499
sg73
g433
sg66
(lp500
g59
(g80
g61
NtRp501
(dp502
g64
(dp503
g84
g85
ssg73
g497
sg66
(lp504
g336
asbag59
(g80
g61
NtRp505
(dp506
g64
(dp507
g91
g92
ssg73
g497
sg66
(lp508
S':'
asbag59
(g80
g61
NtRp509
(dp510
g64
(dp511
sg73
g497
sg66
(lp512
g59
(g60
g61
NtRp513
(dp514
g64
(dp515
g72
I3
ssg73
g509
sg66
(lp516
S''
asbasbasbag59
(g75
g61
NtRp517
(dp518
g64
(dp519
sg73
g433
sg66
(lp520
g59
(g80
g61
NtRp521
(dp522
g64
(dp523
g84
g85
ssg73
g517
sg66
(lp524
g357
asbag59
(g80
g61
NtRp525
(dp526
g64
(dp527
g91
g92
ssg73
g517
sg66
(lp528
S':'
asbag59
(g80
g61
NtRp529
(dp530
g64
(dp531
sg73
g517
sg66
(lp532
g59
(g60
g61
NtRp533
(dp534
g64
(dp535
g72
I3
ssg73
g529
sg66
(lp536
S''
asbasbasbag59
(g75
g61
NtRp537
(dp538
g64
(dp539
sg73
g433
sg66
(lp540
g59
(g80
g61
NtRp541
(dp542
g64
(dp543
g84
g85
ssg73
g537
sg66
(lp544
g378
asbag59
(g80
g61
NtRp545
(dp546
g64
(dp547
g91
g92
ssg73
g537
sg66
(lp548
S':'
asbag59
(g80
g61
NtRp549
(dp550
g64
(dp551
sg73
g537
sg66
(lp552
g59
(g60
g61
NtRp553
(dp554
g64
(dp555
g72
I3
ssg73
g549
sg66
(lp556
S''
asbasbasbag59
(g75
g61
NtRp557
(dp558
g64
(dp559
sg73
g433
sg66
(lp560
g59
(g80
g61
NtRp561
(dp562
g64
(dp563
g84
g85
ssg73
g557
sg66
(lp564
g399
asbag59
(g80
g61
NtRp565
(dp566
g64
(dp567
g91
g92
ssg73
g557
sg66
(lp568
S':'
asbag59
(g80
g61
NtRp569
(dp570
g64
(dp571
sg73
g557
sg66
(lp572
g59
(g60
g61
NtRp573
(dp574
g64
(dp575
g72
I3
ssg73
g569
sg66
(lp576
S''
asbasbasbasbasbasbasbag59
(g75
g61
NtRp577
(dp578
g64
(dp579
sg73
g236
sg66
(lp580
g59
(g80
g61
NtRp581
(dp582
g64
(dp583
g84
g85
ssg73
g577
sg66
(lp584
S'session_id_welcome'
p585
asbag59
(g80
g61
NtRp586
(dp587
g64
(dp588
g91
g92
ssg73
g577
sg66
(lp589
S':'
asbag59
(g80
g61
NtRp590
(dp591
g64
(dp592
sg73
g577
sg66
(lp593
g59
(g60
g61
NtRp594
(dp595
g64
(dp596
g72
I4
ssg73
g590
sg66
(lp597
g59
(g68
g61
NtRp598
(dp599
g64
(dp600
g72
I3
ssg73
Nsg66
(lp601
g59
(g75
g61
NtRp602
(dp603
g64
(dp604
sg73
g598
sg66
(lp605
g59
(g80
g61
NtRp606
(dp607
g64
(dp608
g84
g85
ssg73
g602
sg66
(lp609
g273
asbag59
(g80
g61
NtRp610
(dp611
g64
(dp612
g91
g92
ssg73
g602
sg66
(lp613
S':'
asbag59
(g80
g61
NtRp614
(dp615
g64
(dp616
sg73
g602
sg66
(lp617
g59
(g60
g61
NtRp618
(dp619
g64
(dp620
g72
I3
ssg73
g614
sg66
(lp621
S''
asbasbasbag59
(g75
g61
NtRp622
(dp623
g64
(dp624
sg73
g598
sg66
(lp625
g59
(g80
g61
NtRp626
(dp627
g64
(dp628
g84
g85
ssg73
g622
sg66
(lp629
g294
asbag59
(g80
g61
NtRp630
(dp631
g64
(dp632
g91
g92
ssg73
g622
sg66
(lp633
S':'
asbag59
(g80
g61
NtRp634
(dp635
g64
(dp636
sg73
g622
sg66
(lp637
g59
(g60
g61
NtRp638
(dp639
g64
(dp640
g72
I3
ssg73
g634
sg66
(lp641
S''
asbasbasbag59
(g75
g61
NtRp642
(dp643
g64
(dp644
sg73
g598
sg66
(lp645
g59
(g80
g61
NtRp646
(dp647
g64
(dp648
g84
g85
ssg73
g642
sg66
(lp649
g315
asbag59
(g80
g61
NtRp650
(dp651
g64
(dp652
g91
g92
ssg73
g642
sg66
(lp653
S':'
asbag59
(g80
g61
NtRp654
(dp655
g64
(dp656
sg73
g642
sg66
(lp657
g59
(g60
g61
NtRp658
(dp659
g64
(dp660
g72
I3
ssg73
g654
sg66
(lp661
S''
asbasbasbag59
(g75
g61
NtRp662
(dp663
g64
(dp664
sg73
g598
sg66
(lp665
g59
(g80
g61
NtRp666
(dp667
g64
(dp668
g84
g85
ssg73
g662
sg66
(lp669
g336
asbag59
(g80
g61
NtRp670
(dp671
g64
(dp672
g91
g92
ssg73
g662
sg66
(lp673
S':'
asbag59
(g80
g61
NtRp674
(dp675
g64
(dp676
sg73
g662
sg66
(lp677
g59
(g60
g61
NtRp678
(dp679
g64
(dp680
g72
I3
ssg73
g674
sg66
(lp681
S''
asbasbasbag59
(g75
g61
NtRp682
(dp683
g64
(dp684
sg73
g598
sg66
(lp685
g59
(g80
g61
NtRp686
(dp687
g64
(dp688
g84
g85
ssg73
g682
sg66
(lp689
g357
asbag59
(g80
g61
NtRp690
(dp691
g64
(dp692
g91
g92
ssg73
g682
sg66
(lp693
S':'
asbag59
(g80
g61
NtRp694
(dp695
g64
(dp696
sg73
g682
sg66
(lp697
g59
(g60
g61
NtRp698
(dp699
g64
(dp700
g72
I3
ssg73
g694
sg66
(lp701
S''
asbasbasbag59
(g75
g61
NtRp702
(dp703
g64
(dp704
sg73
g598
sg66
(lp705
g59
(g80
g61
NtRp706
(dp707
g64
(dp708
g84
g85
ssg73
g702
sg66
(lp709
g378
asbag59
(g80
g61
NtRp710
(dp711
g64
(dp712
g91
g92
ssg73
g702
sg66
(lp713
S':'
asbag59
(g80
g61
NtRp714
(dp715
g64
(dp716
sg73
g702
sg66
(lp717
g59
(g60
g61
NtRp718
(dp719
g64
(dp720
g72
I3
ssg73
g714
sg66
(lp721
S''
asbasbasbag59
(g75
g61
NtRp722
(dp723
g64
(dp724
sg73
g598
sg66
(lp725
g59
(g80
g61
NtRp726
(dp727
g64
(dp728
g84
g85
ssg73
g722
sg66
(lp729
g399
asbag59
(g80
g61
NtRp730
(dp731
g64
(dp732
g91
g92
ssg73
g722
sg66
(lp733
S':'
asbag59
(g80
g61
NtRp734
(dp735
g64
(dp736
sg73
g722
sg66
(lp737
g59
(g60
g61
NtRp738
(dp739
g64
(dp740
g72
I3
ssg73
g734
sg66
(lp741
S''
asbasbasbasbasbasbasbasbasbasbasbag59
(g75
g61
NtRp742
(dp743
g64
(dp744
sg73
g69
sg66
(lp745
g59
(g80
g61
NtRp746
(dp747
g64
(dp748
g84
g85
ssg73
g742
sg66
(lp749
S'env'
p750
asbag59
(g80
g61
NtRp751
(dp752
g64
(dp753
g91
g92
ssg73
g742
sg66
(lp754
S':'
asbag59
(g80
g61
NtRp755
(dp756
g64
(dp757
sg73
g742
sg66
(lp758
g59
(g60
g61
NtRp759
(dp760
g64
(dp761
g72
I5
ssg73
g755
sg66
(lp762
g59
(g68
g61
NtRp763
(dp764
g64
(dp765
g72
I4
ssg73
Nsg66
(lp766
g59
(g75
g61
NtRp767
(dp768
g64
(dp769
sg73
g763
sg66
(lp770
g59
(g80
g61
NtRp771
(dp772
g64
(dp773
g84
g85
ssg73
g767
sg66
(lp774
S'app_folders'
p775
asbag59
(g80
g61
NtRp776
(dp777
g64
(dp778
g91
g92
ssg73
g767
sg66
(lp779
S':'
asbag59
(g80
g61
NtRp780
(dp781
g64
(dp782
sg73
g767
sg66
(lp783
g59
(g60
g61
NtRp784
(dp785
g64
(dp786
g72
I4
ssg73
g780
sg66
(lp787
S"set(['C:\\\\Users\\\\AKSHAY\\\\Desktop\\\\web2py\\\\applications\\\\welcome\\\\', 'C:\\\\Users\\\\AKSHAY\\\\Desktop\\\\web2py\\\\applications\\\\201056161\\\\', 'C:\\\\Users\\\\AKSHAY\\\\Desktop\\\\web2py\\\\applications\\\\examples\\\\', 'C:\\\\Users\\\\AKSHAY\\\\Desktop\\\\web2py\\\\applications\\\\admin\\\\', 'C:\\\\Users\\\\AKSHAY\\\\Desktop\\\\web2py\\\\applications\\\\MusicRepo\\\\'])"
p788
asbasbasbag59
(g75
g61
NtRp789
(dp790
g64
(dp791
sg73
g763
sg66
(lp792
g59
(g80
g61
NtRp793
(dp794
g64
(dp795
g84
g85
ssg73
g789
sg66
(lp796
S'applications_parent'
p797
asbag59
(g80
g61
NtRp798
(dp799
g64
(dp800
g91
g92
ssg73
g789
sg66
(lp801
S':'
asbag59
(g80
g61
NtRp802
(dp803
g64
(dp804
sg73
g789
sg66
(lp805
g59
(g60
g61
NtRp806
(dp807
g64
(dp808
g72
I4
ssg73
g802
sg66
(lp809
S'C:\\Users\\AKSHAY\\Desktop\\web2py'
p810
asbasbasbag59
(g75
g61
NtRp811
(dp812
g64
(dp813
sg73
g763
sg66
(lp814
g59
(g80
g61
NtRp815
(dp816
g64
(dp817
g84
g85
ssg73
g811
sg66
(lp818
S'cmd_args'
p819
asbag59
(g80
g61
NtRp820
(dp821
g64
(dp822
g91
g92
ssg73
g811
sg66
(lp823
S':'
asbag59
(g80
g61
NtRp824
(dp825
g64
(dp826
sg73
g811
sg66
(lp827
g59
(g60
g61
NtRp828
(dp829
g64
(dp830
g72
I4
ssg73
g824
sg66
(lp831
g59
(g68
g61
NtRp832
(dp833
g64
(dp834
g72
I3
ssg73
Nsg66
(lp835
sbasbasbasbag59
(g75
g61
NtRp836
(dp837
g64
(dp838
sg73
g763
sg66
(lp839
g59
(g80
g61
NtRp840
(dp841
g64
(dp842
g84
g85
ssg73
g836
sg66
(lp843
S'cmd_options'
p844
asbag59
(g80
g61
NtRp845
(dp846
g64
(dp847
g91
g92
ssg73
g836
sg66
(lp848
S':'
asbag59
(g80
g61
NtRp849
(dp850
g64
(dp851
sg73
g836
sg66
(lp852
g59
(g60
g61
NtRp853
(dp854
g64
(dp855
g72
I4
ssg73
g849
sg66
(lp856
S"<Values at 0x2fcdfd0: {'verbose': False, 'ip': '127.0.0.1', 'shutdown_timeout': 5, 'taskbar': False, 'port': 8000, 'maxthreads': None, 'softcron': False, 'server_name': 'AKSHAY-PC', 'bpython': False, 'nogui': False, 'nocron': False, 'extcron': False, 'debuglevel': 30, 'test': None, 'folder': 'C:\\\\Users\\\\AKSHAY\\\\Desktop\\\\web2py', 'config': '', 'import_models': False, 'winservice': '', 'shell': None, 'run': '', 'log_filename': 'httpserver.log', 'args': [''], 'profiler_filename': None, 'ssl_private_key': '', 'password': '<ask>', 'request_queue_size': 5, 'ssl_certificate': '', 'cronjob': False, 'plain': False, 'quiet': False, 'interfaces': None, 'minthreads': None, 'timeout': 10, 'numthreads': None, 'nobanner': False, 'pid_filename': 'httpserver.pid'}>"
p857
asbasbasbag59
(g75
g61
NtRp858
(dp859
g64
(dp860
sg73
g763
sg66
(lp861
g59
(g80
g61
NtRp862
(dp863
g64
(dp864
g84
g85
ssg73
g858
sg66
(lp865
S'db_sessions'
p866
asbag59
(g80
g61
NtRp867
(dp868
g64
(dp869
g91
g92
ssg73
g858
sg66
(lp870
S':'
asbag59
(g80
g61
NtRp871
(dp872
g64
(dp873
sg73
g858
sg66
(lp874
g59
(g60
g61
NtRp875
(dp876
g64
(dp877
g72
I4
ssg73
g871
sg66
(lp878
S'set([])'
p879
asbasbasbag59
(g75
g61
NtRp880
(dp881
g64
(dp882
sg73
g763
sg66
(lp883
g59
(g80
g61
NtRp884
(dp885
g64
(dp886
g84
g85
ssg73
g880
sg66
(lp887
S'debugging'
p888
asbag59
(g80
g61
NtRp889
(dp890
g64
(dp891
g91
g92
ssg73
g880
sg66
(lp892
S':'
asbag59
(g80
g61
NtRp893
(dp894
g64
(dp895
sg73
g880
sg66
(lp896
g59
(g60
g61
NtRp897
(dp898
g64
(dp899
g72
I4
ssg73
g893
sg66
(lp900
g102
asbasbasbag59
(g75
g61
NtRp901
(dp902
g64
(dp903
sg73
g763
sg66
(lp904
g59
(g80
g61
NtRp905
(dp906
g64
(dp907
g84
g85
ssg73
g901
sg66
(lp908
S'gluon_parent'
p909
asbag59
(g80
g61
NtRp910
(dp911
g64
(dp912
g91
g92
ssg73
g901
sg66
(lp913
S':'
asbag59
(g80
g61
NtRp914
(dp915
g64
(dp916
sg73
g901
sg66
(lp917
g59
(g60
g61
NtRp918
(dp919
g64
(dp920
g72
I4
ssg73
g914
sg66
(lp921
S'C:\\Users\\AKSHAY\\Desktop\\web2py'
p922
asbasbasbag59
(g75
g61
NtRp923
(dp924
g64
(dp925
sg73
g763
sg66
(lp926
g59
(g80
g61
NtRp927
(dp928
g64
(dp929
g84
g85
ssg73
g923
sg66
(lp930
S'http_accept'
p931
asbag59
(g80
g61
NtRp932
(dp933
g64
(dp934
g91
g92
ssg73
g923
sg66
(lp935
S':'
asbag59
(g80
g61
NtRp936
(dp937
g64
(dp938
sg73
g923
sg66
(lp939
g59
(g60
g61
NtRp940
(dp941
g64
(dp942
g72
I4
ssg73
g936
sg66
(lp943
S'text/html,application/xhtml+xml,application/xml;q=0.9,*/*;q=0.8'
p944
asbasbasbag59
(g75
g61
NtRp945
(dp946
g64
(dp947
sg73
g763
sg66
(lp948
g59
(g80
g61
NtRp949
(dp950
g64
(dp951
g84
g85
ssg73
g945
sg66
(lp952
S'http_accept_charset'
p953
asbag59
(g80
g61
NtRp954
(dp955
g64
(dp956
g91
g92
ssg73
g945
sg66
(lp957
S':'
asbag59
(g80
g61
NtRp958
(dp959
g64
(dp960
sg73
g945
sg66
(lp961
g59
(g60
g61
NtRp962
(dp963
g64
(dp964
g72
I4
ssg73
g958
sg66
(lp965
S'ISO-8859-1,utf-8;q=0.7,*;q=0.3'
p966
asbasbasbag59
(g75
g61
NtRp967
(dp968
g64
(dp969
sg73
g763
sg66
(lp970
g59
(g80
g61
NtRp971
(dp972
g64
(dp973
g84
g85
ssg73
g967
sg66
(lp974
S'http_accept_encoding'
p975
asbag59
(g80
g61
NtRp976
(dp977
g64
(dp978
g91
g92
ssg73
g967
sg66
(lp979
S':'
asbag59
(g80
g61
NtRp980
(dp981
g64
(dp982
sg73
g967
sg66
(lp983
g59
(g60
g61
NtRp984
(dp985
g64
(dp986
g72
I4
ssg73
g980
sg66
(lp987
S'gzip,deflate,sdch'
p988
asbasbasbag59
(g75
g61
NtRp989
(dp990
g64
(dp991
sg73
g763
sg66
(lp992
g59
(g80
g61
NtRp993
(dp994
g64
(dp995
g84
g85
ssg73
g989
sg66
(lp996
S'http_accept_language'
p997
asbag59
(g80
g61
NtRp998
(dp999
g64
(dp1000
g91
g92
ssg73
g989
sg66
(lp1001
S':'
asbag59
(g80
g61
NtRp1002
(dp1003
g64
(dp1004
sg73
g989
sg66
(lp1005
g59
(g60
g61
NtRp1006
(dp1007
g64
(dp1008
g72
I4
ssg73
g1002
sg66
(lp1009
S'en-US,en;q=0.8'
p1010
asbasbasbag59
(g75
g61
NtRp1011
(dp1012
g64
(dp1013
sg73
g763
sg66
(lp1014
g59
(g80
g61
NtRp1015
(dp1016
g64
(dp1017
g84
g85
ssg73
g1011
sg66
(lp1018
S'http_connection'
p1019
asbag59
(g80
g61
NtRp1020
(dp1021
g64
(dp1022
g91
g92
ssg73
g1011
sg66
(lp1023
S':'
asbag59
(g80
g61
NtRp1024
(dp1025
g64
(dp1026
sg73
g1011
sg66
(lp1027
g59
(g60
g61
NtRp1028
(dp1029
g64
(dp1030
g72
I4
ssg73
g1024
sg66
(lp1031
S'keep-alive'
p1032
asbasbasbag59
(g75
g61
NtRp1033
(dp1034
g64
(dp1035
sg73
g763
sg66
(lp1036
g59
(g80
g61
NtRp1037
(dp1038
g64
(dp1039
g84
g85
ssg73
g1033
sg66
(lp1040
S'http_cookie'
p1041
asbag59
(g80
g61
NtRp1042
(dp1043
g64
(dp1044
g91
g92
ssg73
g1033
sg66
(lp1045
S':'
asbag59
(g80
g61
NtRp1046
(dp1047
g64
(dp1048
sg73
g1033
sg66
(lp1049
g59
(g60
g61
NtRp1050
(dp1051
g64
(dp1052
g72
I4
ssg73
g1046
sg66
(lp1053
S'session_id_musicrepo=127.0.0.1-e029772f-a7db-4b81-ba69-8dddec4e619a; session_id_welcome=127.0.0.1-418cc45f-3159-4c3f-89b5-0ae0f0182eba; session_id_admin=127.0.0.1-0c8b9219-dcb7-4d55-a944-116f9d004722'
p1054
asbasbasbag59
(g75
g61
NtRp1055
(dp1056
g64
(dp1057
sg73
g763
sg66
(lp1058
g59
(g80
g61
NtRp1059
(dp1060
g64
(dp1061
g84
g85
ssg73
g1055
sg66
(lp1062
S'http_host'
p1063
asbag59
(g80
g61
NtRp1064
(dp1065
g64
(dp1066
g91
g92
ssg73
g1055
sg66
(lp1067
S':'
asbag59
(g80
g61
NtRp1068
(dp1069
g64
(dp1070
sg73
g1055
sg66
(lp1071
g59
(g60
g61
NtRp1072
(dp1073
g64
(dp1074
g72
I4
ssg73
g1068
sg66
(lp1075
S'127.0.0.1:8000'
p1076
asbasbasbag59
(g75
g61
NtRp1077
(dp1078
g64
(dp1079
sg73
g763
sg66
(lp1080
g59
(g80
g61
NtRp1081
(dp1082
g64
(dp1083
g84
g85
ssg73
g1077
sg66
(lp1084
S'http_user_agent'
p1085
asbag59
(g80
g61
NtRp1086
(dp1087
g64
(dp1088
g91
g92
ssg73
g1077
sg66
(lp1089
S':'
asbag59
(g80
g61
NtRp1090
(dp1091
g64
(dp1092
sg73
g1077
sg66
(lp1093
g59
(g60
g61
NtRp1094
(dp1095
g64
(dp1096
g72
I4
ssg73
g1090
sg66
(lp1097
S'Mozilla/5.0 (Windows NT 6.1; WOW64) AppleWebKit/535.1 (KHTML, like Gecko) Chrome/13.0.782.112 Safari/535.1'
p1098
asbasbasbag59
(g75
g61
NtRp1099
(dp1100
g64
(dp1101
sg73
g763
sg66
(lp1102
g59
(g80
g61
NtRp1103
(dp1104
g64
(dp1105
g84
g85
ssg73
g1099
sg66
(lp1106
S'path_info'
p1107
asbag59
(g80
g61
NtRp1108
(dp1109
g64
(dp1110
g91
g92
ssg73
g1099
sg66
(lp1111
S':'
asbag59
(g80
g61
NtRp1112
(dp1113
g64
(dp1114
sg73
g1099
sg66
(lp1115
g59
(g60
g61
NtRp1116
(dp1117
g64
(dp1118
g72
I4
ssg73
g1112
sg66
(lp1119
S'/201056161/default'
p1120
asbasbasbag59
(g75
g61
NtRp1121
(dp1122
g64
(dp1123
sg73
g763
sg66
(lp1124
g59
(g80
g61
NtRp1125
(dp1126
g64
(dp1127
g84
g85
ssg73
g1121
sg66
(lp1128
S'query_string'
p1129
asbag59
(g80
g61
NtRp1130
(dp1131
g64
(dp1132
g91
g92
ssg73
g1121
sg66
(lp1133
S':'
asbag59
(g80
g61
NtRp1134
(dp1135
g64
(dp1136
sg73
g1121
sg66
(lp1137
g59
(g60
g61
NtRp1138
(dp1139
g64
(dp1140
g72
I4
ssg73
g1134
sg66
(lp1141
S''
asbasbasbag59
(g75
g61
NtRp1142
(dp1143
g64
(dp1144
sg73
g763
sg66
(lp1145
g59
(g80
g61
NtRp1146
(dp1147
g64
(dp1148
g84
g85
ssg73
g1142
sg66
(lp1149
S'remote_addr'
p1150
asbag59
(g80
g61
NtRp1151
(dp1152
g64
(dp1153
g91
g92
ssg73
g1142
sg66
(lp1154
S':'
asbag59
(g80
g61
NtRp1155
(dp1156
g64
(dp1157
sg73
g1142
sg66
(lp1158
g59
(g60
g61
NtRp1159
(dp1160
g64
(dp1161
g72
I4
ssg73
g1155
sg66
(lp1162
g192
asbasbasbag59
(g75
g61
NtRp1163
(dp1164
g64
(dp1165
sg73
g763
sg66
(lp1166
g59
(g80
g61
NtRp1167
(dp1168
g64
(dp1169
g84
g85
ssg73
g1163
sg66
(lp1170
S'remote_port'
p1171
asbag59
(g80
g61
NtRp1172
(dp1173
g64
(dp1174
g91
g92
ssg73
g1163
sg66
(lp1175
S':'
asbag59
(g80
g61
NtRp1176
(dp1177
g64
(dp1178
sg73
g1163
sg66
(lp1179
g59
(g60
g61
NtRp1180
(dp1181
g64
(dp1182
g72
I4
ssg73
g1176
sg66
(lp1183
S'54794'
p1184
asbasbasbag59
(g75
g61
NtRp1185
(dp1186
g64
(dp1187
sg73
g763
sg66
(lp1188
g59
(g80
g61
NtRp1189
(dp1190
g64
(dp1191
g84
g85
ssg73
g1185
sg66
(lp1192
S'request_method'
p1193
asbag59
(g80
g61
NtRp1194
(dp1195
g64
(dp1196
g91
g92
ssg73
g1185
sg66
(lp1197
S':'
asbag59
(g80
g61
NtRp1198
(dp1199
g64
(dp1200
sg73
g1185
sg66
(lp1201
g59
(g60
g61
NtRp1202
(dp1203
g64
(dp1204
g72
I4
ssg73
g1198
sg66
(lp1205
S'GET'
p1206
asbasbasbag59
(g75
g61
NtRp1207
(dp1208
g64
(dp1209
sg73
g763
sg66
(lp1210
g59
(g80
g61
NtRp1211
(dp1212
g64
(dp1213
g84
g85
ssg73
g1207
sg66
(lp1214
S'script_name'
p1215
asbag59
(g80
g61
NtRp1216
(dp1217
g64
(dp1218
g91
g92
ssg73
g1207
sg66
(lp1219
S':'
asbag59
(g80
g61
NtRp1220
(dp1221
g64
(dp1222
sg73
g1207
sg66
(lp1223
g59
(g60
g61
NtRp1224
(dp1225
g64
(dp1226
g72
I4
ssg73
g1220
sg66
(lp1227
S''
asbasbasbag59
(g75
g61
NtRp1228
(dp1229
g64
(dp1230
sg73
g763
sg66
(lp1231
g59
(g80
g61
NtRp1232
(dp1233
g64
(dp1234
g84
g85
ssg73
g1228
sg66
(lp1235
S'server_name'
p1236
asbag59
(g80
g61
NtRp1237
(dp1238
g64
(dp1239
g91
g92
ssg73
g1228
sg66
(lp1240
S':'
asbag59
(g80
g61
NtRp1241
(dp1242
g64
(dp1243
sg73
g1228
sg66
(lp1244
g59
(g60
g61
NtRp1245
(dp1246
g64
(dp1247
g72
I4
ssg73
g1241
sg66
(lp1248
S'AKSHAY-PC'
p1249
asbasbasbag59
(g75
g61
NtRp1250
(dp1251
g64
(dp1252
sg73
g763
sg66
(lp1253
g59
(g80
g61
NtRp1254
(dp1255
g64
(dp1256
g84
g85
ssg73
g1250
sg66
(lp1257
S'server_port'
p1258
asbag59
(g80
g61
NtRp1259
(dp1260
g64
(dp1261
g91
g92
ssg73
g1250
sg66
(lp1262
S':'
asbag59
(g80
g61
NtRp1263
(dp1264
g64
(dp1265
sg73
g1250
sg66
(lp1266
g59
(g60
g61
NtRp1267
(dp1268
g64
(dp1269
g72
I4
ssg73
g1263
sg66
(lp1270
S'8000'
p1271
asbasbasbag59
(g75
g61
NtRp1272
(dp1273
g64
(dp1274
sg73
g763
sg66
(lp1275
g59
(g80
g61
NtRp1276
(dp1277
g64
(dp1278
g84
g85
ssg73
g1272
sg66
(lp1279
S'server_protocol'
p1280
asbag59
(g80
g61
NtRp1281
(dp1282
g64
(dp1283
g91
g92
ssg73
g1272
sg66
(lp1284
S':'
asbag59
(g80
g61
NtRp1285
(dp1286
g64
(dp1287
sg73
g1272
sg66
(lp1288
g59
(g60
g61
NtRp1289
(dp1290
g64
(dp1291
g72
I4
ssg73
g1285
sg66
(lp1292
S'HTTP/1.1'
p1293
asbasbasbag59
(g75
g61
NtRp1294
(dp1295
g64
(dp1296
sg73
g763
sg66
(lp1297
g59
(g80
g61
NtRp1298
(dp1299
g64
(dp1300
g84
g85
ssg73
g1294
sg66
(lp1301
S'server_software'
p1302
asbag59
(g80
g61
NtRp1303
(dp1304
g64
(dp1305
g91
g92
ssg73
g1294
sg66
(lp1306
S':'
asbag59
(g80
g61
NtRp1307
(dp1308
g64
(dp1309
sg73
g1294
sg66
(lp1310
g59
(g60
g61
NtRp1311
(dp1312
g64
(dp1313
g72
I4
ssg73
g1307
sg66
(lp1314
S'Rocket 1.2.2'
p1315
asbasbasbag59
(g75
g61
NtRp1316
(dp1317
g64
(dp1318
sg73
g763
sg66
(lp1319
g59
(g80
g61
NtRp1320
(dp1321
g64
(dp1322
g84
g85
ssg73
g1316
sg66
(lp1323
S'web2py_crontype'
p1324
asbag59
(g80
g61
NtRp1325
(dp1326
g64
(dp1327
g91
g92
ssg73
g1316
sg66
(lp1328
S':'
asbag59
(g80
g61
NtRp1329
(dp1330
g64
(dp1331
sg73
g1316
sg66
(lp1332
g59
(g60
g61
NtRp1333
(dp1334
g64
(dp1335
g72
I4
ssg73
g1329
sg66
(lp1336
S'hard'
p1337
asbasbasbag59
(g75
g61
NtRp1338
(dp1339
g64
(dp1340
sg73
g763
sg66
(lp1341
g59
(g80
g61
NtRp1342
(dp1343
g64
(dp1344
g84
g85
ssg73
g1338
sg66
(lp1345
S'web2py_path'
p1346
asbag59
(g80
g61
NtRp1347
(dp1348
g64
(dp1349
g91
g92
ssg73
g1338
sg66
(lp1350
S':'
asbag59
(g80
g61
NtRp1351
(dp1352
g64
(dp1353
sg73
g1338
sg66
(lp1354
g59
(g60
g61
NtRp1355
(dp1356
g64
(dp1357
g72
I4
ssg73
g1351
sg66
(lp1358
g810
asbasbasbag59
(g75
g61
NtRp1359
(dp1360
g64
(dp1361
sg73
g763
sg66
(lp1362
g59
(g80
g61
NtRp1363
(dp1364
g64
(dp1365
g84
g85
ssg73
g1359
sg66
(lp1366
S'web2py_version'
p1367
asbag59
(g80
g61
NtRp1368
(dp1369
g64
(dp1370
g91
g92
ssg73
g1359
sg66
(lp1371
S':'
asbag59
(g80
g61
NtRp1372
(dp1373
g64
(dp1374
sg73
g1359
sg66
(lp1375
g59
(g60
g61
NtRp1376
(dp1377
g64
(dp1378
g72
I4
ssg73
g1372
sg66
(lp1379
S'Version 1.97.1 (2011-06-26 19:25:44)\n'
p1380
asbasbasbag59
(g75
g61
NtRp1381
(dp1382
g64
(dp1383
sg73
g763
sg66
(lp1384
g59
(g80
g61
NtRp1385
(dp1386
g64
(dp1387
g84
g85
ssg73
g1381
sg66
(lp1388
S'wsgi_errors'
p1389
asbag59
(g80
g61
NtRp1390
(dp1391
g64
(dp1392
g91
g92
ssg73
g1381
sg66
(lp1393
S':'
asbag59
(g80
g61
NtRp1394
(dp1395
g64
(dp1396
sg73
g1381
sg66
(lp1397
g59
(g60
g61
NtRp1398
(dp1399
g64
(dp1400
g72
I4
ssg73
g1394
sg66
(lp1401
S"<open file '<stderr>', mode 'w' at 0x002F00B0>"
p1402
asbasbasbag59
(g75
g61
NtRp1403
(dp1404
g64
(dp1405
sg73
g763
sg66
(lp1406
g59
(g80
g61
NtRp1407
(dp1408
g64
(dp1409
g84
g85
ssg73
g1403
sg66
(lp1410
S'wsgi_file_wrapper'
p1411
asbag59
(g80
g61
NtRp1412
(dp1413
g64
(dp1414
g91
g92
ssg73
g1403
sg66
(lp1415
S':'
asbag59
(g80
g61
NtRp1416
(dp1417
g64
(dp1418
sg73
g1403
sg66
(lp1419
g59
(g60
g61
NtRp1420
(dp1421
g64
(dp1422
g72
I4
ssg73
g1416
sg66
(lp1423
S'<class gluon.rocket.FileWrapper at 0x02F82BA0>'
p1424
asbasbasbag59
(g75
g61
NtRp1425
(dp1426
g64
(dp1427
sg73
g763
sg66
(lp1428
g59
(g80
g61
NtRp1429
(dp1430
g64
(dp1431
g84
g85
ssg73
g1425
sg66
(lp1432
S'wsgi_input'
p1433
asbag59
(g80
g61
NtRp1434
(dp1435
g64
(dp1436
g91
g92
ssg73
g1425
sg66
(lp1437
S':'
asbag59
(g80
g61
NtRp1438
(dp1439
g64
(dp1440
sg73
g1425
sg66
(lp1441
g59
(g60
g61
NtRp1442
(dp1443
g64
(dp1444
g72
I4
ssg73
g1438
sg66
(lp1445
S'<socket._fileobject object at 0x06B1C8B0>'
p1446
asbasbasbag59
(g75
g61
NtRp1447
(dp1448
g64
(dp1449
sg73
g763
sg66
(lp1450
g59
(g80
g61
NtRp1451
(dp1452
g64
(dp1453
g84
g85
ssg73
g1447
sg66
(lp1454
S'wsgi_multiprocess'
p1455
asbag59
(g80
g61
NtRp1456
(dp1457
g64
(dp1458
g91
g92
ssg73
g1447
sg66
(lp1459
S':'
asbag59
(g80
g61
NtRp1460
(dp1461
g64
(dp1462
sg73
g1447
sg66
(lp1463
g59
(g60
g61
NtRp1464
(dp1465
g64
(dp1466
g72
I4
ssg73
g1460
sg66
(lp1467
g102
asbasbasbag59
(g75
g61
NtRp1468
(dp1469
g64
(dp1470
sg73
g763
sg66
(lp1471
g59
(g80
g61
NtRp1472
(dp1473
g64
(dp1474
g84
g85
ssg73
g1468
sg66
(lp1475
S'wsgi_multithread'
p1476
asbag59
(g80
g61
NtRp1477
(dp1478
g64
(dp1479
g91
g92
ssg73
g1468
sg66
(lp1480
S':'
asbag59
(g80
g61
NtRp1481
(dp1482
g64
(dp1483
sg73
g1468
sg66
(lp1484
g59
(g60
g61
NtRp1485
(dp1486
g64
(dp1487
g72
I4
ssg73
g1481
sg66
(lp1488
S'True'
p1489
asbasbasbag59
(g75
g61
NtRp1490
(dp1491
g64
(dp1492
sg73
g763
sg66
(lp1493
g59
(g80
g61
NtRp1494
(dp1495
g64
(dp1496
g84
g85
ssg73
g1490
sg66
(lp1497
S'wsgi_run_once'
p1498
asbag59
(g80
g61
NtRp1499
(dp1500
g64
(dp1501
g91
g92
ssg73
g1490
sg66
(lp1502
S':'
asbag59
(g80
g61
NtRp1503
(dp1504
g64
(dp1505
sg73
g1490
sg66
(lp1506
g59
(g60
g61
NtRp1507
(dp1508
g64
(dp1509
g72
I4
ssg73
g1503
sg66
(lp1510
g102
asbasbasbag59
(g75
g61
NtRp1511
(dp1512
g64
(dp1513
sg73
g763
sg66
(lp1514
g59
(g80
g61
NtRp1515
(dp1516
g64
(dp1517
g84
g85
ssg73
g1511
sg66
(lp1518
S'wsgi_url_scheme'
p1519
asbag59
(g80
g61
NtRp1520
(dp1521
g64
(dp1522
g91
g92
ssg73
g1511
sg66
(lp1523
S':'
asbag59
(g80
g61
NtRp1524
(dp1525
g64
(dp1526
sg73
g1511
sg66
(lp1527
g59
(g60
g61
NtRp1528
(dp1529
g64
(dp1530
g72
I4
ssg73
g1524
sg66
(lp1531
S'http'
p1532
asbasbasbag59
(g75
g61
NtRp1533
(dp1534
g64
(dp1535
sg73
g763
sg66
(lp1536
g59
(g80
g61
NtRp1537
(dp1538
g64
(dp1539
g84
g85
ssg73
g1533
sg66
(lp1540
S'wsgi_version'
p1541
asbag59
(g80
g61
NtRp1542
(dp1543
g64
(dp1544
g91
g92
ssg73
g1533
sg66
(lp1545
S':'
asbag59
(g80
g61
NtRp1546
(dp1547
g64
(dp1548
sg73
g1533
sg66
(lp1549
g59
(g60
g61
NtRp1550
(dp1551
g64
(dp1552
g72
I4
ssg73
g1546
sg66
(lp1553
g59
(g68
g61
NtRp1554
(dp1555
g64
(dp1556
g72
I3
ssg73
Nsg66
(lp1557
g59
(g75
g61
NtRp1558
(dp1559
g64
(dp1560
sg73
g1554
sg66
(lp1561
g59
(g80
g61
NtRp1562
(dp1563
g64
(dp1564
sg73
g1558
sg66
(lp1565
g59
(g60
g61
NtRp1566
(dp1567
g64
(dp1568
g72
I3
ssg73
g1562
sg66
(lp1569
S'1'
asbasbasbag59
(g75
g61
NtRp1570
(dp1571
g64
(dp1572
sg73
g1554
sg66
(lp1573
g59
(g80
g61
NtRp1574
(dp1575
g64
(dp1576
sg73
g1570
sg66
(lp1577
g59
(g60
g61
NtRp1578
(dp1579
g64
(dp1580
g72
I3
ssg73
g1574
sg66
(lp1581
S'0'
asbasbasbasbasbasbasbasbasbasbasbag59
(g75
g61
NtRp1582
(dp1583
g64
(dp1584
sg73
g69
sg66
(lp1585
g59
(g80
g61
NtRp1586
(dp1587
g64
(dp1588
g84
g85
ssg73
g1582
sg66
(lp1589
S'extension'
p1590
asbag59
(g80
g61
NtRp1591
(dp1592
g64
(dp1593
g91
g92
ssg73
g1582
sg66
(lp1594
S':'
asbag59
(g80
g61
NtRp1595
(dp1596
g64
(dp1597
sg73
g1582
sg66
(lp1598
g59
(g60
g61
NtRp1599
(dp1600
g64
(dp1601
g72
I5
ssg73
g1595
sg66
(lp1602
S'html'
p1603
asbasbasbag59
(g75
g61
NtRp1604
(dp1605
g64
(dp1606
sg73
g69
sg66
(lp1607
g59
(g80
g61
NtRp1608
(dp1609
g64
(dp1610
g84
g85
ssg73
g1604
sg66
(lp1611
S'folder'
p1612
asbag59
(g80
g61
NtRp1613
(dp1614
g64
(dp1615
g91
g92
ssg73
g1604
sg66
(lp1616
S':'
asbag59
(g80
g61
NtRp1617
(dp1618
g64
(dp1619
sg73
g1604
sg66
(lp1620
g59
(g60
g61
NtRp1621
(dp1622
g64
(dp1623
g72
I5
ssg73
g1617
sg66
(lp1624
S'C:\\Users\\AKSHAY\\Desktop\\web2py\\applications\\201056161\\'
p1625
asbasbasbag59
(g75
g61
NtRp1626
(dp1627
g64
(dp1628
sg73
g69
sg66
(lp1629
g59
(g80
g61
NtRp1630
(dp1631
g64
(dp1632
g84
g85
ssg73
g1626
sg66
(lp1633
S'function'
p1634
asbag59
(g80
g61
NtRp1635
(dp1636
g64
(dp1637
g91
g92
ssg73
g1626
sg66
(lp1638
S':'
asbag59
(g80
g61
NtRp1639
(dp1640
g64
(dp1641
sg73
g1626
sg66
(lp1642
g59
(g60
g61
NtRp1643
(dp1644
g64
(dp1645
g72
I5
ssg73
g1639
sg66
(lp1646
S'index'
p1647
asbasbasbag59
(g75
g61
NtRp1648
(dp1649
g64
(dp1650
sg73
g69
sg66
(lp1651
g59
(g80
g61
NtRp1652
(dp1653
g64
(dp1654
g84
g85
ssg73
g1648
sg66
(lp1655
S'get_vars'
p1656
asbag59
(g80
g61
NtRp1657
(dp1658
g64
(dp1659
g91
g92
ssg73
g1648
sg66
(lp1660
S':'
asbag59
(g80
g61
NtRp1661
(dp1662
g64
(dp1663
sg73
g1648
sg66
(lp1664
g59
(g60
g61
NtRp1665
(dp1666
g64
(dp1667
g72
I5
ssg73
g1661
sg66
(lp1668
g59
(g68
g61
NtRp1669
(dp1670
g64
(dp1671
g72
I4
ssg73
Nsg66
(lp1672
sbasbasbasbag59
(g75
g61
NtRp1673
(dp1674
g64
(dp1675
sg73
g69
sg66
(lp1676
g59
(g80
g61
NtRp1677
(dp1678
g64
(dp1679
g84
g85
ssg73
g1673
sg66
(lp1680
S'is_https'
p1681
asbag59
(g80
g61
NtRp1682
(dp1683
g64
(dp1684
g91
g92
ssg73
g1673
sg66
(lp1685
S':'
asbag59
(g80
g61
NtRp1686
(dp1687
g64
(dp1688
sg73
g1673
sg66
(lp1689
g59
(g60
g61
NtRp1690
(dp1691
g64
(dp1692
g72
I5
ssg73
g1686
sg66
(lp1693
g102
asbasbasbag59
(g75
g61
NtRp1694
(dp1695
g64
(dp1696
sg73
g69
sg66
(lp1697
g59
(g80
g61
NtRp1698
(dp1699
g64
(dp1700
g84
g85
ssg73
g1694
sg66
(lp1701
S'is_local'
p1702
asbag59
(g80
g61
NtRp1703
(dp1704
g64
(dp1705
g91
g92
ssg73
g1694
sg66
(lp1706
S':'
asbag59
(g80
g61
NtRp1707
(dp1708
g64
(dp1709
sg73
g1694
sg66
(lp1710
g59
(g60
g61
NtRp1711
(dp1712
g64
(dp1713
g72
I5
ssg73
g1707
sg66
(lp1714
g1489
asbasbasbag59
(g75
g61
NtRp1715
(dp1716
g64
(dp1717
sg73
g69
sg66
(lp1718
g59
(g80
g61
NtRp1719
(dp1720
g64
(dp1721
g84
g85
ssg73
g1715
sg66
(lp1722
S'is_restful'
p1723
asbag59
(g80
g61
NtRp1724
(dp1725
g64
(dp1726
g91
g92
ssg73
g1715
sg66
(lp1727
S':'
asbag59
(g80
g61
NtRp1728
(dp1729
g64
(dp1730
sg73
g1715
sg66
(lp1731
g59
(g60
g61
NtRp1732
(dp1733
g64
(dp1734
g72
I5
ssg73
g1728
sg66
(lp1735
g102
asbasbasbag59
(g75
g61
NtRp1736
(dp1737
g64
(dp1738
sg73
g69
sg66
(lp1739
g59
(g80
g61
NtRp1740
(dp1741
g64
(dp1742
g84
g85
ssg73
g1736
sg66
(lp1743
S'now'
p1744
asbag59
(g80
g61
NtRp1745
(dp1746
g64
(dp1747
g91
g92
ssg73
g1736
sg66
(lp1748
S':'
asbag59
(g80
g61
NtRp1749
(dp1750
g64
(dp1751
sg73
g1736
sg66
(lp1752
g59
(g60
g61
NtRp1753
(dp1754
g64
(dp1755
g72
I5
ssg73
g1749
sg66
(lp1756
S'datetime.datetime(2011, 8, 24, 15, 2, 55, 600000)'
p1757
asbasbasbag59
(g75
g61
NtRp1758
(dp1759
g64
(dp1760
sg73
g69
sg66
(lp1761
g59
(g80
g61
NtRp1762
(dp1763
g64
(dp1764
g84
g85
ssg73
g1758
sg66
(lp1765
S'post_vars'
p1766
asbag59
(g80
g61
NtRp1767
(dp1768
g64
(dp1769
g91
g92
ssg73
g1758
sg66
(lp1770
S':'
asbag59
(g80
g61
NtRp1771
(dp1772
g64
(dp1773
sg73
g1758
sg66
(lp1774
g59
(g60
g61
NtRp1775
(dp1776
g64
(dp1777
g72
I5
ssg73
g1771
sg66
(lp1778
g59
(g68
g61
NtRp1779
(dp1780
g64
(dp1781
g72
I4
ssg73
Nsg66
(lp1782
sbasbasbasbag59
(g75
g61
NtRp1783
(dp1784
g64
(dp1785
sg73
g69
sg66
(lp1786
g59
(g80
g61
NtRp1787
(dp1788
g64
(dp1789
g84
g85
ssg73
g1783
sg66
(lp1790
S'url'
p1791
asbag59
(g80
g61
NtRp1792
(dp1793
g64
(dp1794
g91
g92
ssg73
g1783
sg66
(lp1795
S':'
asbag59
(g80
g61
NtRp1796
(dp1797
g64
(dp1798
sg73
g1783
sg66
(lp1799
g59
(g60
g61
NtRp1800
(dp1801
g64
(dp1802
g72
I5
ssg73
g1796
sg66
(lp1803
S'/201056161/default/index'
p1804
asbasbasbag59
(g75
g61
NtRp1805
(dp1806
g64
(dp1807
sg73
g69
sg66
(lp1808
g59
(g80
g61
NtRp1809
(dp1810
g64
(dp1811
g84
g85
ssg73
g1805
sg66
(lp1812
S'uuid'
p1813
asbag59
(g80
g61
NtRp1814
(dp1815
g64
(dp1816
g91
g92
ssg73
g1805
sg66
(lp1817
S':'
asbag59
(g80
g61
NtRp1818
(dp1819
g64
(dp1820
sg73
g1805
sg66
(lp1821
g59
(g60
g61
NtRp1822
(dp1823
g64
(dp1824
g72
I5
ssg73
g1818
sg66
(lp1825
S'201056161/127.0.0.1.2011-08-24.15-02-55.f994d6f4-639f-4fe0-8c50-e1db91d3cf12'
p1826
asbasbasbag59
(g75
g61
NtRp1827
(dp1828
g64
(dp1829
sg73
g69
sg66
(lp1830
g59
(g80
g61
NtRp1831
(dp1832
g64
(dp1833
g84
g85
ssg73
g1827
sg66
(lp1834
S'vars'
p1835
asbag59
(g80
g61
NtRp1836
(dp1837
g64
(dp1838
g91
g92
ssg73
g1827
sg66
(lp1839
S':'
asbag59
(g80
g61
NtRp1840
(dp1841
g64
(dp1842
sg73
g1827
sg66
(lp1843
g59
(g60
g61
NtRp1844
(dp1845
g64
(dp1846
g72
I5
ssg73
g1840
sg66
(lp1847
g59
(g68
g61
NtRp1848
(dp1849
g64
(dp1850
g72
I4
ssg73
Nsg66
(lp1851
sbasbasbasbag59
(g75
g61
NtRp1852
(dp1853
g64
(dp1854
sg73
g69
sg66
(lp1855
g59
(g80
g61
NtRp1856
(dp1857
g64
(dp1858
g84
g85
ssg73
g1852
sg66
(lp1859
S'wsgi'
p1860
asbag59
(g80
g61
NtRp1861
(dp1862
g64
(dp1863
g91
g92
ssg73
g1852
sg66
(lp1864
S':'
asbag59
(g80
g61
NtRp1865
(dp1866
g64
(dp1867
sg73
g1852
sg66
(lp1868
g59
(g60
g61
NtRp1869
(dp1870
g64
(dp1871
g72
I5
ssg73
g1865
sg66
(lp1872
g59
(g68
g61
NtRp1873
(dp1874
g64
(dp1875
g72
I4
ssg73
Nsg66
(lp1876
g59
(g75
g61
NtRp1877
(dp1878
g64
(dp1879
sg73
g1873
sg66
(lp1880
g59
(g80
g61
NtRp1881
(dp1882
g64
(dp1883
g84
g85
ssg73
g1877
sg66
(lp1884
S'environ'
p1885
asbag59
(g80
g61
NtRp1886
(dp1887
g64
(dp1888
g91
g92
ssg73
g1877
sg66
(lp1889
S':'
asbag59
(g80
g61
NtRp1890
(dp1891
g64
(dp1892
sg73
g1877
sg66
(lp1893
g59
(g60
g61
NtRp1894
(dp1895
g64
(dp1896
g72
I4
ssg73
g1890
sg66
(lp1897
g59
(g68
g61
NtRp1898
(dp1899
g64
(dp1900
g72
I3
ssg73
Nsg66
(lp1901
g59
(g75
g61
NtRp1902
(dp1903
g64
(dp1904
sg73
g1898
sg66
(lp1905
g59
(g80
g61
NtRp1906
(dp1907
g64
(dp1908
g84
g85
ssg73
g1902
sg66
(lp1909
S'HTTP_ACCEPT'
p1910
asbag59
(g80
g61
NtRp1911
(dp1912
g64
(dp1913
g91
g92
ssg73
g1902
sg66
(lp1914
S':'
asbag59
(g80
g61
NtRp1915
(dp1916
g64
(dp1917
sg73
g1902
sg66
(lp1918
g59
(g60
g61
NtRp1919
(dp1920
g64
(dp1921
g72
I3
ssg73
g1915
sg66
(lp1922
g944
asbasbasbag59
(g75
g61
NtRp1923
(dp1924
g64
(dp1925
sg73
g1898
sg66
(lp1926
g59
(g80
g61
NtRp1927
(dp1928
g64
(dp1929
g84
g85
ssg73
g1923
sg66
(lp1930
S'HTTP_ACCEPT_CHARSET'
p1931
asbag59
(g80
g61
NtRp1932
(dp1933
g64
(dp1934
g91
g92
ssg73
g1923
sg66
(lp1935
S':'
asbag59
(g80
g61
NtRp1936
(dp1937
g64
(dp1938
sg73
g1923
sg66
(lp1939
g59
(g60
g61
NtRp1940
(dp1941
g64
(dp1942
g72
I3
ssg73
g1936
sg66
(lp1943
g966
asbasbasbag59
(g75
g61
NtRp1944
(dp1945
g64
(dp1946
sg73
g1898
sg66
(lp1947
g59
(g80
g61
NtRp1948
(dp1949
g64
(dp1950
g84
g85
ssg73
g1944
sg66
(lp1951
S'HTTP_ACCEPT_ENCODING'
p1952
asbag59
(g80
g61
NtRp1953
(dp1954
g64
(dp1955
g91
g92
ssg73
g1944
sg66
(lp1956
S':'
asbag59
(g80
g61
NtRp1957
(dp1958
g64
(dp1959
sg73
g1944
sg66
(lp1960
g59
(g60
g61
NtRp1961
(dp1962
g64
(dp1963
g72
I3
ssg73
g1957
sg66
(lp1964
g988
asbasbasbag59
(g75
g61
NtRp1965
(dp1966
g64
(dp1967
sg73
g1898
sg66
(lp1968
g59
(g80
g61
NtRp1969
(dp1970
g64
(dp1971
g84
g85
ssg73
g1965
sg66
(lp1972
S'HTTP_ACCEPT_LANGUAGE'
p1973
asbag59
(g80
g61
NtRp1974
(dp1975
g64
(dp1976
g91
g92
ssg73
g1965
sg66
(lp1977
S':'
asbag59
(g80
g61
NtRp1978
(dp1979
g64
(dp1980
sg73
g1965
sg66
(lp1981
g59
(g60
g61
NtRp1982
(dp1983
g64
(dp1984
g72
I3
ssg73
g1978
sg66
(lp1985
g1010
asbasbasbag59
(g75
g61
NtRp1986
(dp1987
g64
(dp1988
sg73
g1898
sg66
(lp1989
g59
(g80
g61
NtRp1990
(dp1991
g64
(dp1992
g84
g85
ssg73
g1986
sg66
(lp1993
S'HTTP_CONNECTION'
p1994
asbag59
(g80
g61
NtRp1995
(dp1996
g64
(dp1997
g91
g92
ssg73
g1986
sg66
(lp1998
S':'
asbag59
(g80
g61
NtRp1999
(dp2000
g64
(dp2001
sg73
g1986
sg66
(lp2002
g59
(g60
g61
NtRp2003
(dp2004
g64
(dp2005
g72
I3
ssg73
g1999
sg66
(lp2006
g1032
asbasbasbag59
(g75
g61
NtRp2007
(dp2008
g64
(dp2009
sg73
g1898
sg66
(lp2010
g59
(g80
g61
NtRp2011
(dp2012
g64
(dp2013
g84
g85
ssg73
g2007
sg66
(lp2014
S'HTTP_COOKIE'
p2015
asbag59
(g80
g61
NtRp2016
(dp2017
g64
(dp2018
g91
g92
ssg73
g2007
sg66
(lp2019
S':'
asbag59
(g80
g61
NtRp2020
(dp2021
g64
(dp2022
sg73
g2007
sg66
(lp2023
g59
(g60
g61
NtRp2024
(dp2025
g64
(dp2026
g72
I3
ssg73
g2020
sg66
(lp2027
g1054
asbasbasbag59
(g75
g61
NtRp2028
(dp2029
g64
(dp2030
sg73
g1898
sg66
(lp2031
g59
(g80
g61
NtRp2032
(dp2033
g64
(dp2034
g84
g85
ssg73
g2028
sg66
(lp2035
S'HTTP_HOST'
p2036
asbag59
(g80
g61
NtRp2037
(dp2038
g64
(dp2039
g91
g92
ssg73
g2028
sg66
(lp2040
S':'
asbag59
(g80
g61
NtRp2041
(dp2042
g64
(dp2043
sg73
g2028
sg66
(lp2044
g59
(g60
g61
NtRp2045
(dp2046
g64
(dp2047
g72
I3
ssg73
g2041
sg66
(lp2048
g1076
asbasbasbag59
(g75
g61
NtRp2049
(dp2050
g64
(dp2051
sg73
g1898
sg66
(lp2052
g59
(g80
g61
NtRp2053
(dp2054
g64
(dp2055
g84
g85
ssg73
g2049
sg66
(lp2056
S'HTTP_USER_AGENT'
p2057
asbag59
(g80
g61
NtRp2058
(dp2059
g64
(dp2060
g91
g92
ssg73
g2049
sg66
(lp2061
S':'
asbag59
(g80
g61
NtRp2062
(dp2063
g64
(dp2064
sg73
g2049
sg66
(lp2065
g59
(g60
g61
NtRp2066
(dp2067
g64
(dp2068
g72
I3
ssg73
g2062
sg66
(lp2069
g1098
asbasbasbag59
(g75
g61
NtRp2070
(dp2071
g64
(dp2072
sg73
g1898
sg66
(lp2073
g59
(g80
g61
NtRp2074
(dp2075
g64
(dp2076
g84
g85
ssg73
g2070
sg66
(lp2077
S'PATH_INFO'
p2078
asbag59
(g80
g61
NtRp2079
(dp2080
g64
(dp2081
g91
g92
ssg73
g2070
sg66
(lp2082
S':'
asbag59
(g80
g61
NtRp2083
(dp2084
g64
(dp2085
sg73
g2070
sg66
(lp2086
g59
(g60
g61
NtRp2087
(dp2088
g64
(dp2089
g72
I3
ssg73
g2083
sg66
(lp2090
g1120
asbasbasbag59
(g75
g61
NtRp2091
(dp2092
g64
(dp2093
sg73
g1898
sg66
(lp2094
g59
(g80
g61
NtRp2095
(dp2096
g64
(dp2097
g84
g85
ssg73
g2091
sg66
(lp2098
S'QUERY_STRING'
p2099
asbag59
(g80
g61
NtRp2100
(dp2101
g64
(dp2102
g91
g92
ssg73
g2091
sg66
(lp2103
S':'
asbag59
(g80
g61
NtRp2104
(dp2105
g64
(dp2106
sg73
g2091
sg66
(lp2107
g59
(g60
g61
NtRp2108
(dp2109
g64
(dp2110
g72
I3
ssg73
g2104
sg66
(lp2111
S''
asbasbasbag59
(g75
g61
NtRp2112
(dp2113
g64
(dp2114
sg73
g1898
sg66
(lp2115
g59
(g80
g61
NtRp2116
(dp2117
g64
(dp2118
g84
g85
ssg73
g2112
sg66
(lp2119
S'REMOTE_ADDR'
p2120
asbag59
(g80
g61
NtRp2121
(dp2122
g64
(dp2123
g91
g92
ssg73
g2112
sg66
(lp2124
S':'
asbag59
(g80
g61
NtRp2125
(dp2126
g64
(dp2127
sg73
g2112
sg66
(lp2128
g59
(g60
g61
NtRp2129
(dp2130
g64
(dp2131
g72
I3
ssg73
g2125
sg66
(lp2132
g192
asbasbasbag59
(g75
g61
NtRp2133
(dp2134
g64
(dp2135
sg73
g1898
sg66
(lp2136
g59
(g80
g61
NtRp2137
(dp2138
g64
(dp2139
g84
g85
ssg73
g2133
sg66
(lp2140
S'REMOTE_PORT'
p2141
asbag59
(g80
g61
NtRp2142
(dp2143
g64
(dp2144
g91
g92
ssg73
g2133
sg66
(lp2145
S':'
asbag59
(g80
g61
NtRp2146
(dp2147
g64
(dp2148
sg73
g2133
sg66
(lp2149
g59
(g60
g61
NtRp2150
(dp2151
g64
(dp2152
g72
I3
ssg73
g2146
sg66
(lp2153
g1184
asbasbasbag59
(g75
g61
NtRp2154
(dp2155
g64
(dp2156
sg73
g1898
sg66
(lp2157
g59
(g80
g61
NtRp2158
(dp2159
g64
(dp2160
g84
g85
ssg73
g2154
sg66
(lp2161
S'REQUEST_METHOD'
p2162
asbag59
(g80
g61
NtRp2163
(dp2164
g64
(dp2165
g91
g92
ssg73
g2154
sg66
(lp2166
S':'
asbag59
(g80
g61
NtRp2167
(dp2168
g64
(dp2169
sg73
g2154
sg66
(lp2170
g59
(g60
g61
NtRp2171
(dp2172
g64
(dp2173
g72
I3
ssg73
g2167
sg66
(lp2174
g1206
asbasbasbag59
(g75
g61
NtRp2175
(dp2176
g64
(dp2177
sg73
g1898
sg66
(lp2178
g59
(g80
g61
NtRp2179
(dp2180
g64
(dp2181
g84
g85
ssg73
g2175
sg66
(lp2182
S'SCRIPT_NAME'
p2183
asbag59
(g80
g61
NtRp2184
(dp2185
g64
(dp2186
g91
g92
ssg73
g2175
sg66
(lp2187
S':'
asbag59
(g80
g61
NtRp2188
(dp2189
g64
(dp2190
sg73
g2175
sg66
(lp2191
g59
(g60
g61
NtRp2192
(dp2193
g64
(dp2194
g72
I3
ssg73
g2188
sg66
(lp2195
S''
asbasbasbag59
(g75
g61
NtRp2196
(dp2197
g64
(dp2198
sg73
g1898
sg66
(lp2199
g59
(g80
g61
NtRp2200
(dp2201
g64
(dp2202
g84
g85
ssg73
g2196
sg66
(lp2203
S'SERVER_NAME'
p2204
asbag59
(g80
g61
NtRp2205
(dp2206
g64
(dp2207
g91
g92
ssg73
g2196
sg66
(lp2208
S':'
asbag59
(g80
g61
NtRp2209
(dp2210
g64
(dp2211
sg73
g2196
sg66
(lp2212
g59
(g60
g61
NtRp2213
(dp2214
g64
(dp2215
g72
I3
ssg73
g2209
sg66
(lp2216
g1249
asbasbasbag59
(g75
g61
NtRp2217
(dp2218
g64
(dp2219
sg73
g1898
sg66
(lp2220
g59
(g80
g61
NtRp2221
(dp2222
g64
(dp2223
g84
g85
ssg73
g2217
sg66
(lp2224
S'SERVER_PORT'
p2225
asbag59
(g80
g61
NtRp2226
(dp2227
g64
(dp2228
g91
g92
ssg73
g2217
sg66
(lp2229
S':'
asbag59
(g80
g61
NtRp2230
(dp2231
g64
(dp2232
sg73
g2217
sg66
(lp2233
g59
(g60
g61
NtRp2234
(dp2235
g64
(dp2236
g72
I3
ssg73
g2230
sg66
(lp2237
g1271
asbasbasbag59
(g75
g61
NtRp2238
(dp2239
g64
(dp2240
sg73
g1898
sg66
(lp2241
g59
(g80
g61
NtRp2242
(dp2243
g64
(dp2244
g84
g85
ssg73
g2238
sg66
(lp2245
S'SERVER_PROTOCOL'
p2246
asbag59
(g80
g61
NtRp2247
(dp2248
g64
(dp2249
g91
g92
ssg73
g2238
sg66
(lp2250
S':'
asbag59
(g80
g61
NtRp2251
(dp2252
g64
(dp2253
sg73
g2238
sg66
(lp2254
g59
(g60
g61
NtRp2255
(dp2256
g64
(dp2257
g72
I3
ssg73
g2251
sg66
(lp2258
g1293
asbasbasbag59
(g75
g61
NtRp2259
(dp2260
g64
(dp2261
sg73
g1898
sg66
(lp2262
g59
(g80
g61
NtRp2263
(dp2264
g64
(dp2265
g84
g85
ssg73
g2259
sg66
(lp2266
S'SERVER_SOFTWARE'
p2267
asbag59
(g80
g61
NtRp2268
(dp2269
g64
(dp2270
g91
g92
ssg73
g2259
sg66
(lp2271
S':'
asbag59
(g80
g61
NtRp2272
(dp2273
g64
(dp2274
sg73
g2259
sg66
(lp2275
g59
(g60
g61
NtRp2276
(dp2277
g64
(dp2278
g72
I3
ssg73
g2272
sg66
(lp2279
g1315
asbasbasbag59
(g75
g61
NtRp2280
(dp2281
g64
(dp2282
sg73
g1898
sg66
(lp2283
g59
(g80
g61
NtRp2284
(dp2285
g64
(dp2286
g84
g85
ssg73
g2280
sg66
(lp2287
S'wsgi.errors'
p2288
asbag59
(g80
g61
NtRp2289
(dp2290
g64
(dp2291
g91
g92
ssg73
g2280
sg66
(lp2292
S':'
asbag59
(g80
g61
NtRp2293
(dp2294
g64
(dp2295
sg73
g2280
sg66
(lp2296
g59
(g60
g61
NtRp2297
(dp2298
g64
(dp2299
g72
I3
ssg73
g2293
sg66
(lp2300
S"<open file '<stderr>', mode 'w' at 0x002F00B0>"
p2301
asbasbasbag59
(g75
g61
NtRp2302
(dp2303
g64
(dp2304
sg73
g1898
sg66
(lp2305
g59
(g80
g61
NtRp2306
(dp2307
g64
(dp2308
g84
g85
ssg73
g2302
sg66
(lp2309
S'wsgi.file_wrapper'
p2310
asbag59
(g80
g61
NtRp2311
(dp2312
g64
(dp2313
g91
g92
ssg73
g2302
sg66
(lp2314
S':'
asbag59
(g80
g61
NtRp2315
(dp2316
g64
(dp2317
sg73
g2302
sg66
(lp2318
g59
(g60
g61
NtRp2319
(dp2320
g64
(dp2321
g72
I3
ssg73
g2315
sg66
(lp2322
S'<class gluon.rocket.FileWrapper at 0x02F82BA0>'
p2323
asbasbasbag59
(g75
g61
NtRp2324
(dp2325
g64
(dp2326
sg73
g1898
sg66
(lp2327
g59
(g80
g61
NtRp2328
(dp2329
g64
(dp2330
g84
g85
ssg73
g2324
sg66
(lp2331
S'wsgi.input'
p2332
asbag59
(g80
g61
NtRp2333
(dp2334
g64
(dp2335
g91
g92
ssg73
g2324
sg66
(lp2336
S':'
asbag59
(g80
g61
NtRp2337
(dp2338
g64
(dp2339
sg73
g2324
sg66
(lp2340
g59
(g60
g61
NtRp2341
(dp2342
g64
(dp2343
g72
I3
ssg73
g2337
sg66
(lp2344
S'<cStringIO.StringO object at 0x06F7F860>'
p2345
asbasbasbag59
(g75
g61
NtRp2346
(dp2347
g64
(dp2348
sg73
g1898
sg66
(lp2349
g59
(g80
g61
NtRp2350
(dp2351
g64
(dp2352
g84
g85
ssg73
g2346
sg66
(lp2353
S'wsgi.multiprocess'
p2354
asbag59
(g80
g61
NtRp2355
(dp2356
g64
(dp2357
g91
g92
ssg73
g2346
sg66
(lp2358
S':'
asbag59
(g80
g61
NtRp2359
(dp2360
g64
(dp2361
sg73
g2346
sg66
(lp2362
g59
(g60
g61
NtRp2363
(dp2364
g64
(dp2365
g72
I3
ssg73
g2359
sg66
(lp2366
g102
asbasbasbag59
(g75
g61
NtRp2367
(dp2368
g64
(dp2369
sg73
g1898
sg66
(lp2370
g59
(g80
g61
NtRp2371
(dp2372
g64
(dp2373
g84
g85
ssg73
g2367
sg66
(lp2374
S'wsgi.multithread'
p2375
asbag59
(g80
g61
NtRp2376
(dp2377
g64
(dp2378
g91
g92
ssg73
g2367
sg66
(lp2379
S':'
asbag59
(g80
g61
NtRp2380
(dp2381
g64
(dp2382
sg73
g2367
sg66
(lp2383
g59
(g60
g61
NtRp2384
(dp2385
g64
(dp2386
g72
I3
ssg73
g2380
sg66
(lp2387
g1489
asbasbasbag59
(g75
g61
NtRp2388
(dp2389
g64
(dp2390
sg73
g1898
sg66
(lp2391
g59
(g80
g61
NtRp2392
(dp2393
g64
(dp2394
g84
g85
ssg73
g2388
sg66
(lp2395
S'wsgi.run_once'
p2396
asbag59
(g80
g61
NtRp2397
(dp2398
g64
(dp2399
g91
g92
ssg73
g2388
sg66
(lp2400
S':'
asbag59
(g80
g61
NtRp2401
(dp2402
g64
(dp2403
sg73
g2388
sg66
(lp2404
g59
(g60
g61
NtRp2405
(dp2406
g64
(dp2407
g72
I3
ssg73
g2401
sg66
(lp2408
g102
asbasbasbag59
(g75
g61
NtRp2409
(dp2410
g64
(dp2411
sg73
g1898
sg66
(lp2412
g59
(g80
g61
NtRp2413
(dp2414
g64
(dp2415
g84
g85
ssg73
g2409
sg66
(lp2416
S'wsgi.url_scheme'
p2417
asbag59
(g80
g61
NtRp2418
(dp2419
g64
(dp2420
g91
g92
ssg73
g2409
sg66
(lp2421
S':'
asbag59
(g80
g61
NtRp2422
(dp2423
g64
(dp2424
sg73
g2409
sg66
(lp2425
g59
(g60
g61
NtRp2426
(dp2427
g64
(dp2428
g72
I3
ssg73
g2422
sg66
(lp2429
g1532
asbasbasbag59
(g75
g61
NtRp2430
(dp2431
g64
(dp2432
sg73
g1898
sg66
(lp2433
g59
(g80
g61
NtRp2434
(dp2435
g64
(dp2436
g84
g85
ssg73
g2430
sg66
(lp2437
S'wsgi.version'
p2438
asbag59
(g80
g61
NtRp2439
(dp2440
g64
(dp2441
g91
g92
ssg73
g2430
sg66
(lp2442
S':'
asbag59
(g80
g61
NtRp2443
(dp2444
g64
(dp2445
sg73
g2430
sg66
(lp2446
g59
(g60
g61
NtRp2447
(dp2448
g64
(dp2449
g72
I3
ssg73
g2443
sg66
(lp2450
S'1'
asbasbasbasbasbasbasbasbasbasbasbasbasbsS'frames'
p2451
(lp2452
(dp2453
S'file'
p2454
S'C:\\Users\\AKSHAY\\Desktop\\web2py\\gluon\\restricted.py'
p2455
sS'dump'
p2456
(dp2457
sS'lnum'
p2458
I191
sS'lines'
p2459
(dp2460
sS'call'
p2461
S'(code=r"left_sidebar_enabled=right_sidebar_enabled=False...t   -->    \\n  </body>\\n</html>\\n\', escape=False)", environment={\'A\': <class \'gluon.html.A\'>, \'Auth\': <class \'gluon.tools.Auth\'>, \'B\': <class \'gluon.html.B\'>, \'BEAUTIFY\': <class \'gluon.html.BEAUTIFY\'>, \'BODY\': <class \'gluon.html.BODY\'>, \'BR\': <class \'gluon.html.BR\'>, \'BUTTON\': <class \'gluon.html.BUTTON\'>, \'CENTER\': <class \'gluon.html.CENTER\'>, \'CLEANUP\': <class \'gluon.validators.CLEANUP\'>, \'CODE\': <class \'gluon.html.CODE\'>, ...}, layer=r\'C:\\Users\\AKSHAY\\Desktop\\web2py\\applications\\201056161\\views\\default/index.html\')'
p2462
sS'func'
p2463
S'restricted'
p2464
sa(dp2465
g2454
S'C:\\Users\\AKSHAY\\Desktop\\web2py\\gluon\\restricted.py'
p2466
sg2456
(dp2467
sg2458
I178
sg2459
(dp2468
sg2461
S'(code=r"left_sidebar_enabled=right_sidebar_enabled=False...t   -->    \\n  </body>\\n</html>\\n\', escape=False)", layer=r\'C:\\Users\\AKSHAY\\Desktop\\web2py\\applications\\201056161\\views\\default/index.html\')'
p2469
sg2463
S'compile2'
p2470
sasS'pyver'
p2471
S'Python 2.5.4: C:\\Users\\AKSHAY\\Desktop\\web2py\\web2py.exe'
p2472
sS'session'
p2473
g59
(g60
g61
NtRp2474
(dp2475
g64
(dp2476
sg66
(lp2477
g59
(g68
g61
NtRp2478
(dp2479
g64
(dp2480
g72
I5
ssg73
Nsg66
(lp2481
sbasbsS'etype'
p2482
S"<type 'exceptions.SyntaxError'>"
p2483
sS'date'
p2484
S'Wed Aug 24 15:02:56 2011'
p2485
sS'response'
p2486
g59
(g60
g61
NtRp2487
(dp2488
g64
(dp2489
sg66
(lp2490
g59
(g68
g61
NtRp2491
(dp2492
g64
(dp2493
g72
I5
ssg73
Nsg66
(lp2494
g59
(g75
g61
NtRp2495
(dp2496
g64
(dp2497
sg73
g2491
sg66
(lp2498
g59
(g80
g61
NtRp2499
(dp2500
g64
(dp2501
g84
g85
ssg73
g2495
sg66
(lp2502
g157
asbag59
(g80
g61
NtRp2503
(dp2504
g64
(dp2505
g91
g92
ssg73
g2495
sg66
(lp2506
S':'
asbag59
(g80
g61
NtRp2507
(dp2508
g64
(dp2509
sg73
g2495
sg66
(lp2510
g59
(g60
g61
NtRp2511
(dp2512
g64
(dp2513
g72
I5
ssg73
g2507
sg66
(lp2514
S'<cStringIO.StringO object at 0x06F7F320>'
p2515
asbasbasbag59
(g75
g61
NtRp2516
(dp2517
g64
(dp2518
sg73
g2491
sg66
(lp2519
g59
(g80
g61
NtRp2520
(dp2521
g64
(dp2522
g84
g85
ssg73
g2516
sg66
(lp2523
g223
asbag59
(g80
g61
NtRp2524
(dp2525
g64
(dp2526
g91
g92
ssg73
g2516
sg66
(lp2527
S':'
asbag59
(g80
g61
NtRp2528
(dp2529
g64
(dp2530
sg73
g2516
sg66
(lp2531
g59
(g60
g61
NtRp2532
(dp2533
g64
(dp2534
g72
I5
ssg73
g2528
sg66
(lp2535
g59
(g68
g61
NtRp2536
(dp2537
g64
(dp2538
g72
I4
ssg73
Nsg66
(lp2539
g59
(g75
g61
NtRp2540
(dp2541
g64
(dp2542
sg73
g2536
sg66
(lp2543
g59
(g80
g61
NtRp2544
(dp2545
g64
(dp2546
g84
g85
ssg73
g2540
sg66
(lp2547
S'session_id_201056161'
p2548
asbag59
(g80
g61
NtRp2549
(dp2550
g64
(dp2551
g91
g92
ssg73
g2540
sg66
(lp2552
S':'
asbag59
(g80
g61
NtRp2553
(dp2554
g64
(dp2555
sg73
g2540
sg66
(lp2556
g59
(g60
g61
NtRp2557
(dp2558
g64
(dp2559
g72
I4
ssg73
g2553
sg66
(lp2560
g59
(g68
g61
NtRp2561
(dp2562
g64
(dp2563
g72
I3
ssg73
Nsg66
(lp2564
g59
(g75
g61
NtRp2565
(dp2566
g64
(dp2567
sg73
g2561
sg66
(lp2568
g59
(g80
g61
NtRp2569
(dp2570
g64
(dp2571
g84
g85
ssg73
g2565
sg66
(lp2572
g273
asbag59
(g80
g61
NtRp2573
(dp2574
g64
(dp2575
g91
g92
ssg73
g2565
sg66
(lp2576
S':'
asbag59
(g80
g61
NtRp2577
(dp2578
g64
(dp2579
sg73
g2565
sg66
(lp2580
g59
(g60
g61
NtRp2581
(dp2582
g64
(dp2583
g72
I3
ssg73
g2577
sg66
(lp2584
S''
asbasbasbag59
(g75
g61
NtRp2585
(dp2586
g64
(dp2587
sg73
g2561
sg66
(lp2588
g59
(g80
g61
NtRp2589
(dp2590
g64
(dp2591
g84
g85
ssg73
g2585
sg66
(lp2592
g294
asbag59
(g80
g61
NtRp2593
(dp2594
g64
(dp2595
g91
g92
ssg73
g2585
sg66
(lp2596
S':'
asbag59
(g80
g61
NtRp2597
(dp2598
g64
(dp2599
sg73
g2585
sg66
(lp2600
g59
(g60
g61
NtRp2601
(dp2602
g64
(dp2603
g72
I3
ssg73
g2597
sg66
(lp2604
S''
asbasbasbag59
(g75
g61
NtRp2605
(dp2606
g64
(dp2607
sg73
g2561
sg66
(lp2608
g59
(g80
g61
NtRp2609
(dp2610
g64
(dp2611
g84
g85
ssg73
g2605
sg66
(lp2612
g315
asbag59
(g80
g61
NtRp2613
(dp2614
g64
(dp2615
g91
g92
ssg73
g2605
sg66
(lp2616
S':'
asbag59
(g80
g61
NtRp2617
(dp2618
g64
(dp2619
sg73
g2605
sg66
(lp2620
g59
(g60
g61
NtRp2621
(dp2622
g64
(dp2623
g72
I3
ssg73
g2617
sg66
(lp2624
S''
asbasbasbag59
(g75
g61
NtRp2625
(dp2626
g64
(dp2627
sg73
g2561
sg66
(lp2628
g59
(g80
g61
NtRp2629
(dp2630
g64
(dp2631
g84
g85
ssg73
g2625
sg66
(lp2632
g336
asbag59
(g80
g61
NtRp2633
(dp2634
g64
(dp2635
g91
g92
ssg73
g2625
sg66
(lp2636
S':'
asbag59
(g80
g61
NtRp2637
(dp2638
g64
(dp2639
sg73
g2625
sg66
(lp2640
g59
(g60
g61
NtRp2641
(dp2642
g64
(dp2643
g72
I3
ssg73
g2637
sg66
(lp2644
S''
asbasbasbag59
(g75
g61
NtRp2645
(dp2646
g64
(dp2647
sg73
g2561
sg66
(lp2648
g59
(g80
g61
NtRp2649
(dp2650
g64
(dp2651
g84
g85
ssg73
g2645
sg66
(lp2652
g357
asbag59
(g80
g61
NtRp2653
(dp2654
g64
(dp2655
g91
g92
ssg73
g2645
sg66
(lp2656
S':'
asbag59
(g80
g61
NtRp2657
(dp2658
g64
(dp2659
sg73
g2645
sg66
(lp2660
g59
(g60
g61
NtRp2661
(dp2662
g64
(dp2663
g72
I3
ssg73
g2657
sg66
(lp2664
S'/'
asbasbasbag59
(g75
g61
NtRp2665
(dp2666
g64
(dp2667
sg73
g2561
sg66
(lp2668
g59
(g80
g61
NtRp2669
(dp2670
g64
(dp2671
g84
g85
ssg73
g2665
sg66
(lp2672
g378
asbag59
(g80
g61
NtRp2673
(dp2674
g64
(dp2675
g91
g92
ssg73
g2665
sg66
(lp2676
S':'
asbag59
(g80
g61
NtRp2677
(dp2678
g64
(dp2679
sg73
g2665
sg66
(lp2680
g59
(g60
g61
NtRp2681
(dp2682
g64
(dp2683
g72
I3
ssg73
g2677
sg66
(lp2684
S''
asbasbasbag59
(g75
g61
NtRp2685
(dp2686
g64
(dp2687
sg73
g2561
sg66
(lp2688
g59
(g80
g61
NtRp2689
(dp2690
g64
(dp2691
g84
g85
ssg73
g2685
sg66
(lp2692
g399
asbag59
(g80
g61
NtRp2693
(dp2694
g64
(dp2695
g91
g92
ssg73
g2685
sg66
(lp2696
S':'
asbag59
(g80
g61
NtRp2697
(dp2698
g64
(dp2699
sg73
g2685
sg66
(lp2700
g59
(g60
g61
NtRp2701
(dp2702
g64
(dp2703
g72
I3
ssg73
g2697
sg66
(lp2704
S''
asbasbasbasbasbasbasbasbasbasbasbag59
(g75
g61
NtRp2705
(dp2706
g64
(dp2707
sg73
g2491
sg66
(lp2708
g59
(g80
g61
NtRp2709
(dp2710
g64
(dp2711
g84
g85
ssg73
g2705
sg66
(lp2712
S'files'
p2713
asbag59
(g80
g61
NtRp2714
(dp2715
g64
(dp2716
g91
g92
ssg73
g2705
sg66
(lp2717
S':'
asbag59
(g80
g61
NtRp2718
(dp2719
g64
(dp2720
sg73
g2705
sg66
(lp2721
g59
(g60
g61
NtRp2722
(dp2723
g64
(dp2724
g72
I5
ssg73
g2718
sg66
(lp2725
g59
(g68
g61
NtRp2726
(dp2727
g64
(dp2728
g72
I4
ssg73
Nsg66
(lp2729
sbasbasbasbag59
(g75
g61
NtRp2730
(dp2731
g64
(dp2732
sg73
g2491
sg66
(lp2733
g59
(g80
g61
NtRp2734
(dp2735
g64
(dp2736
g84
g85
ssg73
g2730
sg66
(lp2737
S'flash'
p2738
asbag59
(g80
g61
NtRp2739
(dp2740
g64
(dp2741
g91
g92
ssg73
g2730
sg66
(lp2742
S':'
asbag59
(g80
g61
NtRp2743
(dp2744
g64
(dp2745
sg73
g2730
sg66
(lp2746
g59
(g60
g61
NtRp2747
(dp2748
g64
(dp2749
g72
I5
ssg73
g2743
sg66
(lp2750
S''
asbasbasbag59
(g75
g61
NtRp2751
(dp2752
g64
(dp2753
sg73
g2491
sg66
(lp2754
g59
(g80
g61
NtRp2755
(dp2756
g64
(dp2757
g84
g85
ssg73
g2751
sg66
(lp2758
S'generic_patterns'
p2759
asbag59
(g80
g61
NtRp2760
(dp2761
g64
(dp2762
g91
g92
ssg73
g2751
sg66
(lp2763
S':'
asbag59
(g80
g61
NtRp2764
(dp2765
g64
(dp2766
sg73
g2751
sg66
(lp2767
g59
(g60
g61
NtRp2768
(dp2769
g64
(dp2770
g72
I5
ssg73
g2764
sg66
(lp2771
g59
(g68
g61
NtRp2772
(dp2773
g64
(dp2774
g72
I4
ssg73
Nsg66
(lp2775
g59
(g75
g61
NtRp2776
(dp2777
g64
(dp2778
sg73
g2772
sg66
(lp2779
g59
(g80
g61
NtRp2780
(dp2781
g64
(dp2782
sg73
g2776
sg66
(lp2783
g59
(g60
g61
NtRp2784
(dp2785
g64
(dp2786
g72
I4
ssg73
g2780
sg66
(lp2787
S'*'
asbasbasbasbasbasbasbag59
(g75
g61
NtRp2788
(dp2789
g64
(dp2790
sg73
g2491
sg66
(lp2791
g59
(g80
g61
NtRp2792
(dp2793
g64
(dp2794
g84
g85
ssg73
g2788
sg66
(lp2795
S'headers'
p2796
asbag59
(g80
g61
NtRp2797
(dp2798
g64
(dp2799
g91
g92
ssg73
g2788
sg66
(lp2800
S':'
asbag59
(g80
g61
NtRp2801
(dp2802
g64
(dp2803
sg73
g2788
sg66
(lp2804
g59
(g60
g61
NtRp2805
(dp2806
g64
(dp2807
g72
I5
ssg73
g2801
sg66
(lp2808
g59
(g68
g61
NtRp2809
(dp2810
g64
(dp2811
g72
I4
ssg73
Nsg66
(lp2812
g59
(g75
g61
NtRp2813
(dp2814
g64
(dp2815
sg73
g2809
sg66
(lp2816
g59
(g80
g61
NtRp2817
(dp2818
g64
(dp2819
g84
g85
ssg73
g2813
sg66
(lp2820
S'Cache-Control'
p2821
asbag59
(g80
g61
NtRp2822
(dp2823
g64
(dp2824
g91
g92
ssg73
g2813
sg66
(lp2825
S':'
asbag59
(g80
g61
NtRp2826
(dp2827
g64
(dp2828
sg73
g2813
sg66
(lp2829
g59
(g60
g61
NtRp2830
(dp2831
g64
(dp2832
g72
I4
ssg73
g2826
sg66
(lp2833
S'no-store, no-cache, must-revalidate, post-check=0, pre-check=0'
p2834
asbasbasbag59
(g75
g61
NtRp2835
(dp2836
g64
(dp2837
sg73
g2809
sg66
(lp2838
g59
(g80
g61
NtRp2839
(dp2840
g64
(dp2841
g84
g85
ssg73
g2835
sg66
(lp2842
S'Content-Type'
p2843
asbag59
(g80
g61
NtRp2844
(dp2845
g64
(dp2846
g91
g92
ssg73
g2835
sg66
(lp2847
S':'
asbag59
(g80
g61
NtRp2848
(dp2849
g64
(dp2850
sg73
g2835
sg66
(lp2851
g59
(g60
g61
NtRp2852
(dp2853
g64
(dp2854
g72
I4
ssg73
g2848
sg66
(lp2855
S'text/html; charset=utf-8'
p2856
asbasbasbag59
(g75
g61
NtRp2857
(dp2858
g64
(dp2859
sg73
g2809
sg66
(lp2860
g59
(g80
g61
NtRp2861
(dp2862
g64
(dp2863
g84
g85
ssg73
g2857
sg66
(lp2864
S'Expires'
p2865
asbag59
(g80
g61
NtRp2866
(dp2867
g64
(dp2868
g91
g92
ssg73
g2857
sg66
(lp2869
S':'
asbag59
(g80
g61
NtRp2870
(dp2871
g64
(dp2872
sg73
g2857
sg66
(lp2873
g59
(g60
g61
NtRp2874
(dp2875
g64
(dp2876
g72
I4
ssg73
g2870
sg66
(lp2877
S'Wed, 24 Aug 2011 09:32:55 GMT'
p2878
asbasbasbag59
(g75
g61
NtRp2879
(dp2880
g64
(dp2881
sg73
g2809
sg66
(lp2882
g59
(g80
g61
NtRp2883
(dp2884
g64
(dp2885
g84
g85
ssg73
g2879
sg66
(lp2886
S'Pragma'
p2887
asbag59
(g80
g61
NtRp2888
(dp2889
g64
(dp2890
g91
g92
ssg73
g2879
sg66
(lp2891
S':'
asbag59
(g80
g61
NtRp2892
(dp2893
g64
(dp2894
sg73
g2879
sg66
(lp2895
g59
(g60
g61
NtRp2896
(dp2897
g64
(dp2898
g72
I4
ssg73
g2892
sg66
(lp2899
S'no-cache'
p2900
asbasbasbag59
(g75
g61
NtRp2901
(dp2902
g64
(dp2903
sg73
g2809
sg66
(lp2904
g59
(g80
g61
NtRp2905
(dp2906
g64
(dp2907
g84
g85
ssg73
g2901
sg66
(lp2908
S'X-Powered-By'
p2909
asbag59
(g80
g61
NtRp2910
(dp2911
g64
(dp2912
g91
g92
ssg73
g2901
sg66
(lp2913
S':'
asbag59
(g80
g61
NtRp2914
(dp2915
g64
(dp2916
sg73
g2901
sg66
(lp2917
g59
(g60
g61
NtRp2918
(dp2919
g64
(dp2920
g72
I4
ssg73
g2914
sg66
(lp2921
S'web2py'
p2922
asbasbasbasbasbasbasbag59
(g75
g61
NtRp2923
(dp2924
g64
(dp2925
sg73
g2491
sg66
(lp2926
g59
(g80
g61
NtRp2927
(dp2928
g64
(dp2929
g84
g85
ssg73
g2923
sg66
(lp2930
S'menu'
p2931
asbag59
(g80
g61
NtRp2932
(dp2933
g64
(dp2934
g91
g92
ssg73
g2923
sg66
(lp2935
S':'
asbag59
(g80
g61
NtRp2936
(dp2937
g64
(dp2938
sg73
g2923
sg66
(lp2939
g59
(g60
g61
NtRp2940
(dp2941
g64
(dp2942
g72
I5
ssg73
g2936
sg66
(lp2943
g59
(g68
g61
NtRp2944
(dp2945
g64
(dp2946
g72
I4
ssg73
Nsg66
(lp2947
g59
(g75
g61
NtRp2948
(dp2949
g64
(dp2950
sg73
g2944
sg66
(lp2951
g59
(g80
g61
NtRp2952
(dp2953
g64
(dp2954
sg73
g2948
sg66
(lp2955
g59
(g60
g61
NtRp2956
(dp2957
g64
(dp2958
g72
I4
ssg73
g2952
sg66
(lp2959
g59
(g68
g61
NtRp2960
(dp2961
g64
(dp2962
g72
I3
ssg73
Nsg66
(lp2963
g59
(g75
g61
NtRp2964
(dp2965
g64
(dp2966
sg73
g2960
sg66
(lp2967
g59
(g80
g61
NtRp2968
(dp2969
g64
(dp2970
sg73
g2964
sg66
(lp2971
g59
(g60
g61
NtRp2972
(dp2973
g64
(dp2974
g72
I3
ssg73
g2968
sg66
(lp2975
cgluon.languages
lazyT_unpickle
p2976
(S's\x04\x00\x00\x00Home'
tRp2977
asbasbasbag59
(g75
g61
NtRp2978
(dp2979
g64
(dp2980
sg73
g2960
sg66
(lp2981
g59
(g80
g61
NtRp2982
(dp2983
g64
(dp2984
sg73
g2978
sg66
(lp2985
g59
(g60
g61
NtRp2986
(dp2987
g64
(dp2988
g72
I3
ssg73
g2982
sg66
(lp2989
g102
asbasbasbag59
(g75
g61
NtRp2990
(dp2991
g64
(dp2992
sg73
g2960
sg66
(lp2993
g59
(g80
g61
NtRp2994
(dp2995
g64
(dp2996
sg73
g2990
sg66
(lp2997
g59
(g60
g61
NtRp2998
(dp2999
g64
(dp3000
g72
I3
ssg73
g2994
sg66
(lp3001
S'/201056161/default/index'
p3002
asbasbasbag59
(g75
g61
NtRp3003
(dp3004
g64
(dp3005
sg73
g2960
sg66
(lp3006
g59
(g80
g61
NtRp3007
(dp3008
g64
(dp3009
sg73
g3003
sg66
(lp3010
g59
(g60
g61
NtRp3011
(dp3012
g64
(dp3013
g72
I3
ssg73
g3007
sg66
(lp3014
g59
(g68
g61
NtRp3015
(dp3016
g64
(dp3017
g72
I2
ssg73
Nsg66
(lp3018
sbasbasbasbasbasbasbasbag59
(g75
g61
NtRp3019
(dp3020
g64
(dp3021
sg73
g2944
sg66
(lp3022
g59
(g80
g61
NtRp3023
(dp3024
g64
(dp3025
sg73
g3019
sg66
(lp3026
g59
(g60
g61
NtRp3027
(dp3028
g64
(dp3029
g72
I4
ssg73
g3023
sg66
(lp3030
g59
(g68
g61
NtRp3031
(dp3032
g64
(dp3033
g72
I3
ssg73
Nsg66
(lp3034
g59
(g75
g61
NtRp3035
(dp3036
g64
(dp3037
sg73
g3031
sg66
(lp3038
g59
(g80
g61
NtRp3039
(dp3040
g64
(dp3041
sg73
g3035
sg66
(lp3042
g59
(g60
g61
NtRp3043
(dp3044
g64
(dp3045
g72
I3
ssg73
g3039
sg66
(lp3046
g2976
(S's\x08\x00\x00\x00This App'
tRp3047
asbasbasbag59
(g75
g61
NtRp3048
(dp3049
g64
(dp3050
sg73
g3031
sg66
(lp3051
g59
(g80
g61
NtRp3052
(dp3053
g64
(dp3054
sg73
g3048
sg66
(lp3055
g59
(g60
g61
NtRp3056
(dp3057
g64
(dp3058
g72
I3
ssg73
g3052
sg66
(lp3059
g102
asbasbasbag59
(g75
g61
NtRp3060
(dp3061
g64
(dp3062
sg73
g3031
sg66
(lp3063
g59
(g80
g61
NtRp3064
(dp3065
g64
(dp3066
sg73
g3060
sg66
(lp3067
g59
(g60
g61
NtRp3068
(dp3069
g64
(dp3070
g72
I3
ssg73
g3064
sg66
(lp3071
S'/admin/default/design/201056161'
p3072
asbasbasbag59
(g75
g61
NtRp3073
(dp3074
g64
(dp3075
sg73
g3031
sg66
(lp3076
g59
(g80
g61
NtRp3077
(dp3078
g64
(dp3079
sg73
g3073
sg66
(lp3080
g59
(g60
g61
NtRp3081
(dp3082
g64
(dp3083
g72
I3
ssg73
g3077
sg66
(lp3084
g59
(g68
g61
NtRp3085
(dp3086
g64
(dp3087
g72
I2
ssg73
Nsg66
(lp3088
g59
(g75
g61
NtRp3089
(dp3090
g64
(dp3091
sg73
g3085
sg66
(lp3092
g59
(g80
g61
NtRp3093
(dp3094
g64
(dp3095
sg73
g3089
sg66
(lp3096
g59
(g60
g61
NtRp3097
(dp3098
g64
(dp3099
g72
I2
ssg73
g3093
sg66
(lp3100
g59
(g68
g61
NtRp3101
(dp3102
g64
(dp3103
g72
I1
ssg73
Nsg66
(lp3104
g59
(g75
g61
NtRp3105
(dp3106
g64
(dp3107
sg73
g3101
sg66
(lp3108
g59
(g80
g61
NtRp3109
(dp3110
g64
(dp3111
sg73
g3105
sg66
(lp3112
g59
(g60
g61
NtRp3113
(dp3114
g64
(dp3115
g72
I1
ssg73
g3109
sg66
(lp3116
g2976
(S's\n\x00\x00\x00Controller'
tRp3117
asbasbasbag59
(g75
g61
NtRp3118
(dp3119
g64
(dp3120
sg73
g3101
sg66
(lp3121
g59
(g80
g61
NtRp3122
(dp3123
g64
(dp3124
sg73
g3118
sg66
(lp3125
g59
(g60
g61
NtRp3126
(dp3127
g64
(dp3128
g72
I1
ssg73
g3122
sg66
(lp3129
I00
asbasbasbag59
(g75
g61
NtRp3130
(dp3131
g64
(dp3132
sg73
g3101
sg66
(lp3133
g59
(g80
g61
NtRp3134
(dp3135
g64
(dp3136
sg73
g3130
sg66
(lp3137
g59
(g60
g61
NtRp3138
(dp3139
g64
(dp3140
g72
I1
ssg73
g3134
sg66
(lp3141
S'/admin/default/edit/201056161/controllers/default.py'
p3142
asbasbasbasbasbasbasbag59
(g75
g61
NtRp3143
(dp3144
g64
(dp3145
sg73
g3085
sg66
(lp3146
g59
(g80
g61
NtRp3147
(dp3148
g64
(dp3149
sg73
g3143
sg66
(lp3150
g59
(g60
g61
NtRp3151
(dp3152
g64
(dp3153
g72
I2
ssg73
g3147
sg66
(lp3154
g59
(g68
g61
NtRp3155
(dp3156
g64
(dp3157
g72
I1
ssg73
Nsg66
(lp3158
g59
(g75
g61
NtRp3159
(dp3160
g64
(dp3161
sg73
g3155
sg66
(lp3162
g59
(g80
g61
NtRp3163
(dp3164
g64
(dp3165
sg73
g3159
sg66
(lp3166
g59
(g60
g61
NtRp3167
(dp3168
g64
(dp3169
g72
I1
ssg73
g3163
sg66
(lp3170
g2976
(S's\x04\x00\x00\x00View'
tRp3171
asbasbasbag59
(g75
g61
NtRp3172
(dp3173
g64
(dp3174
sg73
g3155
sg66
(lp3175
g59
(g80
g61
NtRp3176
(dp3177
g64
(dp3178
sg73
g3172
sg66
(lp3179
g59
(g60
g61
NtRp3180
(dp3181
g64
(dp3182
g72
I1
ssg73
g3176
sg66
(lp3183
I00
asbasbasbag59
(g75
g61
NtRp3184
(dp3185
g64
(dp3186
sg73
g3155
sg66
(lp3187
g59
(g80
g61
NtRp3188
(dp3189
g64
(dp3190
sg73
g3184
sg66
(lp3191
g59
(g60
g61
NtRp3192
(dp3193
g64
(dp3194
g72
I1
ssg73
g3188
sg66
(lp3195
S'/admin/default/edit/201056161/views/default/index.html'
p3196
asbasbasbasbasbasbasbag59
(g75
g61
NtRp3197
(dp3198
g64
(dp3199
sg73
g3085
sg66
(lp3200
g59
(g80
g61
NtRp3201
(dp3202
g64
(dp3203
sg73
g3197
sg66
(lp3204
g59
(g60
g61
NtRp3205
(dp3206
g64
(dp3207
g72
I2
ssg73
g3201
sg66
(lp3208
g59
(g68
g61
NtRp3209
(dp3210
g64
(dp3211
g72
I1
ssg73
Nsg66
(lp3212
g59
(g75
g61
NtRp3213
(dp3214
g64
(dp3215
sg73
g3209
sg66
(lp3216
g59
(g80
g61
NtRp3217
(dp3218
g64
(dp3219
sg73
g3213
sg66
(lp3220
g59
(g60
g61
NtRp3221
(dp3222
g64
(dp3223
g72
I1
ssg73
g3217
sg66
(lp3224
g2976
(S's\x06\x00\x00\x00Layout'
tRp3225
asbasbasbag59
(g75
g61
NtRp3226
(dp3227
g64
(dp3228
sg73
g3209
sg66
(lp3229
g59
(g80
g61
NtRp3230
(dp3231
g64
(dp3232
sg73
g3226
sg66
(lp3233
g59
(g60
g61
NtRp3234
(dp3235
g64
(dp3236
g72
I1
ssg73
g3230
sg66
(lp3237
I00
asbasbasbag59
(g75
g61
NtRp3238
(dp3239
g64
(dp3240
sg73
g3209
sg66
(lp3241
g59
(g80
g61
NtRp3242
(dp3243
g64
(dp3244
sg73
g3238
sg66
(lp3245
g59
(g60
g61
NtRp3246
(dp3247
g64
(dp3248
g72
I1
ssg73
g3242
sg66
(lp3249
S'/admin/default/edit/201056161/views/layout.html'
p3250
asbasbasbasbasbasbasbag59
(g75
g61
NtRp3251
(dp3252
g64
(dp3253
sg73
g3085
sg66
(lp3254
g59
(g80
g61
NtRp3255
(dp3256
g64
(dp3257
sg73
g3251
sg66
(lp3258
g59
(g60
g61
NtRp3259
(dp3260
g64
(dp3261
g72
I2
ssg73
g3255
sg66
(lp3262
g59
(g68
g61
NtRp3263
(dp3264
g64
(dp3265
g72
I1
ssg73
Nsg66
(lp3266
g59
(g75
g61
NtRp3267
(dp3268
g64
(dp3269
sg73
g3263
sg66
(lp3270
g59
(g80
g61
NtRp3271
(dp3272
g64
(dp3273
sg73
g3267
sg66
(lp3274
g59
(g60
g61
NtRp3275
(dp3276
g64
(dp3277
g72
I1
ssg73
g3271
sg66
(lp3278
g2976
(S's\n\x00\x00\x00Stylesheet'
tRp3279
asbasbasbag59
(g75
g61
NtRp3280
(dp3281
g64
(dp3282
sg73
g3263
sg66
(lp3283
g59
(g80
g61
NtRp3284
(dp3285
g64
(dp3286
sg73
g3280
sg66
(lp3287
g59
(g60
g61
NtRp3288
(dp3289
g64
(dp3290
g72
I1
ssg73
g3284
sg66
(lp3291
I00
asbasbasbag59
(g75
g61
NtRp3292
(dp3293
g64
(dp3294
sg73
g3263
sg66
(lp3295
g59
(g80
g61
NtRp3296
(dp3297
g64
(dp3298
sg73
g3292
sg66
(lp3299
g59
(g60
g61
NtRp3300
(dp3301
g64
(dp3302
g72
I1
ssg73
g3296
sg66
(lp3303
S'/admin/default/edit/201056161/static/base.css'
p3304
asbasbasbasbasbasbasbag59
(g75
g61
NtRp3305
(dp3306
g64
(dp3307
sg73
g3085
sg66
(lp3308
g59
(g80
g61
NtRp3309
(dp3310
g64
(dp3311
sg73
g3305
sg66
(lp3312
g59
(g60
g61
NtRp3313
(dp3314
g64
(dp3315
g72
I2
ssg73
g3309
sg66
(lp3316
g59
(g68
g61
NtRp3317
(dp3318
g64
(dp3319
g72
I1
ssg73
Nsg66
(lp3320
g59
(g75
g61
NtRp3321
(dp3322
g64
(dp3323
sg73
g3317
sg66
(lp3324
g59
(g80
g61
NtRp3325
(dp3326
g64
(dp3327
sg73
g3321
sg66
(lp3328
g59
(g60
g61
NtRp3329
(dp3330
g64
(dp3331
g72
I1
ssg73
g3325
sg66
(lp3332
g2976
(S's\x08\x00\x00\x00DB Model'
tRp3333
asbasbasbag59
(g75
g61
NtRp3334
(dp3335
g64
(dp3336
sg73
g3317
sg66
(lp3337
g59
(g80
g61
NtRp3338
(dp3339
g64
(dp3340
sg73
g3334
sg66
(lp3341
g59
(g60
g61
NtRp3342
(dp3343
g64
(dp3344
g72
I1
ssg73
g3338
sg66
(lp3345
I00
asbasbasbag59
(g75
g61
NtRp3346
(dp3347
g64
(dp3348
sg73
g3317
sg66
(lp3349
g59
(g80
g61
NtRp3350
(dp3351
g64
(dp3352
sg73
g3346
sg66
(lp3353
g59
(g60
g61
NtRp3354
(dp3355
g64
(dp3356
g72
I1
ssg73
g3350
sg66
(lp3357
S'/admin/default/edit/201056161/models/db.py'
p3358
asbasbasbasbasbasbasbag59
(g75
g61
NtRp3359
(dp3360
g64
(dp3361
sg73
g3085
sg66
(lp3362
g59
(g80
g61
NtRp3363
(dp3364
g64
(dp3365
sg73
g3359
sg66
(lp3366
g59
(g60
g61
NtRp3367
(dp3368
g64
(dp3369
g72
I2
ssg73
g3363
sg66
(lp3370
g59
(g68
g61
NtRp3371
(dp3372
g64
(dp3373
g72
I1
ssg73
Nsg66
(lp3374
g59
(g75
g61
NtRp3375
(dp3376
g64
(dp3377
sg73
g3371
sg66
(lp3378
g59
(g80
g61
NtRp3379
(dp3380
g64
(dp3381
sg73
g3375
sg66
(lp3382
g59
(g60
g61
NtRp3383
(dp3384
g64
(dp3385
g72
I1
ssg73
g3379
sg66
(lp3386
g2976
(S's\n\x00\x00\x00Menu Model'
tRp3387
asbasbasbag59
(g75
g61
NtRp3388
(dp3389
g64
(dp3390
sg73
g3371
sg66
(lp3391
g59
(g80
g61
NtRp3392
(dp3393
g64
(dp3394
sg73
g3388
sg66
(lp3395
g59
(g60
g61
NtRp3396
(dp3397
g64
(dp3398
g72
I1
ssg73
g3392
sg66
(lp3399
I00
asbasbasbag59
(g75
g61
NtRp3400
(dp3401
g64
(dp3402
sg73
g3371
sg66
(lp3403
g59
(g80
g61
NtRp3404
(dp3405
g64
(dp3406
sg73
g3400
sg66
(lp3407
g59
(g60
g61
NtRp3408
(dp3409
g64
(dp3410
g72
I1
ssg73
g3404
sg66
(lp3411
S'/admin/default/edit/201056161/models/menu.py'
p3412
asbasbasbasbasbasbasbag59
(g75
g61
NtRp3413
(dp3414
g64
(dp3415
sg73
g3085
sg66
(lp3416
g59
(g80
g61
NtRp3417
(dp3418
g64
(dp3419
sg73
g3413
sg66
(lp3420
g59
(g60
g61
NtRp3421
(dp3422
g64
(dp3423
g72
I2
ssg73
g3417
sg66
(lp3424
g59
(g68
g61
NtRp3425
(dp3426
g64
(dp3427
g72
I1
ssg73
Nsg66
(lp3428
g59
(g75
g61
NtRp3429
(dp3430
g64
(dp3431
sg73
g3425
sg66
(lp3432
g59
(g80
g61
NtRp3433
(dp3434
g64
(dp3435
sg73
g3429
sg66
(lp3436
g59
(g60
g61
NtRp3437
(dp3438
g64
(dp3439
g72
I1
ssg73
g3433
sg66
(lp3440
g2976
(S's\x08\x00\x00\x00Database'
tRp3441
asbasbasbag59
(g75
g61
NtRp3442
(dp3443
g64
(dp3444
sg73
g3425
sg66
(lp3445
g59
(g80
g61
NtRp3446
(dp3447
g64
(dp3448
sg73
g3442
sg66
(lp3449
g59
(g60
g61
NtRp3450
(dp3451
g64
(dp3452
g72
I1
ssg73
g3446
sg66
(lp3453
I00
asbasbasbag59
(g75
g61
NtRp3454
(dp3455
g64
(dp3456
sg73
g3425
sg66
(lp3457
g59
(g80
g61
NtRp3458
(dp3459
g64
(dp3460
sg73
g3454
sg66
(lp3461
g59
(g60
g61
NtRp3462
(dp3463
g64
(dp3464
g72
I1
ssg73
g3458
sg66
(lp3465
S'/201056161/appadmin/index'
p3466
asbasbasbasbasbasbasbag59
(g75
g61
NtRp3467
(dp3468
g64
(dp3469
sg73
g3085
sg66
(lp3470
g59
(g80
g61
NtRp3471
(dp3472
g64
(dp3473
sg73
g3467
sg66
(lp3474
g59
(g60
g61
NtRp3475
(dp3476
g64
(dp3477
g72
I2
ssg73
g3471
sg66
(lp3478
g59
(g68
g61
NtRp3479
(dp3480
g64
(dp3481
g72
I1
ssg73
Nsg66
(lp3482
g59
(g75
g61
NtRp3483
(dp3484
g64
(dp3485
sg73
g3479
sg66
(lp3486
g59
(g80
g61
NtRp3487
(dp3488
g64
(dp3489
sg73
g3483
sg66
(lp3490
g59
(g60
g61
NtRp3491
(dp3492
g64
(dp3493
g72
I1
ssg73
g3487
sg66
(lp3494
g2976
(S's\x06\x00\x00\x00Errors'
tRp3495
asbasbasbag59
(g75
g61
NtRp3496
(dp3497
g64
(dp3498
sg73
g3479
sg66
(lp3499
g59
(g80
g61
NtRp3500
(dp3501
g64
(dp3502
sg73
g3496
sg66
(lp3503
g59
(g60
g61
NtRp3504
(dp3505
g64
(dp3506
g72
I1
ssg73
g3500
sg66
(lp3507
I00
asbasbasbag59
(g75
g61
NtRp3508
(dp3509
g64
(dp3510
sg73
g3479
sg66
(lp3511
g59
(g80
g61
NtRp3512
(dp3513
g64
(dp3514
sg73
g3508
sg66
(lp3515
g59
(g60
g61
NtRp3516
(dp3517
g64
(dp3518
g72
I1
ssg73
g3512
sg66
(lp3519
S'/admin/default/errors/201056161'
p3520
asbasbasbasbasbasbasbag59
(g75
g61
NtRp3521
(dp3522
g64
(dp3523
sg73
g3085
sg66
(lp3524
g59
(g80
g61
NtRp3525
(dp3526
g64
(dp3527
sg73
g3521
sg66
(lp3528
g59
(g60
g61
NtRp3529
(dp3530
g64
(dp3531
g72
I2
ssg73
g3525
sg66
(lp3532
g59
(g68
g61
NtRp3533
(dp3534
g64
(dp3535
g72
I1
ssg73
Nsg66
(lp3536
g59
(g75
g61
NtRp3537
(dp3538
g64
(dp3539
sg73
g3533
sg66
(lp3540
g59
(g80
g61
NtRp3541
(dp3542
g64
(dp3543
sg73
g3537
sg66
(lp3544
g59
(g60
g61
NtRp3545
(dp3546
g64
(dp3547
g72
I1
ssg73
g3541
sg66
(lp3548
g2976
(S's\x05\x00\x00\x00About'
tRp3549
asbasbasbag59
(g75
g61
NtRp3550
(dp3551
g64
(dp3552
sg73
g3533
sg66
(lp3553
g59
(g80
g61
NtRp3554
(dp3555
g64
(dp3556
sg73
g3550
sg66
(lp3557
g59
(g60
g61
NtRp3558
(dp3559
g64
(dp3560
g72
I1
ssg73
g3554
sg66
(lp3561
I00
asbasbasbag59
(g75
g61
NtRp3562
(dp3563
g64
(dp3564
sg73
g3533
sg66
(lp3565
g59
(g80
g61
NtRp3566
(dp3567
g64
(dp3568
sg73
g3562
sg66
(lp3569
g59
(g60
g61
NtRp3570
(dp3571
g64
(dp3572
g72
I1
ssg73
g3566
sg66
(lp3573
S'/admin/default/about/201056161'
p3574
asbasbasbasbasbasbasbasbasbasbasbasbasbasbasbag59
(g75
g61
NtRp3575
(dp3576
g64
(dp3577
sg73
g2944
sg66
(lp3578
g59
(g80
g61
NtRp3579
(dp3580
g64
(dp3581
sg73
g3575
sg66
(lp3582
g59
(g60
g61
NtRp3583
(dp3584
g64
(dp3585
g72
I4
ssg73
g3579
sg66
(lp3586
g59
(g68
g61
NtRp3587
(dp3588
g64
(dp3589
g72
I3
ssg73
Nsg66
(lp3590
g59
(g75
g61
NtRp3591
(dp3592
g64
(dp3593
sg73
g3587
sg66
(lp3594
g59
(g80
g61
NtRp3595
(dp3596
g64
(dp3597
sg73
g3591
sg66
(lp3598
g59
(g60
g61
NtRp3599
(dp3600
g64
(dp3601
g72
I3
ssg73
g3595
sg66
(lp3602
g2976
(S's\t\x00\x00\x00Resources'
tRp3603
asbasbasbag59
(g75
g61
NtRp3604
(dp3605
g64
(dp3606
sg73
g3587
sg66
(lp3607
g59
(g80
g61
NtRp3608
(dp3609
g64
(dp3610
sg73
g3604
sg66
(lp3611
g59
(g60
g61
NtRp3612
(dp3613
g64
(dp3614
g72
I3
ssg73
g3608
sg66
(lp3615
g102
asbasbasbag59
(g75
g61
NtRp3616
(dp3617
g64
(dp3618
sg73
g3587
sg66
(lp3619
g59
(g80
g61
NtRp3620
(dp3621
g64
(dp3622
sg73
g3616
sg66
(lp3623
g59
(g60
g61
NtRp3624
(dp3625
g64
(dp3626
g72
I3
ssg73
g3620
sg66
(lp3627
S'None'
p3628
asbasbasbag59
(g75
g61
NtRp3629
(dp3630
g64
(dp3631
sg73
g3587
sg66
(lp3632
g59
(g80
g61
NtRp3633
(dp3634
g64
(dp3635
sg73
g3629
sg66
(lp3636
g59
(g60
g61
NtRp3637
(dp3638
g64
(dp3639
g72
I3
ssg73
g3633
sg66
(lp3640
g59
(g68
g61
NtRp3641
(dp3642
g64
(dp3643
g72
I2
ssg73
Nsg66
(lp3644
g59
(g75
g61
NtRp3645
(dp3646
g64
(dp3647
sg73
g3641
sg66
(lp3648
g59
(g80
g61
NtRp3649
(dp3650
g64
(dp3651
sg73
g3645
sg66
(lp3652
g59
(g60
g61
NtRp3653
(dp3654
g64
(dp3655
g72
I2
ssg73
g3649
sg66
(lp3656
g59
(g68
g61
NtRp3657
(dp3658
g64
(dp3659
g72
I1
ssg73
Nsg66
(lp3660
g59
(g75
g61
NtRp3661
(dp3662
g64
(dp3663
sg73
g3657
sg66
(lp3664
g59
(g80
g61
NtRp3665
(dp3666
g64
(dp3667
sg73
g3661
sg66
(lp3668
g59
(g60
g61
NtRp3669
(dp3670
g64
(dp3671
g72
I1
ssg73
g3665
sg66
(lp3672
g2976
(S's\r\x00\x00\x00Documentation'
tRp3673
asbasbasbag59
(g75
g61
NtRp3674
(dp3675
g64
(dp3676
sg73
g3657
sg66
(lp3677
g59
(g80
g61
NtRp3678
(dp3679
g64
(dp3680
sg73
g3674
sg66
(lp3681
g59
(g60
g61
NtRp3682
(dp3683
g64
(dp3684
g72
I1
ssg73
g3678
sg66
(lp3685
I00
asbasbasbag59
(g75
g61
NtRp3686
(dp3687
g64
(dp3688
sg73
g3657
sg66
(lp3689
g59
(g80
g61
NtRp3690
(dp3691
g64
(dp3692
sg73
g3686
sg66
(lp3693
g59
(g60
g61
NtRp3694
(dp3695
g64
(dp3696
g72
I1
ssg73
g3690
sg66
(lp3697
S'http://www.web2py.com/book'
p3698
asbasbasbag59
(g75
g61
NtRp3699
(dp3700
g64
(dp3701
sg73
g3657
sg66
(lp3702
g59
(g80
g61
NtRp3703
(dp3704
g64
(dp3705
sg73
g3699
sg66
(lp3706
g59
(g60
g61
NtRp3707
(dp3708
g64
(dp3709
g72
I1
ssg73
g3703
sg66
(lp3710
(lp3711
(g2976
(S's\x07\x00\x00\x00Preface'
tRp3712
I00
S'http://www.web2py.com/book/default/chapter/00'
tp3713
a(g2976
(S's\x0c\x00\x00\x00Introduction'
tRp3714
I00
S'http://www.web2py.com/book/default/chapter/01'
tp3715
a(g2976
(S's\x06\x00\x00\x00Python'
tRp3716
I00
S'http://www.web2py.com/book/default/chapter/02'
tp3717
a(g2976
(S's\x08\x00\x00\x00Overview'
tRp3718
I00
S'http://www.web2py.com/book/default/chapter/03'
tp3719
a(g2976
(S's\x08\x00\x00\x00The Core'
tRp3720
I00
S'http://www.web2py.com/book/default/chapter/04'
tp3721
a(g2976
(S's\t\x00\x00\x00The Views'
tRp3722
I00
S'http://www.web2py.com/book/default/chapter/05'
tp3723
a(g2976
(S's\x08\x00\x00\x00Database'
tRp3724
I00
S'http://www.web2py.com/book/default/chapter/06'
tp3725
a(g2976
(S's\x14\x00\x00\x00Forms and Validators'
tRp3726
I00
S'http://www.web2py.com/book/default/chapter/07'
tp3727
a(g2976
(S's\x0e\x00\x00\x00Access Control'
tRp3728
I00
S'http://www.web2py.com/book/default/chapter/08'
tp3729
a(g2976
(S's\x08\x00\x00\x00Services'
tRp3730
I00
S'http://www.web2py.com/book/default/chapter/09'
tp3731
a(g2976
(S's\x0c\x00\x00\x00Ajax Recipes'
tRp3732
I00
S'http://www.web2py.com/book/default/chapter/10'
tp3733
a(g2976
(S's\x12\x00\x00\x00Deployment Recipes'
tRp3734
I00
S'http://www.web2py.com/book/default/chapter/11'
tp3735
a(g2976
(S's\r\x00\x00\x00Other Recipes'
tRp3736
I00
S'http://www.web2py.com/book/default/chapter/12'
tp3737
a(g2976
(S's\r\x00\x00\x00Buy this book'
tRp3738
I00
S'http://stores.lulu.com/web2py'
tp3739
aasbasbasbasbasbasbasbag59
(g75
g61
NtRp3740
(dp3741
g64
(dp3742
sg73
g3641
sg66
(lp3743
g59
(g80
g61
NtRp3744
(dp3745
g64
(dp3746
sg73
g3740
sg66
(lp3747
g59
(g60
g61
NtRp3748
(dp3749
g64
(dp3750
g72
I2
ssg73
g3744
sg66
(lp3751
g59
(g68
g61
NtRp3752
(dp3753
g64
(dp3754
g72
I1
ssg73
Nsg66
(lp3755
g59
(g75
g61
NtRp3756
(dp3757
g64
(dp3758
sg73
g3752
sg66
(lp3759
g59
(g80
g61
NtRp3760
(dp3761
g64
(dp3762
sg73
g3756
sg66
(lp3763
g59
(g60
g61
NtRp3764
(dp3765
g64
(dp3766
g72
I1
ssg73
g3760
sg66
(lp3767
g2976
(S's\t\x00\x00\x00Community'
tRp3768
asbasbasbag59
(g75
g61
NtRp3769
(dp3770
g64
(dp3771
sg73
g3752
sg66
(lp3772
g59
(g80
g61
NtRp3773
(dp3774
g64
(dp3775
sg73
g3769
sg66
(lp3776
g59
(g60
g61
NtRp3777
(dp3778
g64
(dp3779
g72
I1
ssg73
g3773
sg66
(lp3780
I00
asbasbasbag59
(g75
g61
NtRp3781
(dp3782
g64
(dp3783
sg73
g3752
sg66
(lp3784
g59
(g80
g61
NtRp3785
(dp3786
g64
(dp3787
sg73
g3781
sg66
(lp3788
g59
(g60
g61
NtRp3789
(dp3790
g64
(dp3791
g72
I1
ssg73
g3785
sg66
(lp3792
Nasbasbasbag59
(g75
g61
NtRp3793
(dp3794
g64
(dp3795
sg73
g3752
sg66
(lp3796
g59
(g80
g61
NtRp3797
(dp3798
g64
(dp3799
sg73
g3793
sg66
(lp3800
g59
(g60
g61
NtRp3801
(dp3802
g64
(dp3803
g72
I1
ssg73
g3797
sg66
(lp3804
(lp3805
(g2976
(S's\x06\x00\x00\x00Groups'
tRp3806
I00
S'http://www.web2py.com/examples/default/usergroups'
tp3807
a(g2976
(S's\x07\x00\x00\x00Twitter'
tRp3808
I00
S'http://twitter.com/web2py'
tp3809
a(g2976
(S's\t\x00\x00\x00Live chat'
tRp3810
I00
S'http://mibbit.com/?channel=%23web2py&server=irc.mibbit.net'
tp3811
a(g2976
(S's\n\x00\x00\x00User Voice'
tRp3812
I00
S'http://web2py.uservoice.com/'
tp3813
aasbasbasbasbasbasbasbag59
(g75
g61
NtRp3814
(dp3815
g64
(dp3816
sg73
g3641
sg66
(lp3817
g59
(g80
g61
NtRp3818
(dp3819
g64
(dp3820
sg73
g3814
sg66
(lp3821
g59
(g60
g61
NtRp3822
(dp3823
g64
(dp3824
g72
I2
ssg73
g3818
sg66
(lp3825
g59
(g68
g61
NtRp3826
(dp3827
g64
(dp3828
g72
I1
ssg73
Nsg66
(lp3829
g59
(g75
g61
NtRp3830
(dp3831
g64
(dp3832
sg73
g3826
sg66
(lp3833
g59
(g80
g61
NtRp3834
(dp3835
g64
(dp3836
sg73
g3830
sg66
(lp3837
g59
(g60
g61
NtRp3838
(dp3839
g64
(dp3840
g72
I1
ssg73
g3834
sg66
(lp3841
g2976
(S's\x06\x00\x00\x00Web2py'
tRp3842
asbasbasbag59
(g75
g61
NtRp3843
(dp3844
g64
(dp3845
sg73
g3826
sg66
(lp3846
g59
(g80
g61
NtRp3847
(dp3848
g64
(dp3849
sg73
g3843
sg66
(lp3850
g59
(g60
g61
NtRp3851
(dp3852
g64
(dp3853
g72
I1
ssg73
g3847
sg66
(lp3854
I00
asbasbasbag59
(g75
g61
NtRp3855
(dp3856
g64
(dp3857
sg73
g3826
sg66
(lp3858
g59
(g80
g61
NtRp3859
(dp3860
g64
(dp3861
sg73
g3855
sg66
(lp3862
g59
(g60
g61
NtRp3863
(dp3864
g64
(dp3865
g72
I1
ssg73
g3859
sg66
(lp3866
S'http://www.web2py.com'
p3867
asbasbasbag59
(g75
g61
NtRp3868
(dp3869
g64
(dp3870
sg73
g3826
sg66
(lp3871
g59
(g80
g61
NtRp3872
(dp3873
g64
(dp3874
sg73
g3868
sg66
(lp3875
g59
(g60
g61
NtRp3876
(dp3877
g64
(dp3878
g72
I1
ssg73
g3872
sg66
(lp3879
(lp3880
(g2976
(S's\x08\x00\x00\x00Download'
tRp3881
I00
S'http://www.web2py.com/examples/default/download'
tp3882
a(g2976
(S's\x07\x00\x00\x00Support'
tRp3883
I00
S'http://www.web2py.com/examples/default/support'
tp3884
a(g2976
(S's\x0e\x00\x00\x00Quick Examples'
tRp3885
I00
S'http://web2py.com/examples/default/examples'
tp3886
a(g2976
(S's\x03\x00\x00\x00FAQ'
tRp3887
I00
S'http://web2py.com/AlterEgo'
tp3888
a(g2976
(S's\x11\x00\x00\x00Free Applications'
tRp3889
I00
S'http://web2py.com/appliances'
tp3890
a(g2976
(S's\x07\x00\x00\x00Plugins'
tRp3891
I00
S'http://web2py.com/plugins'
tp3892
a(g2976
(S's\x07\x00\x00\x00Recipes'
tRp3893
I00
S'http://web2pyslices.com/'
tp3894
a(g2976
(S's\x04\x00\x00\x00Demo'
tRp3895
I00
S'http://web2py.com/demo_admin'
tp3896
a(g2976
(S's\x08\x00\x00\x00Semantic'
tRp3897
I00
S'http://web2py.com/semantic'
tp3898
a(g2976
(S's\x07\x00\x00\x00Layouts'
tRp3899
I00
S'http://web2py.com/layouts'
tp3900
a(g2976
(S's\x06\x00\x00\x00Videos'
tRp3901
I00
S'http://www.web2py.com/examples/default/videos/'
tp3902
aasbasbasbasbasbasbasbasbasbasbasbasbasbasbasbasbasbasbasbag59
(g75
g61
NtRp3903
(dp3904
g64
(dp3905
sg73
g2491
sg66
(lp3906
g59
(g80
g61
NtRp3907
(dp3908
g64
(dp3909
g84
g85
ssg73
g3903
sg66
(lp3910
S'meta'
p3911
asbag59
(g80
g61
NtRp3912
(dp3913
g64
(dp3914
g91
g92
ssg73
g3903
sg66
(lp3915
S':'
asbag59
(g80
g61
NtRp3916
(dp3917
g64
(dp3918
sg73
g3903
sg66
(lp3919
g59
(g60
g61
NtRp3920
(dp3921
g64
(dp3922
g72
I5
ssg73
g3916
sg66
(lp3923
g59
(g68
g61
NtRp3924
(dp3925
g64
(dp3926
g72
I4
ssg73
Nsg66
(lp3927
g59
(g75
g61
NtRp3928
(dp3929
g64
(dp3930
sg73
g3924
sg66
(lp3931
g59
(g80
g61
NtRp3932
(dp3933
g64
(dp3934
g84
g85
ssg73
g3928
sg66
(lp3935
S'author'
p3936
asbag59
(g80
g61
NtRp3937
(dp3938
g64
(dp3939
g91
g92
ssg73
g3928
sg66
(lp3940
S':'
asbag59
(g80
g61
NtRp3941
(dp3942
g64
(dp3943
sg73
g3928
sg66
(lp3944
g59
(g60
g61
NtRp3945
(dp3946
g64
(dp3947
g72
I4
ssg73
g3941
sg66
(lp3948
S'you'
p3949
asbasbasbag59
(g75
g61
NtRp3950
(dp3951
g64
(dp3952
sg73
g3924
sg66
(lp3953
g59
(g80
g61
NtRp3954
(dp3955
g64
(dp3956
g84
g85
ssg73
g3950
sg66
(lp3957
S'copyright'
p3958
asbag59
(g80
g61
NtRp3959
(dp3960
g64
(dp3961
g91
g92
ssg73
g3950
sg66
(lp3962
S':'
asbag59
(g80
g61
NtRp3963
(dp3964
g64
(dp3965
sg73
g3950
sg66
(lp3966
g59
(g60
g61
NtRp3967
(dp3968
g64
(dp3969
g72
I4
ssg73
g3963
sg66
(lp3970
S'Copyright 2007-2010'
p3971
asbasbasbag59
(g75
g61
NtRp3972
(dp3973
g64
(dp3974
sg73
g3924
sg66
(lp3975
g59
(g80
g61
NtRp3976
(dp3977
g64
(dp3978
g84
g85
ssg73
g3972
sg66
(lp3979
S'description'
p3980
asbag59
(g80
g61
NtRp3981
(dp3982
g64
(dp3983
g91
g92
ssg73
g3972
sg66
(lp3984
S':'
asbag59
(g80
g61
NtRp3985
(dp3986
g64
(dp3987
sg73
g3972
sg66
(lp3988
g59
(g60
g61
NtRp3989
(dp3990
g64
(dp3991
g72
I4
ssg73
g3985
sg66
(lp3992
S'Free and open source full-stack enterprise framework for agile development of fast, scalable, secure and portable database-driven web-based applications. Written and programmable in Python'
p3993
asbasbasbag59
(g75
g61
NtRp3994
(dp3995
g64
(dp3996
sg73
g3924
sg66
(lp3997
g59
(g80
g61
NtRp3998
(dp3999
g64
(dp4000
g84
g85
ssg73
g3994
sg66
(lp4001
S'generator'
p4002
asbag59
(g80
g61
NtRp4003
(dp4004
g64
(dp4005
g91
g92
ssg73
g3994
sg66
(lp4006
S':'
asbag59
(g80
g61
NtRp4007
(dp4008
g64
(dp4009
sg73
g3994
sg66
(lp4010
g59
(g60
g61
NtRp4011
(dp4012
g64
(dp4013
g72
I4
ssg73
g4007
sg66
(lp4014
S'Web2py Enterprise Framework'
p4015
asbasbasbag59
(g75
g61
NtRp4016
(dp4017
g64
(dp4018
sg73
g3924
sg66
(lp4019
g59
(g80
g61
NtRp4020
(dp4021
g64
(dp4022
g84
g85
ssg73
g4016
sg66
(lp4023
S'keywords'
p4024
asbag59
(g80
g61
NtRp4025
(dp4026
g64
(dp4027
g91
g92
ssg73
g4016
sg66
(lp4028
S':'
asbag59
(g80
g61
NtRp4029
(dp4030
g64
(dp4031
sg73
g4016
sg66
(lp4032
g59
(g60
g61
NtRp4033
(dp4034
g64
(dp4035
g72
I4
ssg73
g4029
sg66
(lp4036
S'web2py, python, framework'
p4037
asbasbasbasbasbasbasbag59
(g75
g61
NtRp4038
(dp4039
g64
(dp4040
sg73
g2491
sg66
(lp4041
g59
(g80
g61
NtRp4042
(dp4043
g64
(dp4044
g84
g85
ssg73
g4038
sg66
(lp4045
S'postprocessing'
p4046
asbag59
(g80
g61
NtRp4047
(dp4048
g64
(dp4049
g91
g92
ssg73
g4038
sg66
(lp4050
S':'
asbag59
(g80
g61
NtRp4051
(dp4052
g64
(dp4053
sg73
g4038
sg66
(lp4054
g59
(g60
g61
NtRp4055
(dp4056
g64
(dp4057
g72
I5
ssg73
g4051
sg66
(lp4058
g59
(g68
g61
NtRp4059
(dp4060
g64
(dp4061
g72
I4
ssg73
Nsg66
(lp4062
sbasbasbasbag59
(g75
g61
NtRp4063
(dp4064
g64
(dp4065
sg73
g2491
sg66
(lp4066
g59
(g80
g61
NtRp4067
(dp4068
g64
(dp4069
g84
g85
ssg73
g4063
sg66
(lp4070
S'session_filename'
p4071
asbag59
(g80
g61
NtRp4072
(dp4073
g64
(dp4074
g91
g92
ssg73
g4063
sg66
(lp4075
S':'
asbag59
(g80
g61
NtRp4076
(dp4077
g64
(dp4078
sg73
g4063
sg66
(lp4079
g59
(g60
g61
NtRp4080
(dp4081
g64
(dp4082
g72
I5
ssg73
g4076
sg66
(lp4083
S'C:\\Users\\AKSHAY\\Desktop\\web2py\\applications\\201056161\\sessions\\127.0.0.1-3a1832a5-6b8b-430b-a7c2-d684a90c16e0'
p4084
asbasbasbag59
(g75
g61
NtRp4085
(dp4086
g64
(dp4087
sg73
g2491
sg66
(lp4088
g59
(g80
g61
NtRp4089
(dp4090
g64
(dp4091
g84
g85
ssg73
g4085
sg66
(lp4092
S'session_id'
p4093
asbag59
(g80
g61
NtRp4094
(dp4095
g64
(dp4096
g91
g92
ssg73
g4085
sg66
(lp4097
S':'
asbag59
(g80
g61
NtRp4098
(dp4099
g64
(dp4100
sg73
g4085
sg66
(lp4101
g59
(g60
g61
NtRp4102
(dp4103
g64
(dp4104
g72
I5
ssg73
g4098
sg66
(lp4105
S'127.0.0.1-3a1832a5-6b8b-430b-a7c2-d684a90c16e0'
p4106
asbasbasbag59
(g75
g61
NtRp4107
(dp4108
g64
(dp4109
sg73
g2491
sg66
(lp4110
g59
(g80
g61
NtRp4111
(dp4112
g64
(dp4113
g84
g85
ssg73
g4107
sg66
(lp4114
S'session_id_name'
p4115
asbag59
(g80
g61
NtRp4116
(dp4117
g64
(dp4118
g91
g92
ssg73
g4107
sg66
(lp4119
S':'
asbag59
(g80
g61
NtRp4120
(dp4121
g64
(dp4122
sg73
g4107
sg66
(lp4123
g59
(g60
g61
NtRp4124
(dp4125
g64
(dp4126
g72
I5
ssg73
g4120
sg66
(lp4127
g2548
asbasbasbag59
(g75
g61
NtRp4128
(dp4129
g64
(dp4130
sg73
g2491
sg66
(lp4131
g59
(g80
g61
NtRp4132
(dp4133
g64
(dp4134
g84
g85
ssg73
g4128
sg66
(lp4135
S'session_new'
p4136
asbag59
(g80
g61
NtRp4137
(dp4138
g64
(dp4139
g91
g92
ssg73
g4128
sg66
(lp4140
S':'
asbag59
(g80
g61
NtRp4141
(dp4142
g64
(dp4143
sg73
g4128
sg66
(lp4144
g59
(g60
g61
NtRp4145
(dp4146
g64
(dp4147
g72
I5
ssg73
g4141
sg66
(lp4148
g1489
asbasbasbag59
(g75
g61
NtRp4149
(dp4150
g64
(dp4151
sg73
g2491
sg66
(lp4152
g59
(g80
g61
NtRp4153
(dp4154
g64
(dp4155
g84
g85
ssg73
g4149
sg66
(lp4156
S'status'
p4157
asbag59
(g80
g61
NtRp4158
(dp4159
g64
(dp4160
g91
g92
ssg73
g4149
sg66
(lp4161
S':'
asbag59
(g80
g61
NtRp4162
(dp4163
g64
(dp4164
sg73
g4149
sg66
(lp4165
g59
(g60
g61
NtRp4166
(dp4167
g64
(dp4168
g72
I5
ssg73
g4162
sg66
(lp4169
S'200'
p4170
asbasbasbag59
(g75
g61
NtRp4171
(dp4172
g64
(dp4173
sg73
g2491
sg66
(lp4174
g59
(g80
g61
NtRp4175
(dp4176
g64
(dp4177
g84
g85
ssg73
g4171
sg66
(lp4178
S'subtitle'
p4179
asbag59
(g80
g61
NtRp4180
(dp4181
g64
(dp4182
g91
g92
ssg73
g4171
sg66
(lp4183
S':'
asbag59
(g80
g61
NtRp4184
(dp4185
g64
(dp4186
sg73
g4171
sg66
(lp4187
g59
(g60
g61
NtRp4188
(dp4189
g64
(dp4190
g72
I5
ssg73
g4184
sg66
(lp4191
g2976
(S's\r\x00\x00\x00customize me!'
tRp4192
asbasbasbag59
(g75
g61
NtRp4193
(dp4194
g64
(dp4195
sg73
g2491
sg66
(lp4196
g59
(g80
g61
NtRp4197
(dp4198
g64
(dp4199
g84
g85
ssg73
g4193
sg66
(lp4200
S'title'
p4201
asbag59
(g80
g61
NtRp4202
(dp4203
g64
(dp4204
g91
g92
ssg73
g4193
sg66
(lp4205
S':'
asbag59
(g80
g61
NtRp4206
(dp4207
g64
(dp4208
sg73
g4193
sg66
(lp4209
g59
(g60
g61
NtRp4210
(dp4211
g64
(dp4212
g72
I5
ssg73
g4206
sg66
(lp4213
g124
asbasbasbag59
(g75
g61
NtRp4214
(dp4215
g64
(dp4216
sg73
g2491
sg66
(lp4217
g59
(g80
g61
NtRp4218
(dp4219
g64
(dp4220
g84
g85
ssg73
g4214
sg66
(lp4221
g1813
asbag59
(g80
g61
NtRp4222
(dp4223
g64
(dp4224
g91
g92
ssg73
g4214
sg66
(lp4225
S':'
asbag59
(g80
g61
NtRp4226
(dp4227
g64
(dp4228
sg73
g4214
sg66
(lp4229
g59
(g60
g61
NtRp4230
(dp4231
g64
(dp4232
g72
I5
ssg73
g4226
sg66
(lp4233
g1826
asbasbasbag59
(g75
g61
NtRp4234
(dp4235
g64
(dp4236
sg73
g2491
sg66
(lp4237
g59
(g80
g61
NtRp4238
(dp4239
g64
(dp4240
g84
g85
ssg73
g4234
sg66
(lp4241
S'view'
p4242
asbag59
(g80
g61
NtRp4243
(dp4244
g64
(dp4245
g91
g92
ssg73
g4234
sg66
(lp4246
S':'
asbag59
(g80
g61
NtRp4247
(dp4248
g64
(dp4249
sg73
g4234
sg66
(lp4250
g59
(g60
g61
NtRp4251
(dp4252
g64
(dp4253
g72
I5
ssg73
g4247
sg66
(lp4254
S'default/index.html'
p4255
asbasbasbasbasbsS'locals'
p4256
(dp4257
g3
S"r'C:\\Users\\AKSHAY\\Desktop\\web2py\\applications\\201056161\\views\\default/index.html'"
p4258
sg5
S'r"left_sidebar_enabled=right_sidebar_enabled=False...t   -->    \\n  </body>\\n</html>\\n\', escape=False)"'
p4259
sssS'traceback'
p4260
S'Traceback (most recent call last):\n  File "gluon/restricted.py", line 191, in restricted\n  File "gluon/restricted.py", line 178, in compile2\n  File "C:\\Users\\AKSHAY\\Desktop\\web2py\\applications\\201056161\\views\\default/index.html", line 104\n    response.write(\'\\r\\n</br>\\r\\n\', escape=False)\n           ^\nSyntaxError: invalid syntax\n'
p4261
s.