(dp1
S'output'
p2
S''
sS'layer'
p3
S'C:\\Users\\AKSHAY\\Desktop\\web2py\\applications\\201056161\\views\\default/q2s.html'
p4
sS'code'
p5
S'response.write(\'<!DOCTYPE html>\\n<html lang="\', escape=False)\nresponse.write(T.accepted_language or \'en\')\nresponse.write(\'" class="no-js"><!-- no-js need it for modernzr -->\\n  <head>\\n    \\n    <meta charset="utf-8" />\\t  \\t\\n    <!-- www.phpied.com/conditional-comments-block-downloads/ -->\\n    <!--[if IE]><![endif]-->    \\n    <!-- Always force latest IE rendering engine \\n\\t (even in intranet) & Chrome Frame \\n\\t Remove this if you use the .htaccess -->\\n    <meta http-equiv="X-UA-Compatible" content="IE=edge,chrome=1">\\n    \\n    <title>\', escape=False)\nresponse.write(response.title or request.application)\nresponse.write(\'</title>\\n    \\n    <!-- http://dev.w3.org/html5/markup/meta.name.html -->\\n    <meta name="application-name" content="\', escape=False)\nresponse.write(request.application)\nresponse.write(\'" />\\t\\n    \\n    <!-- Speaking of Google, don\\\'t forget to set your site up: \\n\\t http://google.com/webmasters -->\\n    <meta name="google-site-verification" content="" />\\n    \\n    <!--  Mobile Viewport Fix\\n\\t  j.mp/mobileviewport & davidbcalhoun.com/2010/viewport-metatag \\n\\t  device-width: Occupy full width of the screen in its current orientation\\n\\t  initial-scale = 1.0 retains dimensions instead of zooming out if page height > device height\\n\\t  maximum-scale = 1.0 retains dimensions instead of zooming in if page width < device width\\n      -->\\n    <meta name="viewport" content="width=device-width, initial-scale=1.0, maximum-scale=1.0">\\n    \\n    <!-- Place favicon.ico and apple-touch-icon.png in the root of your domain and delete these references -->\\n    <link rel="shortcut icon" href="\', escape=False)\nresponse.write(URL(\'static\',\'favicon.ico\'))\nresponse.write(\'" type="image/x-icon">\\n    <link rel="apple-touch-icon" href="\', escape=False)\nresponse.write(URL(\'static\',\'favicon.png\'))\nresponse.write(\'">\\n\\n    <!-- For the less-enabled mobile browsers like Opera Mini -->\\n    <link rel="stylesheet" media="handheld" href="\', escape=False)\nresponse.write(URL(\'static\',\'css/handheld.css\'))\nresponse.write(\'">\\n    \\n    <!-- All JavaScript at the bottom, except for Modernizr which enables HTML5 elements & feature detects -->\\n    <script src="\', escape=False)\nresponse.write(URL(\'static\',\'js/modernizr-1.7.min.js\'))\nresponse.write(\'"></script>\\n    \\n    \', escape=False)\n#------  require CSS and JS files for this page (read info in base.css) ------\nresponse.write(\'\\n    \', escape=False)\nresponse.files.append(URL(\'static\',\'css/base.css\'))\nresponse.write(\'\\n    \', escape=False)\nresponse.files.append(URL(\'static\',\'css/superfish.css\'))\nresponse.write(\'\\n    \', escape=False)\nresponse.files.append(URL(\'static\',\'js/superfish.js\'))\nresponse.write(\'\\n    \', escape=False)\n#------ include web2py specific js code (jquery, calendar, form stuff) ------\nresponse.write(\'\\n    \', escape=False)\nresponse.files.insert(0,URL(\'static\',\'js/jquery.js\'))\nresponse.files.insert(1,URL(\'static\',\'css/calendar.css\'))\nresponse.files.insert(2,URL(\'static\',\'js/calendar.js\'))\nfor _item in response.meta or []:\n    response.write(\'\\n     <meta name="\', escape=False)\n    response.write(_item)\n    response.write(\'" content="\', escape=False)\n    response.write(response.meta[_item])\n    response.write(\'" />\', escape=False)\n    pass\nfor _k,_file in enumerate(response.files or []):\n    if _file in response.files[:_k]:\n        continue\n    _file0=_file.lower().split(\'?\')[0]\n    if _file0.endswith(\'.css\'):\n        response.write(\'\\n     <link href="\', escape=False)\n        response.write(_file)\n        response.write(\'" rel="stylesheet" type="text/css" />\', escape=False)\n    elif _file0.endswith(\'.js\'):\n        response.write(\'\\n     <script src="\', escape=False)\n        response.write(_file)\n        response.write(\'" type="text/javascript"></script>\', escape=False)\n        pass\n    pass\nresponse.write(\'\\n    <script type="text/javascript"><!--\\n    // These variables are used by the web2py_ajax_init function in web2py_ajax.js (which is loaded below).\\n    var w2p_ajax_confirm_message = "\', escape=False)\nresponse.write(T(\'Are you sure you want to delete this object?\'))\nresponse.write(\'";\\n    var w2p_ajax_date_format = "\', escape=False)\nresponse.write(T(\'%Y-%m-%d\'))\nresponse.write(\'";\\n    var w2p_ajax_datetime_format = "\', escape=False)\nresponse.write(T(\'%Y-%m-%d %H:%M:%S\'))\nresponse.write(\'";\\n    //--></script>\\n    <script src="\', escape=False)\nresponse.write(URL(\'static\',\'js/web2py_ajax.js\'))\nresponse.write(\'" type="text/javascript"></script>\\n\', escape=False)\nresponse.write(\'\\n\\n    \', escape=False)\n#using sidebars need to know what sidebar you want to use\n#prior of using it, because of static width size of content, you can use\n#left_sidebar, right_sidebar, both or none (False left and right)\nleft_sidebar_enabled = globals().get(\'left_sidebar_enabled\',False)\nright_sidebar_enabled = globals().get(\'right_sidebar_enabled\',False)\nif left_sidebar_enabled and right_sidebar_enabled: width_content=\'63%\'\nelif left_sidebar_enabled != right_sidebar_enabled: width_content=\'740px\'\nelse: width_content=\'100%\'\nif left_sidebar_enabled: left_sidebar_style = \'style="display: block;"\'\nelse: left_sidebar_style = \'style="display: none;"\'\nif right_sidebar_enabled: right_sidebar_style = \'style="display: block;"\'\nelse: right_sidebar_style = \'style="display: none;"\'\nstyle_content = \'style="width: %s"\' % width_content\nresponse.write(\'\\n  </head>\\n  \\n  <!-- paulirish.com/2008/conditional-stylesheets-vs-css-hacks-answer-neither/ -->\\t\\n  <!--[if lt IE 7 ]> <body class="ie6"> <![endif]-->\\n  <!--[if IE 7 ]>    <body class="ie7"> <![endif]-->\\n  <!--[if IE 8 ]>    <body class="ie8"> <![endif]-->\\n  <!--[if IE 9 ]>    <body class="ie9"> <![endif]-->\\n  <!--[if (gt IE 9)|!(IE)]><!--> <body> <!--<![endif]-->\\n    \\n    <div class="flash">\', escape=False)\nresponse.write(response.flash or \'\')\nresponse.write(\'</div> <!-- notification div -->\\n    \\n    <div id="container">\\t      \\t\\t      \\t\\n      \\n      <div id="wrapper">\\t\\t\\n\\t\\n\\t<div id="header"> <!-- header and login nav -->\\n\\t  \', escape=False)\nresponse.write(\' <!-- this is default header -->\\n\\t  \', escape=False)\ntry:\n    response.write(auth.navbar(action=URL(\'default\',\'user\')))\nexcept:pass\nresponse.write(\'\\t\\t          \\n\\t  <h1><span id="appname">\', escape=False)\nresponse.write(request.application.capitalize())\nresponse.write(\'</span>App</h1>\\n\\t  <div style="clear: both;"></div><!-- Clear the divs -->\\n\\t  \', escape=False)\nresponse.write(\'\\t\\t\\t\\t  \\t\\t\\t\\t\\t  \\n\\t</div><!-- header  -->\\n\\t\\n\\t<div id="statusbar"><!-- statusbar is menu zone -->\\n\\t  \', escape=False)\nresponse.write(\' <!-- this is default statusbar -->\\n\\t  \', escape=False)\n#------ superfish menu ------\nresponse.write(\'\\n\\t  \', escape=False)\nresponse.write(MENU(response.menu,_class=\'sf-menu\'))\nresponse.write(\'\\n\\t  <script type="text/javascript">\\n\\t    jQuery(document).ready(function(){\\n\\t    jQuery(\\\'ul.sf-menu\\\').superfish();});\\n\\t  </script>\\n\\t  <div style="clear: both;"></div><!-- Clear the divs -->\\t\\n\\t  \', escape=False)\nresponse.write(\'\\t\\t\\t\\t\\n\\t</div><!-- statusbar -->\\n\\t\\n\\t<div id="page"> <!-- Here my central body -->\\t  \\n\\n\\t  \', escape=False)\nif left_sidebar_enabled:\n    response.write(\'\\n          <div id="left_sidebar" \', escape=False)\n    response.write(XML(left_sidebar_style))\n    response.write(\' >\\n            <div style="padding: 4px;">\\n\\t      \', escape=False)\n    response.write(\'Content Left Sidebar\', escape=False)\n    response.write(\'\\t\\t  \\n            </div>\\n          </div><!-- left_sidebar -->\\n\\t  \', escape=False)\n    pass\nresponse.write(\'\\n\\n\\t  <!-- content -->\\n\\t  <div id="content" \', escape=False)\nresponse.write(XML(style_content))\nresponse.write(\' >\\n\\t    \', escape=False)\nresponse.write(\'\\r\\n\', escape=False)\nfor row in rows:\n    response.write(\'\\r\\n  \', escape=False)\n    response.write(LI(A("%s",%(row.name),_href=URL(r=request,f="q1f",))))\n    response.write(\'\\r\\n  </br>\\r\\n\', escape=False)\n    pass\nresponse.write(\'\\r\\n\', escape=False)\nresponse.write(\'\\t\\n\\t  </div>\\n\\t  <!-- content -->\\n\\n\\t  \', escape=False)\nif right_sidebar_enabled:\n    response.write(\'\\n          <div id="right_sidebar" \', escape=False)\n    response.write(XML(right_sidebar_style))\n    response.write(\' >\\n            <div style="padding: 4px;">\\n              \', escape=False)\n    response.write(\'Content Right Sidebar\', escape=False)\n    response.write(\'\\n            </div>\\n\\t  </div><!-- right_sidebar -->\\n          \', escape=False)\n    pass\nresponse.write(\'\\n\\n\\n\\t  <div style="clear: both;"></div><!-- Clear the divs -->\\n\\t  \\n\\t</div><!-- page -->\\t\\t\\t\\t\\t\\t\\t\\n\\t\\n\\t<div id="footer">\\n\\t  \', escape=False)\nresponse.write(\' <!-- this is default footer -->\\n\\t  <a href="http://www.web2py.com/" style="float: left; padding-right: 6px;">\\n\\t    <img src="\', escape=False)\nresponse.write(URL(\'static\',\'images/poweredby.png\'))\nresponse.write(\'"/>\\n\\t  </a>\\n\\t  \', escape=False)\nresponse.write(T(\'Copyright\'))\nresponse.write(\' &#169; 2010\\t\\t\\t\\t\\n\\t  <div style="clear: both;"></div><!-- Clear the divs -->\\n\\t  \', escape=False)\nresponse.write(\'\\n\\n\\t</div><!-- footer -->\\t\\t\\t\\n      </div><!-- wrapper -->\\n    </div><!-- container -->\\t\\t\\n    \\n    <!--[if lt IE 7 ]>\\n\\t<script src="\', escape=False)\nresponse.write(URL(\'static\',\'js/dd_belatedpng.js\'))\nresponse.write(\'"></script>\\n\\t<script> DD_belatedPNG.fix(\\\'img, .png_bg\\\'); //fix any <img> or .png_bg background-images </script>\\n\\t<![endif]-->\\n    \\n    <!-- asynchronous google analytics: mathiasbynens.be/notes/async-analytics-snippet \\n\\t change the UA-XXXXX-X to be your site\\\'s ID -->\\n    <!--   \\n\\t   <script>\\n\\t     var _gaq = [[\\\'_setAccount\\\', \\\'UA-XXXXX-X\\\'], [\\\'_trackPageview\\\']];\\n\\t     (function(d, t) {\\n\\t     var g = d.createElement(t),\\n\\t     s = d.getElementsByTagName(t)[0];\\n\\t     g.async = true;\\n\\t     g.src = \\\'//www.google-analytics.com/ga.js\\\';\\n\\t     s.parentNode.insertBefore(g, s);\\n\\t     })(document, \\\'script\\\');\\n\\t   </script>\\n\\t   -->    \\n  </body>\\n</html>\\n\', escape=False)'
p6
sS'snapshot'
p7
(dp8
S'exception'
p9
(dp10
S'__getslice__'
p11
S"<method-wrapper '__getslice__' of exceptions.SyntaxError object at 0x06D96D30>"
p12
sS'text'
p13
S'\'    response.write(LI(A("%s",%(row.name),_href=URL(r=request,f="q1f",))))\\n\''
p14
sS'__str__'
p15
S"<method-wrapper '__str__' of exceptions.SyntaxError object at 0x06D96D30>"
p16
sS'__reduce__'
p17
S'<built-in method __reduce__ of exceptions.SyntaxError object at 0x06D96D30>'
p18
sS'__dict__'
p19
S'{}'
p20
sS'__init__'
p21
S"<method-wrapper '__init__' of exceptions.SyntaxError object at 0x06D96D30>"
p22
sS'__setattr__'
p23
S"<method-wrapper '__setattr__' of exceptions.SyntaxError object at 0x06D96D30>"
p24
sS'__reduce_ex__'
p25
S'<built-in method __reduce_ex__ of exceptions.SyntaxError object at 0x06D96D30>'
p26
sS'__new__'
p27
S'<built-in method __new__ of type object at 0x1E1CDBD0>'
p28
sS'__class__'
p29
S"<type 'exceptions.SyntaxError'>"
p30
sS'filename'
p31
S"r'C:\\Users\\AKSHAY\\Desktop\\web2py\\applications\\201056161\\views\\default/q2s.html'"
p32
sS'lineno'
p33
S'103'
p34
sS'msg'
p35
S"'invalid syntax'"
p36
sS'__doc__'
p37
S"'Invalid syntax.'"
p38
sS'__getitem__'
p39
S"<method-wrapper '__getitem__' of exceptions.SyntaxError object at 0x06D96D30>"
p40
sS'__setstate__'
p41
S'<built-in method __setstate__ of exceptions.SyntaxError object at 0x06D96D30>'
p42
sS'__getattribute__'
p43
S"<method-wrapper '__getattribute__' of exceptions.SyntaxError object at 0x06D96D30>"
p44
sS'print_file_and_line'
p45
S'None'
p46
sS'args'
p47
S'(\'invalid syntax\', (r\'C:\\Users\\AKSHAY\\Desktop\\web2py\\applications\\201056161\\views\\default/q2s.html\', 103, 30, \'    response.write(LI(A("%s",%(row.name),_href=URL(r=request,f="q1f",))))\\n\'))'
p48
sS'offset'
p49
S'30'
p50
sS'__delattr__'
p51
S"<method-wrapper '__delattr__' of exceptions.SyntaxError object at 0x06D96D30>"
p52
sS'__repr__'
p53
S"<method-wrapper '__repr__' of exceptions.SyntaxError object at 0x06D96D30>"
p54
sS'__hash__'
p55
S"<method-wrapper '__hash__' of exceptions.SyntaxError object at 0x06D96D30>"
p56
ssS'evalue'
p57
S'invalid syntax (default/q2s.html, line 103)'
p58
sS'request'
p59
ccopy_reg
_reconstructor
p60
(cgluon.html
BEAUTIFY
p61
c__builtin__
object
p62
NtRp63
(dp64
S'attributes'
p65
(dp66
sS'components'
p67
(lp68
g60
(cgluon.html
TABLE
p69
g62
NtRp70
(dp71
g65
(dp72
S'level'
p73
I5
ssS'parent'
p74
Nsg67
(lp75
g60
(cgluon.html
TR
p76
g62
NtRp77
(dp78
g65
(dp79
sg74
g70
sg67
(lp80
g60
(cgluon.html
TD
p81
g62
NtRp82
(dp83
g65
(dp84
S'_style'
p85
S'font-weight:bold;'
p86
ssg74
g77
sg67
(lp87
S'ajax'
p88
asbag60
(g81
g62
NtRp89
(dp90
g65
(dp91
S'_valign'
p92
S'top'
p93
ssg74
g77
sg67
(lp94
S':'
asbag60
(g81
g62
NtRp95
(dp96
g65
(dp97
sg74
g77
sg67
(lp98
g60
(g61
g62
NtRp99
(dp100
g65
(dp101
g73
I5
ssg74
g95
sg67
(lp102
S'False'
p103
asbasbasbag60
(g76
g62
NtRp104
(dp105
g65
(dp106
sg74
g70
sg67
(lp107
g60
(g81
g62
NtRp108
(dp109
g65
(dp110
g85
g86
ssg74
g104
sg67
(lp111
S'application'
p112
asbag60
(g81
g62
NtRp113
(dp114
g65
(dp115
g92
g93
ssg74
g104
sg67
(lp116
S':'
asbag60
(g81
g62
NtRp117
(dp118
g65
(dp119
sg74
g104
sg67
(lp120
g60
(g61
g62
NtRp121
(dp122
g65
(dp123
g73
I5
ssg74
g117
sg67
(lp124
S'201056161'
p125
asbasbasbag60
(g76
g62
NtRp126
(dp127
g65
(dp128
sg74
g70
sg67
(lp129
g60
(g81
g62
NtRp130
(dp131
g65
(dp132
g85
g86
ssg74
g126
sg67
(lp133
g47
asbag60
(g81
g62
NtRp134
(dp135
g65
(dp136
g92
g93
ssg74
g126
sg67
(lp137
S':'
asbag60
(g81
g62
NtRp138
(dp139
g65
(dp140
sg74
g126
sg67
(lp141
g60
(g61
g62
NtRp142
(dp143
g65
(dp144
g73
I5
ssg74
g138
sg67
(lp145
g60
(g69
g62
NtRp146
(dp147
g65
(dp148
g73
I4
ssg74
Nsg67
(lp149
sbasbasbasbag60
(g76
g62
NtRp150
(dp151
g65
(dp152
sg74
g70
sg67
(lp153
g60
(g81
g62
NtRp154
(dp155
g65
(dp156
g85
g86
ssg74
g150
sg67
(lp157
S'body'
p158
asbag60
(g81
g62
NtRp159
(dp160
g65
(dp161
g92
g93
ssg74
g150
sg67
(lp162
S':'
asbag60
(g81
g62
NtRp163
(dp164
g65
(dp165
sg74
g150
sg67
(lp166
g60
(g61
g62
NtRp167
(dp168
g65
(dp169
g73
I5
ssg74
g163
sg67
(lp170
S'<cStringIO.StringO object at 0x07664820>'
p171
asbasbasbag60
(g76
g62
NtRp172
(dp173
g65
(dp174
sg74
g70
sg67
(lp175
g60
(g81
g62
NtRp176
(dp177
g65
(dp178
g85
g86
ssg74
g172
sg67
(lp179
S'client'
p180
asbag60
(g81
g62
NtRp181
(dp182
g65
(dp183
g92
g93
ssg74
g172
sg67
(lp184
S':'
asbag60
(g81
g62
NtRp185
(dp186
g65
(dp187
sg74
g172
sg67
(lp188
g60
(g61
g62
NtRp189
(dp190
g65
(dp191
g73
I5
ssg74
g185
sg67
(lp192
S'127.0.0.1'
p193
asbasbasbag60
(g76
g62
NtRp194
(dp195
g65
(dp196
sg74
g70
sg67
(lp197
g60
(g81
g62
NtRp198
(dp199
g65
(dp200
g85
g86
ssg74
g194
sg67
(lp201
S'controller'
p202
asbag60
(g81
g62
NtRp203
(dp204
g65
(dp205
g92
g93
ssg74
g194
sg67
(lp206
S':'
asbag60
(g81
g62
NtRp207
(dp208
g65
(dp209
sg74
g194
sg67
(lp210
g60
(g61
g62
NtRp211
(dp212
g65
(dp213
g73
I5
ssg74
g207
sg67
(lp214
S'default'
p215
asbasbasbag60
(g76
g62
NtRp216
(dp217
g65
(dp218
sg74
g70
sg67
(lp219
g60
(g81
g62
NtRp220
(dp221
g65
(dp222
g85
g86
ssg74
g216
sg67
(lp223
S'cookies'
p224
asbag60
(g81
g62
NtRp225
(dp226
g65
(dp227
g92
g93
ssg74
g216
sg67
(lp228
S':'
asbag60
(g81
g62
NtRp229
(dp230
g65
(dp231
sg74
g216
sg67
(lp232
g60
(g61
g62
NtRp233
(dp234
g65
(dp235
g73
I5
ssg74
g229
sg67
(lp236
g60
(g69
g62
NtRp237
(dp238
g65
(dp239
g73
I4
ssg74
Nsg67
(lp240
g60
(g76
g62
NtRp241
(dp242
g65
(dp243
sg74
g237
sg67
(lp244
g60
(g81
g62
NtRp245
(dp246
g65
(dp247
g85
g86
ssg74
g241
sg67
(lp248
S'session_id_201056161'
p249
asbag60
(g81
g62
NtRp250
(dp251
g65
(dp252
g92
g93
ssg74
g241
sg67
(lp253
S':'
asbag60
(g81
g62
NtRp254
(dp255
g65
(dp256
sg74
g241
sg67
(lp257
g60
(g61
g62
NtRp258
(dp259
g65
(dp260
g73
I4
ssg74
g254
sg67
(lp261
g60
(g69
g62
NtRp262
(dp263
g65
(dp264
g73
I3
ssg74
Nsg67
(lp265
g60
(g76
g62
NtRp266
(dp267
g65
(dp268
sg74
g262
sg67
(lp269
g60
(g81
g62
NtRp270
(dp271
g65
(dp272
g85
g86
ssg74
g266
sg67
(lp273
S'comment'
p274
asbag60
(g81
g62
NtRp275
(dp276
g65
(dp277
g92
g93
ssg74
g266
sg67
(lp278
S':'
asbag60
(g81
g62
NtRp279
(dp280
g65
(dp281
sg74
g266
sg67
(lp282
g60
(g61
g62
NtRp283
(dp284
g65
(dp285
g73
I3
ssg74
g279
sg67
(lp286
S''
asbasbasbag60
(g76
g62
NtRp287
(dp288
g65
(dp289
sg74
g262
sg67
(lp290
g60
(g81
g62
NtRp291
(dp292
g65
(dp293
g85
g86
ssg74
g287
sg67
(lp294
S'domain'
p295
asbag60
(g81
g62
NtRp296
(dp297
g65
(dp298
g92
g93
ssg74
g287
sg67
(lp299
S':'
asbag60
(g81
g62
NtRp300
(dp301
g65
(dp302
sg74
g287
sg67
(lp303
g60
(g61
g62
NtRp304
(dp305
g65
(dp306
g73
I3
ssg74
g300
sg67
(lp307
S''
asbasbasbag60
(g76
g62
NtRp308
(dp309
g65
(dp310
sg74
g262
sg67
(lp311
g60
(g81
g62
NtRp312
(dp313
g65
(dp314
g85
g86
ssg74
g308
sg67
(lp315
S'expires'
p316
asbag60
(g81
g62
NtRp317
(dp318
g65
(dp319
g92
g93
ssg74
g308
sg67
(lp320
S':'
asbag60
(g81
g62
NtRp321
(dp322
g65
(dp323
sg74
g308
sg67
(lp324
g60
(g61
g62
NtRp325
(dp326
g65
(dp327
g73
I3
ssg74
g321
sg67
(lp328
S''
asbasbasbag60
(g76
g62
NtRp329
(dp330
g65
(dp331
sg74
g262
sg67
(lp332
g60
(g81
g62
NtRp333
(dp334
g65
(dp335
g85
g86
ssg74
g329
sg67
(lp336
S'max-age'
p337
asbag60
(g81
g62
NtRp338
(dp339
g65
(dp340
g92
g93
ssg74
g329
sg67
(lp341
S':'
asbag60
(g81
g62
NtRp342
(dp343
g65
(dp344
sg74
g329
sg67
(lp345
g60
(g61
g62
NtRp346
(dp347
g65
(dp348
g73
I3
ssg74
g342
sg67
(lp349
S''
asbasbasbag60
(g76
g62
NtRp350
(dp351
g65
(dp352
sg74
g262
sg67
(lp353
g60
(g81
g62
NtRp354
(dp355
g65
(dp356
g85
g86
ssg74
g350
sg67
(lp357
S'path'
p358
asbag60
(g81
g62
NtRp359
(dp360
g65
(dp361
g92
g93
ssg74
g350
sg67
(lp362
S':'
asbag60
(g81
g62
NtRp363
(dp364
g65
(dp365
sg74
g350
sg67
(lp366
g60
(g61
g62
NtRp367
(dp368
g65
(dp369
g73
I3
ssg74
g363
sg67
(lp370
S''
asbasbasbag60
(g76
g62
NtRp371
(dp372
g65
(dp373
sg74
g262
sg67
(lp374
g60
(g81
g62
NtRp375
(dp376
g65
(dp377
g85
g86
ssg74
g371
sg67
(lp378
S'secure'
p379
asbag60
(g81
g62
NtRp380
(dp381
g65
(dp382
g92
g93
ssg74
g371
sg67
(lp383
S':'
asbag60
(g81
g62
NtRp384
(dp385
g65
(dp386
sg74
g371
sg67
(lp387
g60
(g61
g62
NtRp388
(dp389
g65
(dp390
g73
I3
ssg74
g384
sg67
(lp391
S''
asbasbasbag60
(g76
g62
NtRp392
(dp393
g65
(dp394
sg74
g262
sg67
(lp395
g60
(g81
g62
NtRp396
(dp397
g65
(dp398
g85
g86
ssg74
g392
sg67
(lp399
S'version'
p400
asbag60
(g81
g62
NtRp401
(dp402
g65
(dp403
g92
g93
ssg74
g392
sg67
(lp404
S':'
asbag60
(g81
g62
NtRp405
(dp406
g65
(dp407
sg74
g392
sg67
(lp408
g60
(g61
g62
NtRp409
(dp410
g65
(dp411
g73
I3
ssg74
g405
sg67
(lp412
S''
asbasbasbasbasbasbasbag60
(g76
g62
NtRp413
(dp414
g65
(dp415
sg74
g237
sg67
(lp416
g60
(g81
g62
NtRp417
(dp418
g65
(dp419
g85
g86
ssg74
g413
sg67
(lp420
S'session_id_admin'
p421
asbag60
(g81
g62
NtRp422
(dp423
g65
(dp424
g92
g93
ssg74
g413
sg67
(lp425
S':'
asbag60
(g81
g62
NtRp426
(dp427
g65
(dp428
sg74
g413
sg67
(lp429
g60
(g61
g62
NtRp430
(dp431
g65
(dp432
g73
I4
ssg74
g426
sg67
(lp433
g60
(g69
g62
NtRp434
(dp435
g65
(dp436
g73
I3
ssg74
Nsg67
(lp437
g60
(g76
g62
NtRp438
(dp439
g65
(dp440
sg74
g434
sg67
(lp441
g60
(g81
g62
NtRp442
(dp443
g65
(dp444
g85
g86
ssg74
g438
sg67
(lp445
g274
asbag60
(g81
g62
NtRp446
(dp447
g65
(dp448
g92
g93
ssg74
g438
sg67
(lp449
S':'
asbag60
(g81
g62
NtRp450
(dp451
g65
(dp452
sg74
g438
sg67
(lp453
g60
(g61
g62
NtRp454
(dp455
g65
(dp456
g73
I3
ssg74
g450
sg67
(lp457
S''
asbasbasbag60
(g76
g62
NtRp458
(dp459
g65
(dp460
sg74
g434
sg67
(lp461
g60
(g81
g62
NtRp462
(dp463
g65
(dp464
g85
g86
ssg74
g458
sg67
(lp465
g295
asbag60
(g81
g62
NtRp466
(dp467
g65
(dp468
g92
g93
ssg74
g458
sg67
(lp469
S':'
asbag60
(g81
g62
NtRp470
(dp471
g65
(dp472
sg74
g458
sg67
(lp473
g60
(g61
g62
NtRp474
(dp475
g65
(dp476
g73
I3
ssg74
g470
sg67
(lp477
S''
asbasbasbag60
(g76
g62
NtRp478
(dp479
g65
(dp480
sg74
g434
sg67
(lp481
g60
(g81
g62
NtRp482
(dp483
g65
(dp484
g85
g86
ssg74
g478
sg67
(lp485
g316
asbag60
(g81
g62
NtRp486
(dp487
g65
(dp488
g92
g93
ssg74
g478
sg67
(lp489
S':'
asbag60
(g81
g62
NtRp490
(dp491
g65
(dp492
sg74
g478
sg67
(lp493
g60
(g61
g62
NtRp494
(dp495
g65
(dp496
g73
I3
ssg74
g490
sg67
(lp497
S''
asbasbasbag60
(g76
g62
NtRp498
(dp499
g65
(dp500
sg74
g434
sg67
(lp501
g60
(g81
g62
NtRp502
(dp503
g65
(dp504
g85
g86
ssg74
g498
sg67
(lp505
g337
asbag60
(g81
g62
NtRp506
(dp507
g65
(dp508
g92
g93
ssg74
g498
sg67
(lp509
S':'
asbag60
(g81
g62
NtRp510
(dp511
g65
(dp512
sg74
g498
sg67
(lp513
g60
(g61
g62
NtRp514
(dp515
g65
(dp516
g73
I3
ssg74
g510
sg67
(lp517
S''
asbasbasbag60
(g76
g62
NtRp518
(dp519
g65
(dp520
sg74
g434
sg67
(lp521
g60
(g81
g62
NtRp522
(dp523
g65
(dp524
g85
g86
ssg74
g518
sg67
(lp525
g358
asbag60
(g81
g62
NtRp526
(dp527
g65
(dp528
g92
g93
ssg74
g518
sg67
(lp529
S':'
asbag60
(g81
g62
NtRp530
(dp531
g65
(dp532
sg74
g518
sg67
(lp533
g60
(g61
g62
NtRp534
(dp535
g65
(dp536
g73
I3
ssg74
g530
sg67
(lp537
S''
asbasbasbag60
(g76
g62
NtRp538
(dp539
g65
(dp540
sg74
g434
sg67
(lp541
g60
(g81
g62
NtRp542
(dp543
g65
(dp544
g85
g86
ssg74
g538
sg67
(lp545
g379
asbag60
(g81
g62
NtRp546
(dp547
g65
(dp548
g92
g93
ssg74
g538
sg67
(lp549
S':'
asbag60
(g81
g62
NtRp550
(dp551
g65
(dp552
sg74
g538
sg67
(lp553
g60
(g61
g62
NtRp554
(dp555
g65
(dp556
g73
I3
ssg74
g550
sg67
(lp557
S''
asbasbasbag60
(g76
g62
NtRp558
(dp559
g65
(dp560
sg74
g434
sg67
(lp561
g60
(g81
g62
NtRp562
(dp563
g65
(dp564
g85
g86
ssg74
g558
sg67
(lp565
g400
asbag60
(g81
g62
NtRp566
(dp567
g65
(dp568
g92
g93
ssg74
g558
sg67
(lp569
S':'
asbag60
(g81
g62
NtRp570
(dp571
g65
(dp572
sg74
g558
sg67
(lp573
g60
(g61
g62
NtRp574
(dp575
g65
(dp576
g73
I3
ssg74
g570
sg67
(lp577
S''
asbasbasbasbasbasbasbag60
(g76
g62
NtRp578
(dp579
g65
(dp580
sg74
g237
sg67
(lp581
g60
(g81
g62
NtRp582
(dp583
g65
(dp584
g85
g86
ssg74
g578
sg67
(lp585
S'session_id_welcome'
p586
asbag60
(g81
g62
NtRp587
(dp588
g65
(dp589
g92
g93
ssg74
g578
sg67
(lp590
S':'
asbag60
(g81
g62
NtRp591
(dp592
g65
(dp593
sg74
g578
sg67
(lp594
g60
(g61
g62
NtRp595
(dp596
g65
(dp597
g73
I4
ssg74
g591
sg67
(lp598
g60
(g69
g62
NtRp599
(dp600
g65
(dp601
g73
I3
ssg74
Nsg67
(lp602
g60
(g76
g62
NtRp603
(dp604
g65
(dp605
sg74
g599
sg67
(lp606
g60
(g81
g62
NtRp607
(dp608
g65
(dp609
g85
g86
ssg74
g603
sg67
(lp610
g274
asbag60
(g81
g62
NtRp611
(dp612
g65
(dp613
g92
g93
ssg74
g603
sg67
(lp614
S':'
asbag60
(g81
g62
NtRp615
(dp616
g65
(dp617
sg74
g603
sg67
(lp618
g60
(g61
g62
NtRp619
(dp620
g65
(dp621
g73
I3
ssg74
g615
sg67
(lp622
S''
asbasbasbag60
(g76
g62
NtRp623
(dp624
g65
(dp625
sg74
g599
sg67
(lp626
g60
(g81
g62
NtRp627
(dp628
g65
(dp629
g85
g86
ssg74
g623
sg67
(lp630
g295
asbag60
(g81
g62
NtRp631
(dp632
g65
(dp633
g92
g93
ssg74
g623
sg67
(lp634
S':'
asbag60
(g81
g62
NtRp635
(dp636
g65
(dp637
sg74
g623
sg67
(lp638
g60
(g61
g62
NtRp639
(dp640
g65
(dp641
g73
I3
ssg74
g635
sg67
(lp642
S''
asbasbasbag60
(g76
g62
NtRp643
(dp644
g65
(dp645
sg74
g599
sg67
(lp646
g60
(g81
g62
NtRp647
(dp648
g65
(dp649
g85
g86
ssg74
g643
sg67
(lp650
g316
asbag60
(g81
g62
NtRp651
(dp652
g65
(dp653
g92
g93
ssg74
g643
sg67
(lp654
S':'
asbag60
(g81
g62
NtRp655
(dp656
g65
(dp657
sg74
g643
sg67
(lp658
g60
(g61
g62
NtRp659
(dp660
g65
(dp661
g73
I3
ssg74
g655
sg67
(lp662
S''
asbasbasbag60
(g76
g62
NtRp663
(dp664
g65
(dp665
sg74
g599
sg67
(lp666
g60
(g81
g62
NtRp667
(dp668
g65
(dp669
g85
g86
ssg74
g663
sg67
(lp670
g337
asbag60
(g81
g62
NtRp671
(dp672
g65
(dp673
g92
g93
ssg74
g663
sg67
(lp674
S':'
asbag60
(g81
g62
NtRp675
(dp676
g65
(dp677
sg74
g663
sg67
(lp678
g60
(g61
g62
NtRp679
(dp680
g65
(dp681
g73
I3
ssg74
g675
sg67
(lp682
S''
asbasbasbag60
(g76
g62
NtRp683
(dp684
g65
(dp685
sg74
g599
sg67
(lp686
g60
(g81
g62
NtRp687
(dp688
g65
(dp689
g85
g86
ssg74
g683
sg67
(lp690
g358
asbag60
(g81
g62
NtRp691
(dp692
g65
(dp693
g92
g93
ssg74
g683
sg67
(lp694
S':'
asbag60
(g81
g62
NtRp695
(dp696
g65
(dp697
sg74
g683
sg67
(lp698
g60
(g61
g62
NtRp699
(dp700
g65
(dp701
g73
I3
ssg74
g695
sg67
(lp702
S''
asbasbasbag60
(g76
g62
NtRp703
(dp704
g65
(dp705
sg74
g599
sg67
(lp706
g60
(g81
g62
NtRp707
(dp708
g65
(dp709
g85
g86
ssg74
g703
sg67
(lp710
g379
asbag60
(g81
g62
NtRp711
(dp712
g65
(dp713
g92
g93
ssg74
g703
sg67
(lp714
S':'
asbag60
(g81
g62
NtRp715
(dp716
g65
(dp717
sg74
g703
sg67
(lp718
g60
(g61
g62
NtRp719
(dp720
g65
(dp721
g73
I3
ssg74
g715
sg67
(lp722
S''
asbasbasbag60
(g76
g62
NtRp723
(dp724
g65
(dp725
sg74
g599
sg67
(lp726
g60
(g81
g62
NtRp727
(dp728
g65
(dp729
g85
g86
ssg74
g723
sg67
(lp730
g400
asbag60
(g81
g62
NtRp731
(dp732
g65
(dp733
g92
g93
ssg74
g723
sg67
(lp734
S':'
asbag60
(g81
g62
NtRp735
(dp736
g65
(dp737
sg74
g723
sg67
(lp738
g60
(g61
g62
NtRp739
(dp740
g65
(dp741
g73
I3
ssg74
g735
sg67
(lp742
S''
asbasbasbasbasbasbasbasbasbasbasbag60
(g76
g62
NtRp743
(dp744
g65
(dp745
sg74
g70
sg67
(lp746
g60
(g81
g62
NtRp747
(dp748
g65
(dp749
g85
g86
ssg74
g743
sg67
(lp750
S'env'
p751
asbag60
(g81
g62
NtRp752
(dp753
g65
(dp754
g92
g93
ssg74
g743
sg67
(lp755
S':'
asbag60
(g81
g62
NtRp756
(dp757
g65
(dp758
sg74
g743
sg67
(lp759
g60
(g61
g62
NtRp760
(dp761
g65
(dp762
g73
I5
ssg74
g756
sg67
(lp763
g60
(g69
g62
NtRp764
(dp765
g65
(dp766
g73
I4
ssg74
Nsg67
(lp767
g60
(g76
g62
NtRp768
(dp769
g65
(dp770
sg74
g764
sg67
(lp771
g60
(g81
g62
NtRp772
(dp773
g65
(dp774
g85
g86
ssg74
g768
sg67
(lp775
S'app_folders'
p776
asbag60
(g81
g62
NtRp777
(dp778
g65
(dp779
g92
g93
ssg74
g768
sg67
(lp780
S':'
asbag60
(g81
g62
NtRp781
(dp782
g65
(dp783
sg74
g768
sg67
(lp784
g60
(g61
g62
NtRp785
(dp786
g65
(dp787
g73
I4
ssg74
g781
sg67
(lp788
S"set(['C:\\\\Users\\\\AKSHAY\\\\Desktop\\\\web2py\\\\applications\\\\welcome\\\\', 'C:\\\\Users\\\\AKSHAY\\\\Desktop\\\\web2py\\\\applications\\\\201056161\\\\', 'C:\\\\Users\\\\AKSHAY\\\\Desktop\\\\web2py\\\\applications\\\\examples\\\\', 'C:\\\\Users\\\\AKSHAY\\\\Desktop\\\\web2py\\\\applications\\\\admin\\\\', 'C:\\\\Users\\\\AKSHAY\\\\Desktop\\\\web2py\\\\applications\\\\MusicRepo\\\\'])"
p789
asbasbasbag60
(g76
g62
NtRp790
(dp791
g65
(dp792
sg74
g764
sg67
(lp793
g60
(g81
g62
NtRp794
(dp795
g65
(dp796
g85
g86
ssg74
g790
sg67
(lp797
S'applications_parent'
p798
asbag60
(g81
g62
NtRp799
(dp800
g65
(dp801
g92
g93
ssg74
g790
sg67
(lp802
S':'
asbag60
(g81
g62
NtRp803
(dp804
g65
(dp805
sg74
g790
sg67
(lp806
g60
(g61
g62
NtRp807
(dp808
g65
(dp809
g73
I4
ssg74
g803
sg67
(lp810
S'C:\\Users\\AKSHAY\\Desktop\\web2py'
p811
asbasbasbag60
(g76
g62
NtRp812
(dp813
g65
(dp814
sg74
g764
sg67
(lp815
g60
(g81
g62
NtRp816
(dp817
g65
(dp818
g85
g86
ssg74
g812
sg67
(lp819
S'cmd_args'
p820
asbag60
(g81
g62
NtRp821
(dp822
g65
(dp823
g92
g93
ssg74
g812
sg67
(lp824
S':'
asbag60
(g81
g62
NtRp825
(dp826
g65
(dp827
sg74
g812
sg67
(lp828
g60
(g61
g62
NtRp829
(dp830
g65
(dp831
g73
I4
ssg74
g825
sg67
(lp832
g60
(g69
g62
NtRp833
(dp834
g65
(dp835
g73
I3
ssg74
Nsg67
(lp836
sbasbasbasbag60
(g76
g62
NtRp837
(dp838
g65
(dp839
sg74
g764
sg67
(lp840
g60
(g81
g62
NtRp841
(dp842
g65
(dp843
g85
g86
ssg74
g837
sg67
(lp844
S'cmd_options'
p845
asbag60
(g81
g62
NtRp846
(dp847
g65
(dp848
g92
g93
ssg74
g837
sg67
(lp849
S':'
asbag60
(g81
g62
NtRp850
(dp851
g65
(dp852
sg74
g837
sg67
(lp853
g60
(g61
g62
NtRp854
(dp855
g65
(dp856
g73
I4
ssg74
g850
sg67
(lp857
S"<Values at 0x317dfd0: {'verbose': False, 'ip': '127.0.0.1', 'shutdown_timeout': 5, 'taskbar': False, 'port': 8000, 'maxthreads': None, 'softcron': False, 'server_name': 'AKSHAY-PC', 'bpython': False, 'nogui': False, 'nocron': False, 'extcron': False, 'debuglevel': 30, 'test': None, 'folder': 'C:\\\\Users\\\\AKSHAY\\\\Desktop\\\\web2py', 'config': '', 'import_models': False, 'winservice': '', 'shell': None, 'run': '', 'log_filename': 'httpserver.log', 'args': [''], 'profiler_filename': None, 'ssl_private_key': '', 'password': '<ask>', 'request_queue_size': 5, 'ssl_certificate': '', 'cronjob': False, 'plain': False, 'quiet': False, 'interfaces': None, 'minthreads': None, 'timeout': 10, 'numthreads': None, 'nobanner': False, 'pid_filename': 'httpserver.pid'}>"
p858
asbasbasbag60
(g76
g62
NtRp859
(dp860
g65
(dp861
sg74
g764
sg67
(lp862
g60
(g81
g62
NtRp863
(dp864
g65
(dp865
g85
g86
ssg74
g859
sg67
(lp866
S'db_sessions'
p867
asbag60
(g81
g62
NtRp868
(dp869
g65
(dp870
g92
g93
ssg74
g859
sg67
(lp871
S':'
asbag60
(g81
g62
NtRp872
(dp873
g65
(dp874
sg74
g859
sg67
(lp875
g60
(g61
g62
NtRp876
(dp877
g65
(dp878
g73
I4
ssg74
g872
sg67
(lp879
S'set([])'
p880
asbasbasbag60
(g76
g62
NtRp881
(dp882
g65
(dp883
sg74
g764
sg67
(lp884
g60
(g81
g62
NtRp885
(dp886
g65
(dp887
g85
g86
ssg74
g881
sg67
(lp888
S'debugging'
p889
asbag60
(g81
g62
NtRp890
(dp891
g65
(dp892
g92
g93
ssg74
g881
sg67
(lp893
S':'
asbag60
(g81
g62
NtRp894
(dp895
g65
(dp896
sg74
g881
sg67
(lp897
g60
(g61
g62
NtRp898
(dp899
g65
(dp900
g73
I4
ssg74
g894
sg67
(lp901
g103
asbasbasbag60
(g76
g62
NtRp902
(dp903
g65
(dp904
sg74
g764
sg67
(lp905
g60
(g81
g62
NtRp906
(dp907
g65
(dp908
g85
g86
ssg74
g902
sg67
(lp909
S'gluon_parent'
p910
asbag60
(g81
g62
NtRp911
(dp912
g65
(dp913
g92
g93
ssg74
g902
sg67
(lp914
S':'
asbag60
(g81
g62
NtRp915
(dp916
g65
(dp917
sg74
g902
sg67
(lp918
g60
(g61
g62
NtRp919
(dp920
g65
(dp921
g73
I4
ssg74
g915
sg67
(lp922
S'C:\\Users\\AKSHAY\\Desktop\\web2py'
p923
asbasbasbag60
(g76
g62
NtRp924
(dp925
g65
(dp926
sg74
g764
sg67
(lp927
g60
(g81
g62
NtRp928
(dp929
g65
(dp930
g85
g86
ssg74
g924
sg67
(lp931
S'http_accept'
p932
asbag60
(g81
g62
NtRp933
(dp934
g65
(dp935
g92
g93
ssg74
g924
sg67
(lp936
S':'
asbag60
(g81
g62
NtRp937
(dp938
g65
(dp939
sg74
g924
sg67
(lp940
g60
(g61
g62
NtRp941
(dp942
g65
(dp943
g73
I4
ssg74
g937
sg67
(lp944
S'text/html,application/xhtml+xml,application/xml;q=0.9,*/*;q=0.8'
p945
asbasbasbag60
(g76
g62
NtRp946
(dp947
g65
(dp948
sg74
g764
sg67
(lp949
g60
(g81
g62
NtRp950
(dp951
g65
(dp952
g85
g86
ssg74
g946
sg67
(lp953
S'http_accept_charset'
p954
asbag60
(g81
g62
NtRp955
(dp956
g65
(dp957
g92
g93
ssg74
g946
sg67
(lp958
S':'
asbag60
(g81
g62
NtRp959
(dp960
g65
(dp961
sg74
g946
sg67
(lp962
g60
(g61
g62
NtRp963
(dp964
g65
(dp965
g73
I4
ssg74
g959
sg67
(lp966
S'ISO-8859-1,utf-8;q=0.7,*;q=0.3'
p967
asbasbasbag60
(g76
g62
NtRp968
(dp969
g65
(dp970
sg74
g764
sg67
(lp971
g60
(g81
g62
NtRp972
(dp973
g65
(dp974
g85
g86
ssg74
g968
sg67
(lp975
S'http_accept_encoding'
p976
asbag60
(g81
g62
NtRp977
(dp978
g65
(dp979
g92
g93
ssg74
g968
sg67
(lp980
S':'
asbag60
(g81
g62
NtRp981
(dp982
g65
(dp983
sg74
g968
sg67
(lp984
g60
(g61
g62
NtRp985
(dp986
g65
(dp987
g73
I4
ssg74
g981
sg67
(lp988
S'gzip,deflate,sdch'
p989
asbasbasbag60
(g76
g62
NtRp990
(dp991
g65
(dp992
sg74
g764
sg67
(lp993
g60
(g81
g62
NtRp994
(dp995
g65
(dp996
g85
g86
ssg74
g990
sg67
(lp997
S'http_accept_language'
p998
asbag60
(g81
g62
NtRp999
(dp1000
g65
(dp1001
g92
g93
ssg74
g990
sg67
(lp1002
S':'
asbag60
(g81
g62
NtRp1003
(dp1004
g65
(dp1005
sg74
g990
sg67
(lp1006
g60
(g61
g62
NtRp1007
(dp1008
g65
(dp1009
g73
I4
ssg74
g1003
sg67
(lp1010
S'en-US,en;q=0.8'
p1011
asbasbasbag60
(g76
g62
NtRp1012
(dp1013
g65
(dp1014
sg74
g764
sg67
(lp1015
g60
(g81
g62
NtRp1016
(dp1017
g65
(dp1018
g85
g86
ssg74
g1012
sg67
(lp1019
S'http_cache_control'
p1020
asbag60
(g81
g62
NtRp1021
(dp1022
g65
(dp1023
g92
g93
ssg74
g1012
sg67
(lp1024
S':'
asbag60
(g81
g62
NtRp1025
(dp1026
g65
(dp1027
sg74
g1012
sg67
(lp1028
g60
(g61
g62
NtRp1029
(dp1030
g65
(dp1031
g73
I4
ssg74
g1025
sg67
(lp1032
S'max-age=0'
p1033
asbasbasbag60
(g76
g62
NtRp1034
(dp1035
g65
(dp1036
sg74
g764
sg67
(lp1037
g60
(g81
g62
NtRp1038
(dp1039
g65
(dp1040
g85
g86
ssg74
g1034
sg67
(lp1041
S'http_connection'
p1042
asbag60
(g81
g62
NtRp1043
(dp1044
g65
(dp1045
g92
g93
ssg74
g1034
sg67
(lp1046
S':'
asbag60
(g81
g62
NtRp1047
(dp1048
g65
(dp1049
sg74
g1034
sg67
(lp1050
g60
(g61
g62
NtRp1051
(dp1052
g65
(dp1053
g73
I4
ssg74
g1047
sg67
(lp1054
S'keep-alive'
p1055
asbasbasbag60
(g76
g62
NtRp1056
(dp1057
g65
(dp1058
sg74
g764
sg67
(lp1059
g60
(g81
g62
NtRp1060
(dp1061
g65
(dp1062
g85
g86
ssg74
g1056
sg67
(lp1063
S'http_cookie'
p1064
asbag60
(g81
g62
NtRp1065
(dp1066
g65
(dp1067
g92
g93
ssg74
g1056
sg67
(lp1068
S':'
asbag60
(g81
g62
NtRp1069
(dp1070
g65
(dp1071
sg74
g1056
sg67
(lp1072
g60
(g61
g62
NtRp1073
(dp1074
g65
(dp1075
g73
I4
ssg74
g1069
sg67
(lp1076
S'session_id_welcome=127.0.0.1-59771078-5064-4769-bad5-36c10b98c15f; session_id_admin=127.0.0.1-0f74329a-39f0-47c2-95cf-7f42bb528a7b; session_id_201056161=127.0.0.1-3bc821ac-4d59-41c6-8699-b3e43edfc478'
p1077
asbasbasbag60
(g76
g62
NtRp1078
(dp1079
g65
(dp1080
sg74
g764
sg67
(lp1081
g60
(g81
g62
NtRp1082
(dp1083
g65
(dp1084
g85
g86
ssg74
g1078
sg67
(lp1085
S'http_host'
p1086
asbag60
(g81
g62
NtRp1087
(dp1088
g65
(dp1089
g92
g93
ssg74
g1078
sg67
(lp1090
S':'
asbag60
(g81
g62
NtRp1091
(dp1092
g65
(dp1093
sg74
g1078
sg67
(lp1094
g60
(g61
g62
NtRp1095
(dp1096
g65
(dp1097
g73
I4
ssg74
g1091
sg67
(lp1098
S'127.0.0.1:8000'
p1099
asbasbasbag60
(g76
g62
NtRp1100
(dp1101
g65
(dp1102
sg74
g764
sg67
(lp1103
g60
(g81
g62
NtRp1104
(dp1105
g65
(dp1106
g85
g86
ssg74
g1100
sg67
(lp1107
S'http_referer'
p1108
asbag60
(g81
g62
NtRp1109
(dp1110
g65
(dp1111
g92
g93
ssg74
g1100
sg67
(lp1112
S':'
asbag60
(g81
g62
NtRp1113
(dp1114
g65
(dp1115
sg74
g1100
sg67
(lp1116
g60
(g61
g62
NtRp1117
(dp1118
g65
(dp1119
g73
I4
ssg74
g1113
sg67
(lp1120
S'http://127.0.0.1:8000/201056161/default/q2f'
p1121
asbasbasbag60
(g76
g62
NtRp1122
(dp1123
g65
(dp1124
sg74
g764
sg67
(lp1125
g60
(g81
g62
NtRp1126
(dp1127
g65
(dp1128
g85
g86
ssg74
g1122
sg67
(lp1129
S'http_user_agent'
p1130
asbag60
(g81
g62
NtRp1131
(dp1132
g65
(dp1133
g92
g93
ssg74
g1122
sg67
(lp1134
S':'
asbag60
(g81
g62
NtRp1135
(dp1136
g65
(dp1137
sg74
g1122
sg67
(lp1138
g60
(g61
g62
NtRp1139
(dp1140
g65
(dp1141
g73
I4
ssg74
g1135
sg67
(lp1142
S'Mozilla/5.0 (Windows NT 6.1; WOW64) AppleWebKit/535.1 (KHTML, like Gecko) Chrome/13.0.782.218 Safari/535.1'
p1143
asbasbasbag60
(g76
g62
NtRp1144
(dp1145
g65
(dp1146
sg74
g764
sg67
(lp1147
g60
(g81
g62
NtRp1148
(dp1149
g65
(dp1150
g85
g86
ssg74
g1144
sg67
(lp1151
S'path_info'
p1152
asbag60
(g81
g62
NtRp1153
(dp1154
g65
(dp1155
g92
g93
ssg74
g1144
sg67
(lp1156
S':'
asbag60
(g81
g62
NtRp1157
(dp1158
g65
(dp1159
sg74
g1144
sg67
(lp1160
g60
(g61
g62
NtRp1161
(dp1162
g65
(dp1163
g73
I4
ssg74
g1157
sg67
(lp1164
S'/201056161/default/q2s'
p1165
asbasbasbag60
(g76
g62
NtRp1166
(dp1167
g65
(dp1168
sg74
g764
sg67
(lp1169
g60
(g81
g62
NtRp1170
(dp1171
g65
(dp1172
g85
g86
ssg74
g1166
sg67
(lp1173
S'query_string'
p1174
asbag60
(g81
g62
NtRp1175
(dp1176
g65
(dp1177
g92
g93
ssg74
g1166
sg67
(lp1178
S':'
asbag60
(g81
g62
NtRp1179
(dp1180
g65
(dp1181
sg74
g1166
sg67
(lp1182
g60
(g61
g62
NtRp1183
(dp1184
g65
(dp1185
g73
I4
ssg74
g1179
sg67
(lp1186
S'namen=9'
p1187
asbasbasbag60
(g76
g62
NtRp1188
(dp1189
g65
(dp1190
sg74
g764
sg67
(lp1191
g60
(g81
g62
NtRp1192
(dp1193
g65
(dp1194
g85
g86
ssg74
g1188
sg67
(lp1195
S'remote_addr'
p1196
asbag60
(g81
g62
NtRp1197
(dp1198
g65
(dp1199
g92
g93
ssg74
g1188
sg67
(lp1200
S':'
asbag60
(g81
g62
NtRp1201
(dp1202
g65
(dp1203
sg74
g1188
sg67
(lp1204
g60
(g61
g62
NtRp1205
(dp1206
g65
(dp1207
g73
I4
ssg74
g1201
sg67
(lp1208
g193
asbasbasbag60
(g76
g62
NtRp1209
(dp1210
g65
(dp1211
sg74
g764
sg67
(lp1212
g60
(g81
g62
NtRp1213
(dp1214
g65
(dp1215
g85
g86
ssg74
g1209
sg67
(lp1216
S'remote_port'
p1217
asbag60
(g81
g62
NtRp1218
(dp1219
g65
(dp1220
g92
g93
ssg74
g1209
sg67
(lp1221
S':'
asbag60
(g81
g62
NtRp1222
(dp1223
g65
(dp1224
sg74
g1209
sg67
(lp1225
g60
(g61
g62
NtRp1226
(dp1227
g65
(dp1228
g73
I4
ssg74
g1222
sg67
(lp1229
S'51599'
p1230
asbasbasbag60
(g76
g62
NtRp1231
(dp1232
g65
(dp1233
sg74
g764
sg67
(lp1234
g60
(g81
g62
NtRp1235
(dp1236
g65
(dp1237
g85
g86
ssg74
g1231
sg67
(lp1238
S'request_method'
p1239
asbag60
(g81
g62
NtRp1240
(dp1241
g65
(dp1242
g92
g93
ssg74
g1231
sg67
(lp1243
S':'
asbag60
(g81
g62
NtRp1244
(dp1245
g65
(dp1246
sg74
g1231
sg67
(lp1247
g60
(g61
g62
NtRp1248
(dp1249
g65
(dp1250
g73
I4
ssg74
g1244
sg67
(lp1251
S'GET'
p1252
asbasbasbag60
(g76
g62
NtRp1253
(dp1254
g65
(dp1255
sg74
g764
sg67
(lp1256
g60
(g81
g62
NtRp1257
(dp1258
g65
(dp1259
g85
g86
ssg74
g1253
sg67
(lp1260
S'script_name'
p1261
asbag60
(g81
g62
NtRp1262
(dp1263
g65
(dp1264
g92
g93
ssg74
g1253
sg67
(lp1265
S':'
asbag60
(g81
g62
NtRp1266
(dp1267
g65
(dp1268
sg74
g1253
sg67
(lp1269
g60
(g61
g62
NtRp1270
(dp1271
g65
(dp1272
g73
I4
ssg74
g1266
sg67
(lp1273
S''
asbasbasbag60
(g76
g62
NtRp1274
(dp1275
g65
(dp1276
sg74
g764
sg67
(lp1277
g60
(g81
g62
NtRp1278
(dp1279
g65
(dp1280
g85
g86
ssg74
g1274
sg67
(lp1281
S'server_name'
p1282
asbag60
(g81
g62
NtRp1283
(dp1284
g65
(dp1285
g92
g93
ssg74
g1274
sg67
(lp1286
S':'
asbag60
(g81
g62
NtRp1287
(dp1288
g65
(dp1289
sg74
g1274
sg67
(lp1290
g60
(g61
g62
NtRp1291
(dp1292
g65
(dp1293
g73
I4
ssg74
g1287
sg67
(lp1294
S'AKSHAY-PC'
p1295
asbasbasbag60
(g76
g62
NtRp1296
(dp1297
g65
(dp1298
sg74
g764
sg67
(lp1299
g60
(g81
g62
NtRp1300
(dp1301
g65
(dp1302
g85
g86
ssg74
g1296
sg67
(lp1303
S'server_port'
p1304
asbag60
(g81
g62
NtRp1305
(dp1306
g65
(dp1307
g92
g93
ssg74
g1296
sg67
(lp1308
S':'
asbag60
(g81
g62
NtRp1309
(dp1310
g65
(dp1311
sg74
g1296
sg67
(lp1312
g60
(g61
g62
NtRp1313
(dp1314
g65
(dp1315
g73
I4
ssg74
g1309
sg67
(lp1316
S'8000'
p1317
asbasbasbag60
(g76
g62
NtRp1318
(dp1319
g65
(dp1320
sg74
g764
sg67
(lp1321
g60
(g81
g62
NtRp1322
(dp1323
g65
(dp1324
g85
g86
ssg74
g1318
sg67
(lp1325
S'server_protocol'
p1326
asbag60
(g81
g62
NtRp1327
(dp1328
g65
(dp1329
g92
g93
ssg74
g1318
sg67
(lp1330
S':'
asbag60
(g81
g62
NtRp1331
(dp1332
g65
(dp1333
sg74
g1318
sg67
(lp1334
g60
(g61
g62
NtRp1335
(dp1336
g65
(dp1337
g73
I4
ssg74
g1331
sg67
(lp1338
S'HTTP/1.1'
p1339
asbasbasbag60
(g76
g62
NtRp1340
(dp1341
g65
(dp1342
sg74
g764
sg67
(lp1343
g60
(g81
g62
NtRp1344
(dp1345
g65
(dp1346
g85
g86
ssg74
g1340
sg67
(lp1347
S'server_software'
p1348
asbag60
(g81
g62
NtRp1349
(dp1350
g65
(dp1351
g92
g93
ssg74
g1340
sg67
(lp1352
S':'
asbag60
(g81
g62
NtRp1353
(dp1354
g65
(dp1355
sg74
g1340
sg67
(lp1356
g60
(g61
g62
NtRp1357
(dp1358
g65
(dp1359
g73
I4
ssg74
g1353
sg67
(lp1360
S'Rocket 1.2.2'
p1361
asbasbasbag60
(g76
g62
NtRp1362
(dp1363
g65
(dp1364
sg74
g764
sg67
(lp1365
g60
(g81
g62
NtRp1366
(dp1367
g65
(dp1368
g85
g86
ssg74
g1362
sg67
(lp1369
S'web2py_crontype'
p1370
asbag60
(g81
g62
NtRp1371
(dp1372
g65
(dp1373
g92
g93
ssg74
g1362
sg67
(lp1374
S':'
asbag60
(g81
g62
NtRp1375
(dp1376
g65
(dp1377
sg74
g1362
sg67
(lp1378
g60
(g61
g62
NtRp1379
(dp1380
g65
(dp1381
g73
I4
ssg74
g1375
sg67
(lp1382
S'hard'
p1383
asbasbasbag60
(g76
g62
NtRp1384
(dp1385
g65
(dp1386
sg74
g764
sg67
(lp1387
g60
(g81
g62
NtRp1388
(dp1389
g65
(dp1390
g85
g86
ssg74
g1384
sg67
(lp1391
S'web2py_path'
p1392
asbag60
(g81
g62
NtRp1393
(dp1394
g65
(dp1395
g92
g93
ssg74
g1384
sg67
(lp1396
S':'
asbag60
(g81
g62
NtRp1397
(dp1398
g65
(dp1399
sg74
g1384
sg67
(lp1400
g60
(g61
g62
NtRp1401
(dp1402
g65
(dp1403
g73
I4
ssg74
g1397
sg67
(lp1404
g811
asbasbasbag60
(g76
g62
NtRp1405
(dp1406
g65
(dp1407
sg74
g764
sg67
(lp1408
g60
(g81
g62
NtRp1409
(dp1410
g65
(dp1411
g85
g86
ssg74
g1405
sg67
(lp1412
S'web2py_version'
p1413
asbag60
(g81
g62
NtRp1414
(dp1415
g65
(dp1416
g92
g93
ssg74
g1405
sg67
(lp1417
S':'
asbag60
(g81
g62
NtRp1418
(dp1419
g65
(dp1420
sg74
g1405
sg67
(lp1421
g60
(g61
g62
NtRp1422
(dp1423
g65
(dp1424
g73
I4
ssg74
g1418
sg67
(lp1425
S'Version 1.97.1 (2011-06-26 19:25:44)\n'
p1426
asbasbasbag60
(g76
g62
NtRp1427
(dp1428
g65
(dp1429
sg74
g764
sg67
(lp1430
g60
(g81
g62
NtRp1431
(dp1432
g65
(dp1433
g85
g86
ssg74
g1427
sg67
(lp1434
S'wsgi_errors'
p1435
asbag60
(g81
g62
NtRp1436
(dp1437
g65
(dp1438
g92
g93
ssg74
g1427
sg67
(lp1439
S':'
asbag60
(g81
g62
NtRp1440
(dp1441
g65
(dp1442
sg74
g1427
sg67
(lp1443
g60
(g61
g62
NtRp1444
(dp1445
g65
(dp1446
g73
I4
ssg74
g1440
sg67
(lp1447
S"<open file '<stderr>', mode 'w' at 0x002500B0>"
p1448
asbasbasbag60
(g76
g62
NtRp1449
(dp1450
g65
(dp1451
sg74
g764
sg67
(lp1452
g60
(g81
g62
NtRp1453
(dp1454
g65
(dp1455
g85
g86
ssg74
g1449
sg67
(lp1456
S'wsgi_file_wrapper'
p1457
asbag60
(g81
g62
NtRp1458
(dp1459
g65
(dp1460
g92
g93
ssg74
g1449
sg67
(lp1461
S':'
asbag60
(g81
g62
NtRp1462
(dp1463
g65
(dp1464
sg74
g1449
sg67
(lp1465
g60
(g61
g62
NtRp1466
(dp1467
g65
(dp1468
g73
I4
ssg74
g1462
sg67
(lp1469
S'<class gluon.rocket.FileWrapper at 0x03132BA0>'
p1470
asbasbasbag60
(g76
g62
NtRp1471
(dp1472
g65
(dp1473
sg74
g764
sg67
(lp1474
g60
(g81
g62
NtRp1475
(dp1476
g65
(dp1477
g85
g86
ssg74
g1471
sg67
(lp1478
S'wsgi_input'
p1479
asbag60
(g81
g62
NtRp1480
(dp1481
g65
(dp1482
g92
g93
ssg74
g1471
sg67
(lp1483
S':'
asbag60
(g81
g62
NtRp1484
(dp1485
g65
(dp1486
sg74
g1471
sg67
(lp1487
g60
(g61
g62
NtRp1488
(dp1489
g65
(dp1490
g73
I4
ssg74
g1484
sg67
(lp1491
S'<socket._fileobject object at 0x06C3C770>'
p1492
asbasbasbag60
(g76
g62
NtRp1493
(dp1494
g65
(dp1495
sg74
g764
sg67
(lp1496
g60
(g81
g62
NtRp1497
(dp1498
g65
(dp1499
g85
g86
ssg74
g1493
sg67
(lp1500
S'wsgi_multiprocess'
p1501
asbag60
(g81
g62
NtRp1502
(dp1503
g65
(dp1504
g92
g93
ssg74
g1493
sg67
(lp1505
S':'
asbag60
(g81
g62
NtRp1506
(dp1507
g65
(dp1508
sg74
g1493
sg67
(lp1509
g60
(g61
g62
NtRp1510
(dp1511
g65
(dp1512
g73
I4
ssg74
g1506
sg67
(lp1513
g103
asbasbasbag60
(g76
g62
NtRp1514
(dp1515
g65
(dp1516
sg74
g764
sg67
(lp1517
g60
(g81
g62
NtRp1518
(dp1519
g65
(dp1520
g85
g86
ssg74
g1514
sg67
(lp1521
S'wsgi_multithread'
p1522
asbag60
(g81
g62
NtRp1523
(dp1524
g65
(dp1525
g92
g93
ssg74
g1514
sg67
(lp1526
S':'
asbag60
(g81
g62
NtRp1527
(dp1528
g65
(dp1529
sg74
g1514
sg67
(lp1530
g60
(g61
g62
NtRp1531
(dp1532
g65
(dp1533
g73
I4
ssg74
g1527
sg67
(lp1534
S'True'
p1535
asbasbasbag60
(g76
g62
NtRp1536
(dp1537
g65
(dp1538
sg74
g764
sg67
(lp1539
g60
(g81
g62
NtRp1540
(dp1541
g65
(dp1542
g85
g86
ssg74
g1536
sg67
(lp1543
S'wsgi_run_once'
p1544
asbag60
(g81
g62
NtRp1545
(dp1546
g65
(dp1547
g92
g93
ssg74
g1536
sg67
(lp1548
S':'
asbag60
(g81
g62
NtRp1549
(dp1550
g65
(dp1551
sg74
g1536
sg67
(lp1552
g60
(g61
g62
NtRp1553
(dp1554
g65
(dp1555
g73
I4
ssg74
g1549
sg67
(lp1556
g103
asbasbasbag60
(g76
g62
NtRp1557
(dp1558
g65
(dp1559
sg74
g764
sg67
(lp1560
g60
(g81
g62
NtRp1561
(dp1562
g65
(dp1563
g85
g86
ssg74
g1557
sg67
(lp1564
S'wsgi_url_scheme'
p1565
asbag60
(g81
g62
NtRp1566
(dp1567
g65
(dp1568
g92
g93
ssg74
g1557
sg67
(lp1569
S':'
asbag60
(g81
g62
NtRp1570
(dp1571
g65
(dp1572
sg74
g1557
sg67
(lp1573
g60
(g61
g62
NtRp1574
(dp1575
g65
(dp1576
g73
I4
ssg74
g1570
sg67
(lp1577
S'http'
p1578
asbasbasbag60
(g76
g62
NtRp1579
(dp1580
g65
(dp1581
sg74
g764
sg67
(lp1582
g60
(g81
g62
NtRp1583
(dp1584
g65
(dp1585
g85
g86
ssg74
g1579
sg67
(lp1586
S'wsgi_version'
p1587
asbag60
(g81
g62
NtRp1588
(dp1589
g65
(dp1590
g92
g93
ssg74
g1579
sg67
(lp1591
S':'
asbag60
(g81
g62
NtRp1592
(dp1593
g65
(dp1594
sg74
g1579
sg67
(lp1595
g60
(g61
g62
NtRp1596
(dp1597
g65
(dp1598
g73
I4
ssg74
g1592
sg67
(lp1599
g60
(g69
g62
NtRp1600
(dp1601
g65
(dp1602
g73
I3
ssg74
Nsg67
(lp1603
g60
(g76
g62
NtRp1604
(dp1605
g65
(dp1606
sg74
g1600
sg67
(lp1607
g60
(g81
g62
NtRp1608
(dp1609
g65
(dp1610
sg74
g1604
sg67
(lp1611
g60
(g61
g62
NtRp1612
(dp1613
g65
(dp1614
g73
I3
ssg74
g1608
sg67
(lp1615
S'1'
asbasbasbag60
(g76
g62
NtRp1616
(dp1617
g65
(dp1618
sg74
g1600
sg67
(lp1619
g60
(g81
g62
NtRp1620
(dp1621
g65
(dp1622
sg74
g1616
sg67
(lp1623
g60
(g61
g62
NtRp1624
(dp1625
g65
(dp1626
g73
I3
ssg74
g1620
sg67
(lp1627
S'0'
asbasbasbasbasbasbasbasbasbasbasbag60
(g76
g62
NtRp1628
(dp1629
g65
(dp1630
sg74
g70
sg67
(lp1631
g60
(g81
g62
NtRp1632
(dp1633
g65
(dp1634
g85
g86
ssg74
g1628
sg67
(lp1635
S'extension'
p1636
asbag60
(g81
g62
NtRp1637
(dp1638
g65
(dp1639
g92
g93
ssg74
g1628
sg67
(lp1640
S':'
asbag60
(g81
g62
NtRp1641
(dp1642
g65
(dp1643
sg74
g1628
sg67
(lp1644
g60
(g61
g62
NtRp1645
(dp1646
g65
(dp1647
g73
I5
ssg74
g1641
sg67
(lp1648
S'html'
p1649
asbasbasbag60
(g76
g62
NtRp1650
(dp1651
g65
(dp1652
sg74
g70
sg67
(lp1653
g60
(g81
g62
NtRp1654
(dp1655
g65
(dp1656
g85
g86
ssg74
g1650
sg67
(lp1657
S'folder'
p1658
asbag60
(g81
g62
NtRp1659
(dp1660
g65
(dp1661
g92
g93
ssg74
g1650
sg67
(lp1662
S':'
asbag60
(g81
g62
NtRp1663
(dp1664
g65
(dp1665
sg74
g1650
sg67
(lp1666
g60
(g61
g62
NtRp1667
(dp1668
g65
(dp1669
g73
I5
ssg74
g1663
sg67
(lp1670
S'C:\\Users\\AKSHAY\\Desktop\\web2py\\applications\\201056161\\'
p1671
asbasbasbag60
(g76
g62
NtRp1672
(dp1673
g65
(dp1674
sg74
g70
sg67
(lp1675
g60
(g81
g62
NtRp1676
(dp1677
g65
(dp1678
g85
g86
ssg74
g1672
sg67
(lp1679
S'function'
p1680
asbag60
(g81
g62
NtRp1681
(dp1682
g65
(dp1683
g92
g93
ssg74
g1672
sg67
(lp1684
S':'
asbag60
(g81
g62
NtRp1685
(dp1686
g65
(dp1687
sg74
g1672
sg67
(lp1688
g60
(g61
g62
NtRp1689
(dp1690
g65
(dp1691
g73
I5
ssg74
g1685
sg67
(lp1692
S'q2s'
p1693
asbasbasbag60
(g76
g62
NtRp1694
(dp1695
g65
(dp1696
sg74
g70
sg67
(lp1697
g60
(g81
g62
NtRp1698
(dp1699
g65
(dp1700
g85
g86
ssg74
g1694
sg67
(lp1701
S'get_vars'
p1702
asbag60
(g81
g62
NtRp1703
(dp1704
g65
(dp1705
g92
g93
ssg74
g1694
sg67
(lp1706
S':'
asbag60
(g81
g62
NtRp1707
(dp1708
g65
(dp1709
sg74
g1694
sg67
(lp1710
g60
(g61
g62
NtRp1711
(dp1712
g65
(dp1713
g73
I5
ssg74
g1707
sg67
(lp1714
g60
(g69
g62
NtRp1715
(dp1716
g65
(dp1717
g73
I4
ssg74
Nsg67
(lp1718
g60
(g76
g62
NtRp1719
(dp1720
g65
(dp1721
sg74
g1715
sg67
(lp1722
g60
(g81
g62
NtRp1723
(dp1724
g65
(dp1725
g85
g86
ssg74
g1719
sg67
(lp1726
S'namen'
p1727
asbag60
(g81
g62
NtRp1728
(dp1729
g65
(dp1730
g92
g93
ssg74
g1719
sg67
(lp1731
S':'
asbag60
(g81
g62
NtRp1732
(dp1733
g65
(dp1734
sg74
g1719
sg67
(lp1735
g60
(g61
g62
NtRp1736
(dp1737
g65
(dp1738
g73
I4
ssg74
g1732
sg67
(lp1739
S'9'
asbasbasbasbasbasbasbag60
(g76
g62
NtRp1740
(dp1741
g65
(dp1742
sg74
g70
sg67
(lp1743
g60
(g81
g62
NtRp1744
(dp1745
g65
(dp1746
g85
g86
ssg74
g1740
sg67
(lp1747
S'is_https'
p1748
asbag60
(g81
g62
NtRp1749
(dp1750
g65
(dp1751
g92
g93
ssg74
g1740
sg67
(lp1752
S':'
asbag60
(g81
g62
NtRp1753
(dp1754
g65
(dp1755
sg74
g1740
sg67
(lp1756
g60
(g61
g62
NtRp1757
(dp1758
g65
(dp1759
g73
I5
ssg74
g1753
sg67
(lp1760
g103
asbasbasbag60
(g76
g62
NtRp1761
(dp1762
g65
(dp1763
sg74
g70
sg67
(lp1764
g60
(g81
g62
NtRp1765
(dp1766
g65
(dp1767
g85
g86
ssg74
g1761
sg67
(lp1768
S'is_local'
p1769
asbag60
(g81
g62
NtRp1770
(dp1771
g65
(dp1772
g92
g93
ssg74
g1761
sg67
(lp1773
S':'
asbag60
(g81
g62
NtRp1774
(dp1775
g65
(dp1776
sg74
g1761
sg67
(lp1777
g60
(g61
g62
NtRp1778
(dp1779
g65
(dp1780
g73
I5
ssg74
g1774
sg67
(lp1781
g1535
asbasbasbag60
(g76
g62
NtRp1782
(dp1783
g65
(dp1784
sg74
g70
sg67
(lp1785
g60
(g81
g62
NtRp1786
(dp1787
g65
(dp1788
g85
g86
ssg74
g1782
sg67
(lp1789
S'is_restful'
p1790
asbag60
(g81
g62
NtRp1791
(dp1792
g65
(dp1793
g92
g93
ssg74
g1782
sg67
(lp1794
S':'
asbag60
(g81
g62
NtRp1795
(dp1796
g65
(dp1797
sg74
g1782
sg67
(lp1798
g60
(g61
g62
NtRp1799
(dp1800
g65
(dp1801
g73
I5
ssg74
g1795
sg67
(lp1802
g103
asbasbasbag60
(g76
g62
NtRp1803
(dp1804
g65
(dp1805
sg74
g70
sg67
(lp1806
g60
(g81
g62
NtRp1807
(dp1808
g65
(dp1809
g85
g86
ssg74
g1803
sg67
(lp1810
S'now'
p1811
asbag60
(g81
g62
NtRp1812
(dp1813
g65
(dp1814
g92
g93
ssg74
g1803
sg67
(lp1815
S':'
asbag60
(g81
g62
NtRp1816
(dp1817
g65
(dp1818
sg74
g1803
sg67
(lp1819
g60
(g61
g62
NtRp1820
(dp1821
g65
(dp1822
g73
I5
ssg74
g1816
sg67
(lp1823
S'datetime.datetime(2011, 9, 7, 2, 58, 18, 420000)'
p1824
asbasbasbag60
(g76
g62
NtRp1825
(dp1826
g65
(dp1827
sg74
g70
sg67
(lp1828
g60
(g81
g62
NtRp1829
(dp1830
g65
(dp1831
g85
g86
ssg74
g1825
sg67
(lp1832
S'post_vars'
p1833
asbag60
(g81
g62
NtRp1834
(dp1835
g65
(dp1836
g92
g93
ssg74
g1825
sg67
(lp1837
S':'
asbag60
(g81
g62
NtRp1838
(dp1839
g65
(dp1840
sg74
g1825
sg67
(lp1841
g60
(g61
g62
NtRp1842
(dp1843
g65
(dp1844
g73
I5
ssg74
g1838
sg67
(lp1845
g60
(g69
g62
NtRp1846
(dp1847
g65
(dp1848
g73
I4
ssg74
Nsg67
(lp1849
sbasbasbasbag60
(g76
g62
NtRp1850
(dp1851
g65
(dp1852
sg74
g70
sg67
(lp1853
g60
(g81
g62
NtRp1854
(dp1855
g65
(dp1856
g85
g86
ssg74
g1850
sg67
(lp1857
S'url'
p1858
asbag60
(g81
g62
NtRp1859
(dp1860
g65
(dp1861
g92
g93
ssg74
g1850
sg67
(lp1862
S':'
asbag60
(g81
g62
NtRp1863
(dp1864
g65
(dp1865
sg74
g1850
sg67
(lp1866
g60
(g61
g62
NtRp1867
(dp1868
g65
(dp1869
g73
I5
ssg74
g1863
sg67
(lp1870
S'/201056161/default/q2s'
p1871
asbasbasbag60
(g76
g62
NtRp1872
(dp1873
g65
(dp1874
sg74
g70
sg67
(lp1875
g60
(g81
g62
NtRp1876
(dp1877
g65
(dp1878
g85
g86
ssg74
g1872
sg67
(lp1879
S'uuid'
p1880
asbag60
(g81
g62
NtRp1881
(dp1882
g65
(dp1883
g92
g93
ssg74
g1872
sg67
(lp1884
S':'
asbag60
(g81
g62
NtRp1885
(dp1886
g65
(dp1887
sg74
g1872
sg67
(lp1888
g60
(g61
g62
NtRp1889
(dp1890
g65
(dp1891
g73
I5
ssg74
g1885
sg67
(lp1892
S'201056161/127.0.0.1.2011-09-07.02-58-18.24caade9-8fd1-4fe5-9131-948d093b49ab'
p1893
asbasbasbag60
(g76
g62
NtRp1894
(dp1895
g65
(dp1896
sg74
g70
sg67
(lp1897
g60
(g81
g62
NtRp1898
(dp1899
g65
(dp1900
g85
g86
ssg74
g1894
sg67
(lp1901
S'vars'
p1902
asbag60
(g81
g62
NtRp1903
(dp1904
g65
(dp1905
g92
g93
ssg74
g1894
sg67
(lp1906
S':'
asbag60
(g81
g62
NtRp1907
(dp1908
g65
(dp1909
sg74
g1894
sg67
(lp1910
g60
(g61
g62
NtRp1911
(dp1912
g65
(dp1913
g73
I5
ssg74
g1907
sg67
(lp1914
g60
(g69
g62
NtRp1915
(dp1916
g65
(dp1917
g73
I4
ssg74
Nsg67
(lp1918
g60
(g76
g62
NtRp1919
(dp1920
g65
(dp1921
sg74
g1915
sg67
(lp1922
g60
(g81
g62
NtRp1923
(dp1924
g65
(dp1925
g85
g86
ssg74
g1919
sg67
(lp1926
g1727
asbag60
(g81
g62
NtRp1927
(dp1928
g65
(dp1929
g92
g93
ssg74
g1919
sg67
(lp1930
S':'
asbag60
(g81
g62
NtRp1931
(dp1932
g65
(dp1933
sg74
g1919
sg67
(lp1934
g60
(g61
g62
NtRp1935
(dp1936
g65
(dp1937
g73
I4
ssg74
g1931
sg67
(lp1938
S'9'
asbasbasbasbasbasbasbag60
(g76
g62
NtRp1939
(dp1940
g65
(dp1941
sg74
g70
sg67
(lp1942
g60
(g81
g62
NtRp1943
(dp1944
g65
(dp1945
g85
g86
ssg74
g1939
sg67
(lp1946
S'wsgi'
p1947
asbag60
(g81
g62
NtRp1948
(dp1949
g65
(dp1950
g92
g93
ssg74
g1939
sg67
(lp1951
S':'
asbag60
(g81
g62
NtRp1952
(dp1953
g65
(dp1954
sg74
g1939
sg67
(lp1955
g60
(g61
g62
NtRp1956
(dp1957
g65
(dp1958
g73
I5
ssg74
g1952
sg67
(lp1959
g60
(g69
g62
NtRp1960
(dp1961
g65
(dp1962
g73
I4
ssg74
Nsg67
(lp1963
g60
(g76
g62
NtRp1964
(dp1965
g65
(dp1966
sg74
g1960
sg67
(lp1967
g60
(g81
g62
NtRp1968
(dp1969
g65
(dp1970
g85
g86
ssg74
g1964
sg67
(lp1971
S'environ'
p1972
asbag60
(g81
g62
NtRp1973
(dp1974
g65
(dp1975
g92
g93
ssg74
g1964
sg67
(lp1976
S':'
asbag60
(g81
g62
NtRp1977
(dp1978
g65
(dp1979
sg74
g1964
sg67
(lp1980
g60
(g61
g62
NtRp1981
(dp1982
g65
(dp1983
g73
I4
ssg74
g1977
sg67
(lp1984
g60
(g69
g62
NtRp1985
(dp1986
g65
(dp1987
g73
I3
ssg74
Nsg67
(lp1988
g60
(g76
g62
NtRp1989
(dp1990
g65
(dp1991
sg74
g1985
sg67
(lp1992
g60
(g81
g62
NtRp1993
(dp1994
g65
(dp1995
g85
g86
ssg74
g1989
sg67
(lp1996
S'HTTP_ACCEPT'
p1997
asbag60
(g81
g62
NtRp1998
(dp1999
g65
(dp2000
g92
g93
ssg74
g1989
sg67
(lp2001
S':'
asbag60
(g81
g62
NtRp2002
(dp2003
g65
(dp2004
sg74
g1989
sg67
(lp2005
g60
(g61
g62
NtRp2006
(dp2007
g65
(dp2008
g73
I3
ssg74
g2002
sg67
(lp2009
g945
asbasbasbag60
(g76
g62
NtRp2010
(dp2011
g65
(dp2012
sg74
g1985
sg67
(lp2013
g60
(g81
g62
NtRp2014
(dp2015
g65
(dp2016
g85
g86
ssg74
g2010
sg67
(lp2017
S'HTTP_ACCEPT_CHARSET'
p2018
asbag60
(g81
g62
NtRp2019
(dp2020
g65
(dp2021
g92
g93
ssg74
g2010
sg67
(lp2022
S':'
asbag60
(g81
g62
NtRp2023
(dp2024
g65
(dp2025
sg74
g2010
sg67
(lp2026
g60
(g61
g62
NtRp2027
(dp2028
g65
(dp2029
g73
I3
ssg74
g2023
sg67
(lp2030
g967
asbasbasbag60
(g76
g62
NtRp2031
(dp2032
g65
(dp2033
sg74
g1985
sg67
(lp2034
g60
(g81
g62
NtRp2035
(dp2036
g65
(dp2037
g85
g86
ssg74
g2031
sg67
(lp2038
S'HTTP_ACCEPT_ENCODING'
p2039
asbag60
(g81
g62
NtRp2040
(dp2041
g65
(dp2042
g92
g93
ssg74
g2031
sg67
(lp2043
S':'
asbag60
(g81
g62
NtRp2044
(dp2045
g65
(dp2046
sg74
g2031
sg67
(lp2047
g60
(g61
g62
NtRp2048
(dp2049
g65
(dp2050
g73
I3
ssg74
g2044
sg67
(lp2051
g989
asbasbasbag60
(g76
g62
NtRp2052
(dp2053
g65
(dp2054
sg74
g1985
sg67
(lp2055
g60
(g81
g62
NtRp2056
(dp2057
g65
(dp2058
g85
g86
ssg74
g2052
sg67
(lp2059
S'HTTP_ACCEPT_LANGUAGE'
p2060
asbag60
(g81
g62
NtRp2061
(dp2062
g65
(dp2063
g92
g93
ssg74
g2052
sg67
(lp2064
S':'
asbag60
(g81
g62
NtRp2065
(dp2066
g65
(dp2067
sg74
g2052
sg67
(lp2068
g60
(g61
g62
NtRp2069
(dp2070
g65
(dp2071
g73
I3
ssg74
g2065
sg67
(lp2072
g1011
asbasbasbag60
(g76
g62
NtRp2073
(dp2074
g65
(dp2075
sg74
g1985
sg67
(lp2076
g60
(g81
g62
NtRp2077
(dp2078
g65
(dp2079
g85
g86
ssg74
g2073
sg67
(lp2080
S'HTTP_CACHE_CONTROL'
p2081
asbag60
(g81
g62
NtRp2082
(dp2083
g65
(dp2084
g92
g93
ssg74
g2073
sg67
(lp2085
S':'
asbag60
(g81
g62
NtRp2086
(dp2087
g65
(dp2088
sg74
g2073
sg67
(lp2089
g60
(g61
g62
NtRp2090
(dp2091
g65
(dp2092
g73
I3
ssg74
g2086
sg67
(lp2093
g1033
asbasbasbag60
(g76
g62
NtRp2094
(dp2095
g65
(dp2096
sg74
g1985
sg67
(lp2097
g60
(g81
g62
NtRp2098
(dp2099
g65
(dp2100
g85
g86
ssg74
g2094
sg67
(lp2101
S'HTTP_CONNECTION'
p2102
asbag60
(g81
g62
NtRp2103
(dp2104
g65
(dp2105
g92
g93
ssg74
g2094
sg67
(lp2106
S':'
asbag60
(g81
g62
NtRp2107
(dp2108
g65
(dp2109
sg74
g2094
sg67
(lp2110
g60
(g61
g62
NtRp2111
(dp2112
g65
(dp2113
g73
I3
ssg74
g2107
sg67
(lp2114
g1055
asbasbasbag60
(g76
g62
NtRp2115
(dp2116
g65
(dp2117
sg74
g1985
sg67
(lp2118
g60
(g81
g62
NtRp2119
(dp2120
g65
(dp2121
g85
g86
ssg74
g2115
sg67
(lp2122
S'HTTP_COOKIE'
p2123
asbag60
(g81
g62
NtRp2124
(dp2125
g65
(dp2126
g92
g93
ssg74
g2115
sg67
(lp2127
S':'
asbag60
(g81
g62
NtRp2128
(dp2129
g65
(dp2130
sg74
g2115
sg67
(lp2131
g60
(g61
g62
NtRp2132
(dp2133
g65
(dp2134
g73
I3
ssg74
g2128
sg67
(lp2135
g1077
asbasbasbag60
(g76
g62
NtRp2136
(dp2137
g65
(dp2138
sg74
g1985
sg67
(lp2139
g60
(g81
g62
NtRp2140
(dp2141
g65
(dp2142
g85
g86
ssg74
g2136
sg67
(lp2143
S'HTTP_HOST'
p2144
asbag60
(g81
g62
NtRp2145
(dp2146
g65
(dp2147
g92
g93
ssg74
g2136
sg67
(lp2148
S':'
asbag60
(g81
g62
NtRp2149
(dp2150
g65
(dp2151
sg74
g2136
sg67
(lp2152
g60
(g61
g62
NtRp2153
(dp2154
g65
(dp2155
g73
I3
ssg74
g2149
sg67
(lp2156
g1099
asbasbasbag60
(g76
g62
NtRp2157
(dp2158
g65
(dp2159
sg74
g1985
sg67
(lp2160
g60
(g81
g62
NtRp2161
(dp2162
g65
(dp2163
g85
g86
ssg74
g2157
sg67
(lp2164
S'HTTP_REFERER'
p2165
asbag60
(g81
g62
NtRp2166
(dp2167
g65
(dp2168
g92
g93
ssg74
g2157
sg67
(lp2169
S':'
asbag60
(g81
g62
NtRp2170
(dp2171
g65
(dp2172
sg74
g2157
sg67
(lp2173
g60
(g61
g62
NtRp2174
(dp2175
g65
(dp2176
g73
I3
ssg74
g2170
sg67
(lp2177
g1121
asbasbasbag60
(g76
g62
NtRp2178
(dp2179
g65
(dp2180
sg74
g1985
sg67
(lp2181
g60
(g81
g62
NtRp2182
(dp2183
g65
(dp2184
g85
g86
ssg74
g2178
sg67
(lp2185
S'HTTP_USER_AGENT'
p2186
asbag60
(g81
g62
NtRp2187
(dp2188
g65
(dp2189
g92
g93
ssg74
g2178
sg67
(lp2190
S':'
asbag60
(g81
g62
NtRp2191
(dp2192
g65
(dp2193
sg74
g2178
sg67
(lp2194
g60
(g61
g62
NtRp2195
(dp2196
g65
(dp2197
g73
I3
ssg74
g2191
sg67
(lp2198
g1143
asbasbasbag60
(g76
g62
NtRp2199
(dp2200
g65
(dp2201
sg74
g1985
sg67
(lp2202
g60
(g81
g62
NtRp2203
(dp2204
g65
(dp2205
g85
g86
ssg74
g2199
sg67
(lp2206
S'PATH_INFO'
p2207
asbag60
(g81
g62
NtRp2208
(dp2209
g65
(dp2210
g92
g93
ssg74
g2199
sg67
(lp2211
S':'
asbag60
(g81
g62
NtRp2212
(dp2213
g65
(dp2214
sg74
g2199
sg67
(lp2215
g60
(g61
g62
NtRp2216
(dp2217
g65
(dp2218
g73
I3
ssg74
g2212
sg67
(lp2219
g1165
asbasbasbag60
(g76
g62
NtRp2220
(dp2221
g65
(dp2222
sg74
g1985
sg67
(lp2223
g60
(g81
g62
NtRp2224
(dp2225
g65
(dp2226
g85
g86
ssg74
g2220
sg67
(lp2227
S'QUERY_STRING'
p2228
asbag60
(g81
g62
NtRp2229
(dp2230
g65
(dp2231
g92
g93
ssg74
g2220
sg67
(lp2232
S':'
asbag60
(g81
g62
NtRp2233
(dp2234
g65
(dp2235
sg74
g2220
sg67
(lp2236
g60
(g61
g62
NtRp2237
(dp2238
g65
(dp2239
g73
I3
ssg74
g2233
sg67
(lp2240
g1187
asbasbasbag60
(g76
g62
NtRp2241
(dp2242
g65
(dp2243
sg74
g1985
sg67
(lp2244
g60
(g81
g62
NtRp2245
(dp2246
g65
(dp2247
g85
g86
ssg74
g2241
sg67
(lp2248
S'REMOTE_ADDR'
p2249
asbag60
(g81
g62
NtRp2250
(dp2251
g65
(dp2252
g92
g93
ssg74
g2241
sg67
(lp2253
S':'
asbag60
(g81
g62
NtRp2254
(dp2255
g65
(dp2256
sg74
g2241
sg67
(lp2257
g60
(g61
g62
NtRp2258
(dp2259
g65
(dp2260
g73
I3
ssg74
g2254
sg67
(lp2261
g193
asbasbasbag60
(g76
g62
NtRp2262
(dp2263
g65
(dp2264
sg74
g1985
sg67
(lp2265
g60
(g81
g62
NtRp2266
(dp2267
g65
(dp2268
g85
g86
ssg74
g2262
sg67
(lp2269
S'REMOTE_PORT'
p2270
asbag60
(g81
g62
NtRp2271
(dp2272
g65
(dp2273
g92
g93
ssg74
g2262
sg67
(lp2274
S':'
asbag60
(g81
g62
NtRp2275
(dp2276
g65
(dp2277
sg74
g2262
sg67
(lp2278
g60
(g61
g62
NtRp2279
(dp2280
g65
(dp2281
g73
I3
ssg74
g2275
sg67
(lp2282
g1230
asbasbasbag60
(g76
g62
NtRp2283
(dp2284
g65
(dp2285
sg74
g1985
sg67
(lp2286
g60
(g81
g62
NtRp2287
(dp2288
g65
(dp2289
g85
g86
ssg74
g2283
sg67
(lp2290
S'REQUEST_METHOD'
p2291
asbag60
(g81
g62
NtRp2292
(dp2293
g65
(dp2294
g92
g93
ssg74
g2283
sg67
(lp2295
S':'
asbag60
(g81
g62
NtRp2296
(dp2297
g65
(dp2298
sg74
g2283
sg67
(lp2299
g60
(g61
g62
NtRp2300
(dp2301
g65
(dp2302
g73
I3
ssg74
g2296
sg67
(lp2303
g1252
asbasbasbag60
(g76
g62
NtRp2304
(dp2305
g65
(dp2306
sg74
g1985
sg67
(lp2307
g60
(g81
g62
NtRp2308
(dp2309
g65
(dp2310
g85
g86
ssg74
g2304
sg67
(lp2311
S'SCRIPT_NAME'
p2312
asbag60
(g81
g62
NtRp2313
(dp2314
g65
(dp2315
g92
g93
ssg74
g2304
sg67
(lp2316
S':'
asbag60
(g81
g62
NtRp2317
(dp2318
g65
(dp2319
sg74
g2304
sg67
(lp2320
g60
(g61
g62
NtRp2321
(dp2322
g65
(dp2323
g73
I3
ssg74
g2317
sg67
(lp2324
S''
asbasbasbag60
(g76
g62
NtRp2325
(dp2326
g65
(dp2327
sg74
g1985
sg67
(lp2328
g60
(g81
g62
NtRp2329
(dp2330
g65
(dp2331
g85
g86
ssg74
g2325
sg67
(lp2332
S'SERVER_NAME'
p2333
asbag60
(g81
g62
NtRp2334
(dp2335
g65
(dp2336
g92
g93
ssg74
g2325
sg67
(lp2337
S':'
asbag60
(g81
g62
NtRp2338
(dp2339
g65
(dp2340
sg74
g2325
sg67
(lp2341
g60
(g61
g62
NtRp2342
(dp2343
g65
(dp2344
g73
I3
ssg74
g2338
sg67
(lp2345
g1295
asbasbasbag60
(g76
g62
NtRp2346
(dp2347
g65
(dp2348
sg74
g1985
sg67
(lp2349
g60
(g81
g62
NtRp2350
(dp2351
g65
(dp2352
g85
g86
ssg74
g2346
sg67
(lp2353
S'SERVER_PORT'
p2354
asbag60
(g81
g62
NtRp2355
(dp2356
g65
(dp2357
g92
g93
ssg74
g2346
sg67
(lp2358
S':'
asbag60
(g81
g62
NtRp2359
(dp2360
g65
(dp2361
sg74
g2346
sg67
(lp2362
g60
(g61
g62
NtRp2363
(dp2364
g65
(dp2365
g73
I3
ssg74
g2359
sg67
(lp2366
g1317
asbasbasbag60
(g76
g62
NtRp2367
(dp2368
g65
(dp2369
sg74
g1985
sg67
(lp2370
g60
(g81
g62
NtRp2371
(dp2372
g65
(dp2373
g85
g86
ssg74
g2367
sg67
(lp2374
S'SERVER_PROTOCOL'
p2375
asbag60
(g81
g62
NtRp2376
(dp2377
g65
(dp2378
g92
g93
ssg74
g2367
sg67
(lp2379
S':'
asbag60
(g81
g62
NtRp2380
(dp2381
g65
(dp2382
sg74
g2367
sg67
(lp2383
g60
(g61
g62
NtRp2384
(dp2385
g65
(dp2386
g73
I3
ssg74
g2380
sg67
(lp2387
g1339
asbasbasbag60
(g76
g62
NtRp2388
(dp2389
g65
(dp2390
sg74
g1985
sg67
(lp2391
g60
(g81
g62
NtRp2392
(dp2393
g65
(dp2394
g85
g86
ssg74
g2388
sg67
(lp2395
S'SERVER_SOFTWARE'
p2396
asbag60
(g81
g62
NtRp2397
(dp2398
g65
(dp2399
g92
g93
ssg74
g2388
sg67
(lp2400
S':'
asbag60
(g81
g62
NtRp2401
(dp2402
g65
(dp2403
sg74
g2388
sg67
(lp2404
g60
(g61
g62
NtRp2405
(dp2406
g65
(dp2407
g73
I3
ssg74
g2401
sg67
(lp2408
g1361
asbasbasbag60
(g76
g62
NtRp2409
(dp2410
g65
(dp2411
sg74
g1985
sg67
(lp2412
g60
(g81
g62
NtRp2413
(dp2414
g65
(dp2415
g85
g86
ssg74
g2409
sg67
(lp2416
S'wsgi.errors'
p2417
asbag60
(g81
g62
NtRp2418
(dp2419
g65
(dp2420
g92
g93
ssg74
g2409
sg67
(lp2421
S':'
asbag60
(g81
g62
NtRp2422
(dp2423
g65
(dp2424
sg74
g2409
sg67
(lp2425
g60
(g61
g62
NtRp2426
(dp2427
g65
(dp2428
g73
I3
ssg74
g2422
sg67
(lp2429
S"<open file '<stderr>', mode 'w' at 0x002500B0>"
p2430
asbasbasbag60
(g76
g62
NtRp2431
(dp2432
g65
(dp2433
sg74
g1985
sg67
(lp2434
g60
(g81
g62
NtRp2435
(dp2436
g65
(dp2437
g85
g86
ssg74
g2431
sg67
(lp2438
S'wsgi.file_wrapper'
p2439
asbag60
(g81
g62
NtRp2440
(dp2441
g65
(dp2442
g92
g93
ssg74
g2431
sg67
(lp2443
S':'
asbag60
(g81
g62
NtRp2444
(dp2445
g65
(dp2446
sg74
g2431
sg67
(lp2447
g60
(g61
g62
NtRp2448
(dp2449
g65
(dp2450
g73
I3
ssg74
g2444
sg67
(lp2451
S'<class gluon.rocket.FileWrapper at 0x03132BA0>'
p2452
asbasbasbag60
(g76
g62
NtRp2453
(dp2454
g65
(dp2455
sg74
g1985
sg67
(lp2456
g60
(g81
g62
NtRp2457
(dp2458
g65
(dp2459
g85
g86
ssg74
g2453
sg67
(lp2460
S'wsgi.input'
p2461
asbag60
(g81
g62
NtRp2462
(dp2463
g65
(dp2464
g92
g93
ssg74
g2453
sg67
(lp2465
S':'
asbag60
(g81
g62
NtRp2466
(dp2467
g65
(dp2468
sg74
g2453
sg67
(lp2469
g60
(g61
g62
NtRp2470
(dp2471
g65
(dp2472
g73
I3
ssg74
g2466
sg67
(lp2473
S'<cStringIO.StringO object at 0x07664820>'
p2474
asbasbasbag60
(g76
g62
NtRp2475
(dp2476
g65
(dp2477
sg74
g1985
sg67
(lp2478
g60
(g81
g62
NtRp2479
(dp2480
g65
(dp2481
g85
g86
ssg74
g2475
sg67
(lp2482
S'wsgi.multiprocess'
p2483
asbag60
(g81
g62
NtRp2484
(dp2485
g65
(dp2486
g92
g93
ssg74
g2475
sg67
(lp2487
S':'
asbag60
(g81
g62
NtRp2488
(dp2489
g65
(dp2490
sg74
g2475
sg67
(lp2491
g60
(g61
g62
NtRp2492
(dp2493
g65
(dp2494
g73
I3
ssg74
g2488
sg67
(lp2495
g103
asbasbasbag60
(g76
g62
NtRp2496
(dp2497
g65
(dp2498
sg74
g1985
sg67
(lp2499
g60
(g81
g62
NtRp2500
(dp2501
g65
(dp2502
g85
g86
ssg74
g2496
sg67
(lp2503
S'wsgi.multithread'
p2504
asbag60
(g81
g62
NtRp2505
(dp2506
g65
(dp2507
g92
g93
ssg74
g2496
sg67
(lp2508
S':'
asbag60
(g81
g62
NtRp2509
(dp2510
g65
(dp2511
sg74
g2496
sg67
(lp2512
g60
(g61
g62
NtRp2513
(dp2514
g65
(dp2515
g73
I3
ssg74
g2509
sg67
(lp2516
g1535
asbasbasbag60
(g76
g62
NtRp2517
(dp2518
g65
(dp2519
sg74
g1985
sg67
(lp2520
g60
(g81
g62
NtRp2521
(dp2522
g65
(dp2523
g85
g86
ssg74
g2517
sg67
(lp2524
S'wsgi.run_once'
p2525
asbag60
(g81
g62
NtRp2526
(dp2527
g65
(dp2528
g92
g93
ssg74
g2517
sg67
(lp2529
S':'
asbag60
(g81
g62
NtRp2530
(dp2531
g65
(dp2532
sg74
g2517
sg67
(lp2533
g60
(g61
g62
NtRp2534
(dp2535
g65
(dp2536
g73
I3
ssg74
g2530
sg67
(lp2537
g103
asbasbasbag60
(g76
g62
NtRp2538
(dp2539
g65
(dp2540
sg74
g1985
sg67
(lp2541
g60
(g81
g62
NtRp2542
(dp2543
g65
(dp2544
g85
g86
ssg74
g2538
sg67
(lp2545
S'wsgi.url_scheme'
p2546
asbag60
(g81
g62
NtRp2547
(dp2548
g65
(dp2549
g92
g93
ssg74
g2538
sg67
(lp2550
S':'
asbag60
(g81
g62
NtRp2551
(dp2552
g65
(dp2553
sg74
g2538
sg67
(lp2554
g60
(g61
g62
NtRp2555
(dp2556
g65
(dp2557
g73
I3
ssg74
g2551
sg67
(lp2558
g1578
asbasbasbag60
(g76
g62
NtRp2559
(dp2560
g65
(dp2561
sg74
g1985
sg67
(lp2562
g60
(g81
g62
NtRp2563
(dp2564
g65
(dp2565
g85
g86
ssg74
g2559
sg67
(lp2566
S'wsgi.version'
p2567
asbag60
(g81
g62
NtRp2568
(dp2569
g65
(dp2570
g92
g93
ssg74
g2559
sg67
(lp2571
S':'
asbag60
(g81
g62
NtRp2572
(dp2573
g65
(dp2574
sg74
g2559
sg67
(lp2575
g60
(g61
g62
NtRp2576
(dp2577
g65
(dp2578
g73
I3
ssg74
g2572
sg67
(lp2579
S'1'
asbasbasbasbasbasbasbasbasbasbasbasbasbsS'frames'
p2580
(lp2581
(dp2582
S'file'
p2583
S'C:\\Users\\AKSHAY\\Desktop\\web2py\\gluon\\restricted.py'
p2584
sS'dump'
p2585
(dp2586
sS'lnum'
p2587
I191
sS'lines'
p2588
(dp2589
sS'call'
p2590
S'(code=\'response.write(\\\'<!DOCTYPE html>\\\\n<html lang="\\\', ...t   -->    \\\\n  </body>\\\\n</html>\\\\n\\\', escape=False)\', environment={\'A\': <class \'gluon.html.A\'>, \'Auth\': <class \'gluon.tools.Auth\'>, \'B\': <class \'gluon.html.B\'>, \'BEAUTIFY\': <class \'gluon.html.BEAUTIFY\'>, \'BODY\': <class \'gluon.html.BODY\'>, \'BR\': <class \'gluon.html.BR\'>, \'BUTTON\': <class \'gluon.html.BUTTON\'>, \'CENTER\': <class \'gluon.html.CENTER\'>, \'CLEANUP\': <class \'gluon.validators.CLEANUP\'>, \'CODE\': <class \'gluon.html.CODE\'>, ...}, layer=r\'C:\\Users\\AKSHAY\\Desktop\\web2py\\applications\\201056161\\views\\default/q2s.html\')'
p2591
sS'func'
p2592
S'restricted'
p2593
sa(dp2594
g2583
S'C:\\Users\\AKSHAY\\Desktop\\web2py\\gluon\\restricted.py'
p2595
sg2585
(dp2596
sg2587
I178
sg2588
(dp2597
sg2590
S'(code=\'response.write(\\\'<!DOCTYPE html>\\\\n<html lang="\\\', ...t   -->    \\\\n  </body>\\\\n</html>\\\\n\\\', escape=False)\', layer=r\'C:\\Users\\AKSHAY\\Desktop\\web2py\\applications\\201056161\\views\\default/q2s.html\')'
p2598
sg2592
S'compile2'
p2599
sasS'pyver'
p2600
S'Python 2.5.4: C:\\Users\\AKSHAY\\Desktop\\web2py\\web2py.exe'
p2601
sS'session'
p2602
g60
(g61
g62
NtRp2603
(dp2604
g65
(dp2605
sg67
(lp2606
g60
(g69
g62
NtRp2607
(dp2608
g65
(dp2609
g73
I5
ssg74
Nsg67
(lp2610
g60
(g76
g62
NtRp2611
(dp2612
g65
(dp2613
sg74
g2607
sg67
(lp2614
g60
(g81
g62
NtRp2615
(dp2616
g65
(dp2617
g85
g86
ssg74
g2611
sg67
(lp2618
S'last_query'
p2619
asbag60
(g81
g62
NtRp2620
(dp2621
g65
(dp2622
g92
g93
ssg74
g2611
sg67
(lp2623
S':'
asbag60
(g81
g62
NtRp2624
(dp2625
g65
(dp2626
sg74
g2611
sg67
(lp2627
g60
(g61
g62
NtRp2628
(dp2629
g65
(dp2630
g73
I5
ssg74
g2624
sg67
(lp2631
S'db.song.id>0'
p2632
asbasbasbasbasbsS'etype'
p2633
S"<type 'exceptions.SyntaxError'>"
p2634
sS'date'
p2635
S'Wed Sep 07 02:58:18 2011'
p2636
sS'response'
p2637
g60
(g61
g62
NtRp2638
(dp2639
g65
(dp2640
sg67
(lp2641
g60
(g69
g62
NtRp2642
(dp2643
g65
(dp2644
g73
I5
ssg74
Nsg67
(lp2645
g60
(g76
g62
NtRp2646
(dp2647
g65
(dp2648
sg74
g2642
sg67
(lp2649
g60
(g81
g62
NtRp2650
(dp2651
g65
(dp2652
g85
g86
ssg74
g2646
sg67
(lp2653
g158
asbag60
(g81
g62
NtRp2654
(dp2655
g65
(dp2656
g92
g93
ssg74
g2646
sg67
(lp2657
S':'
asbag60
(g81
g62
NtRp2658
(dp2659
g65
(dp2660
sg74
g2646
sg67
(lp2661
g60
(g61
g62
NtRp2662
(dp2663
g65
(dp2664
g73
I5
ssg74
g2658
sg67
(lp2665
S'<cStringIO.StringO object at 0x07664B00>'
p2666
asbasbasbag60
(g76
g62
NtRp2667
(dp2668
g65
(dp2669
sg74
g2642
sg67
(lp2670
g60
(g81
g62
NtRp2671
(dp2672
g65
(dp2673
g85
g86
ssg74
g2667
sg67
(lp2674
g224
asbag60
(g81
g62
NtRp2675
(dp2676
g65
(dp2677
g92
g93
ssg74
g2667
sg67
(lp2678
S':'
asbag60
(g81
g62
NtRp2679
(dp2680
g65
(dp2681
sg74
g2667
sg67
(lp2682
g60
(g61
g62
NtRp2683
(dp2684
g65
(dp2685
g73
I5
ssg74
g2679
sg67
(lp2686
g60
(g69
g62
NtRp2687
(dp2688
g65
(dp2689
g73
I4
ssg74
Nsg67
(lp2690
g60
(g76
g62
NtRp2691
(dp2692
g65
(dp2693
sg74
g2687
sg67
(lp2694
g60
(g81
g62
NtRp2695
(dp2696
g65
(dp2697
g85
g86
ssg74
g2691
sg67
(lp2698
S'session_id_201056161'
p2699
asbag60
(g81
g62
NtRp2700
(dp2701
g65
(dp2702
g92
g93
ssg74
g2691
sg67
(lp2703
S':'
asbag60
(g81
g62
NtRp2704
(dp2705
g65
(dp2706
sg74
g2691
sg67
(lp2707
g60
(g61
g62
NtRp2708
(dp2709
g65
(dp2710
g73
I4
ssg74
g2704
sg67
(lp2711
g60
(g69
g62
NtRp2712
(dp2713
g65
(dp2714
g73
I3
ssg74
Nsg67
(lp2715
g60
(g76
g62
NtRp2716
(dp2717
g65
(dp2718
sg74
g2712
sg67
(lp2719
g60
(g81
g62
NtRp2720
(dp2721
g65
(dp2722
g85
g86
ssg74
g2716
sg67
(lp2723
g274
asbag60
(g81
g62
NtRp2724
(dp2725
g65
(dp2726
g92
g93
ssg74
g2716
sg67
(lp2727
S':'
asbag60
(g81
g62
NtRp2728
(dp2729
g65
(dp2730
sg74
g2716
sg67
(lp2731
g60
(g61
g62
NtRp2732
(dp2733
g65
(dp2734
g73
I3
ssg74
g2728
sg67
(lp2735
S''
asbasbasbag60
(g76
g62
NtRp2736
(dp2737
g65
(dp2738
sg74
g2712
sg67
(lp2739
g60
(g81
g62
NtRp2740
(dp2741
g65
(dp2742
g85
g86
ssg74
g2736
sg67
(lp2743
g295
asbag60
(g81
g62
NtRp2744
(dp2745
g65
(dp2746
g92
g93
ssg74
g2736
sg67
(lp2747
S':'
asbag60
(g81
g62
NtRp2748
(dp2749
g65
(dp2750
sg74
g2736
sg67
(lp2751
g60
(g61
g62
NtRp2752
(dp2753
g65
(dp2754
g73
I3
ssg74
g2748
sg67
(lp2755
S''
asbasbasbag60
(g76
g62
NtRp2756
(dp2757
g65
(dp2758
sg74
g2712
sg67
(lp2759
g60
(g81
g62
NtRp2760
(dp2761
g65
(dp2762
g85
g86
ssg74
g2756
sg67
(lp2763
g316
asbag60
(g81
g62
NtRp2764
(dp2765
g65
(dp2766
g92
g93
ssg74
g2756
sg67
(lp2767
S':'
asbag60
(g81
g62
NtRp2768
(dp2769
g65
(dp2770
sg74
g2756
sg67
(lp2771
g60
(g61
g62
NtRp2772
(dp2773
g65
(dp2774
g73
I3
ssg74
g2768
sg67
(lp2775
S''
asbasbasbag60
(g76
g62
NtRp2776
(dp2777
g65
(dp2778
sg74
g2712
sg67
(lp2779
g60
(g81
g62
NtRp2780
(dp2781
g65
(dp2782
g85
g86
ssg74
g2776
sg67
(lp2783
g337
asbag60
(g81
g62
NtRp2784
(dp2785
g65
(dp2786
g92
g93
ssg74
g2776
sg67
(lp2787
S':'
asbag60
(g81
g62
NtRp2788
(dp2789
g65
(dp2790
sg74
g2776
sg67
(lp2791
g60
(g61
g62
NtRp2792
(dp2793
g65
(dp2794
g73
I3
ssg74
g2788
sg67
(lp2795
S''
asbasbasbag60
(g76
g62
NtRp2796
(dp2797
g65
(dp2798
sg74
g2712
sg67
(lp2799
g60
(g81
g62
NtRp2800
(dp2801
g65
(dp2802
g85
g86
ssg74
g2796
sg67
(lp2803
g358
asbag60
(g81
g62
NtRp2804
(dp2805
g65
(dp2806
g92
g93
ssg74
g2796
sg67
(lp2807
S':'
asbag60
(g81
g62
NtRp2808
(dp2809
g65
(dp2810
sg74
g2796
sg67
(lp2811
g60
(g61
g62
NtRp2812
(dp2813
g65
(dp2814
g73
I3
ssg74
g2808
sg67
(lp2815
S'/'
asbasbasbag60
(g76
g62
NtRp2816
(dp2817
g65
(dp2818
sg74
g2712
sg67
(lp2819
g60
(g81
g62
NtRp2820
(dp2821
g65
(dp2822
g85
g86
ssg74
g2816
sg67
(lp2823
g379
asbag60
(g81
g62
NtRp2824
(dp2825
g65
(dp2826
g92
g93
ssg74
g2816
sg67
(lp2827
S':'
asbag60
(g81
g62
NtRp2828
(dp2829
g65
(dp2830
sg74
g2816
sg67
(lp2831
g60
(g61
g62
NtRp2832
(dp2833
g65
(dp2834
g73
I3
ssg74
g2828
sg67
(lp2835
S''
asbasbasbag60
(g76
g62
NtRp2836
(dp2837
g65
(dp2838
sg74
g2712
sg67
(lp2839
g60
(g81
g62
NtRp2840
(dp2841
g65
(dp2842
g85
g86
ssg74
g2836
sg67
(lp2843
g400
asbag60
(g81
g62
NtRp2844
(dp2845
g65
(dp2846
g92
g93
ssg74
g2836
sg67
(lp2847
S':'
asbag60
(g81
g62
NtRp2848
(dp2849
g65
(dp2850
sg74
g2836
sg67
(lp2851
g60
(g61
g62
NtRp2852
(dp2853
g65
(dp2854
g73
I3
ssg74
g2848
sg67
(lp2855
S''
asbasbasbasbasbasbasbasbasbasbasbag60
(g76
g62
NtRp2856
(dp2857
g65
(dp2858
sg74
g2642
sg67
(lp2859
g60
(g81
g62
NtRp2860
(dp2861
g65
(dp2862
g85
g86
ssg74
g2856
sg67
(lp2863
S'files'
p2864
asbag60
(g81
g62
NtRp2865
(dp2866
g65
(dp2867
g92
g93
ssg74
g2856
sg67
(lp2868
S':'
asbag60
(g81
g62
NtRp2869
(dp2870
g65
(dp2871
sg74
g2856
sg67
(lp2872
g60
(g61
g62
NtRp2873
(dp2874
g65
(dp2875
g73
I5
ssg74
g2869
sg67
(lp2876
g60
(g69
g62
NtRp2877
(dp2878
g65
(dp2879
g73
I4
ssg74
Nsg67
(lp2880
sbasbasbasbag60
(g76
g62
NtRp2881
(dp2882
g65
(dp2883
sg74
g2642
sg67
(lp2884
g60
(g81
g62
NtRp2885
(dp2886
g65
(dp2887
g85
g86
ssg74
g2881
sg67
(lp2888
S'flash'
p2889
asbag60
(g81
g62
NtRp2890
(dp2891
g65
(dp2892
g92
g93
ssg74
g2881
sg67
(lp2893
S':'
asbag60
(g81
g62
NtRp2894
(dp2895
g65
(dp2896
sg74
g2881
sg67
(lp2897
g60
(g61
g62
NtRp2898
(dp2899
g65
(dp2900
g73
I5
ssg74
g2894
sg67
(lp2901
S''
asbasbasbag60
(g76
g62
NtRp2902
(dp2903
g65
(dp2904
sg74
g2642
sg67
(lp2905
g60
(g81
g62
NtRp2906
(dp2907
g65
(dp2908
g85
g86
ssg74
g2902
sg67
(lp2909
S'generic_patterns'
p2910
asbag60
(g81
g62
NtRp2911
(dp2912
g65
(dp2913
g92
g93
ssg74
g2902
sg67
(lp2914
S':'
asbag60
(g81
g62
NtRp2915
(dp2916
g65
(dp2917
sg74
g2902
sg67
(lp2918
g60
(g61
g62
NtRp2919
(dp2920
g65
(dp2921
g73
I5
ssg74
g2915
sg67
(lp2922
g60
(g69
g62
NtRp2923
(dp2924
g65
(dp2925
g73
I4
ssg74
Nsg67
(lp2926
g60
(g76
g62
NtRp2927
(dp2928
g65
(dp2929
sg74
g2923
sg67
(lp2930
g60
(g81
g62
NtRp2931
(dp2932
g65
(dp2933
sg74
g2927
sg67
(lp2934
g60
(g61
g62
NtRp2935
(dp2936
g65
(dp2937
g73
I4
ssg74
g2931
sg67
(lp2938
S'*'
asbasbasbasbasbasbasbag60
(g76
g62
NtRp2939
(dp2940
g65
(dp2941
sg74
g2642
sg67
(lp2942
g60
(g81
g62
NtRp2943
(dp2944
g65
(dp2945
g85
g86
ssg74
g2939
sg67
(lp2946
S'headers'
p2947
asbag60
(g81
g62
NtRp2948
(dp2949
g65
(dp2950
g92
g93
ssg74
g2939
sg67
(lp2951
S':'
asbag60
(g81
g62
NtRp2952
(dp2953
g65
(dp2954
sg74
g2939
sg67
(lp2955
g60
(g61
g62
NtRp2956
(dp2957
g65
(dp2958
g73
I5
ssg74
g2952
sg67
(lp2959
g60
(g69
g62
NtRp2960
(dp2961
g65
(dp2962
g73
I4
ssg74
Nsg67
(lp2963
g60
(g76
g62
NtRp2964
(dp2965
g65
(dp2966
sg74
g2960
sg67
(lp2967
g60
(g81
g62
NtRp2968
(dp2969
g65
(dp2970
g85
g86
ssg74
g2964
sg67
(lp2971
S'Cache-Control'
p2972
asbag60
(g81
g62
NtRp2973
(dp2974
g65
(dp2975
g92
g93
ssg74
g2964
sg67
(lp2976
S':'
asbag60
(g81
g62
NtRp2977
(dp2978
g65
(dp2979
sg74
g2964
sg67
(lp2980
g60
(g61
g62
NtRp2981
(dp2982
g65
(dp2983
g73
I4
ssg74
g2977
sg67
(lp2984
S'no-store, no-cache, must-revalidate, post-check=0, pre-check=0'
p2985
asbasbasbag60
(g76
g62
NtRp2986
(dp2987
g65
(dp2988
sg74
g2960
sg67
(lp2989
g60
(g81
g62
NtRp2990
(dp2991
g65
(dp2992
g85
g86
ssg74
g2986
sg67
(lp2993
S'Content-Type'
p2994
asbag60
(g81
g62
NtRp2995
(dp2996
g65
(dp2997
g92
g93
ssg74
g2986
sg67
(lp2998
S':'
asbag60
(g81
g62
NtRp2999
(dp3000
g65
(dp3001
sg74
g2986
sg67
(lp3002
g60
(g61
g62
NtRp3003
(dp3004
g65
(dp3005
g73
I4
ssg74
g2999
sg67
(lp3006
S'text/html; charset=utf-8'
p3007
asbasbasbag60
(g76
g62
NtRp3008
(dp3009
g65
(dp3010
sg74
g2960
sg67
(lp3011
g60
(g81
g62
NtRp3012
(dp3013
g65
(dp3014
g85
g86
ssg74
g3008
sg67
(lp3015
S'Expires'
p3016
asbag60
(g81
g62
NtRp3017
(dp3018
g65
(dp3019
g92
g93
ssg74
g3008
sg67
(lp3020
S':'
asbag60
(g81
g62
NtRp3021
(dp3022
g65
(dp3023
sg74
g3008
sg67
(lp3024
g60
(g61
g62
NtRp3025
(dp3026
g65
(dp3027
g73
I4
ssg74
g3021
sg67
(lp3028
S'Tue, 06 Sep 2011 21:28:18 GMT'
p3029
asbasbasbag60
(g76
g62
NtRp3030
(dp3031
g65
(dp3032
sg74
g2960
sg67
(lp3033
g60
(g81
g62
NtRp3034
(dp3035
g65
(dp3036
g85
g86
ssg74
g3030
sg67
(lp3037
S'Pragma'
p3038
asbag60
(g81
g62
NtRp3039
(dp3040
g65
(dp3041
g92
g93
ssg74
g3030
sg67
(lp3042
S':'
asbag60
(g81
g62
NtRp3043
(dp3044
g65
(dp3045
sg74
g3030
sg67
(lp3046
g60
(g61
g62
NtRp3047
(dp3048
g65
(dp3049
g73
I4
ssg74
g3043
sg67
(lp3050
S'no-cache'
p3051
asbasbasbag60
(g76
g62
NtRp3052
(dp3053
g65
(dp3054
sg74
g2960
sg67
(lp3055
g60
(g81
g62
NtRp3056
(dp3057
g65
(dp3058
g85
g86
ssg74
g3052
sg67
(lp3059
S'X-Powered-By'
p3060
asbag60
(g81
g62
NtRp3061
(dp3062
g65
(dp3063
g92
g93
ssg74
g3052
sg67
(lp3064
S':'
asbag60
(g81
g62
NtRp3065
(dp3066
g65
(dp3067
sg74
g3052
sg67
(lp3068
g60
(g61
g62
NtRp3069
(dp3070
g65
(dp3071
g73
I4
ssg74
g3065
sg67
(lp3072
S'web2py'
p3073
asbasbasbasbasbasbasbag60
(g76
g62
NtRp3074
(dp3075
g65
(dp3076
sg74
g2642
sg67
(lp3077
g60
(g81
g62
NtRp3078
(dp3079
g65
(dp3080
g85
g86
ssg74
g3074
sg67
(lp3081
S'menu'
p3082
asbag60
(g81
g62
NtRp3083
(dp3084
g65
(dp3085
g92
g93
ssg74
g3074
sg67
(lp3086
S':'
asbag60
(g81
g62
NtRp3087
(dp3088
g65
(dp3089
sg74
g3074
sg67
(lp3090
g60
(g61
g62
NtRp3091
(dp3092
g65
(dp3093
g73
I5
ssg74
g3087
sg67
(lp3094
g60
(g69
g62
NtRp3095
(dp3096
g65
(dp3097
g73
I4
ssg74
Nsg67
(lp3098
g60
(g76
g62
NtRp3099
(dp3100
g65
(dp3101
sg74
g3095
sg67
(lp3102
g60
(g81
g62
NtRp3103
(dp3104
g65
(dp3105
sg74
g3099
sg67
(lp3106
g60
(g61
g62
NtRp3107
(dp3108
g65
(dp3109
g73
I4
ssg74
g3103
sg67
(lp3110
g60
(g69
g62
NtRp3111
(dp3112
g65
(dp3113
g73
I3
ssg74
Nsg67
(lp3114
g60
(g76
g62
NtRp3115
(dp3116
g65
(dp3117
sg74
g3111
sg67
(lp3118
g60
(g81
g62
NtRp3119
(dp3120
g65
(dp3121
sg74
g3115
sg67
(lp3122
g60
(g61
g62
NtRp3123
(dp3124
g65
(dp3125
g73
I3
ssg74
g3119
sg67
(lp3126
cgluon.languages
lazyT_unpickle
p3127
(S's\x04\x00\x00\x00Home'
tRp3128
asbasbasbag60
(g76
g62
NtRp3129
(dp3130
g65
(dp3131
sg74
g3111
sg67
(lp3132
g60
(g81
g62
NtRp3133
(dp3134
g65
(dp3135
sg74
g3129
sg67
(lp3136
g60
(g61
g62
NtRp3137
(dp3138
g65
(dp3139
g73
I3
ssg74
g3133
sg67
(lp3140
g103
asbasbasbag60
(g76
g62
NtRp3141
(dp3142
g65
(dp3143
sg74
g3111
sg67
(lp3144
g60
(g81
g62
NtRp3145
(dp3146
g65
(dp3147
sg74
g3141
sg67
(lp3148
g60
(g61
g62
NtRp3149
(dp3150
g65
(dp3151
g73
I3
ssg74
g3145
sg67
(lp3152
S'/201056161/default/index'
p3153
asbasbasbag60
(g76
g62
NtRp3154
(dp3155
g65
(dp3156
sg74
g3111
sg67
(lp3157
g60
(g81
g62
NtRp3158
(dp3159
g65
(dp3160
sg74
g3154
sg67
(lp3161
g60
(g61
g62
NtRp3162
(dp3163
g65
(dp3164
g73
I3
ssg74
g3158
sg67
(lp3165
g60
(g69
g62
NtRp3166
(dp3167
g65
(dp3168
g73
I2
ssg74
Nsg67
(lp3169
sbasbasbasbasbasbasbasbag60
(g76
g62
NtRp3170
(dp3171
g65
(dp3172
sg74
g3095
sg67
(lp3173
g60
(g81
g62
NtRp3174
(dp3175
g65
(dp3176
sg74
g3170
sg67
(lp3177
g60
(g61
g62
NtRp3178
(dp3179
g65
(dp3180
g73
I4
ssg74
g3174
sg67
(lp3181
g60
(g69
g62
NtRp3182
(dp3183
g65
(dp3184
g73
I3
ssg74
Nsg67
(lp3185
g60
(g76
g62
NtRp3186
(dp3187
g65
(dp3188
sg74
g3182
sg67
(lp3189
g60
(g81
g62
NtRp3190
(dp3191
g65
(dp3192
sg74
g3186
sg67
(lp3193
g60
(g61
g62
NtRp3194
(dp3195
g65
(dp3196
g73
I3
ssg74
g3190
sg67
(lp3197
g3127
(S's\x08\x00\x00\x00This App'
tRp3198
asbasbasbag60
(g76
g62
NtRp3199
(dp3200
g65
(dp3201
sg74
g3182
sg67
(lp3202
g60
(g81
g62
NtRp3203
(dp3204
g65
(dp3205
sg74
g3199
sg67
(lp3206
g60
(g61
g62
NtRp3207
(dp3208
g65
(dp3209
g73
I3
ssg74
g3203
sg67
(lp3210
g103
asbasbasbag60
(g76
g62
NtRp3211
(dp3212
g65
(dp3213
sg74
g3182
sg67
(lp3214
g60
(g81
g62
NtRp3215
(dp3216
g65
(dp3217
sg74
g3211
sg67
(lp3218
g60
(g61
g62
NtRp3219
(dp3220
g65
(dp3221
g73
I3
ssg74
g3215
sg67
(lp3222
S'/admin/default/design/201056161'
p3223
asbasbasbag60
(g76
g62
NtRp3224
(dp3225
g65
(dp3226
sg74
g3182
sg67
(lp3227
g60
(g81
g62
NtRp3228
(dp3229
g65
(dp3230
sg74
g3224
sg67
(lp3231
g60
(g61
g62
NtRp3232
(dp3233
g65
(dp3234
g73
I3
ssg74
g3228
sg67
(lp3235
g60
(g69
g62
NtRp3236
(dp3237
g65
(dp3238
g73
I2
ssg74
Nsg67
(lp3239
g60
(g76
g62
NtRp3240
(dp3241
g65
(dp3242
sg74
g3236
sg67
(lp3243
g60
(g81
g62
NtRp3244
(dp3245
g65
(dp3246
sg74
g3240
sg67
(lp3247
g60
(g61
g62
NtRp3248
(dp3249
g65
(dp3250
g73
I2
ssg74
g3244
sg67
(lp3251
g60
(g69
g62
NtRp3252
(dp3253
g65
(dp3254
g73
I1
ssg74
Nsg67
(lp3255
g60
(g76
g62
NtRp3256
(dp3257
g65
(dp3258
sg74
g3252
sg67
(lp3259
g60
(g81
g62
NtRp3260
(dp3261
g65
(dp3262
sg74
g3256
sg67
(lp3263
g60
(g61
g62
NtRp3264
(dp3265
g65
(dp3266
g73
I1
ssg74
g3260
sg67
(lp3267
g3127
(S's\n\x00\x00\x00Controller'
tRp3268
asbasbasbag60
(g76
g62
NtRp3269
(dp3270
g65
(dp3271
sg74
g3252
sg67
(lp3272
g60
(g81
g62
NtRp3273
(dp3274
g65
(dp3275
sg74
g3269
sg67
(lp3276
g60
(g61
g62
NtRp3277
(dp3278
g65
(dp3279
g73
I1
ssg74
g3273
sg67
(lp3280
I00
asbasbasbag60
(g76
g62
NtRp3281
(dp3282
g65
(dp3283
sg74
g3252
sg67
(lp3284
g60
(g81
g62
NtRp3285
(dp3286
g65
(dp3287
sg74
g3281
sg67
(lp3288
g60
(g61
g62
NtRp3289
(dp3290
g65
(dp3291
g73
I1
ssg74
g3285
sg67
(lp3292
S'/admin/default/edit/201056161/controllers/default.py'
p3293
asbasbasbasbasbasbasbag60
(g76
g62
NtRp3294
(dp3295
g65
(dp3296
sg74
g3236
sg67
(lp3297
g60
(g81
g62
NtRp3298
(dp3299
g65
(dp3300
sg74
g3294
sg67
(lp3301
g60
(g61
g62
NtRp3302
(dp3303
g65
(dp3304
g73
I2
ssg74
g3298
sg67
(lp3305
g60
(g69
g62
NtRp3306
(dp3307
g65
(dp3308
g73
I1
ssg74
Nsg67
(lp3309
g60
(g76
g62
NtRp3310
(dp3311
g65
(dp3312
sg74
g3306
sg67
(lp3313
g60
(g81
g62
NtRp3314
(dp3315
g65
(dp3316
sg74
g3310
sg67
(lp3317
g60
(g61
g62
NtRp3318
(dp3319
g65
(dp3320
g73
I1
ssg74
g3314
sg67
(lp3321
g3127
(S's\x04\x00\x00\x00View'
tRp3322
asbasbasbag60
(g76
g62
NtRp3323
(dp3324
g65
(dp3325
sg74
g3306
sg67
(lp3326
g60
(g81
g62
NtRp3327
(dp3328
g65
(dp3329
sg74
g3323
sg67
(lp3330
g60
(g61
g62
NtRp3331
(dp3332
g65
(dp3333
g73
I1
ssg74
g3327
sg67
(lp3334
I00
asbasbasbag60
(g76
g62
NtRp3335
(dp3336
g65
(dp3337
sg74
g3306
sg67
(lp3338
g60
(g81
g62
NtRp3339
(dp3340
g65
(dp3341
sg74
g3335
sg67
(lp3342
g60
(g61
g62
NtRp3343
(dp3344
g65
(dp3345
g73
I1
ssg74
g3339
sg67
(lp3346
S'/admin/default/edit/201056161/views/default/q2s.html'
p3347
asbasbasbasbasbasbasbag60
(g76
g62
NtRp3348
(dp3349
g65
(dp3350
sg74
g3236
sg67
(lp3351
g60
(g81
g62
NtRp3352
(dp3353
g65
(dp3354
sg74
g3348
sg67
(lp3355
g60
(g61
g62
NtRp3356
(dp3357
g65
(dp3358
g73
I2
ssg74
g3352
sg67
(lp3359
g60
(g69
g62
NtRp3360
(dp3361
g65
(dp3362
g73
I1
ssg74
Nsg67
(lp3363
g60
(g76
g62
NtRp3364
(dp3365
g65
(dp3366
sg74
g3360
sg67
(lp3367
g60
(g81
g62
NtRp3368
(dp3369
g65
(dp3370
sg74
g3364
sg67
(lp3371
g60
(g61
g62
NtRp3372
(dp3373
g65
(dp3374
g73
I1
ssg74
g3368
sg67
(lp3375
g3127
(S's\x06\x00\x00\x00Layout'
tRp3376
asbasbasbag60
(g76
g62
NtRp3377
(dp3378
g65
(dp3379
sg74
g3360
sg67
(lp3380
g60
(g81
g62
NtRp3381
(dp3382
g65
(dp3383
sg74
g3377
sg67
(lp3384
g60
(g61
g62
NtRp3385
(dp3386
g65
(dp3387
g73
I1
ssg74
g3381
sg67
(lp3388
I00
asbasbasbag60
(g76
g62
NtRp3389
(dp3390
g65
(dp3391
sg74
g3360
sg67
(lp3392
g60
(g81
g62
NtRp3393
(dp3394
g65
(dp3395
sg74
g3389
sg67
(lp3396
g60
(g61
g62
NtRp3397
(dp3398
g65
(dp3399
g73
I1
ssg74
g3393
sg67
(lp3400
S'/admin/default/edit/201056161/views/layout.html'
p3401
asbasbasbasbasbasbasbag60
(g76
g62
NtRp3402
(dp3403
g65
(dp3404
sg74
g3236
sg67
(lp3405
g60
(g81
g62
NtRp3406
(dp3407
g65
(dp3408
sg74
g3402
sg67
(lp3409
g60
(g61
g62
NtRp3410
(dp3411
g65
(dp3412
g73
I2
ssg74
g3406
sg67
(lp3413
g60
(g69
g62
NtRp3414
(dp3415
g65
(dp3416
g73
I1
ssg74
Nsg67
(lp3417
g60
(g76
g62
NtRp3418
(dp3419
g65
(dp3420
sg74
g3414
sg67
(lp3421
g60
(g81
g62
NtRp3422
(dp3423
g65
(dp3424
sg74
g3418
sg67
(lp3425
g60
(g61
g62
NtRp3426
(dp3427
g65
(dp3428
g73
I1
ssg74
g3422
sg67
(lp3429
g3127
(S's\n\x00\x00\x00Stylesheet'
tRp3430
asbasbasbag60
(g76
g62
NtRp3431
(dp3432
g65
(dp3433
sg74
g3414
sg67
(lp3434
g60
(g81
g62
NtRp3435
(dp3436
g65
(dp3437
sg74
g3431
sg67
(lp3438
g60
(g61
g62
NtRp3439
(dp3440
g65
(dp3441
g73
I1
ssg74
g3435
sg67
(lp3442
I00
asbasbasbag60
(g76
g62
NtRp3443
(dp3444
g65
(dp3445
sg74
g3414
sg67
(lp3446
g60
(g81
g62
NtRp3447
(dp3448
g65
(dp3449
sg74
g3443
sg67
(lp3450
g60
(g61
g62
NtRp3451
(dp3452
g65
(dp3453
g73
I1
ssg74
g3447
sg67
(lp3454
S'/admin/default/edit/201056161/static/base.css'
p3455
asbasbasbasbasbasbasbag60
(g76
g62
NtRp3456
(dp3457
g65
(dp3458
sg74
g3236
sg67
(lp3459
g60
(g81
g62
NtRp3460
(dp3461
g65
(dp3462
sg74
g3456
sg67
(lp3463
g60
(g61
g62
NtRp3464
(dp3465
g65
(dp3466
g73
I2
ssg74
g3460
sg67
(lp3467
g60
(g69
g62
NtRp3468
(dp3469
g65
(dp3470
g73
I1
ssg74
Nsg67
(lp3471
g60
(g76
g62
NtRp3472
(dp3473
g65
(dp3474
sg74
g3468
sg67
(lp3475
g60
(g81
g62
NtRp3476
(dp3477
g65
(dp3478
sg74
g3472
sg67
(lp3479
g60
(g61
g62
NtRp3480
(dp3481
g65
(dp3482
g73
I1
ssg74
g3476
sg67
(lp3483
g3127
(S's\x08\x00\x00\x00DB Model'
tRp3484
asbasbasbag60
(g76
g62
NtRp3485
(dp3486
g65
(dp3487
sg74
g3468
sg67
(lp3488
g60
(g81
g62
NtRp3489
(dp3490
g65
(dp3491
sg74
g3485
sg67
(lp3492
g60
(g61
g62
NtRp3493
(dp3494
g65
(dp3495
g73
I1
ssg74
g3489
sg67
(lp3496
I00
asbasbasbag60
(g76
g62
NtRp3497
(dp3498
g65
(dp3499
sg74
g3468
sg67
(lp3500
g60
(g81
g62
NtRp3501
(dp3502
g65
(dp3503
sg74
g3497
sg67
(lp3504
g60
(g61
g62
NtRp3505
(dp3506
g65
(dp3507
g73
I1
ssg74
g3501
sg67
(lp3508
S'/admin/default/edit/201056161/models/db.py'
p3509
asbasbasbasbasbasbasbag60
(g76
g62
NtRp3510
(dp3511
g65
(dp3512
sg74
g3236
sg67
(lp3513
g60
(g81
g62
NtRp3514
(dp3515
g65
(dp3516
sg74
g3510
sg67
(lp3517
g60
(g61
g62
NtRp3518
(dp3519
g65
(dp3520
g73
I2
ssg74
g3514
sg67
(lp3521
g60
(g69
g62
NtRp3522
(dp3523
g65
(dp3524
g73
I1
ssg74
Nsg67
(lp3525
g60
(g76
g62
NtRp3526
(dp3527
g65
(dp3528
sg74
g3522
sg67
(lp3529
g60
(g81
g62
NtRp3530
(dp3531
g65
(dp3532
sg74
g3526
sg67
(lp3533
g60
(g61
g62
NtRp3534
(dp3535
g65
(dp3536
g73
I1
ssg74
g3530
sg67
(lp3537
g3127
(S's\n\x00\x00\x00Menu Model'
tRp3538
asbasbasbag60
(g76
g62
NtRp3539
(dp3540
g65
(dp3541
sg74
g3522
sg67
(lp3542
g60
(g81
g62
NtRp3543
(dp3544
g65
(dp3545
sg74
g3539
sg67
(lp3546
g60
(g61
g62
NtRp3547
(dp3548
g65
(dp3549
g73
I1
ssg74
g3543
sg67
(lp3550
I00
asbasbasbag60
(g76
g62
NtRp3551
(dp3552
g65
(dp3553
sg74
g3522
sg67
(lp3554
g60
(g81
g62
NtRp3555
(dp3556
g65
(dp3557
sg74
g3551
sg67
(lp3558
g60
(g61
g62
NtRp3559
(dp3560
g65
(dp3561
g73
I1
ssg74
g3555
sg67
(lp3562
S'/admin/default/edit/201056161/models/menu.py'
p3563
asbasbasbasbasbasbasbag60
(g76
g62
NtRp3564
(dp3565
g65
(dp3566
sg74
g3236
sg67
(lp3567
g60
(g81
g62
NtRp3568
(dp3569
g65
(dp3570
sg74
g3564
sg67
(lp3571
g60
(g61
g62
NtRp3572
(dp3573
g65
(dp3574
g73
I2
ssg74
g3568
sg67
(lp3575
g60
(g69
g62
NtRp3576
(dp3577
g65
(dp3578
g73
I1
ssg74
Nsg67
(lp3579
g60
(g76
g62
NtRp3580
(dp3581
g65
(dp3582
sg74
g3576
sg67
(lp3583
g60
(g81
g62
NtRp3584
(dp3585
g65
(dp3586
sg74
g3580
sg67
(lp3587
g60
(g61
g62
NtRp3588
(dp3589
g65
(dp3590
g73
I1
ssg74
g3584
sg67
(lp3591
g3127
(S's\x08\x00\x00\x00Database'
tRp3592
asbasbasbag60
(g76
g62
NtRp3593
(dp3594
g65
(dp3595
sg74
g3576
sg67
(lp3596
g60
(g81
g62
NtRp3597
(dp3598
g65
(dp3599
sg74
g3593
sg67
(lp3600
g60
(g61
g62
NtRp3601
(dp3602
g65
(dp3603
g73
I1
ssg74
g3597
sg67
(lp3604
I00
asbasbasbag60
(g76
g62
NtRp3605
(dp3606
g65
(dp3607
sg74
g3576
sg67
(lp3608
g60
(g81
g62
NtRp3609
(dp3610
g65
(dp3611
sg74
g3605
sg67
(lp3612
g60
(g61
g62
NtRp3613
(dp3614
g65
(dp3615
g73
I1
ssg74
g3609
sg67
(lp3616
S'/201056161/appadmin/index'
p3617
asbasbasbasbasbasbasbag60
(g76
g62
NtRp3618
(dp3619
g65
(dp3620
sg74
g3236
sg67
(lp3621
g60
(g81
g62
NtRp3622
(dp3623
g65
(dp3624
sg74
g3618
sg67
(lp3625
g60
(g61
g62
NtRp3626
(dp3627
g65
(dp3628
g73
I2
ssg74
g3622
sg67
(lp3629
g60
(g69
g62
NtRp3630
(dp3631
g65
(dp3632
g73
I1
ssg74
Nsg67
(lp3633
g60
(g76
g62
NtRp3634
(dp3635
g65
(dp3636
sg74
g3630
sg67
(lp3637
g60
(g81
g62
NtRp3638
(dp3639
g65
(dp3640
sg74
g3634
sg67
(lp3641
g60
(g61
g62
NtRp3642
(dp3643
g65
(dp3644
g73
I1
ssg74
g3638
sg67
(lp3645
g3127
(S's\x06\x00\x00\x00Errors'
tRp3646
asbasbasbag60
(g76
g62
NtRp3647
(dp3648
g65
(dp3649
sg74
g3630
sg67
(lp3650
g60
(g81
g62
NtRp3651
(dp3652
g65
(dp3653
sg74
g3647
sg67
(lp3654
g60
(g61
g62
NtRp3655
(dp3656
g65
(dp3657
g73
I1
ssg74
g3651
sg67
(lp3658
I00
asbasbasbag60
(g76
g62
NtRp3659
(dp3660
g65
(dp3661
sg74
g3630
sg67
(lp3662
g60
(g81
g62
NtRp3663
(dp3664
g65
(dp3665
sg74
g3659
sg67
(lp3666
g60
(g61
g62
NtRp3667
(dp3668
g65
(dp3669
g73
I1
ssg74
g3663
sg67
(lp3670
S'/admin/default/errors/201056161'
p3671
asbasbasbasbasbasbasbag60
(g76
g62
NtRp3672
(dp3673
g65
(dp3674
sg74
g3236
sg67
(lp3675
g60
(g81
g62
NtRp3676
(dp3677
g65
(dp3678
sg74
g3672
sg67
(lp3679
g60
(g61
g62
NtRp3680
(dp3681
g65
(dp3682
g73
I2
ssg74
g3676
sg67
(lp3683
g60
(g69
g62
NtRp3684
(dp3685
g65
(dp3686
g73
I1
ssg74
Nsg67
(lp3687
g60
(g76
g62
NtRp3688
(dp3689
g65
(dp3690
sg74
g3684
sg67
(lp3691
g60
(g81
g62
NtRp3692
(dp3693
g65
(dp3694
sg74
g3688
sg67
(lp3695
g60
(g61
g62
NtRp3696
(dp3697
g65
(dp3698
g73
I1
ssg74
g3692
sg67
(lp3699
g3127
(S's\x05\x00\x00\x00About'
tRp3700
asbasbasbag60
(g76
g62
NtRp3701
(dp3702
g65
(dp3703
sg74
g3684
sg67
(lp3704
g60
(g81
g62
NtRp3705
(dp3706
g65
(dp3707
sg74
g3701
sg67
(lp3708
g60
(g61
g62
NtRp3709
(dp3710
g65
(dp3711
g73
I1
ssg74
g3705
sg67
(lp3712
I00
asbasbasbag60
(g76
g62
NtRp3713
(dp3714
g65
(dp3715
sg74
g3684
sg67
(lp3716
g60
(g81
g62
NtRp3717
(dp3718
g65
(dp3719
sg74
g3713
sg67
(lp3720
g60
(g61
g62
NtRp3721
(dp3722
g65
(dp3723
g73
I1
ssg74
g3717
sg67
(lp3724
S'/admin/default/about/201056161'
p3725
asbasbasbasbasbasbasbasbasbasbasbasbasbasbasbag60
(g76
g62
NtRp3726
(dp3727
g65
(dp3728
sg74
g3095
sg67
(lp3729
g60
(g81
g62
NtRp3730
(dp3731
g65
(dp3732
sg74
g3726
sg67
(lp3733
g60
(g61
g62
NtRp3734
(dp3735
g65
(dp3736
g73
I4
ssg74
g3730
sg67
(lp3737
g60
(g69
g62
NtRp3738
(dp3739
g65
(dp3740
g73
I3
ssg74
Nsg67
(lp3741
g60
(g76
g62
NtRp3742
(dp3743
g65
(dp3744
sg74
g3738
sg67
(lp3745
g60
(g81
g62
NtRp3746
(dp3747
g65
(dp3748
sg74
g3742
sg67
(lp3749
g60
(g61
g62
NtRp3750
(dp3751
g65
(dp3752
g73
I3
ssg74
g3746
sg67
(lp3753
g3127
(S's\t\x00\x00\x00Resources'
tRp3754
asbasbasbag60
(g76
g62
NtRp3755
(dp3756
g65
(dp3757
sg74
g3738
sg67
(lp3758
g60
(g81
g62
NtRp3759
(dp3760
g65
(dp3761
sg74
g3755
sg67
(lp3762
g60
(g61
g62
NtRp3763
(dp3764
g65
(dp3765
g73
I3
ssg74
g3759
sg67
(lp3766
g103
asbasbasbag60
(g76
g62
NtRp3767
(dp3768
g65
(dp3769
sg74
g3738
sg67
(lp3770
g60
(g81
g62
NtRp3771
(dp3772
g65
(dp3773
sg74
g3767
sg67
(lp3774
g60
(g61
g62
NtRp3775
(dp3776
g65
(dp3777
g73
I3
ssg74
g3771
sg67
(lp3778
S'None'
p3779
asbasbasbag60
(g76
g62
NtRp3780
(dp3781
g65
(dp3782
sg74
g3738
sg67
(lp3783
g60
(g81
g62
NtRp3784
(dp3785
g65
(dp3786
sg74
g3780
sg67
(lp3787
g60
(g61
g62
NtRp3788
(dp3789
g65
(dp3790
g73
I3
ssg74
g3784
sg67
(lp3791
g60
(g69
g62
NtRp3792
(dp3793
g65
(dp3794
g73
I2
ssg74
Nsg67
(lp3795
g60
(g76
g62
NtRp3796
(dp3797
g65
(dp3798
sg74
g3792
sg67
(lp3799
g60
(g81
g62
NtRp3800
(dp3801
g65
(dp3802
sg74
g3796
sg67
(lp3803
g60
(g61
g62
NtRp3804
(dp3805
g65
(dp3806
g73
I2
ssg74
g3800
sg67
(lp3807
g60
(g69
g62
NtRp3808
(dp3809
g65
(dp3810
g73
I1
ssg74
Nsg67
(lp3811
g60
(g76
g62
NtRp3812
(dp3813
g65
(dp3814
sg74
g3808
sg67
(lp3815
g60
(g81
g62
NtRp3816
(dp3817
g65
(dp3818
sg74
g3812
sg67
(lp3819
g60
(g61
g62
NtRp3820
(dp3821
g65
(dp3822
g73
I1
ssg74
g3816
sg67
(lp3823
g3127
(S's\r\x00\x00\x00Documentation'
tRp3824
asbasbasbag60
(g76
g62
NtRp3825
(dp3826
g65
(dp3827
sg74
g3808
sg67
(lp3828
g60
(g81
g62
NtRp3829
(dp3830
g65
(dp3831
sg74
g3825
sg67
(lp3832
g60
(g61
g62
NtRp3833
(dp3834
g65
(dp3835
g73
I1
ssg74
g3829
sg67
(lp3836
I00
asbasbasbag60
(g76
g62
NtRp3837
(dp3838
g65
(dp3839
sg74
g3808
sg67
(lp3840
g60
(g81
g62
NtRp3841
(dp3842
g65
(dp3843
sg74
g3837
sg67
(lp3844
g60
(g61
g62
NtRp3845
(dp3846
g65
(dp3847
g73
I1
ssg74
g3841
sg67
(lp3848
S'http://www.web2py.com/book'
p3849
asbasbasbag60
(g76
g62
NtRp3850
(dp3851
g65
(dp3852
sg74
g3808
sg67
(lp3853
g60
(g81
g62
NtRp3854
(dp3855
g65
(dp3856
sg74
g3850
sg67
(lp3857
g60
(g61
g62
NtRp3858
(dp3859
g65
(dp3860
g73
I1
ssg74
g3854
sg67
(lp3861
(lp3862
(g3127
(S's\x07\x00\x00\x00Preface'
tRp3863
I00
S'http://www.web2py.com/book/default/chapter/00'
tp3864
a(g3127
(S's\x0c\x00\x00\x00Introduction'
tRp3865
I00
S'http://www.web2py.com/book/default/chapter/01'
tp3866
a(g3127
(S's\x06\x00\x00\x00Python'
tRp3867
I00
S'http://www.web2py.com/book/default/chapter/02'
tp3868
a(g3127
(S's\x08\x00\x00\x00Overview'
tRp3869
I00
S'http://www.web2py.com/book/default/chapter/03'
tp3870
a(g3127
(S's\x08\x00\x00\x00The Core'
tRp3871
I00
S'http://www.web2py.com/book/default/chapter/04'
tp3872
a(g3127
(S's\t\x00\x00\x00The Views'
tRp3873
I00
S'http://www.web2py.com/book/default/chapter/05'
tp3874
a(g3127
(S's\x08\x00\x00\x00Database'
tRp3875
I00
S'http://www.web2py.com/book/default/chapter/06'
tp3876
a(g3127
(S's\x14\x00\x00\x00Forms and Validators'
tRp3877
I00
S'http://www.web2py.com/book/default/chapter/07'
tp3878
a(g3127
(S's\x0e\x00\x00\x00Access Control'
tRp3879
I00
S'http://www.web2py.com/book/default/chapter/08'
tp3880
a(g3127
(S's\x08\x00\x00\x00Services'
tRp3881
I00
S'http://www.web2py.com/book/default/chapter/09'
tp3882
a(g3127
(S's\x0c\x00\x00\x00Ajax Recipes'
tRp3883
I00
S'http://www.web2py.com/book/default/chapter/10'
tp3884
a(g3127
(S's\x12\x00\x00\x00Deployment Recipes'
tRp3885
I00
S'http://www.web2py.com/book/default/chapter/11'
tp3886
a(g3127
(S's\r\x00\x00\x00Other Recipes'
tRp3887
I00
S'http://www.web2py.com/book/default/chapter/12'
tp3888
a(g3127
(S's\r\x00\x00\x00Buy this book'
tRp3889
I00
S'http://stores.lulu.com/web2py'
tp3890
aasbasbasbasbasbasbasbag60
(g76
g62
NtRp3891
(dp3892
g65
(dp3893
sg74
g3792
sg67
(lp3894
g60
(g81
g62
NtRp3895
(dp3896
g65
(dp3897
sg74
g3891
sg67
(lp3898
g60
(g61
g62
NtRp3899
(dp3900
g65
(dp3901
g73
I2
ssg74
g3895
sg67
(lp3902
g60
(g69
g62
NtRp3903
(dp3904
g65
(dp3905
g73
I1
ssg74
Nsg67
(lp3906
g60
(g76
g62
NtRp3907
(dp3908
g65
(dp3909
sg74
g3903
sg67
(lp3910
g60
(g81
g62
NtRp3911
(dp3912
g65
(dp3913
sg74
g3907
sg67
(lp3914
g60
(g61
g62
NtRp3915
(dp3916
g65
(dp3917
g73
I1
ssg74
g3911
sg67
(lp3918
g3127
(S's\t\x00\x00\x00Community'
tRp3919
asbasbasbag60
(g76
g62
NtRp3920
(dp3921
g65
(dp3922
sg74
g3903
sg67
(lp3923
g60
(g81
g62
NtRp3924
(dp3925
g65
(dp3926
sg74
g3920
sg67
(lp3927
g60
(g61
g62
NtRp3928
(dp3929
g65
(dp3930
g73
I1
ssg74
g3924
sg67
(lp3931
I00
asbasbasbag60
(g76
g62
NtRp3932
(dp3933
g65
(dp3934
sg74
g3903
sg67
(lp3935
g60
(g81
g62
NtRp3936
(dp3937
g65
(dp3938
sg74
g3932
sg67
(lp3939
g60
(g61
g62
NtRp3940
(dp3941
g65
(dp3942
g73
I1
ssg74
g3936
sg67
(lp3943
Nasbasbasbag60
(g76
g62
NtRp3944
(dp3945
g65
(dp3946
sg74
g3903
sg67
(lp3947
g60
(g81
g62
NtRp3948
(dp3949
g65
(dp3950
sg74
g3944
sg67
(lp3951
g60
(g61
g62
NtRp3952
(dp3953
g65
(dp3954
g73
I1
ssg74
g3948
sg67
(lp3955
(lp3956
(g3127
(S's\x06\x00\x00\x00Groups'
tRp3957
I00
S'http://www.web2py.com/examples/default/usergroups'
tp3958
a(g3127
(S's\x07\x00\x00\x00Twitter'
tRp3959
I00
S'http://twitter.com/web2py'
tp3960
a(g3127
(S's\t\x00\x00\x00Live chat'
tRp3961
I00
S'http://mibbit.com/?channel=%23web2py&server=irc.mibbit.net'
tp3962
a(g3127
(S's\n\x00\x00\x00User Voice'
tRp3963
I00
S'http://web2py.uservoice.com/'
tp3964
aasbasbasbasbasbasbasbag60
(g76
g62
NtRp3965
(dp3966
g65
(dp3967
sg74
g3792
sg67
(lp3968
g60
(g81
g62
NtRp3969
(dp3970
g65
(dp3971
sg74
g3965
sg67
(lp3972
g60
(g61
g62
NtRp3973
(dp3974
g65
(dp3975
g73
I2
ssg74
g3969
sg67
(lp3976
g60
(g69
g62
NtRp3977
(dp3978
g65
(dp3979
g73
I1
ssg74
Nsg67
(lp3980
g60
(g76
g62
NtRp3981
(dp3982
g65
(dp3983
sg74
g3977
sg67
(lp3984
g60
(g81
g62
NtRp3985
(dp3986
g65
(dp3987
sg74
g3981
sg67
(lp3988
g60
(g61
g62
NtRp3989
(dp3990
g65
(dp3991
g73
I1
ssg74
g3985
sg67
(lp3992
g3127
(S's\x06\x00\x00\x00Web2py'
tRp3993
asbasbasbag60
(g76
g62
NtRp3994
(dp3995
g65
(dp3996
sg74
g3977
sg67
(lp3997
g60
(g81
g62
NtRp3998
(dp3999
g65
(dp4000
sg74
g3994
sg67
(lp4001
g60
(g61
g62
NtRp4002
(dp4003
g65
(dp4004
g73
I1
ssg74
g3998
sg67
(lp4005
I00
asbasbasbag60
(g76
g62
NtRp4006
(dp4007
g65
(dp4008
sg74
g3977
sg67
(lp4009
g60
(g81
g62
NtRp4010
(dp4011
g65
(dp4012
sg74
g4006
sg67
(lp4013
g60
(g61
g62
NtRp4014
(dp4015
g65
(dp4016
g73
I1
ssg74
g4010
sg67
(lp4017
S'http://www.web2py.com'
p4018
asbasbasbag60
(g76
g62
NtRp4019
(dp4020
g65
(dp4021
sg74
g3977
sg67
(lp4022
g60
(g81
g62
NtRp4023
(dp4024
g65
(dp4025
sg74
g4019
sg67
(lp4026
g60
(g61
g62
NtRp4027
(dp4028
g65
(dp4029
g73
I1
ssg74
g4023
sg67
(lp4030
(lp4031
(g3127
(S's\x08\x00\x00\x00Download'
tRp4032
I00
S'http://www.web2py.com/examples/default/download'
tp4033
a(g3127
(S's\x07\x00\x00\x00Support'
tRp4034
I00
S'http://www.web2py.com/examples/default/support'
tp4035
a(g3127
(S's\x0e\x00\x00\x00Quick Examples'
tRp4036
I00
S'http://web2py.com/examples/default/examples'
tp4037
a(g3127
(S's\x03\x00\x00\x00FAQ'
tRp4038
I00
S'http://web2py.com/AlterEgo'
tp4039
a(g3127
(S's\x11\x00\x00\x00Free Applications'
tRp4040
I00
S'http://web2py.com/appliances'
tp4041
a(g3127
(S's\x07\x00\x00\x00Plugins'
tRp4042
I00
S'http://web2py.com/plugins'
tp4043
a(g3127
(S's\x07\x00\x00\x00Recipes'
tRp4044
I00
S'http://web2pyslices.com/'
tp4045
a(g3127
(S's\x04\x00\x00\x00Demo'
tRp4046
I00
S'http://web2py.com/demo_admin'
tp4047
a(g3127
(S's\x08\x00\x00\x00Semantic'
tRp4048
I00
S'http://web2py.com/semantic'
tp4049
a(g3127
(S's\x07\x00\x00\x00Layouts'
tRp4050
I00
S'http://web2py.com/layouts'
tp4051
a(g3127
(S's\x06\x00\x00\x00Videos'
tRp4052
I00
S'http://www.web2py.com/examples/default/videos/'
tp4053
aasbasbasbasbasbasbasbasbasbasbasbasbasbasbasbasbasbasbasbag60
(g76
g62
NtRp4054
(dp4055
g65
(dp4056
sg74
g2642
sg67
(lp4057
g60
(g81
g62
NtRp4058
(dp4059
g65
(dp4060
g85
g86
ssg74
g4054
sg67
(lp4061
S'meta'
p4062
asbag60
(g81
g62
NtRp4063
(dp4064
g65
(dp4065
g92
g93
ssg74
g4054
sg67
(lp4066
S':'
asbag60
(g81
g62
NtRp4067
(dp4068
g65
(dp4069
sg74
g4054
sg67
(lp4070
g60
(g61
g62
NtRp4071
(dp4072
g65
(dp4073
g73
I5
ssg74
g4067
sg67
(lp4074
g60
(g69
g62
NtRp4075
(dp4076
g65
(dp4077
g73
I4
ssg74
Nsg67
(lp4078
g60
(g76
g62
NtRp4079
(dp4080
g65
(dp4081
sg74
g4075
sg67
(lp4082
g60
(g81
g62
NtRp4083
(dp4084
g65
(dp4085
g85
g86
ssg74
g4079
sg67
(lp4086
S'author'
p4087
asbag60
(g81
g62
NtRp4088
(dp4089
g65
(dp4090
g92
g93
ssg74
g4079
sg67
(lp4091
S':'
asbag60
(g81
g62
NtRp4092
(dp4093
g65
(dp4094
sg74
g4079
sg67
(lp4095
g60
(g61
g62
NtRp4096
(dp4097
g65
(dp4098
g73
I4
ssg74
g4092
sg67
(lp4099
S'you'
p4100
asbasbasbag60
(g76
g62
NtRp4101
(dp4102
g65
(dp4103
sg74
g4075
sg67
(lp4104
g60
(g81
g62
NtRp4105
(dp4106
g65
(dp4107
g85
g86
ssg74
g4101
sg67
(lp4108
S'copyright'
p4109
asbag60
(g81
g62
NtRp4110
(dp4111
g65
(dp4112
g92
g93
ssg74
g4101
sg67
(lp4113
S':'
asbag60
(g81
g62
NtRp4114
(dp4115
g65
(dp4116
sg74
g4101
sg67
(lp4117
g60
(g61
g62
NtRp4118
(dp4119
g65
(dp4120
g73
I4
ssg74
g4114
sg67
(lp4121
S'Copyright 2007-2010'
p4122
asbasbasbag60
(g76
g62
NtRp4123
(dp4124
g65
(dp4125
sg74
g4075
sg67
(lp4126
g60
(g81
g62
NtRp4127
(dp4128
g65
(dp4129
g85
g86
ssg74
g4123
sg67
(lp4130
S'description'
p4131
asbag60
(g81
g62
NtRp4132
(dp4133
g65
(dp4134
g92
g93
ssg74
g4123
sg67
(lp4135
S':'
asbag60
(g81
g62
NtRp4136
(dp4137
g65
(dp4138
sg74
g4123
sg67
(lp4139
g60
(g61
g62
NtRp4140
(dp4141
g65
(dp4142
g73
I4
ssg74
g4136
sg67
(lp4143
S'Free and open source full-stack enterprise framework for agile development of fast, scalable, secure and portable database-driven web-based applications. Written and programmable in Python'
p4144
asbasbasbag60
(g76
g62
NtRp4145
(dp4146
g65
(dp4147
sg74
g4075
sg67
(lp4148
g60
(g81
g62
NtRp4149
(dp4150
g65
(dp4151
g85
g86
ssg74
g4145
sg67
(lp4152
S'generator'
p4153
asbag60
(g81
g62
NtRp4154
(dp4155
g65
(dp4156
g92
g93
ssg74
g4145
sg67
(lp4157
S':'
asbag60
(g81
g62
NtRp4158
(dp4159
g65
(dp4160
sg74
g4145
sg67
(lp4161
g60
(g61
g62
NtRp4162
(dp4163
g65
(dp4164
g73
I4
ssg74
g4158
sg67
(lp4165
S'Web2py Enterprise Framework'
p4166
asbasbasbag60
(g76
g62
NtRp4167
(dp4168
g65
(dp4169
sg74
g4075
sg67
(lp4170
g60
(g81
g62
NtRp4171
(dp4172
g65
(dp4173
g85
g86
ssg74
g4167
sg67
(lp4174
S'keywords'
p4175
asbag60
(g81
g62
NtRp4176
(dp4177
g65
(dp4178
g92
g93
ssg74
g4167
sg67
(lp4179
S':'
asbag60
(g81
g62
NtRp4180
(dp4181
g65
(dp4182
sg74
g4167
sg67
(lp4183
g60
(g61
g62
NtRp4184
(dp4185
g65
(dp4186
g73
I4
ssg74
g4180
sg67
(lp4187
S'web2py, python, framework'
p4188
asbasbasbasbasbasbasbag60
(g76
g62
NtRp4189
(dp4190
g65
(dp4191
sg74
g2642
sg67
(lp4192
g60
(g81
g62
NtRp4193
(dp4194
g65
(dp4195
g85
g86
ssg74
g4189
sg67
(lp4196
S'postprocessing'
p4197
asbag60
(g81
g62
NtRp4198
(dp4199
g65
(dp4200
g92
g93
ssg74
g4189
sg67
(lp4201
S':'
asbag60
(g81
g62
NtRp4202
(dp4203
g65
(dp4204
sg74
g4189
sg67
(lp4205
g60
(g61
g62
NtRp4206
(dp4207
g65
(dp4208
g73
I5
ssg74
g4202
sg67
(lp4209
g60
(g69
g62
NtRp4210
(dp4211
g65
(dp4212
g73
I4
ssg74
Nsg67
(lp4213
sbasbasbasbag60
(g76
g62
NtRp4214
(dp4215
g65
(dp4216
sg74
g2642
sg67
(lp4217
g60
(g81
g62
NtRp4218
(dp4219
g65
(dp4220
g85
g86
ssg74
g4214
sg67
(lp4221
S'session_file'
p4222
asbag60
(g81
g62
NtRp4223
(dp4224
g65
(dp4225
g92
g93
ssg74
g4214
sg67
(lp4226
S':'
asbag60
(g81
g62
NtRp4227
(dp4228
g65
(dp4229
sg74
g4214
sg67
(lp4230
g60
(g61
g62
NtRp4231
(dp4232
g65
(dp4233
g73
I5
ssg74
g4227
sg67
(lp4234
S"<open file 'C:\\Users\\AKSHAY\\Desktop\\web2py\\applications\\201056161\\sessions\\127.0.0.1-3bc821ac-4d59-41c6-8699-b3e43edfc478', mode 'rb+' at 0x06DB9F08>"
p4235
asbasbasbag60
(g76
g62
NtRp4236
(dp4237
g65
(dp4238
sg74
g2642
sg67
(lp4239
g60
(g81
g62
NtRp4240
(dp4241
g65
(dp4242
g85
g86
ssg74
g4236
sg67
(lp4243
S'session_filename'
p4244
asbag60
(g81
g62
NtRp4245
(dp4246
g65
(dp4247
g92
g93
ssg74
g4236
sg67
(lp4248
S':'
asbag60
(g81
g62
NtRp4249
(dp4250
g65
(dp4251
sg74
g4236
sg67
(lp4252
g60
(g61
g62
NtRp4253
(dp4254
g65
(dp4255
g73
I5
ssg74
g4249
sg67
(lp4256
S'C:\\Users\\AKSHAY\\Desktop\\web2py\\applications\\201056161\\sessions\\127.0.0.1-3bc821ac-4d59-41c6-8699-b3e43edfc478'
p4257
asbasbasbag60
(g76
g62
NtRp4258
(dp4259
g65
(dp4260
sg74
g2642
sg67
(lp4261
g60
(g81
g62
NtRp4262
(dp4263
g65
(dp4264
g85
g86
ssg74
g4258
sg67
(lp4265
S'session_id'
p4266
asbag60
(g81
g62
NtRp4267
(dp4268
g65
(dp4269
g92
g93
ssg74
g4258
sg67
(lp4270
S':'
asbag60
(g81
g62
NtRp4271
(dp4272
g65
(dp4273
sg74
g4258
sg67
(lp4274
g60
(g61
g62
NtRp4275
(dp4276
g65
(dp4277
g73
I5
ssg74
g4271
sg67
(lp4278
S'127.0.0.1-3bc821ac-4d59-41c6-8699-b3e43edfc478'
p4279
asbasbasbag60
(g76
g62
NtRp4280
(dp4281
g65
(dp4282
sg74
g2642
sg67
(lp4283
g60
(g81
g62
NtRp4284
(dp4285
g65
(dp4286
g85
g86
ssg74
g4280
sg67
(lp4287
S'session_id_name'
p4288
asbag60
(g81
g62
NtRp4289
(dp4290
g65
(dp4291
g92
g93
ssg74
g4280
sg67
(lp4292
S':'
asbag60
(g81
g62
NtRp4293
(dp4294
g65
(dp4295
sg74
g4280
sg67
(lp4296
g60
(g61
g62
NtRp4297
(dp4298
g65
(dp4299
g73
I5
ssg74
g4293
sg67
(lp4300
g2699
asbasbasbag60
(g76
g62
NtRp4301
(dp4302
g65
(dp4303
sg74
g2642
sg67
(lp4304
g60
(g81
g62
NtRp4305
(dp4306
g65
(dp4307
g85
g86
ssg74
g4301
sg67
(lp4308
S'session_locked'
p4309
asbag60
(g81
g62
NtRp4310
(dp4311
g65
(dp4312
g92
g93
ssg74
g4301
sg67
(lp4313
S':'
asbag60
(g81
g62
NtRp4314
(dp4315
g65
(dp4316
sg74
g4301
sg67
(lp4317
g60
(g61
g62
NtRp4318
(dp4319
g65
(dp4320
g73
I5
ssg74
g4314
sg67
(lp4321
g1535
asbasbasbag60
(g76
g62
NtRp4322
(dp4323
g65
(dp4324
sg74
g2642
sg67
(lp4325
g60
(g81
g62
NtRp4326
(dp4327
g65
(dp4328
g85
g86
ssg74
g4322
sg67
(lp4329
S'session_new'
p4330
asbag60
(g81
g62
NtRp4331
(dp4332
g65
(dp4333
g92
g93
ssg74
g4322
sg67
(lp4334
S':'
asbag60
(g81
g62
NtRp4335
(dp4336
g65
(dp4337
sg74
g4322
sg67
(lp4338
g60
(g61
g62
NtRp4339
(dp4340
g65
(dp4341
g73
I5
ssg74
g4335
sg67
(lp4342
g103
asbasbasbag60
(g76
g62
NtRp4343
(dp4344
g65
(dp4345
sg74
g2642
sg67
(lp4346
g60
(g81
g62
NtRp4347
(dp4348
g65
(dp4349
g85
g86
ssg74
g4343
sg67
(lp4350
S'status'
p4351
asbag60
(g81
g62
NtRp4352
(dp4353
g65
(dp4354
g92
g93
ssg74
g4343
sg67
(lp4355
S':'
asbag60
(g81
g62
NtRp4356
(dp4357
g65
(dp4358
sg74
g4343
sg67
(lp4359
g60
(g61
g62
NtRp4360
(dp4361
g65
(dp4362
g73
I5
ssg74
g4356
sg67
(lp4363
S'200'
p4364
asbasbasbag60
(g76
g62
NtRp4365
(dp4366
g65
(dp4367
sg74
g2642
sg67
(lp4368
g60
(g81
g62
NtRp4369
(dp4370
g65
(dp4371
g85
g86
ssg74
g4365
sg67
(lp4372
S'subtitle'
p4373
asbag60
(g81
g62
NtRp4374
(dp4375
g65
(dp4376
g92
g93
ssg74
g4365
sg67
(lp4377
S':'
asbag60
(g81
g62
NtRp4378
(dp4379
g65
(dp4380
sg74
g4365
sg67
(lp4381
g60
(g61
g62
NtRp4382
(dp4383
g65
(dp4384
g73
I5
ssg74
g4378
sg67
(lp4385
g3127
(S's\r\x00\x00\x00customize me!'
tRp4386
asbasbasbag60
(g76
g62
NtRp4387
(dp4388
g65
(dp4389
sg74
g2642
sg67
(lp4390
g60
(g81
g62
NtRp4391
(dp4392
g65
(dp4393
g85
g86
ssg74
g4387
sg67
(lp4394
S'title'
p4395
asbag60
(g81
g62
NtRp4396
(dp4397
g65
(dp4398
g92
g93
ssg74
g4387
sg67
(lp4399
S':'
asbag60
(g81
g62
NtRp4400
(dp4401
g65
(dp4402
sg74
g4387
sg67
(lp4403
g60
(g61
g62
NtRp4404
(dp4405
g65
(dp4406
g73
I5
ssg74
g4400
sg67
(lp4407
g125
asbasbasbag60
(g76
g62
NtRp4408
(dp4409
g65
(dp4410
sg74
g2642
sg67
(lp4411
g60
(g81
g62
NtRp4412
(dp4413
g65
(dp4414
g85
g86
ssg74
g4408
sg67
(lp4415
g1880
asbag60
(g81
g62
NtRp4416
(dp4417
g65
(dp4418
g92
g93
ssg74
g4408
sg67
(lp4419
S':'
asbag60
(g81
g62
NtRp4420
(dp4421
g65
(dp4422
sg74
g4408
sg67
(lp4423
g60
(g61
g62
NtRp4424
(dp4425
g65
(dp4426
g73
I5
ssg74
g4420
sg67
(lp4427
g1893
asbasbasbag60
(g76
g62
NtRp4428
(dp4429
g65
(dp4430
sg74
g2642
sg67
(lp4431
g60
(g81
g62
NtRp4432
(dp4433
g65
(dp4434
g85
g86
ssg74
g4428
sg67
(lp4435
S'view'
p4436
asbag60
(g81
g62
NtRp4437
(dp4438
g65
(dp4439
g92
g93
ssg74
g4428
sg67
(lp4440
S':'
asbag60
(g81
g62
NtRp4441
(dp4442
g65
(dp4443
sg74
g4428
sg67
(lp4444
g60
(g61
g62
NtRp4445
(dp4446
g65
(dp4447
g73
I5
ssg74
g4441
sg67
(lp4448
S'default/q2s.html'
p4449
asbasbasbasbasbsS'locals'
p4450
(dp4451
g3
S"r'C:\\Users\\AKSHAY\\Desktop\\web2py\\applications\\201056161\\views\\default/q2s.html'"
p4452
sg5
S'\'response.write(\\\'<!DOCTYPE html>\\\\n<html lang="\\\', ...t   -->    \\\\n  </body>\\\\n</html>\\\\n\\\', escape=False)\''
p4453
sssS'traceback'
p4454
S'Traceback (most recent call last):\n  File "gluon/restricted.py", line 191, in restricted\n  File "gluon/restricted.py", line 178, in compile2\n  File "C:\\Users\\AKSHAY\\Desktop\\web2py\\applications\\201056161\\views\\default/q2s.html", line 103\n    response.write(LI(A("%s",%(row.name),_href=URL(r=request,f="q1f",))))\n                             ^\nSyntaxError: invalid syntax\n'
p4455
s.