(dp1
S'output'
p2
S''
sS'layer'
p3
S'C:\\Users\\AKSHAY\\Desktop\\web2py\\applications\\201056161\\controllers/default.py'
p4
sS'code'
p5
S'# -*- coding: utf-8 -*-\n# this file is released under public domain and you can use without limitations\n\n#########################################################################\n## This is a samples controller\n## - index is the default action of any application\n## - user is required for authentication and authorization\n## - download is for downloading files uploaded in the db (does streaming)\n## - call exposes all registered services (none by default)\n#########################################################################\n\ndef index():\n    return dict()\n\ndef user():\n    """\n    exposes:\n    http://..../[app]/default/user/login\n    http://..../[app]/default/user/logout\n    http://..../[app]/default/user/register\n    http://..../[app]/default/user/profile\n    http://..../[app]/default/user/retrieve_password\n    http://..../[app]/default/user/change_password\n    use @auth.requires_login()\n        @auth.requires_membership(\'group name\')\n        @auth.requires_permission(\'read\',\'table name\',record_id)\n    to decorate functions that need access control\n    """\n    return dict(form=auth())\n\n\ndef download():\n    """\n    allows downloading of uploaded files\n    http://..../[app]/default/download/[filename]\n    """\n    return response.download(request,db)\n\n\ndef call():\n    """\n    exposes services. for example:\n    http://..../[app]/default/call/jsonrpc\n    decorate with @services.jsonrpc the functions to expose\n    supports xml, json, xmlrpc, jsonrpc, amfrpc, rss, csv\n    """\n    return service()\n\n\n@auth.requires_signature()\ndef data():\n    """\n    http://..../[app]/default/data/tables\n    http://..../[app]/default/data/create/[table]\n    http://..../[app]/default/data/read/[table]/[id]\n    http://..../[app]/default/data/update/[table]/[id]\n    http://..../[app]/default/data/delete/[table]/[id[\n    http://..../[app]/default/data/select/[table]\n    http://..../[app]/default/data/search/[table]\n    but URLs bust be signed, i.e. linked with\n      A(\'table\',_href=URL(\'data/tables\',user_signature=True))\n    or with the signed load operator\n      LOAD(\'default\',\'data.load\',args=\'tables\',ajax=True,user_signature=True)\n    """\n    return dict(form=crud())\ndef q1f():\n#  form=SQLFORM.factory(db.Field(\'id\',db.artist,requires=IS_IN_DB(db,\'artist.id\'),required=True,label=\'Select Singer id\'))#  form=SQLFORM(db.query) #form=FORM(INPUT(_name=\'singer\',requires=IS_NOT_EMPTY()),INPUT(_type=\'submit\')) #\n  form = SQLFORM.factory(db.Field(\'idn\',db.artist,requires=IS_IN_DB(db,\'artist.id\',\'artist.id\'),label=\'Select id of Artist\'))\n  if form.accepts(request.vars,session):\n    redirect(URL(r=request, f=\'q1s?idn=\'+form.vars.idn))\n  elif form.errors:\n    response.flash=\'Errors in form Please re-enter\'\n  return dict(form=form)  \ndef q1s():\n  sname = int(request.vars.idn)\n  rows=db(db.song.singer==sname).select(db.song.name)\n  """count=1\n  for row in rows:\n    count+=1\n    if count==2:\n      snames=str(row.artist_name)\n  rows1=db(db.song.singer is snames).select(db.song.name)"""\n  return dict(rows=rows)\ndef q2f():\n  form = SQLFORM.factory(db.Field(\'namen\',db.artist,requires=IS_IN_DB(db,\'artist.id\',\'artist.artist_name\'),label=\'Select artist name\'))\n  if form.accepts(request.vars,session):\n    redirect(URL(r=request, f=\'q2s?namen=\'+form.vars.namen))\n  elif form.errors:\n    response.flash=\'Errors in form Please re-enter\'\n  return dict(form=form)  \ndef q2s():\n  sname=str(request.vars.namen)\n  #here whatever be always sname will be referred by id ! \n  rows=db(db.song.singer==sname).select(db.song.name)\n  return dict(rows=rows)\ndef q3f():\n  form = SQLFORM.factory(db.Field(\'namen\',db.artist,requires=IS_IN_DB(db,\'artist.id\',\'artist.artist_name\'),label=\'Select Artist\'),\n                         db.Field(\'movien\',db.movie,requires=IS_IN_DB(db,\'movie.id\',\'movie.name\'),label=\'Select movie\'))\n  if form.accepts(request.vars,session):\n    redirect(URL(r=request, f=\'q3s?namen=\'+form.vars.namen+\'&movien=\'+form.vars.movien))\n  elif form.errors:\n    response.flash=\'Errors in form Please re-enter\'\n  return dict(form=form)                         \ndef q3s():\n  sname=str(request.vars.namen)\n  movien=str(request.vars.movien)\n  rows=db((db.song.singer==sname) & (db.song.movie==movien)).select(db.song.name)\n  return dict(rows=rows)\ndef q4f():\n  form = SQLFORM.factory(db.Field(\'namen\',db.artist,requires=IS_IN_DB(db,\'artist.id\',\'artist.artist_name\'),label=\'Select Artist\'),\n                         db.Field(\'yearbe\',db.movie,label=\'Select year before\'))\n  if form.accepts(request.vars,session):\n    redirect(URL(r=request, f=\'q4s?namen=\'+form.vars.namen+\'&yearbe=\'+form.vars.yearbe))\n  elif form.errors:\n    response.flash=\'Errors in form Please re-enter\'\n  return dict(form=form)\ndef q4s():\n  import datetime\n  sname=str(request.vars.namen)\n  yearbe=int(request.vars.yearbe)\n  rows=db((db.song.singer==sname) & (db.movie.release_date<datetime.date(yearbe,1,1))).select(db.song.name,db.song.singing_actor)\n  return dict(rows=rows)\ndef q5f():\n  form = SQLFORM.factory(db.Field(\'namen\',db.rating,requires=IS_IN_DB(db,\'song.id\',\'song.name\'),label=\'Select song name to check if rating is more than 4\'))\n  if form.accepts(request.vars,session):\n    redirect(URL(r=request, f=\'q5s?namen=\'+form.vars.namen))\n  elif form.errors:\n    response.flash=\'Errors in form Please re-enter\'\n  return dict(form=form)\ndef q5s():\n  sname=int(request.vars.namen)\n  rows=db(db.rating.song_n==sname).select(db.rating.ratingn)\n  count=0\n  sum=0\n  for row in rows:\n    count+=1\n    sum+=int(row.ratingn)\n  if count:  \n    avg=sum/count\n  return dict(avg=avg)\ndef insong():\n  form = SQLFORM(db.song)\n  if form.accepts(request.vars,session):\n      #redirect(URL(r=request, f=\'student_details?rollno=%d\' % form.vars.rollno))\n      response.flash=\'New Song Record Inserted\'\n  elif form.errors:\n      response.flash=\'Errors in form\'\n  return dict(form=form)\ndef new():\n  form = SQLFORM.factory(db.Field(\'namen\',db.artist,requires=IS_IN_DB(db,\'artist.id\',\'artist.artist_name\'),label=\'Select Artist\'),\n                         db.Field(\'movien\',db.movie,requires=IS_NULL_OR(IS_IN_DB(db,\'movie.id\',\'movie.name\'))))\n  if form.accepts(request.vars,session):\n    redirect(URL(r=request, f=\'new2?namen=\'+form.vars.namen+\'&movien=\'+form.vars.movien))\n  elif form.errors:\n    response.flash=\'Errors in form Please re-enter\'\n  return dict(form=form)     \ndef new2():\n  if request.vars.movien==NULL:\n    sname=str(request.vars.namen)\n    #here whatever be always sname will be referred by id ! \n    rows=db(db.song.singer==sname).select(db.song.name)\n    return dict(rows=rows)\n  else:\n    sname=str(request.vars.namen)\n    movien=str(request.vars.movien)\n    rows=db((db.song.singer==sname) & (db.song.movie==movien)).select(db.song.name)\n    return dict(rows=rows)\n\nresponse._vars=response._caller(new2)\n'
p6
sS'snapshot'
p7
(dp8
S'exception'
p9
(dp10
S'__hash__'
p11
S"<method-wrapper '__hash__' of exceptions.NameError object at 0x06E74350>"
p12
sS'__setattr__'
p13
S"<method-wrapper '__setattr__' of exceptions.NameError object at 0x06E74350>"
p14
sS'__reduce_ex__'
p15
S'<built-in method __reduce_ex__ of exceptions.NameError object at 0x06E74350>'
p16
sS'__getslice__'
p17
S"<method-wrapper '__getslice__' of exceptions.NameError object at 0x06E74350>"
p18
sS'__getitem__'
p19
S"<method-wrapper '__getitem__' of exceptions.NameError object at 0x06E74350>"
p20
sS'__setstate__'
p21
S'<built-in method __setstate__ of exceptions.NameError object at 0x06E74350>'
p22
sS'__reduce__'
p23
S'<built-in method __reduce__ of exceptions.NameError object at 0x06E74350>'
p24
sS'__str__'
p25
S"<method-wrapper '__str__' of exceptions.NameError object at 0x06E74350>"
p26
sS'args'
p27
S'("global name \'NULL\' is not defined",)'
p28
sS'__getattribute__'
p29
S"<method-wrapper '__getattribute__' of exceptions.NameError object at 0x06E74350>"
p30
sS'__class__'
p31
S"<type 'exceptions.NameError'>"
p32
sS'__delattr__'
p33
S"<method-wrapper '__delattr__' of exceptions.NameError object at 0x06E74350>"
p34
sS'__repr__'
p35
S"<method-wrapper '__repr__' of exceptions.NameError object at 0x06E74350>"
p36
sS'__dict__'
p37
S'{}'
p38
sS'__doc__'
p39
S"'Name not found globally.'"
p40
sS'__init__'
p41
S"<method-wrapper '__init__' of exceptions.NameError object at 0x06E74350>"
p42
sS'__new__'
p43
S'<built-in method __new__ of type object at 0x1E1CD8D8>'
p44
ssS'evalue'
p45
S"global name 'NULL' is not defined"
p46
sS'request'
p47
ccopy_reg
_reconstructor
p48
(cgluon.html
BEAUTIFY
p49
c__builtin__
object
p50
NtRp51
(dp52
S'attributes'
p53
(dp54
sS'components'
p55
(lp56
g48
(cgluon.html
TABLE
p57
g50
NtRp58
(dp59
g53
(dp60
S'level'
p61
I5
ssS'parent'
p62
Nsg55
(lp63
g48
(cgluon.html
TR
p64
g50
NtRp65
(dp66
g53
(dp67
sg62
g58
sg55
(lp68
g48
(cgluon.html
TD
p69
g50
NtRp70
(dp71
g53
(dp72
S'_style'
p73
S'font-weight:bold;'
p74
ssg62
g65
sg55
(lp75
S'ajax'
p76
asbag48
(g69
g50
NtRp77
(dp78
g53
(dp79
S'_valign'
p80
S'top'
p81
ssg62
g65
sg55
(lp82
S':'
asbag48
(g69
g50
NtRp83
(dp84
g53
(dp85
sg62
g65
sg55
(lp86
g48
(g49
g50
NtRp87
(dp88
g53
(dp89
g61
I5
ssg62
g83
sg55
(lp90
S'False'
p91
asbasbasbag48
(g64
g50
NtRp92
(dp93
g53
(dp94
sg62
g58
sg55
(lp95
g48
(g69
g50
NtRp96
(dp97
g53
(dp98
g73
g74
ssg62
g92
sg55
(lp99
S'application'
p100
asbag48
(g69
g50
NtRp101
(dp102
g53
(dp103
g80
g81
ssg62
g92
sg55
(lp104
S':'
asbag48
(g69
g50
NtRp105
(dp106
g53
(dp107
sg62
g92
sg55
(lp108
g48
(g49
g50
NtRp109
(dp110
g53
(dp111
g61
I5
ssg62
g105
sg55
(lp112
S'201056161'
p113
asbasbasbag48
(g64
g50
NtRp114
(dp115
g53
(dp116
sg62
g58
sg55
(lp117
g48
(g69
g50
NtRp118
(dp119
g53
(dp120
g73
g74
ssg62
g114
sg55
(lp121
g27
asbag48
(g69
g50
NtRp122
(dp123
g53
(dp124
g80
g81
ssg62
g114
sg55
(lp125
S':'
asbag48
(g69
g50
NtRp126
(dp127
g53
(dp128
sg62
g114
sg55
(lp129
g48
(g49
g50
NtRp130
(dp131
g53
(dp132
g61
I5
ssg62
g126
sg55
(lp133
g48
(g57
g50
NtRp134
(dp135
g53
(dp136
g61
I4
ssg62
Nsg55
(lp137
sbasbasbasbag48
(g64
g50
NtRp138
(dp139
g53
(dp140
sg62
g58
sg55
(lp141
g48
(g69
g50
NtRp142
(dp143
g53
(dp144
g73
g74
ssg62
g138
sg55
(lp145
S'body'
p146
asbag48
(g69
g50
NtRp147
(dp148
g53
(dp149
g80
g81
ssg62
g138
sg55
(lp150
S':'
asbag48
(g69
g50
NtRp151
(dp152
g53
(dp153
sg62
g138
sg55
(lp154
g48
(g49
g50
NtRp155
(dp156
g53
(dp157
g61
I5
ssg62
g151
sg55
(lp158
S'<cStringIO.StringO object at 0x0338D140>'
p159
asbasbasbag48
(g64
g50
NtRp160
(dp161
g53
(dp162
sg62
g58
sg55
(lp163
g48
(g69
g50
NtRp164
(dp165
g53
(dp166
g73
g74
ssg62
g160
sg55
(lp167
S'client'
p168
asbag48
(g69
g50
NtRp169
(dp170
g53
(dp171
g80
g81
ssg62
g160
sg55
(lp172
S':'
asbag48
(g69
g50
NtRp173
(dp174
g53
(dp175
sg62
g160
sg55
(lp176
g48
(g49
g50
NtRp177
(dp178
g53
(dp179
g61
I5
ssg62
g173
sg55
(lp180
S'127.0.0.1'
p181
asbasbasbag48
(g64
g50
NtRp182
(dp183
g53
(dp184
sg62
g58
sg55
(lp185
g48
(g69
g50
NtRp186
(dp187
g53
(dp188
g73
g74
ssg62
g182
sg55
(lp189
S'controller'
p190
asbag48
(g69
g50
NtRp191
(dp192
g53
(dp193
g80
g81
ssg62
g182
sg55
(lp194
S':'
asbag48
(g69
g50
NtRp195
(dp196
g53
(dp197
sg62
g182
sg55
(lp198
g48
(g49
g50
NtRp199
(dp200
g53
(dp201
g61
I5
ssg62
g195
sg55
(lp202
S'default'
p203
asbasbasbag48
(g64
g50
NtRp204
(dp205
g53
(dp206
sg62
g58
sg55
(lp207
g48
(g69
g50
NtRp208
(dp209
g53
(dp210
g73
g74
ssg62
g204
sg55
(lp211
S'cookies'
p212
asbag48
(g69
g50
NtRp213
(dp214
g53
(dp215
g80
g81
ssg62
g204
sg55
(lp216
S':'
asbag48
(g69
g50
NtRp217
(dp218
g53
(dp219
sg62
g204
sg55
(lp220
g48
(g49
g50
NtRp221
(dp222
g53
(dp223
g61
I5
ssg62
g217
sg55
(lp224
g48
(g57
g50
NtRp225
(dp226
g53
(dp227
g61
I4
ssg62
Nsg55
(lp228
g48
(g64
g50
NtRp229
(dp230
g53
(dp231
sg62
g225
sg55
(lp232
g48
(g69
g50
NtRp233
(dp234
g53
(dp235
g73
g74
ssg62
g229
sg55
(lp236
S'session_id_201056161'
p237
asbag48
(g69
g50
NtRp238
(dp239
g53
(dp240
g80
g81
ssg62
g229
sg55
(lp241
S':'
asbag48
(g69
g50
NtRp242
(dp243
g53
(dp244
sg62
g229
sg55
(lp245
g48
(g49
g50
NtRp246
(dp247
g53
(dp248
g61
I4
ssg62
g242
sg55
(lp249
g48
(g57
g50
NtRp250
(dp251
g53
(dp252
g61
I3
ssg62
Nsg55
(lp253
g48
(g64
g50
NtRp254
(dp255
g53
(dp256
sg62
g250
sg55
(lp257
g48
(g69
g50
NtRp258
(dp259
g53
(dp260
g73
g74
ssg62
g254
sg55
(lp261
S'comment'
p262
asbag48
(g69
g50
NtRp263
(dp264
g53
(dp265
g80
g81
ssg62
g254
sg55
(lp266
S':'
asbag48
(g69
g50
NtRp267
(dp268
g53
(dp269
sg62
g254
sg55
(lp270
g48
(g49
g50
NtRp271
(dp272
g53
(dp273
g61
I3
ssg62
g267
sg55
(lp274
S''
asbasbasbag48
(g64
g50
NtRp275
(dp276
g53
(dp277
sg62
g250
sg55
(lp278
g48
(g69
g50
NtRp279
(dp280
g53
(dp281
g73
g74
ssg62
g275
sg55
(lp282
S'domain'
p283
asbag48
(g69
g50
NtRp284
(dp285
g53
(dp286
g80
g81
ssg62
g275
sg55
(lp287
S':'
asbag48
(g69
g50
NtRp288
(dp289
g53
(dp290
sg62
g275
sg55
(lp291
g48
(g49
g50
NtRp292
(dp293
g53
(dp294
g61
I3
ssg62
g288
sg55
(lp295
S''
asbasbasbag48
(g64
g50
NtRp296
(dp297
g53
(dp298
sg62
g250
sg55
(lp299
g48
(g69
g50
NtRp300
(dp301
g53
(dp302
g73
g74
ssg62
g296
sg55
(lp303
S'expires'
p304
asbag48
(g69
g50
NtRp305
(dp306
g53
(dp307
g80
g81
ssg62
g296
sg55
(lp308
S':'
asbag48
(g69
g50
NtRp309
(dp310
g53
(dp311
sg62
g296
sg55
(lp312
g48
(g49
g50
NtRp313
(dp314
g53
(dp315
g61
I3
ssg62
g309
sg55
(lp316
S''
asbasbasbag48
(g64
g50
NtRp317
(dp318
g53
(dp319
sg62
g250
sg55
(lp320
g48
(g69
g50
NtRp321
(dp322
g53
(dp323
g73
g74
ssg62
g317
sg55
(lp324
S'max-age'
p325
asbag48
(g69
g50
NtRp326
(dp327
g53
(dp328
g80
g81
ssg62
g317
sg55
(lp329
S':'
asbag48
(g69
g50
NtRp330
(dp331
g53
(dp332
sg62
g317
sg55
(lp333
g48
(g49
g50
NtRp334
(dp335
g53
(dp336
g61
I3
ssg62
g330
sg55
(lp337
S''
asbasbasbag48
(g64
g50
NtRp338
(dp339
g53
(dp340
sg62
g250
sg55
(lp341
g48
(g69
g50
NtRp342
(dp343
g53
(dp344
g73
g74
ssg62
g338
sg55
(lp345
S'path'
p346
asbag48
(g69
g50
NtRp347
(dp348
g53
(dp349
g80
g81
ssg62
g338
sg55
(lp350
S':'
asbag48
(g69
g50
NtRp351
(dp352
g53
(dp353
sg62
g338
sg55
(lp354
g48
(g49
g50
NtRp355
(dp356
g53
(dp357
g61
I3
ssg62
g351
sg55
(lp358
S''
asbasbasbag48
(g64
g50
NtRp359
(dp360
g53
(dp361
sg62
g250
sg55
(lp362
g48
(g69
g50
NtRp363
(dp364
g53
(dp365
g73
g74
ssg62
g359
sg55
(lp366
S'secure'
p367
asbag48
(g69
g50
NtRp368
(dp369
g53
(dp370
g80
g81
ssg62
g359
sg55
(lp371
S':'
asbag48
(g69
g50
NtRp372
(dp373
g53
(dp374
sg62
g359
sg55
(lp375
g48
(g49
g50
NtRp376
(dp377
g53
(dp378
g61
I3
ssg62
g372
sg55
(lp379
S''
asbasbasbag48
(g64
g50
NtRp380
(dp381
g53
(dp382
sg62
g250
sg55
(lp383
g48
(g69
g50
NtRp384
(dp385
g53
(dp386
g73
g74
ssg62
g380
sg55
(lp387
S'version'
p388
asbag48
(g69
g50
NtRp389
(dp390
g53
(dp391
g80
g81
ssg62
g380
sg55
(lp392
S':'
asbag48
(g69
g50
NtRp393
(dp394
g53
(dp395
sg62
g380
sg55
(lp396
g48
(g49
g50
NtRp397
(dp398
g53
(dp399
g61
I3
ssg62
g393
sg55
(lp400
S''
asbasbasbasbasbasbasbag48
(g64
g50
NtRp401
(dp402
g53
(dp403
sg62
g225
sg55
(lp404
g48
(g69
g50
NtRp405
(dp406
g53
(dp407
g73
g74
ssg62
g401
sg55
(lp408
S'session_id_admin'
p409
asbag48
(g69
g50
NtRp410
(dp411
g53
(dp412
g80
g81
ssg62
g401
sg55
(lp413
S':'
asbag48
(g69
g50
NtRp414
(dp415
g53
(dp416
sg62
g401
sg55
(lp417
g48
(g49
g50
NtRp418
(dp419
g53
(dp420
g61
I4
ssg62
g414
sg55
(lp421
g48
(g57
g50
NtRp422
(dp423
g53
(dp424
g61
I3
ssg62
Nsg55
(lp425
g48
(g64
g50
NtRp426
(dp427
g53
(dp428
sg62
g422
sg55
(lp429
g48
(g69
g50
NtRp430
(dp431
g53
(dp432
g73
g74
ssg62
g426
sg55
(lp433
g262
asbag48
(g69
g50
NtRp434
(dp435
g53
(dp436
g80
g81
ssg62
g426
sg55
(lp437
S':'
asbag48
(g69
g50
NtRp438
(dp439
g53
(dp440
sg62
g426
sg55
(lp441
g48
(g49
g50
NtRp442
(dp443
g53
(dp444
g61
I3
ssg62
g438
sg55
(lp445
S''
asbasbasbag48
(g64
g50
NtRp446
(dp447
g53
(dp448
sg62
g422
sg55
(lp449
g48
(g69
g50
NtRp450
(dp451
g53
(dp452
g73
g74
ssg62
g446
sg55
(lp453
g283
asbag48
(g69
g50
NtRp454
(dp455
g53
(dp456
g80
g81
ssg62
g446
sg55
(lp457
S':'
asbag48
(g69
g50
NtRp458
(dp459
g53
(dp460
sg62
g446
sg55
(lp461
g48
(g49
g50
NtRp462
(dp463
g53
(dp464
g61
I3
ssg62
g458
sg55
(lp465
S''
asbasbasbag48
(g64
g50
NtRp466
(dp467
g53
(dp468
sg62
g422
sg55
(lp469
g48
(g69
g50
NtRp470
(dp471
g53
(dp472
g73
g74
ssg62
g466
sg55
(lp473
g304
asbag48
(g69
g50
NtRp474
(dp475
g53
(dp476
g80
g81
ssg62
g466
sg55
(lp477
S':'
asbag48
(g69
g50
NtRp478
(dp479
g53
(dp480
sg62
g466
sg55
(lp481
g48
(g49
g50
NtRp482
(dp483
g53
(dp484
g61
I3
ssg62
g478
sg55
(lp485
S''
asbasbasbag48
(g64
g50
NtRp486
(dp487
g53
(dp488
sg62
g422
sg55
(lp489
g48
(g69
g50
NtRp490
(dp491
g53
(dp492
g73
g74
ssg62
g486
sg55
(lp493
g325
asbag48
(g69
g50
NtRp494
(dp495
g53
(dp496
g80
g81
ssg62
g486
sg55
(lp497
S':'
asbag48
(g69
g50
NtRp498
(dp499
g53
(dp500
sg62
g486
sg55
(lp501
g48
(g49
g50
NtRp502
(dp503
g53
(dp504
g61
I3
ssg62
g498
sg55
(lp505
S''
asbasbasbag48
(g64
g50
NtRp506
(dp507
g53
(dp508
sg62
g422
sg55
(lp509
g48
(g69
g50
NtRp510
(dp511
g53
(dp512
g73
g74
ssg62
g506
sg55
(lp513
g346
asbag48
(g69
g50
NtRp514
(dp515
g53
(dp516
g80
g81
ssg62
g506
sg55
(lp517
S':'
asbag48
(g69
g50
NtRp518
(dp519
g53
(dp520
sg62
g506
sg55
(lp521
g48
(g49
g50
NtRp522
(dp523
g53
(dp524
g61
I3
ssg62
g518
sg55
(lp525
S''
asbasbasbag48
(g64
g50
NtRp526
(dp527
g53
(dp528
sg62
g422
sg55
(lp529
g48
(g69
g50
NtRp530
(dp531
g53
(dp532
g73
g74
ssg62
g526
sg55
(lp533
g367
asbag48
(g69
g50
NtRp534
(dp535
g53
(dp536
g80
g81
ssg62
g526
sg55
(lp537
S':'
asbag48
(g69
g50
NtRp538
(dp539
g53
(dp540
sg62
g526
sg55
(lp541
g48
(g49
g50
NtRp542
(dp543
g53
(dp544
g61
I3
ssg62
g538
sg55
(lp545
S''
asbasbasbag48
(g64
g50
NtRp546
(dp547
g53
(dp548
sg62
g422
sg55
(lp549
g48
(g69
g50
NtRp550
(dp551
g53
(dp552
g73
g74
ssg62
g546
sg55
(lp553
g388
asbag48
(g69
g50
NtRp554
(dp555
g53
(dp556
g80
g81
ssg62
g546
sg55
(lp557
S':'
asbag48
(g69
g50
NtRp558
(dp559
g53
(dp560
sg62
g546
sg55
(lp561
g48
(g49
g50
NtRp562
(dp563
g53
(dp564
g61
I3
ssg62
g558
sg55
(lp565
S''
asbasbasbasbasbasbasbag48
(g64
g50
NtRp566
(dp567
g53
(dp568
sg62
g225
sg55
(lp569
g48
(g69
g50
NtRp570
(dp571
g53
(dp572
g73
g74
ssg62
g566
sg55
(lp573
S'session_id_welcome'
p574
asbag48
(g69
g50
NtRp575
(dp576
g53
(dp577
g80
g81
ssg62
g566
sg55
(lp578
S':'
asbag48
(g69
g50
NtRp579
(dp580
g53
(dp581
sg62
g566
sg55
(lp582
g48
(g49
g50
NtRp583
(dp584
g53
(dp585
g61
I4
ssg62
g579
sg55
(lp586
g48
(g57
g50
NtRp587
(dp588
g53
(dp589
g61
I3
ssg62
Nsg55
(lp590
g48
(g64
g50
NtRp591
(dp592
g53
(dp593
sg62
g587
sg55
(lp594
g48
(g69
g50
NtRp595
(dp596
g53
(dp597
g73
g74
ssg62
g591
sg55
(lp598
g262
asbag48
(g69
g50
NtRp599
(dp600
g53
(dp601
g80
g81
ssg62
g591
sg55
(lp602
S':'
asbag48
(g69
g50
NtRp603
(dp604
g53
(dp605
sg62
g591
sg55
(lp606
g48
(g49
g50
NtRp607
(dp608
g53
(dp609
g61
I3
ssg62
g603
sg55
(lp610
S''
asbasbasbag48
(g64
g50
NtRp611
(dp612
g53
(dp613
sg62
g587
sg55
(lp614
g48
(g69
g50
NtRp615
(dp616
g53
(dp617
g73
g74
ssg62
g611
sg55
(lp618
g283
asbag48
(g69
g50
NtRp619
(dp620
g53
(dp621
g80
g81
ssg62
g611
sg55
(lp622
S':'
asbag48
(g69
g50
NtRp623
(dp624
g53
(dp625
sg62
g611
sg55
(lp626
g48
(g49
g50
NtRp627
(dp628
g53
(dp629
g61
I3
ssg62
g623
sg55
(lp630
S''
asbasbasbag48
(g64
g50
NtRp631
(dp632
g53
(dp633
sg62
g587
sg55
(lp634
g48
(g69
g50
NtRp635
(dp636
g53
(dp637
g73
g74
ssg62
g631
sg55
(lp638
g304
asbag48
(g69
g50
NtRp639
(dp640
g53
(dp641
g80
g81
ssg62
g631
sg55
(lp642
S':'
asbag48
(g69
g50
NtRp643
(dp644
g53
(dp645
sg62
g631
sg55
(lp646
g48
(g49
g50
NtRp647
(dp648
g53
(dp649
g61
I3
ssg62
g643
sg55
(lp650
S''
asbasbasbag48
(g64
g50
NtRp651
(dp652
g53
(dp653
sg62
g587
sg55
(lp654
g48
(g69
g50
NtRp655
(dp656
g53
(dp657
g73
g74
ssg62
g651
sg55
(lp658
g325
asbag48
(g69
g50
NtRp659
(dp660
g53
(dp661
g80
g81
ssg62
g651
sg55
(lp662
S':'
asbag48
(g69
g50
NtRp663
(dp664
g53
(dp665
sg62
g651
sg55
(lp666
g48
(g49
g50
NtRp667
(dp668
g53
(dp669
g61
I3
ssg62
g663
sg55
(lp670
S''
asbasbasbag48
(g64
g50
NtRp671
(dp672
g53
(dp673
sg62
g587
sg55
(lp674
g48
(g69
g50
NtRp675
(dp676
g53
(dp677
g73
g74
ssg62
g671
sg55
(lp678
g346
asbag48
(g69
g50
NtRp679
(dp680
g53
(dp681
g80
g81
ssg62
g671
sg55
(lp682
S':'
asbag48
(g69
g50
NtRp683
(dp684
g53
(dp685
sg62
g671
sg55
(lp686
g48
(g49
g50
NtRp687
(dp688
g53
(dp689
g61
I3
ssg62
g683
sg55
(lp690
S''
asbasbasbag48
(g64
g50
NtRp691
(dp692
g53
(dp693
sg62
g587
sg55
(lp694
g48
(g69
g50
NtRp695
(dp696
g53
(dp697
g73
g74
ssg62
g691
sg55
(lp698
g367
asbag48
(g69
g50
NtRp699
(dp700
g53
(dp701
g80
g81
ssg62
g691
sg55
(lp702
S':'
asbag48
(g69
g50
NtRp703
(dp704
g53
(dp705
sg62
g691
sg55
(lp706
g48
(g49
g50
NtRp707
(dp708
g53
(dp709
g61
I3
ssg62
g703
sg55
(lp710
S''
asbasbasbag48
(g64
g50
NtRp711
(dp712
g53
(dp713
sg62
g587
sg55
(lp714
g48
(g69
g50
NtRp715
(dp716
g53
(dp717
g73
g74
ssg62
g711
sg55
(lp718
g388
asbag48
(g69
g50
NtRp719
(dp720
g53
(dp721
g80
g81
ssg62
g711
sg55
(lp722
S':'
asbag48
(g69
g50
NtRp723
(dp724
g53
(dp725
sg62
g711
sg55
(lp726
g48
(g49
g50
NtRp727
(dp728
g53
(dp729
g61
I3
ssg62
g723
sg55
(lp730
S''
asbasbasbasbasbasbasbasbasbasbasbag48
(g64
g50
NtRp731
(dp732
g53
(dp733
sg62
g58
sg55
(lp734
g48
(g69
g50
NtRp735
(dp736
g53
(dp737
g73
g74
ssg62
g731
sg55
(lp738
S'env'
p739
asbag48
(g69
g50
NtRp740
(dp741
g53
(dp742
g80
g81
ssg62
g731
sg55
(lp743
S':'
asbag48
(g69
g50
NtRp744
(dp745
g53
(dp746
sg62
g731
sg55
(lp747
g48
(g49
g50
NtRp748
(dp749
g53
(dp750
g61
I5
ssg62
g744
sg55
(lp751
g48
(g57
g50
NtRp752
(dp753
g53
(dp754
g61
I4
ssg62
Nsg55
(lp755
g48
(g64
g50
NtRp756
(dp757
g53
(dp758
sg62
g752
sg55
(lp759
g48
(g69
g50
NtRp760
(dp761
g53
(dp762
g73
g74
ssg62
g756
sg55
(lp763
S'app_folders'
p764
asbag48
(g69
g50
NtRp765
(dp766
g53
(dp767
g80
g81
ssg62
g756
sg55
(lp768
S':'
asbag48
(g69
g50
NtRp769
(dp770
g53
(dp771
sg62
g756
sg55
(lp772
g48
(g49
g50
NtRp773
(dp774
g53
(dp775
g61
I4
ssg62
g769
sg55
(lp776
S"set(['C:\\\\Users\\\\AKSHAY\\\\Desktop\\\\web2py\\\\applications\\\\welcome\\\\', 'C:\\\\Users\\\\AKSHAY\\\\Desktop\\\\web2py\\\\applications\\\\201056161\\\\', 'C:\\\\Users\\\\AKSHAY\\\\Desktop\\\\web2py\\\\applications\\\\examples\\\\', 'C:\\\\Users\\\\AKSHAY\\\\Desktop\\\\web2py\\\\applications\\\\admin\\\\', 'C:\\\\Users\\\\AKSHAY\\\\Desktop\\\\web2py\\\\applications\\\\MusicRepo\\\\'])"
p777
asbasbasbag48
(g64
g50
NtRp778
(dp779
g53
(dp780
sg62
g752
sg55
(lp781
g48
(g69
g50
NtRp782
(dp783
g53
(dp784
g73
g74
ssg62
g778
sg55
(lp785
S'applications_parent'
p786
asbag48
(g69
g50
NtRp787
(dp788
g53
(dp789
g80
g81
ssg62
g778
sg55
(lp790
S':'
asbag48
(g69
g50
NtRp791
(dp792
g53
(dp793
sg62
g778
sg55
(lp794
g48
(g49
g50
NtRp795
(dp796
g53
(dp797
g61
I4
ssg62
g791
sg55
(lp798
S'C:\\Users\\AKSHAY\\Desktop\\web2py'
p799
asbasbasbag48
(g64
g50
NtRp800
(dp801
g53
(dp802
sg62
g752
sg55
(lp803
g48
(g69
g50
NtRp804
(dp805
g53
(dp806
g73
g74
ssg62
g800
sg55
(lp807
S'cmd_args'
p808
asbag48
(g69
g50
NtRp809
(dp810
g53
(dp811
g80
g81
ssg62
g800
sg55
(lp812
S':'
asbag48
(g69
g50
NtRp813
(dp814
g53
(dp815
sg62
g800
sg55
(lp816
g48
(g49
g50
NtRp817
(dp818
g53
(dp819
g61
I4
ssg62
g813
sg55
(lp820
g48
(g57
g50
NtRp821
(dp822
g53
(dp823
g61
I3
ssg62
Nsg55
(lp824
sbasbasbasbag48
(g64
g50
NtRp825
(dp826
g53
(dp827
sg62
g752
sg55
(lp828
g48
(g69
g50
NtRp829
(dp830
g53
(dp831
g73
g74
ssg62
g825
sg55
(lp832
S'cmd_options'
p833
asbag48
(g69
g50
NtRp834
(dp835
g53
(dp836
g80
g81
ssg62
g825
sg55
(lp837
S':'
asbag48
(g69
g50
NtRp838
(dp839
g53
(dp840
sg62
g825
sg55
(lp841
g48
(g49
g50
NtRp842
(dp843
g53
(dp844
g61
I4
ssg62
g838
sg55
(lp845
S"<Values at 0x317dfd0: {'verbose': False, 'ip': '127.0.0.1', 'shutdown_timeout': 5, 'taskbar': False, 'port': 8000, 'maxthreads': None, 'softcron': False, 'server_name': 'AKSHAY-PC', 'bpython': False, 'nogui': False, 'nocron': False, 'extcron': False, 'debuglevel': 30, 'test': None, 'folder': 'C:\\\\Users\\\\AKSHAY\\\\Desktop\\\\web2py', 'config': '', 'import_models': False, 'winservice': '', 'shell': None, 'run': '', 'log_filename': 'httpserver.log', 'args': [''], 'profiler_filename': None, 'ssl_private_key': '', 'password': '<ask>', 'request_queue_size': 5, 'ssl_certificate': '', 'cronjob': False, 'plain': False, 'quiet': False, 'interfaces': None, 'minthreads': None, 'timeout': 10, 'numthreads': None, 'nobanner': False, 'pid_filename': 'httpserver.pid'}>"
p846
asbasbasbag48
(g64
g50
NtRp847
(dp848
g53
(dp849
sg62
g752
sg55
(lp850
g48
(g69
g50
NtRp851
(dp852
g53
(dp853
g73
g74
ssg62
g847
sg55
(lp854
S'db_sessions'
p855
asbag48
(g69
g50
NtRp856
(dp857
g53
(dp858
g80
g81
ssg62
g847
sg55
(lp859
S':'
asbag48
(g69
g50
NtRp860
(dp861
g53
(dp862
sg62
g847
sg55
(lp863
g48
(g49
g50
NtRp864
(dp865
g53
(dp866
g61
I4
ssg62
g860
sg55
(lp867
S'set([])'
p868
asbasbasbag48
(g64
g50
NtRp869
(dp870
g53
(dp871
sg62
g752
sg55
(lp872
g48
(g69
g50
NtRp873
(dp874
g53
(dp875
g73
g74
ssg62
g869
sg55
(lp876
S'debugging'
p877
asbag48
(g69
g50
NtRp878
(dp879
g53
(dp880
g80
g81
ssg62
g869
sg55
(lp881
S':'
asbag48
(g69
g50
NtRp882
(dp883
g53
(dp884
sg62
g869
sg55
(lp885
g48
(g49
g50
NtRp886
(dp887
g53
(dp888
g61
I4
ssg62
g882
sg55
(lp889
g91
asbasbasbag48
(g64
g50
NtRp890
(dp891
g53
(dp892
sg62
g752
sg55
(lp893
g48
(g69
g50
NtRp894
(dp895
g53
(dp896
g73
g74
ssg62
g890
sg55
(lp897
S'gluon_parent'
p898
asbag48
(g69
g50
NtRp899
(dp900
g53
(dp901
g80
g81
ssg62
g890
sg55
(lp902
S':'
asbag48
(g69
g50
NtRp903
(dp904
g53
(dp905
sg62
g890
sg55
(lp906
g48
(g49
g50
NtRp907
(dp908
g53
(dp909
g61
I4
ssg62
g903
sg55
(lp910
S'C:\\Users\\AKSHAY\\Desktop\\web2py'
p911
asbasbasbag48
(g64
g50
NtRp912
(dp913
g53
(dp914
sg62
g752
sg55
(lp915
g48
(g69
g50
NtRp916
(dp917
g53
(dp918
g73
g74
ssg62
g912
sg55
(lp919
S'http_accept'
p920
asbag48
(g69
g50
NtRp921
(dp922
g53
(dp923
g80
g81
ssg62
g912
sg55
(lp924
S':'
asbag48
(g69
g50
NtRp925
(dp926
g53
(dp927
sg62
g912
sg55
(lp928
g48
(g49
g50
NtRp929
(dp930
g53
(dp931
g61
I4
ssg62
g925
sg55
(lp932
S'text/html,application/xhtml+xml,application/xml;q=0.9,*/*;q=0.8'
p933
asbasbasbag48
(g64
g50
NtRp934
(dp935
g53
(dp936
sg62
g752
sg55
(lp937
g48
(g69
g50
NtRp938
(dp939
g53
(dp940
g73
g74
ssg62
g934
sg55
(lp941
S'http_accept_charset'
p942
asbag48
(g69
g50
NtRp943
(dp944
g53
(dp945
g80
g81
ssg62
g934
sg55
(lp946
S':'
asbag48
(g69
g50
NtRp947
(dp948
g53
(dp949
sg62
g934
sg55
(lp950
g48
(g49
g50
NtRp951
(dp952
g53
(dp953
g61
I4
ssg62
g947
sg55
(lp954
S'ISO-8859-1,utf-8;q=0.7,*;q=0.3'
p955
asbasbasbag48
(g64
g50
NtRp956
(dp957
g53
(dp958
sg62
g752
sg55
(lp959
g48
(g69
g50
NtRp960
(dp961
g53
(dp962
g73
g74
ssg62
g956
sg55
(lp963
S'http_accept_encoding'
p964
asbag48
(g69
g50
NtRp965
(dp966
g53
(dp967
g80
g81
ssg62
g956
sg55
(lp968
S':'
asbag48
(g69
g50
NtRp969
(dp970
g53
(dp971
sg62
g956
sg55
(lp972
g48
(g49
g50
NtRp973
(dp974
g53
(dp975
g61
I4
ssg62
g969
sg55
(lp976
S'gzip,deflate,sdch'
p977
asbasbasbag48
(g64
g50
NtRp978
(dp979
g53
(dp980
sg62
g752
sg55
(lp981
g48
(g69
g50
NtRp982
(dp983
g53
(dp984
g73
g74
ssg62
g978
sg55
(lp985
S'http_accept_language'
p986
asbag48
(g69
g50
NtRp987
(dp988
g53
(dp989
g80
g81
ssg62
g978
sg55
(lp990
S':'
asbag48
(g69
g50
NtRp991
(dp992
g53
(dp993
sg62
g978
sg55
(lp994
g48
(g49
g50
NtRp995
(dp996
g53
(dp997
g61
I4
ssg62
g991
sg55
(lp998
S'en-US,en;q=0.8'
p999
asbasbasbag48
(g64
g50
NtRp1000
(dp1001
g53
(dp1002
sg62
g752
sg55
(lp1003
g48
(g69
g50
NtRp1004
(dp1005
g53
(dp1006
g73
g74
ssg62
g1000
sg55
(lp1007
S'http_cache_control'
p1008
asbag48
(g69
g50
NtRp1009
(dp1010
g53
(dp1011
g80
g81
ssg62
g1000
sg55
(lp1012
S':'
asbag48
(g69
g50
NtRp1013
(dp1014
g53
(dp1015
sg62
g1000
sg55
(lp1016
g48
(g49
g50
NtRp1017
(dp1018
g53
(dp1019
g61
I4
ssg62
g1013
sg55
(lp1020
S'max-age=0'
p1021
asbasbasbag48
(g64
g50
NtRp1022
(dp1023
g53
(dp1024
sg62
g752
sg55
(lp1025
g48
(g69
g50
NtRp1026
(dp1027
g53
(dp1028
g73
g74
ssg62
g1022
sg55
(lp1029
S'http_connection'
p1030
asbag48
(g69
g50
NtRp1031
(dp1032
g53
(dp1033
g80
g81
ssg62
g1022
sg55
(lp1034
S':'
asbag48
(g69
g50
NtRp1035
(dp1036
g53
(dp1037
sg62
g1022
sg55
(lp1038
g48
(g49
g50
NtRp1039
(dp1040
g53
(dp1041
g61
I4
ssg62
g1035
sg55
(lp1042
S'keep-alive'
p1043
asbasbasbag48
(g64
g50
NtRp1044
(dp1045
g53
(dp1046
sg62
g752
sg55
(lp1047
g48
(g69
g50
NtRp1048
(dp1049
g53
(dp1050
g73
g74
ssg62
g1044
sg55
(lp1051
S'http_cookie'
p1052
asbag48
(g69
g50
NtRp1053
(dp1054
g53
(dp1055
g80
g81
ssg62
g1044
sg55
(lp1056
S':'
asbag48
(g69
g50
NtRp1057
(dp1058
g53
(dp1059
sg62
g1044
sg55
(lp1060
g48
(g49
g50
NtRp1061
(dp1062
g53
(dp1063
g61
I4
ssg62
g1057
sg55
(lp1064
S'session_id_welcome=127.0.0.1-59771078-5064-4769-bad5-36c10b98c15f; session_id_admin=127.0.0.1-0f74329a-39f0-47c2-95cf-7f42bb528a7b; session_id_201056161=127.0.0.1-3bc821ac-4d59-41c6-8699-b3e43edfc478'
p1065
asbasbasbag48
(g64
g50
NtRp1066
(dp1067
g53
(dp1068
sg62
g752
sg55
(lp1069
g48
(g69
g50
NtRp1070
(dp1071
g53
(dp1072
g73
g74
ssg62
g1066
sg55
(lp1073
S'http_host'
p1074
asbag48
(g69
g50
NtRp1075
(dp1076
g53
(dp1077
g80
g81
ssg62
g1066
sg55
(lp1078
S':'
asbag48
(g69
g50
NtRp1079
(dp1080
g53
(dp1081
sg62
g1066
sg55
(lp1082
g48
(g49
g50
NtRp1083
(dp1084
g53
(dp1085
g61
I4
ssg62
g1079
sg55
(lp1086
S'127.0.0.1:8000'
p1087
asbasbasbag48
(g64
g50
NtRp1088
(dp1089
g53
(dp1090
sg62
g752
sg55
(lp1091
g48
(g69
g50
NtRp1092
(dp1093
g53
(dp1094
g73
g74
ssg62
g1088
sg55
(lp1095
S'http_referer'
p1096
asbag48
(g69
g50
NtRp1097
(dp1098
g53
(dp1099
g80
g81
ssg62
g1088
sg55
(lp1100
S':'
asbag48
(g69
g50
NtRp1101
(dp1102
g53
(dp1103
sg62
g1088
sg55
(lp1104
g48
(g49
g50
NtRp1105
(dp1106
g53
(dp1107
g61
I4
ssg62
g1101
sg55
(lp1108
S'http://127.0.0.1:8000/201056161/default/new'
p1109
asbasbasbag48
(g64
g50
NtRp1110
(dp1111
g53
(dp1112
sg62
g752
sg55
(lp1113
g48
(g69
g50
NtRp1114
(dp1115
g53
(dp1116
g73
g74
ssg62
g1110
sg55
(lp1117
S'http_user_agent'
p1118
asbag48
(g69
g50
NtRp1119
(dp1120
g53
(dp1121
g80
g81
ssg62
g1110
sg55
(lp1122
S':'
asbag48
(g69
g50
NtRp1123
(dp1124
g53
(dp1125
sg62
g1110
sg55
(lp1126
g48
(g49
g50
NtRp1127
(dp1128
g53
(dp1129
g61
I4
ssg62
g1123
sg55
(lp1130
S'Mozilla/5.0 (Windows NT 6.1; WOW64) AppleWebKit/535.1 (KHTML, like Gecko) Chrome/13.0.782.218 Safari/535.1'
p1131
asbasbasbag48
(g64
g50
NtRp1132
(dp1133
g53
(dp1134
sg62
g752
sg55
(lp1135
g48
(g69
g50
NtRp1136
(dp1137
g53
(dp1138
g73
g74
ssg62
g1132
sg55
(lp1139
S'path_info'
p1140
asbag48
(g69
g50
NtRp1141
(dp1142
g53
(dp1143
g80
g81
ssg62
g1132
sg55
(lp1144
S':'
asbag48
(g69
g50
NtRp1145
(dp1146
g53
(dp1147
sg62
g1132
sg55
(lp1148
g48
(g49
g50
NtRp1149
(dp1150
g53
(dp1151
g61
I4
ssg62
g1145
sg55
(lp1152
S'/201056161/default/new2'
p1153
asbasbasbag48
(g64
g50
NtRp1154
(dp1155
g53
(dp1156
sg62
g752
sg55
(lp1157
g48
(g69
g50
NtRp1158
(dp1159
g53
(dp1160
g73
g74
ssg62
g1154
sg55
(lp1161
S'query_string'
p1162
asbag48
(g69
g50
NtRp1163
(dp1164
g53
(dp1165
g80
g81
ssg62
g1154
sg55
(lp1166
S':'
asbag48
(g69
g50
NtRp1167
(dp1168
g53
(dp1169
sg62
g1154
sg55
(lp1170
g48
(g49
g50
NtRp1171
(dp1172
g53
(dp1173
g61
I4
ssg62
g1167
sg55
(lp1174
S'namen=1&movien=3'
p1175
asbasbasbag48
(g64
g50
NtRp1176
(dp1177
g53
(dp1178
sg62
g752
sg55
(lp1179
g48
(g69
g50
NtRp1180
(dp1181
g53
(dp1182
g73
g74
ssg62
g1176
sg55
(lp1183
S'remote_addr'
p1184
asbag48
(g69
g50
NtRp1185
(dp1186
g53
(dp1187
g80
g81
ssg62
g1176
sg55
(lp1188
S':'
asbag48
(g69
g50
NtRp1189
(dp1190
g53
(dp1191
sg62
g1176
sg55
(lp1192
g48
(g49
g50
NtRp1193
(dp1194
g53
(dp1195
g61
I4
ssg62
g1189
sg55
(lp1196
g181
asbasbasbag48
(g64
g50
NtRp1197
(dp1198
g53
(dp1199
sg62
g752
sg55
(lp1200
g48
(g69
g50
NtRp1201
(dp1202
g53
(dp1203
g73
g74
ssg62
g1197
sg55
(lp1204
S'remote_port'
p1205
asbag48
(g69
g50
NtRp1206
(dp1207
g53
(dp1208
g80
g81
ssg62
g1197
sg55
(lp1209
S':'
asbag48
(g69
g50
NtRp1210
(dp1211
g53
(dp1212
sg62
g1197
sg55
(lp1213
g48
(g49
g50
NtRp1214
(dp1215
g53
(dp1216
g61
I4
ssg62
g1210
sg55
(lp1217
S'51272'
p1218
asbasbasbag48
(g64
g50
NtRp1219
(dp1220
g53
(dp1221
sg62
g752
sg55
(lp1222
g48
(g69
g50
NtRp1223
(dp1224
g53
(dp1225
g73
g74
ssg62
g1219
sg55
(lp1226
S'request_method'
p1227
asbag48
(g69
g50
NtRp1228
(dp1229
g53
(dp1230
g80
g81
ssg62
g1219
sg55
(lp1231
S':'
asbag48
(g69
g50
NtRp1232
(dp1233
g53
(dp1234
sg62
g1219
sg55
(lp1235
g48
(g49
g50
NtRp1236
(dp1237
g53
(dp1238
g61
I4
ssg62
g1232
sg55
(lp1239
S'GET'
p1240
asbasbasbag48
(g64
g50
NtRp1241
(dp1242
g53
(dp1243
sg62
g752
sg55
(lp1244
g48
(g69
g50
NtRp1245
(dp1246
g53
(dp1247
g73
g74
ssg62
g1241
sg55
(lp1248
S'script_name'
p1249
asbag48
(g69
g50
NtRp1250
(dp1251
g53
(dp1252
g80
g81
ssg62
g1241
sg55
(lp1253
S':'
asbag48
(g69
g50
NtRp1254
(dp1255
g53
(dp1256
sg62
g1241
sg55
(lp1257
g48
(g49
g50
NtRp1258
(dp1259
g53
(dp1260
g61
I4
ssg62
g1254
sg55
(lp1261
S''
asbasbasbag48
(g64
g50
NtRp1262
(dp1263
g53
(dp1264
sg62
g752
sg55
(lp1265
g48
(g69
g50
NtRp1266
(dp1267
g53
(dp1268
g73
g74
ssg62
g1262
sg55
(lp1269
S'server_name'
p1270
asbag48
(g69
g50
NtRp1271
(dp1272
g53
(dp1273
g80
g81
ssg62
g1262
sg55
(lp1274
S':'
asbag48
(g69
g50
NtRp1275
(dp1276
g53
(dp1277
sg62
g1262
sg55
(lp1278
g48
(g49
g50
NtRp1279
(dp1280
g53
(dp1281
g61
I4
ssg62
g1275
sg55
(lp1282
S'AKSHAY-PC'
p1283
asbasbasbag48
(g64
g50
NtRp1284
(dp1285
g53
(dp1286
sg62
g752
sg55
(lp1287
g48
(g69
g50
NtRp1288
(dp1289
g53
(dp1290
g73
g74
ssg62
g1284
sg55
(lp1291
S'server_port'
p1292
asbag48
(g69
g50
NtRp1293
(dp1294
g53
(dp1295
g80
g81
ssg62
g1284
sg55
(lp1296
S':'
asbag48
(g69
g50
NtRp1297
(dp1298
g53
(dp1299
sg62
g1284
sg55
(lp1300
g48
(g49
g50
NtRp1301
(dp1302
g53
(dp1303
g61
I4
ssg62
g1297
sg55
(lp1304
S'8000'
p1305
asbasbasbag48
(g64
g50
NtRp1306
(dp1307
g53
(dp1308
sg62
g752
sg55
(lp1309
g48
(g69
g50
NtRp1310
(dp1311
g53
(dp1312
g73
g74
ssg62
g1306
sg55
(lp1313
S'server_protocol'
p1314
asbag48
(g69
g50
NtRp1315
(dp1316
g53
(dp1317
g80
g81
ssg62
g1306
sg55
(lp1318
S':'
asbag48
(g69
g50
NtRp1319
(dp1320
g53
(dp1321
sg62
g1306
sg55
(lp1322
g48
(g49
g50
NtRp1323
(dp1324
g53
(dp1325
g61
I4
ssg62
g1319
sg55
(lp1326
S'HTTP/1.1'
p1327
asbasbasbag48
(g64
g50
NtRp1328
(dp1329
g53
(dp1330
sg62
g752
sg55
(lp1331
g48
(g69
g50
NtRp1332
(dp1333
g53
(dp1334
g73
g74
ssg62
g1328
sg55
(lp1335
S'server_software'
p1336
asbag48
(g69
g50
NtRp1337
(dp1338
g53
(dp1339
g80
g81
ssg62
g1328
sg55
(lp1340
S':'
asbag48
(g69
g50
NtRp1341
(dp1342
g53
(dp1343
sg62
g1328
sg55
(lp1344
g48
(g49
g50
NtRp1345
(dp1346
g53
(dp1347
g61
I4
ssg62
g1341
sg55
(lp1348
S'Rocket 1.2.2'
p1349
asbasbasbag48
(g64
g50
NtRp1350
(dp1351
g53
(dp1352
sg62
g752
sg55
(lp1353
g48
(g69
g50
NtRp1354
(dp1355
g53
(dp1356
g73
g74
ssg62
g1350
sg55
(lp1357
S'web2py_crontype'
p1358
asbag48
(g69
g50
NtRp1359
(dp1360
g53
(dp1361
g80
g81
ssg62
g1350
sg55
(lp1362
S':'
asbag48
(g69
g50
NtRp1363
(dp1364
g53
(dp1365
sg62
g1350
sg55
(lp1366
g48
(g49
g50
NtRp1367
(dp1368
g53
(dp1369
g61
I4
ssg62
g1363
sg55
(lp1370
S'hard'
p1371
asbasbasbag48
(g64
g50
NtRp1372
(dp1373
g53
(dp1374
sg62
g752
sg55
(lp1375
g48
(g69
g50
NtRp1376
(dp1377
g53
(dp1378
g73
g74
ssg62
g1372
sg55
(lp1379
S'web2py_path'
p1380
asbag48
(g69
g50
NtRp1381
(dp1382
g53
(dp1383
g80
g81
ssg62
g1372
sg55
(lp1384
S':'
asbag48
(g69
g50
NtRp1385
(dp1386
g53
(dp1387
sg62
g1372
sg55
(lp1388
g48
(g49
g50
NtRp1389
(dp1390
g53
(dp1391
g61
I4
ssg62
g1385
sg55
(lp1392
g799
asbasbasbag48
(g64
g50
NtRp1393
(dp1394
g53
(dp1395
sg62
g752
sg55
(lp1396
g48
(g69
g50
NtRp1397
(dp1398
g53
(dp1399
g73
g74
ssg62
g1393
sg55
(lp1400
S'web2py_version'
p1401
asbag48
(g69
g50
NtRp1402
(dp1403
g53
(dp1404
g80
g81
ssg62
g1393
sg55
(lp1405
S':'
asbag48
(g69
g50
NtRp1406
(dp1407
g53
(dp1408
sg62
g1393
sg55
(lp1409
g48
(g49
g50
NtRp1410
(dp1411
g53
(dp1412
g61
I4
ssg62
g1406
sg55
(lp1413
S'Version 1.97.1 (2011-06-26 19:25:44)\n'
p1414
asbasbasbag48
(g64
g50
NtRp1415
(dp1416
g53
(dp1417
sg62
g752
sg55
(lp1418
g48
(g69
g50
NtRp1419
(dp1420
g53
(dp1421
g73
g74
ssg62
g1415
sg55
(lp1422
S'wsgi_errors'
p1423
asbag48
(g69
g50
NtRp1424
(dp1425
g53
(dp1426
g80
g81
ssg62
g1415
sg55
(lp1427
S':'
asbag48
(g69
g50
NtRp1428
(dp1429
g53
(dp1430
sg62
g1415
sg55
(lp1431
g48
(g49
g50
NtRp1432
(dp1433
g53
(dp1434
g61
I4
ssg62
g1428
sg55
(lp1435
S"<open file '<stderr>', mode 'w' at 0x002500B0>"
p1436
asbasbasbag48
(g64
g50
NtRp1437
(dp1438
g53
(dp1439
sg62
g752
sg55
(lp1440
g48
(g69
g50
NtRp1441
(dp1442
g53
(dp1443
g73
g74
ssg62
g1437
sg55
(lp1444
S'wsgi_file_wrapper'
p1445
asbag48
(g69
g50
NtRp1446
(dp1447
g53
(dp1448
g80
g81
ssg62
g1437
sg55
(lp1449
S':'
asbag48
(g69
g50
NtRp1450
(dp1451
g53
(dp1452
sg62
g1437
sg55
(lp1453
g48
(g49
g50
NtRp1454
(dp1455
g53
(dp1456
g61
I4
ssg62
g1450
sg55
(lp1457
S'<class gluon.rocket.FileWrapper at 0x03132BA0>'
p1458
asbasbasbag48
(g64
g50
NtRp1459
(dp1460
g53
(dp1461
sg62
g752
sg55
(lp1462
g48
(g69
g50
NtRp1463
(dp1464
g53
(dp1465
g73
g74
ssg62
g1459
sg55
(lp1466
S'wsgi_input'
p1467
asbag48
(g69
g50
NtRp1468
(dp1469
g53
(dp1470
g80
g81
ssg62
g1459
sg55
(lp1471
S':'
asbag48
(g69
g50
NtRp1472
(dp1473
g53
(dp1474
sg62
g1459
sg55
(lp1475
g48
(g49
g50
NtRp1476
(dp1477
g53
(dp1478
g61
I4
ssg62
g1472
sg55
(lp1479
S'<socket._fileobject object at 0x06DA4E30>'
p1480
asbasbasbag48
(g64
g50
NtRp1481
(dp1482
g53
(dp1483
sg62
g752
sg55
(lp1484
g48
(g69
g50
NtRp1485
(dp1486
g53
(dp1487
g73
g74
ssg62
g1481
sg55
(lp1488
S'wsgi_multiprocess'
p1489
asbag48
(g69
g50
NtRp1490
(dp1491
g53
(dp1492
g80
g81
ssg62
g1481
sg55
(lp1493
S':'
asbag48
(g69
g50
NtRp1494
(dp1495
g53
(dp1496
sg62
g1481
sg55
(lp1497
g48
(g49
g50
NtRp1498
(dp1499
g53
(dp1500
g61
I4
ssg62
g1494
sg55
(lp1501
g91
asbasbasbag48
(g64
g50
NtRp1502
(dp1503
g53
(dp1504
sg62
g752
sg55
(lp1505
g48
(g69
g50
NtRp1506
(dp1507
g53
(dp1508
g73
g74
ssg62
g1502
sg55
(lp1509
S'wsgi_multithread'
p1510
asbag48
(g69
g50
NtRp1511
(dp1512
g53
(dp1513
g80
g81
ssg62
g1502
sg55
(lp1514
S':'
asbag48
(g69
g50
NtRp1515
(dp1516
g53
(dp1517
sg62
g1502
sg55
(lp1518
g48
(g49
g50
NtRp1519
(dp1520
g53
(dp1521
g61
I4
ssg62
g1515
sg55
(lp1522
S'True'
p1523
asbasbasbag48
(g64
g50
NtRp1524
(dp1525
g53
(dp1526
sg62
g752
sg55
(lp1527
g48
(g69
g50
NtRp1528
(dp1529
g53
(dp1530
g73
g74
ssg62
g1524
sg55
(lp1531
S'wsgi_run_once'
p1532
asbag48
(g69
g50
NtRp1533
(dp1534
g53
(dp1535
g80
g81
ssg62
g1524
sg55
(lp1536
S':'
asbag48
(g69
g50
NtRp1537
(dp1538
g53
(dp1539
sg62
g1524
sg55
(lp1540
g48
(g49
g50
NtRp1541
(dp1542
g53
(dp1543
g61
I4
ssg62
g1537
sg55
(lp1544
g91
asbasbasbag48
(g64
g50
NtRp1545
(dp1546
g53
(dp1547
sg62
g752
sg55
(lp1548
g48
(g69
g50
NtRp1549
(dp1550
g53
(dp1551
g73
g74
ssg62
g1545
sg55
(lp1552
S'wsgi_url_scheme'
p1553
asbag48
(g69
g50
NtRp1554
(dp1555
g53
(dp1556
g80
g81
ssg62
g1545
sg55
(lp1557
S':'
asbag48
(g69
g50
NtRp1558
(dp1559
g53
(dp1560
sg62
g1545
sg55
(lp1561
g48
(g49
g50
NtRp1562
(dp1563
g53
(dp1564
g61
I4
ssg62
g1558
sg55
(lp1565
S'http'
p1566
asbasbasbag48
(g64
g50
NtRp1567
(dp1568
g53
(dp1569
sg62
g752
sg55
(lp1570
g48
(g69
g50
NtRp1571
(dp1572
g53
(dp1573
g73
g74
ssg62
g1567
sg55
(lp1574
S'wsgi_version'
p1575
asbag48
(g69
g50
NtRp1576
(dp1577
g53
(dp1578
g80
g81
ssg62
g1567
sg55
(lp1579
S':'
asbag48
(g69
g50
NtRp1580
(dp1581
g53
(dp1582
sg62
g1567
sg55
(lp1583
g48
(g49
g50
NtRp1584
(dp1585
g53
(dp1586
g61
I4
ssg62
g1580
sg55
(lp1587
g48
(g57
g50
NtRp1588
(dp1589
g53
(dp1590
g61
I3
ssg62
Nsg55
(lp1591
g48
(g64
g50
NtRp1592
(dp1593
g53
(dp1594
sg62
g1588
sg55
(lp1595
g48
(g69
g50
NtRp1596
(dp1597
g53
(dp1598
sg62
g1592
sg55
(lp1599
g48
(g49
g50
NtRp1600
(dp1601
g53
(dp1602
g61
I3
ssg62
g1596
sg55
(lp1603
S'1'
asbasbasbag48
(g64
g50
NtRp1604
(dp1605
g53
(dp1606
sg62
g1588
sg55
(lp1607
g48
(g69
g50
NtRp1608
(dp1609
g53
(dp1610
sg62
g1604
sg55
(lp1611
g48
(g49
g50
NtRp1612
(dp1613
g53
(dp1614
g61
I3
ssg62
g1608
sg55
(lp1615
S'0'
asbasbasbasbasbasbasbasbasbasbasbag48
(g64
g50
NtRp1616
(dp1617
g53
(dp1618
sg62
g58
sg55
(lp1619
g48
(g69
g50
NtRp1620
(dp1621
g53
(dp1622
g73
g74
ssg62
g1616
sg55
(lp1623
S'extension'
p1624
asbag48
(g69
g50
NtRp1625
(dp1626
g53
(dp1627
g80
g81
ssg62
g1616
sg55
(lp1628
S':'
asbag48
(g69
g50
NtRp1629
(dp1630
g53
(dp1631
sg62
g1616
sg55
(lp1632
g48
(g49
g50
NtRp1633
(dp1634
g53
(dp1635
g61
I5
ssg62
g1629
sg55
(lp1636
S'html'
p1637
asbasbasbag48
(g64
g50
NtRp1638
(dp1639
g53
(dp1640
sg62
g58
sg55
(lp1641
g48
(g69
g50
NtRp1642
(dp1643
g53
(dp1644
g73
g74
ssg62
g1638
sg55
(lp1645
S'folder'
p1646
asbag48
(g69
g50
NtRp1647
(dp1648
g53
(dp1649
g80
g81
ssg62
g1638
sg55
(lp1650
S':'
asbag48
(g69
g50
NtRp1651
(dp1652
g53
(dp1653
sg62
g1638
sg55
(lp1654
g48
(g49
g50
NtRp1655
(dp1656
g53
(dp1657
g61
I5
ssg62
g1651
sg55
(lp1658
S'C:\\Users\\AKSHAY\\Desktop\\web2py\\applications\\201056161\\'
p1659
asbasbasbag48
(g64
g50
NtRp1660
(dp1661
g53
(dp1662
sg62
g58
sg55
(lp1663
g48
(g69
g50
NtRp1664
(dp1665
g53
(dp1666
g73
g74
ssg62
g1660
sg55
(lp1667
S'function'
p1668
asbag48
(g69
g50
NtRp1669
(dp1670
g53
(dp1671
g80
g81
ssg62
g1660
sg55
(lp1672
S':'
asbag48
(g69
g50
NtRp1673
(dp1674
g53
(dp1675
sg62
g1660
sg55
(lp1676
g48
(g49
g50
NtRp1677
(dp1678
g53
(dp1679
g61
I5
ssg62
g1673
sg55
(lp1680
S'new2'
p1681
asbasbasbag48
(g64
g50
NtRp1682
(dp1683
g53
(dp1684
sg62
g58
sg55
(lp1685
g48
(g69
g50
NtRp1686
(dp1687
g53
(dp1688
g73
g74
ssg62
g1682
sg55
(lp1689
S'get_vars'
p1690
asbag48
(g69
g50
NtRp1691
(dp1692
g53
(dp1693
g80
g81
ssg62
g1682
sg55
(lp1694
S':'
asbag48
(g69
g50
NtRp1695
(dp1696
g53
(dp1697
sg62
g1682
sg55
(lp1698
g48
(g49
g50
NtRp1699
(dp1700
g53
(dp1701
g61
I5
ssg62
g1695
sg55
(lp1702
g48
(g57
g50
NtRp1703
(dp1704
g53
(dp1705
g61
I4
ssg62
Nsg55
(lp1706
g48
(g64
g50
NtRp1707
(dp1708
g53
(dp1709
sg62
g1703
sg55
(lp1710
g48
(g69
g50
NtRp1711
(dp1712
g53
(dp1713
g73
g74
ssg62
g1707
sg55
(lp1714
S'movien'
p1715
asbag48
(g69
g50
NtRp1716
(dp1717
g53
(dp1718
g80
g81
ssg62
g1707
sg55
(lp1719
S':'
asbag48
(g69
g50
NtRp1720
(dp1721
g53
(dp1722
sg62
g1707
sg55
(lp1723
g48
(g49
g50
NtRp1724
(dp1725
g53
(dp1726
g61
I4
ssg62
g1720
sg55
(lp1727
S'3'
asbasbasbag48
(g64
g50
NtRp1728
(dp1729
g53
(dp1730
sg62
g1703
sg55
(lp1731
g48
(g69
g50
NtRp1732
(dp1733
g53
(dp1734
g73
g74
ssg62
g1728
sg55
(lp1735
S'namen'
p1736
asbag48
(g69
g50
NtRp1737
(dp1738
g53
(dp1739
g80
g81
ssg62
g1728
sg55
(lp1740
S':'
asbag48
(g69
g50
NtRp1741
(dp1742
g53
(dp1743
sg62
g1728
sg55
(lp1744
g48
(g49
g50
NtRp1745
(dp1746
g53
(dp1747
g61
I4
ssg62
g1741
sg55
(lp1748
S'1'
asbasbasbasbasbasbasbag48
(g64
g50
NtRp1749
(dp1750
g53
(dp1751
sg62
g58
sg55
(lp1752
g48
(g69
g50
NtRp1753
(dp1754
g53
(dp1755
g73
g74
ssg62
g1749
sg55
(lp1756
S'is_https'
p1757
asbag48
(g69
g50
NtRp1758
(dp1759
g53
(dp1760
g80
g81
ssg62
g1749
sg55
(lp1761
S':'
asbag48
(g69
g50
NtRp1762
(dp1763
g53
(dp1764
sg62
g1749
sg55
(lp1765
g48
(g49
g50
NtRp1766
(dp1767
g53
(dp1768
g61
I5
ssg62
g1762
sg55
(lp1769
g91
asbasbasbag48
(g64
g50
NtRp1770
(dp1771
g53
(dp1772
sg62
g58
sg55
(lp1773
g48
(g69
g50
NtRp1774
(dp1775
g53
(dp1776
g73
g74
ssg62
g1770
sg55
(lp1777
S'is_local'
p1778
asbag48
(g69
g50
NtRp1779
(dp1780
g53
(dp1781
g80
g81
ssg62
g1770
sg55
(lp1782
S':'
asbag48
(g69
g50
NtRp1783
(dp1784
g53
(dp1785
sg62
g1770
sg55
(lp1786
g48
(g49
g50
NtRp1787
(dp1788
g53
(dp1789
g61
I5
ssg62
g1783
sg55
(lp1790
g1523
asbasbasbag48
(g64
g50
NtRp1791
(dp1792
g53
(dp1793
sg62
g58
sg55
(lp1794
g48
(g69
g50
NtRp1795
(dp1796
g53
(dp1797
g73
g74
ssg62
g1791
sg55
(lp1798
S'is_restful'
p1799
asbag48
(g69
g50
NtRp1800
(dp1801
g53
(dp1802
g80
g81
ssg62
g1791
sg55
(lp1803
S':'
asbag48
(g69
g50
NtRp1804
(dp1805
g53
(dp1806
sg62
g1791
sg55
(lp1807
g48
(g49
g50
NtRp1808
(dp1809
g53
(dp1810
g61
I5
ssg62
g1804
sg55
(lp1811
g91
asbasbasbag48
(g64
g50
NtRp1812
(dp1813
g53
(dp1814
sg62
g58
sg55
(lp1815
g48
(g69
g50
NtRp1816
(dp1817
g53
(dp1818
g73
g74
ssg62
g1812
sg55
(lp1819
S'now'
p1820
asbag48
(g69
g50
NtRp1821
(dp1822
g53
(dp1823
g80
g81
ssg62
g1812
sg55
(lp1824
S':'
asbag48
(g69
g50
NtRp1825
(dp1826
g53
(dp1827
sg62
g1812
sg55
(lp1828
g48
(g49
g50
NtRp1829
(dp1830
g53
(dp1831
g61
I5
ssg62
g1825
sg55
(lp1832
S'datetime.datetime(2011, 9, 7, 2, 29, 14, 26000)'
p1833
asbasbasbag48
(g64
g50
NtRp1834
(dp1835
g53
(dp1836
sg62
g58
sg55
(lp1837
g48
(g69
g50
NtRp1838
(dp1839
g53
(dp1840
g73
g74
ssg62
g1834
sg55
(lp1841
S'post_vars'
p1842
asbag48
(g69
g50
NtRp1843
(dp1844
g53
(dp1845
g80
g81
ssg62
g1834
sg55
(lp1846
S':'
asbag48
(g69
g50
NtRp1847
(dp1848
g53
(dp1849
sg62
g1834
sg55
(lp1850
g48
(g49
g50
NtRp1851
(dp1852
g53
(dp1853
g61
I5
ssg62
g1847
sg55
(lp1854
g48
(g57
g50
NtRp1855
(dp1856
g53
(dp1857
g61
I4
ssg62
Nsg55
(lp1858
sbasbasbasbag48
(g64
g50
NtRp1859
(dp1860
g53
(dp1861
sg62
g58
sg55
(lp1862
g48
(g69
g50
NtRp1863
(dp1864
g53
(dp1865
g73
g74
ssg62
g1859
sg55
(lp1866
S'url'
p1867
asbag48
(g69
g50
NtRp1868
(dp1869
g53
(dp1870
g80
g81
ssg62
g1859
sg55
(lp1871
S':'
asbag48
(g69
g50
NtRp1872
(dp1873
g53
(dp1874
sg62
g1859
sg55
(lp1875
g48
(g49
g50
NtRp1876
(dp1877
g53
(dp1878
g61
I5
ssg62
g1872
sg55
(lp1879
S'/201056161/default/new2'
p1880
asbasbasbag48
(g64
g50
NtRp1881
(dp1882
g53
(dp1883
sg62
g58
sg55
(lp1884
g48
(g69
g50
NtRp1885
(dp1886
g53
(dp1887
g73
g74
ssg62
g1881
sg55
(lp1888
S'uuid'
p1889
asbag48
(g69
g50
NtRp1890
(dp1891
g53
(dp1892
g80
g81
ssg62
g1881
sg55
(lp1893
S':'
asbag48
(g69
g50
NtRp1894
(dp1895
g53
(dp1896
sg62
g1881
sg55
(lp1897
g48
(g49
g50
NtRp1898
(dp1899
g53
(dp1900
g61
I5
ssg62
g1894
sg55
(lp1901
S'201056161/127.0.0.1.2011-09-07.02-29-14.630d8b41-f12e-457c-b250-1c69c78b054d'
p1902
asbasbasbag48
(g64
g50
NtRp1903
(dp1904
g53
(dp1905
sg62
g58
sg55
(lp1906
g48
(g69
g50
NtRp1907
(dp1908
g53
(dp1909
g73
g74
ssg62
g1903
sg55
(lp1910
S'vars'
p1911
asbag48
(g69
g50
NtRp1912
(dp1913
g53
(dp1914
g80
g81
ssg62
g1903
sg55
(lp1915
S':'
asbag48
(g69
g50
NtRp1916
(dp1917
g53
(dp1918
sg62
g1903
sg55
(lp1919
g48
(g49
g50
NtRp1920
(dp1921
g53
(dp1922
g61
I5
ssg62
g1916
sg55
(lp1923
g48
(g57
g50
NtRp1924
(dp1925
g53
(dp1926
g61
I4
ssg62
Nsg55
(lp1927
g48
(g64
g50
NtRp1928
(dp1929
g53
(dp1930
sg62
g1924
sg55
(lp1931
g48
(g69
g50
NtRp1932
(dp1933
g53
(dp1934
g73
g74
ssg62
g1928
sg55
(lp1935
g1715
asbag48
(g69
g50
NtRp1936
(dp1937
g53
(dp1938
g80
g81
ssg62
g1928
sg55
(lp1939
S':'
asbag48
(g69
g50
NtRp1940
(dp1941
g53
(dp1942
sg62
g1928
sg55
(lp1943
g48
(g49
g50
NtRp1944
(dp1945
g53
(dp1946
g61
I4
ssg62
g1940
sg55
(lp1947
S'3'
asbasbasbag48
(g64
g50
NtRp1948
(dp1949
g53
(dp1950
sg62
g1924
sg55
(lp1951
g48
(g69
g50
NtRp1952
(dp1953
g53
(dp1954
g73
g74
ssg62
g1948
sg55
(lp1955
g1736
asbag48
(g69
g50
NtRp1956
(dp1957
g53
(dp1958
g80
g81
ssg62
g1948
sg55
(lp1959
S':'
asbag48
(g69
g50
NtRp1960
(dp1961
g53
(dp1962
sg62
g1948
sg55
(lp1963
g48
(g49
g50
NtRp1964
(dp1965
g53
(dp1966
g61
I4
ssg62
g1960
sg55
(lp1967
S'1'
asbasbasbasbasbasbasbag48
(g64
g50
NtRp1968
(dp1969
g53
(dp1970
sg62
g58
sg55
(lp1971
g48
(g69
g50
NtRp1972
(dp1973
g53
(dp1974
g73
g74
ssg62
g1968
sg55
(lp1975
S'wsgi'
p1976
asbag48
(g69
g50
NtRp1977
(dp1978
g53
(dp1979
g80
g81
ssg62
g1968
sg55
(lp1980
S':'
asbag48
(g69
g50
NtRp1981
(dp1982
g53
(dp1983
sg62
g1968
sg55
(lp1984
g48
(g49
g50
NtRp1985
(dp1986
g53
(dp1987
g61
I5
ssg62
g1981
sg55
(lp1988
g48
(g57
g50
NtRp1989
(dp1990
g53
(dp1991
g61
I4
ssg62
Nsg55
(lp1992
g48
(g64
g50
NtRp1993
(dp1994
g53
(dp1995
sg62
g1989
sg55
(lp1996
g48
(g69
g50
NtRp1997
(dp1998
g53
(dp1999
g73
g74
ssg62
g1993
sg55
(lp2000
S'environ'
p2001
asbag48
(g69
g50
NtRp2002
(dp2003
g53
(dp2004
g80
g81
ssg62
g1993
sg55
(lp2005
S':'
asbag48
(g69
g50
NtRp2006
(dp2007
g53
(dp2008
sg62
g1993
sg55
(lp2009
g48
(g49
g50
NtRp2010
(dp2011
g53
(dp2012
g61
I4
ssg62
g2006
sg55
(lp2013
g48
(g57
g50
NtRp2014
(dp2015
g53
(dp2016
g61
I3
ssg62
Nsg55
(lp2017
g48
(g64
g50
NtRp2018
(dp2019
g53
(dp2020
sg62
g2014
sg55
(lp2021
g48
(g69
g50
NtRp2022
(dp2023
g53
(dp2024
g73
g74
ssg62
g2018
sg55
(lp2025
S'HTTP_ACCEPT'
p2026
asbag48
(g69
g50
NtRp2027
(dp2028
g53
(dp2029
g80
g81
ssg62
g2018
sg55
(lp2030
S':'
asbag48
(g69
g50
NtRp2031
(dp2032
g53
(dp2033
sg62
g2018
sg55
(lp2034
g48
(g49
g50
NtRp2035
(dp2036
g53
(dp2037
g61
I3
ssg62
g2031
sg55
(lp2038
g933
asbasbasbag48
(g64
g50
NtRp2039
(dp2040
g53
(dp2041
sg62
g2014
sg55
(lp2042
g48
(g69
g50
NtRp2043
(dp2044
g53
(dp2045
g73
g74
ssg62
g2039
sg55
(lp2046
S'HTTP_ACCEPT_CHARSET'
p2047
asbag48
(g69
g50
NtRp2048
(dp2049
g53
(dp2050
g80
g81
ssg62
g2039
sg55
(lp2051
S':'
asbag48
(g69
g50
NtRp2052
(dp2053
g53
(dp2054
sg62
g2039
sg55
(lp2055
g48
(g49
g50
NtRp2056
(dp2057
g53
(dp2058
g61
I3
ssg62
g2052
sg55
(lp2059
g955
asbasbasbag48
(g64
g50
NtRp2060
(dp2061
g53
(dp2062
sg62
g2014
sg55
(lp2063
g48
(g69
g50
NtRp2064
(dp2065
g53
(dp2066
g73
g74
ssg62
g2060
sg55
(lp2067
S'HTTP_ACCEPT_ENCODING'
p2068
asbag48
(g69
g50
NtRp2069
(dp2070
g53
(dp2071
g80
g81
ssg62
g2060
sg55
(lp2072
S':'
asbag48
(g69
g50
NtRp2073
(dp2074
g53
(dp2075
sg62
g2060
sg55
(lp2076
g48
(g49
g50
NtRp2077
(dp2078
g53
(dp2079
g61
I3
ssg62
g2073
sg55
(lp2080
g977
asbasbasbag48
(g64
g50
NtRp2081
(dp2082
g53
(dp2083
sg62
g2014
sg55
(lp2084
g48
(g69
g50
NtRp2085
(dp2086
g53
(dp2087
g73
g74
ssg62
g2081
sg55
(lp2088
S'HTTP_ACCEPT_LANGUAGE'
p2089
asbag48
(g69
g50
NtRp2090
(dp2091
g53
(dp2092
g80
g81
ssg62
g2081
sg55
(lp2093
S':'
asbag48
(g69
g50
NtRp2094
(dp2095
g53
(dp2096
sg62
g2081
sg55
(lp2097
g48
(g49
g50
NtRp2098
(dp2099
g53
(dp2100
g61
I3
ssg62
g2094
sg55
(lp2101
g999
asbasbasbag48
(g64
g50
NtRp2102
(dp2103
g53
(dp2104
sg62
g2014
sg55
(lp2105
g48
(g69
g50
NtRp2106
(dp2107
g53
(dp2108
g73
g74
ssg62
g2102
sg55
(lp2109
S'HTTP_CACHE_CONTROL'
p2110
asbag48
(g69
g50
NtRp2111
(dp2112
g53
(dp2113
g80
g81
ssg62
g2102
sg55
(lp2114
S':'
asbag48
(g69
g50
NtRp2115
(dp2116
g53
(dp2117
sg62
g2102
sg55
(lp2118
g48
(g49
g50
NtRp2119
(dp2120
g53
(dp2121
g61
I3
ssg62
g2115
sg55
(lp2122
g1021
asbasbasbag48
(g64
g50
NtRp2123
(dp2124
g53
(dp2125
sg62
g2014
sg55
(lp2126
g48
(g69
g50
NtRp2127
(dp2128
g53
(dp2129
g73
g74
ssg62
g2123
sg55
(lp2130
S'HTTP_CONNECTION'
p2131
asbag48
(g69
g50
NtRp2132
(dp2133
g53
(dp2134
g80
g81
ssg62
g2123
sg55
(lp2135
S':'
asbag48
(g69
g50
NtRp2136
(dp2137
g53
(dp2138
sg62
g2123
sg55
(lp2139
g48
(g49
g50
NtRp2140
(dp2141
g53
(dp2142
g61
I3
ssg62
g2136
sg55
(lp2143
g1043
asbasbasbag48
(g64
g50
NtRp2144
(dp2145
g53
(dp2146
sg62
g2014
sg55
(lp2147
g48
(g69
g50
NtRp2148
(dp2149
g53
(dp2150
g73
g74
ssg62
g2144
sg55
(lp2151
S'HTTP_COOKIE'
p2152
asbag48
(g69
g50
NtRp2153
(dp2154
g53
(dp2155
g80
g81
ssg62
g2144
sg55
(lp2156
S':'
asbag48
(g69
g50
NtRp2157
(dp2158
g53
(dp2159
sg62
g2144
sg55
(lp2160
g48
(g49
g50
NtRp2161
(dp2162
g53
(dp2163
g61
I3
ssg62
g2157
sg55
(lp2164
g1065
asbasbasbag48
(g64
g50
NtRp2165
(dp2166
g53
(dp2167
sg62
g2014
sg55
(lp2168
g48
(g69
g50
NtRp2169
(dp2170
g53
(dp2171
g73
g74
ssg62
g2165
sg55
(lp2172
S'HTTP_HOST'
p2173
asbag48
(g69
g50
NtRp2174
(dp2175
g53
(dp2176
g80
g81
ssg62
g2165
sg55
(lp2177
S':'
asbag48
(g69
g50
NtRp2178
(dp2179
g53
(dp2180
sg62
g2165
sg55
(lp2181
g48
(g49
g50
NtRp2182
(dp2183
g53
(dp2184
g61
I3
ssg62
g2178
sg55
(lp2185
g1087
asbasbasbag48
(g64
g50
NtRp2186
(dp2187
g53
(dp2188
sg62
g2014
sg55
(lp2189
g48
(g69
g50
NtRp2190
(dp2191
g53
(dp2192
g73
g74
ssg62
g2186
sg55
(lp2193
S'HTTP_REFERER'
p2194
asbag48
(g69
g50
NtRp2195
(dp2196
g53
(dp2197
g80
g81
ssg62
g2186
sg55
(lp2198
S':'
asbag48
(g69
g50
NtRp2199
(dp2200
g53
(dp2201
sg62
g2186
sg55
(lp2202
g48
(g49
g50
NtRp2203
(dp2204
g53
(dp2205
g61
I3
ssg62
g2199
sg55
(lp2206
g1109
asbasbasbag48
(g64
g50
NtRp2207
(dp2208
g53
(dp2209
sg62
g2014
sg55
(lp2210
g48
(g69
g50
NtRp2211
(dp2212
g53
(dp2213
g73
g74
ssg62
g2207
sg55
(lp2214
S'HTTP_USER_AGENT'
p2215
asbag48
(g69
g50
NtRp2216
(dp2217
g53
(dp2218
g80
g81
ssg62
g2207
sg55
(lp2219
S':'
asbag48
(g69
g50
NtRp2220
(dp2221
g53
(dp2222
sg62
g2207
sg55
(lp2223
g48
(g49
g50
NtRp2224
(dp2225
g53
(dp2226
g61
I3
ssg62
g2220
sg55
(lp2227
g1131
asbasbasbag48
(g64
g50
NtRp2228
(dp2229
g53
(dp2230
sg62
g2014
sg55
(lp2231
g48
(g69
g50
NtRp2232
(dp2233
g53
(dp2234
g73
g74
ssg62
g2228
sg55
(lp2235
S'PATH_INFO'
p2236
asbag48
(g69
g50
NtRp2237
(dp2238
g53
(dp2239
g80
g81
ssg62
g2228
sg55
(lp2240
S':'
asbag48
(g69
g50
NtRp2241
(dp2242
g53
(dp2243
sg62
g2228
sg55
(lp2244
g48
(g49
g50
NtRp2245
(dp2246
g53
(dp2247
g61
I3
ssg62
g2241
sg55
(lp2248
g1153
asbasbasbag48
(g64
g50
NtRp2249
(dp2250
g53
(dp2251
sg62
g2014
sg55
(lp2252
g48
(g69
g50
NtRp2253
(dp2254
g53
(dp2255
g73
g74
ssg62
g2249
sg55
(lp2256
S'QUERY_STRING'
p2257
asbag48
(g69
g50
NtRp2258
(dp2259
g53
(dp2260
g80
g81
ssg62
g2249
sg55
(lp2261
S':'
asbag48
(g69
g50
NtRp2262
(dp2263
g53
(dp2264
sg62
g2249
sg55
(lp2265
g48
(g49
g50
NtRp2266
(dp2267
g53
(dp2268
g61
I3
ssg62
g2262
sg55
(lp2269
g1175
asbasbasbag48
(g64
g50
NtRp2270
(dp2271
g53
(dp2272
sg62
g2014
sg55
(lp2273
g48
(g69
g50
NtRp2274
(dp2275
g53
(dp2276
g73
g74
ssg62
g2270
sg55
(lp2277
S'REMOTE_ADDR'
p2278
asbag48
(g69
g50
NtRp2279
(dp2280
g53
(dp2281
g80
g81
ssg62
g2270
sg55
(lp2282
S':'
asbag48
(g69
g50
NtRp2283
(dp2284
g53
(dp2285
sg62
g2270
sg55
(lp2286
g48
(g49
g50
NtRp2287
(dp2288
g53
(dp2289
g61
I3
ssg62
g2283
sg55
(lp2290
g181
asbasbasbag48
(g64
g50
NtRp2291
(dp2292
g53
(dp2293
sg62
g2014
sg55
(lp2294
g48
(g69
g50
NtRp2295
(dp2296
g53
(dp2297
g73
g74
ssg62
g2291
sg55
(lp2298
S'REMOTE_PORT'
p2299
asbag48
(g69
g50
NtRp2300
(dp2301
g53
(dp2302
g80
g81
ssg62
g2291
sg55
(lp2303
S':'
asbag48
(g69
g50
NtRp2304
(dp2305
g53
(dp2306
sg62
g2291
sg55
(lp2307
g48
(g49
g50
NtRp2308
(dp2309
g53
(dp2310
g61
I3
ssg62
g2304
sg55
(lp2311
g1218
asbasbasbag48
(g64
g50
NtRp2312
(dp2313
g53
(dp2314
sg62
g2014
sg55
(lp2315
g48
(g69
g50
NtRp2316
(dp2317
g53
(dp2318
g73
g74
ssg62
g2312
sg55
(lp2319
S'REQUEST_METHOD'
p2320
asbag48
(g69
g50
NtRp2321
(dp2322
g53
(dp2323
g80
g81
ssg62
g2312
sg55
(lp2324
S':'
asbag48
(g69
g50
NtRp2325
(dp2326
g53
(dp2327
sg62
g2312
sg55
(lp2328
g48
(g49
g50
NtRp2329
(dp2330
g53
(dp2331
g61
I3
ssg62
g2325
sg55
(lp2332
g1240
asbasbasbag48
(g64
g50
NtRp2333
(dp2334
g53
(dp2335
sg62
g2014
sg55
(lp2336
g48
(g69
g50
NtRp2337
(dp2338
g53
(dp2339
g73
g74
ssg62
g2333
sg55
(lp2340
S'SCRIPT_NAME'
p2341
asbag48
(g69
g50
NtRp2342
(dp2343
g53
(dp2344
g80
g81
ssg62
g2333
sg55
(lp2345
S':'
asbag48
(g69
g50
NtRp2346
(dp2347
g53
(dp2348
sg62
g2333
sg55
(lp2349
g48
(g49
g50
NtRp2350
(dp2351
g53
(dp2352
g61
I3
ssg62
g2346
sg55
(lp2353
S''
asbasbasbag48
(g64
g50
NtRp2354
(dp2355
g53
(dp2356
sg62
g2014
sg55
(lp2357
g48
(g69
g50
NtRp2358
(dp2359
g53
(dp2360
g73
g74
ssg62
g2354
sg55
(lp2361
S'SERVER_NAME'
p2362
asbag48
(g69
g50
NtRp2363
(dp2364
g53
(dp2365
g80
g81
ssg62
g2354
sg55
(lp2366
S':'
asbag48
(g69
g50
NtRp2367
(dp2368
g53
(dp2369
sg62
g2354
sg55
(lp2370
g48
(g49
g50
NtRp2371
(dp2372
g53
(dp2373
g61
I3
ssg62
g2367
sg55
(lp2374
g1283
asbasbasbag48
(g64
g50
NtRp2375
(dp2376
g53
(dp2377
sg62
g2014
sg55
(lp2378
g48
(g69
g50
NtRp2379
(dp2380
g53
(dp2381
g73
g74
ssg62
g2375
sg55
(lp2382
S'SERVER_PORT'
p2383
asbag48
(g69
g50
NtRp2384
(dp2385
g53
(dp2386
g80
g81
ssg62
g2375
sg55
(lp2387
S':'
asbag48
(g69
g50
NtRp2388
(dp2389
g53
(dp2390
sg62
g2375
sg55
(lp2391
g48
(g49
g50
NtRp2392
(dp2393
g53
(dp2394
g61
I3
ssg62
g2388
sg55
(lp2395
g1305
asbasbasbag48
(g64
g50
NtRp2396
(dp2397
g53
(dp2398
sg62
g2014
sg55
(lp2399
g48
(g69
g50
NtRp2400
(dp2401
g53
(dp2402
g73
g74
ssg62
g2396
sg55
(lp2403
S'SERVER_PROTOCOL'
p2404
asbag48
(g69
g50
NtRp2405
(dp2406
g53
(dp2407
g80
g81
ssg62
g2396
sg55
(lp2408
S':'
asbag48
(g69
g50
NtRp2409
(dp2410
g53
(dp2411
sg62
g2396
sg55
(lp2412
g48
(g49
g50
NtRp2413
(dp2414
g53
(dp2415
g61
I3
ssg62
g2409
sg55
(lp2416
g1327
asbasbasbag48
(g64
g50
NtRp2417
(dp2418
g53
(dp2419
sg62
g2014
sg55
(lp2420
g48
(g69
g50
NtRp2421
(dp2422
g53
(dp2423
g73
g74
ssg62
g2417
sg55
(lp2424
S'SERVER_SOFTWARE'
p2425
asbag48
(g69
g50
NtRp2426
(dp2427
g53
(dp2428
g80
g81
ssg62
g2417
sg55
(lp2429
S':'
asbag48
(g69
g50
NtRp2430
(dp2431
g53
(dp2432
sg62
g2417
sg55
(lp2433
g48
(g49
g50
NtRp2434
(dp2435
g53
(dp2436
g61
I3
ssg62
g2430
sg55
(lp2437
g1349
asbasbasbag48
(g64
g50
NtRp2438
(dp2439
g53
(dp2440
sg62
g2014
sg55
(lp2441
g48
(g69
g50
NtRp2442
(dp2443
g53
(dp2444
g73
g74
ssg62
g2438
sg55
(lp2445
S'wsgi.errors'
p2446
asbag48
(g69
g50
NtRp2447
(dp2448
g53
(dp2449
g80
g81
ssg62
g2438
sg55
(lp2450
S':'
asbag48
(g69
g50
NtRp2451
(dp2452
g53
(dp2453
sg62
g2438
sg55
(lp2454
g48
(g49
g50
NtRp2455
(dp2456
g53
(dp2457
g61
I3
ssg62
g2451
sg55
(lp2458
S"<open file '<stderr>', mode 'w' at 0x002500B0>"
p2459
asbasbasbag48
(g64
g50
NtRp2460
(dp2461
g53
(dp2462
sg62
g2014
sg55
(lp2463
g48
(g69
g50
NtRp2464
(dp2465
g53
(dp2466
g73
g74
ssg62
g2460
sg55
(lp2467
S'wsgi.file_wrapper'
p2468
asbag48
(g69
g50
NtRp2469
(dp2470
g53
(dp2471
g80
g81
ssg62
g2460
sg55
(lp2472
S':'
asbag48
(g69
g50
NtRp2473
(dp2474
g53
(dp2475
sg62
g2460
sg55
(lp2476
g48
(g49
g50
NtRp2477
(dp2478
g53
(dp2479
g61
I3
ssg62
g2473
sg55
(lp2480
S'<class gluon.rocket.FileWrapper at 0x03132BA0>'
p2481
asbasbasbag48
(g64
g50
NtRp2482
(dp2483
g53
(dp2484
sg62
g2014
sg55
(lp2485
g48
(g69
g50
NtRp2486
(dp2487
g53
(dp2488
g73
g74
ssg62
g2482
sg55
(lp2489
S'wsgi.input'
p2490
asbag48
(g69
g50
NtRp2491
(dp2492
g53
(dp2493
g80
g81
ssg62
g2482
sg55
(lp2494
S':'
asbag48
(g69
g50
NtRp2495
(dp2496
g53
(dp2497
sg62
g2482
sg55
(lp2498
g48
(g49
g50
NtRp2499
(dp2500
g53
(dp2501
g61
I3
ssg62
g2495
sg55
(lp2502
S'<cStringIO.StringO object at 0x0338D140>'
p2503
asbasbasbag48
(g64
g50
NtRp2504
(dp2505
g53
(dp2506
sg62
g2014
sg55
(lp2507
g48
(g69
g50
NtRp2508
(dp2509
g53
(dp2510
g73
g74
ssg62
g2504
sg55
(lp2511
S'wsgi.multiprocess'
p2512
asbag48
(g69
g50
NtRp2513
(dp2514
g53
(dp2515
g80
g81
ssg62
g2504
sg55
(lp2516
S':'
asbag48
(g69
g50
NtRp2517
(dp2518
g53
(dp2519
sg62
g2504
sg55
(lp2520
g48
(g49
g50
NtRp2521
(dp2522
g53
(dp2523
g61
I3
ssg62
g2517
sg55
(lp2524
g91
asbasbasbag48
(g64
g50
NtRp2525
(dp2526
g53
(dp2527
sg62
g2014
sg55
(lp2528
g48
(g69
g50
NtRp2529
(dp2530
g53
(dp2531
g73
g74
ssg62
g2525
sg55
(lp2532
S'wsgi.multithread'
p2533
asbag48
(g69
g50
NtRp2534
(dp2535
g53
(dp2536
g80
g81
ssg62
g2525
sg55
(lp2537
S':'
asbag48
(g69
g50
NtRp2538
(dp2539
g53
(dp2540
sg62
g2525
sg55
(lp2541
g48
(g49
g50
NtRp2542
(dp2543
g53
(dp2544
g61
I3
ssg62
g2538
sg55
(lp2545
g1523
asbasbasbag48
(g64
g50
NtRp2546
(dp2547
g53
(dp2548
sg62
g2014
sg55
(lp2549
g48
(g69
g50
NtRp2550
(dp2551
g53
(dp2552
g73
g74
ssg62
g2546
sg55
(lp2553
S'wsgi.run_once'
p2554
asbag48
(g69
g50
NtRp2555
(dp2556
g53
(dp2557
g80
g81
ssg62
g2546
sg55
(lp2558
S':'
asbag48
(g69
g50
NtRp2559
(dp2560
g53
(dp2561
sg62
g2546
sg55
(lp2562
g48
(g49
g50
NtRp2563
(dp2564
g53
(dp2565
g61
I3
ssg62
g2559
sg55
(lp2566
g91
asbasbasbag48
(g64
g50
NtRp2567
(dp2568
g53
(dp2569
sg62
g2014
sg55
(lp2570
g48
(g69
g50
NtRp2571
(dp2572
g53
(dp2573
g73
g74
ssg62
g2567
sg55
(lp2574
S'wsgi.url_scheme'
p2575
asbag48
(g69
g50
NtRp2576
(dp2577
g53
(dp2578
g80
g81
ssg62
g2567
sg55
(lp2579
S':'
asbag48
(g69
g50
NtRp2580
(dp2581
g53
(dp2582
sg62
g2567
sg55
(lp2583
g48
(g49
g50
NtRp2584
(dp2585
g53
(dp2586
g61
I3
ssg62
g2580
sg55
(lp2587
g1566
asbasbasbag48
(g64
g50
NtRp2588
(dp2589
g53
(dp2590
sg62
g2014
sg55
(lp2591
g48
(g69
g50
NtRp2592
(dp2593
g53
(dp2594
g73
g74
ssg62
g2588
sg55
(lp2595
S'wsgi.version'
p2596
asbag48
(g69
g50
NtRp2597
(dp2598
g53
(dp2599
g80
g81
ssg62
g2588
sg55
(lp2600
S':'
asbag48
(g69
g50
NtRp2601
(dp2602
g53
(dp2603
sg62
g2588
sg55
(lp2604
g48
(g49
g50
NtRp2605
(dp2606
g53
(dp2607
g61
I3
ssg62
g2601
sg55
(lp2608
S'1'
asbasbasbasbasbasbasbasbasbasbasbasbasbsS'frames'
p2609
(lp2610
(dp2611
S'file'
p2612
S'C:\\Users\\AKSHAY\\Desktop\\web2py\\gluon\\restricted.py'
p2613
sS'dump'
p2614
(dp2615
sS'lnum'
p2616
I192
sS'lines'
p2617
(dp2618
sS'call'
p2619
S"(code='# -*- coding: utf-8 -*-\\n# this file is released ...ows=rows)\\n\\nresponse._vars=response._caller(new2)\\n', environment={'A': <class 'gluon.html.A'>, 'Auth': <class 'gluon.tools.Auth'>, 'B': <class 'gluon.html.B'>, 'BEAUTIFY': <class 'gluon.html.BEAUTIFY'>, 'BODY': <class 'gluon.html.BODY'>, 'BR': <class 'gluon.html.BR'>, 'BUTTON': <class 'gluon.html.BUTTON'>, 'CENTER': <class 'gluon.html.CENTER'>, 'CLEANUP': <class 'gluon.validators.CLEANUP'>, 'CODE': <class 'gluon.html.CODE'>, ...}, layer=r'C:\\Users\\AKSHAY\\Desktop\\web2py\\applications\\201056161\\controllers/default.py')"
p2620
sS'func'
p2621
S'restricted'
p2622
sa(dp2623
g2612
S'C:\\Users\\AKSHAY\\Desktop\\web2py\\applications\\201056161\\controllers\\default.py'
p2624
sg2614
(dp2625
sg2616
I169
sg2617
(dp2626
I160
S'    #here whatever be always sname will be referred by id !'
p2627
sI161
S'    rows=db(db.song.singer==sname).select(db.song.name)'
p2628
sI162
S'    return dict(rows=rows)'
p2629
sI163
S'  else:'
p2630
sI164
S'    sname=str(request.vars.namen)'
p2631
sI165
S'    movien=str(request.vars.movien)'
p2632
sI166
S'    rows=db((db.song.singer==sname) & (db.song.movie==movien)).select(db.song.name)'
p2633
sI167
S'    return dict(rows=rows)'
p2634
sI158
S'  if request.vars.movien==NULL:'
p2635
sI159
S'    sname=str(request.vars.namen)'
p2636
ssg2619
S'()'
p2637
sg2621
S'<module>'
p2638
sa(dp2639
g2612
S'C:\\Users\\AKSHAY\\Desktop\\web2py\\gluon\\globals.py'
p2640
sg2614
(dp2641
sg2616
I137
sg2617
(dp2642
sg2619
S'(f=<function new2 at 0x06D96230>)'
p2643
sg2621
S'<lambda>'
p2644
sa(dp2645
g2612
S'C:\\Users\\AKSHAY\\Desktop\\web2py\\applications\\201056161\\controllers\\default.py'
p2646
sg2614
(dp2647
sg2616
I158
sg2617
(dp2648
I160
S'    #here whatever be always sname will be referred by id !'
p2649
sI161
S'    rows=db(db.song.singer==sname).select(db.song.name)'
p2650
sI162
S'    return dict(rows=rows)'
p2651
sI153
S"    redirect(URL(r=request, f='new2?namen='+form.vars.namen+'&movien='+form.vars.movien))"
p2652
sI154
S'  elif form.errors:'
p2653
sI155
S"    response.flash='Errors in form Please re-enter'"
p2654
sI156
S'  return dict(form=form)'
p2655
sI157
S'def new2():'
p2656
sI158
S'  if request.vars.movien==NULL:'
p2657
sI159
S'    sname=str(request.vars.namen)'
p2658
ssg2619
S'()'
p2659
sg2621
S'new2'
p2660
sasS'pyver'
p2661
S'Python 2.5.4: C:\\Users\\AKSHAY\\Desktop\\web2py\\web2py.exe'
p2662
sS'session'
p2663
g48
(g49
g50
NtRp2664
(dp2665
g53
(dp2666
sg55
(lp2667
g48
(g57
g50
NtRp2668
(dp2669
g53
(dp2670
g61
I5
ssg62
Nsg55
(lp2671
sbasbsS'etype'
p2672
S"<type 'exceptions.NameError'>"
p2673
sS'date'
p2674
S'Wed Sep 07 02:29:14 2011'
p2675
sS'response'
p2676
g48
(g49
g50
NtRp2677
(dp2678
g53
(dp2679
sg55
(lp2680
g48
(g57
g50
NtRp2681
(dp2682
g53
(dp2683
g61
I5
ssg62
Nsg55
(lp2684
g48
(g64
g50
NtRp2685
(dp2686
g53
(dp2687
sg62
g2681
sg55
(lp2688
g48
(g69
g50
NtRp2689
(dp2690
g53
(dp2691
g73
g74
ssg62
g2685
sg55
(lp2692
g146
asbag48
(g69
g50
NtRp2693
(dp2694
g53
(dp2695
g80
g81
ssg62
g2685
sg55
(lp2696
S':'
asbag48
(g69
g50
NtRp2697
(dp2698
g53
(dp2699
sg62
g2685
sg55
(lp2700
g48
(g49
g50
NtRp2701
(dp2702
g53
(dp2703
g61
I5
ssg62
g2697
sg55
(lp2704
S'<cStringIO.StringO object at 0x0338D320>'
p2705
asbasbasbag48
(g64
g50
NtRp2706
(dp2707
g53
(dp2708
sg62
g2681
sg55
(lp2709
g48
(g69
g50
NtRp2710
(dp2711
g53
(dp2712
g73
g74
ssg62
g2706
sg55
(lp2713
g212
asbag48
(g69
g50
NtRp2714
(dp2715
g53
(dp2716
g80
g81
ssg62
g2706
sg55
(lp2717
S':'
asbag48
(g69
g50
NtRp2718
(dp2719
g53
(dp2720
sg62
g2706
sg55
(lp2721
g48
(g49
g50
NtRp2722
(dp2723
g53
(dp2724
g61
I5
ssg62
g2718
sg55
(lp2725
g48
(g57
g50
NtRp2726
(dp2727
g53
(dp2728
g61
I4
ssg62
Nsg55
(lp2729
g48
(g64
g50
NtRp2730
(dp2731
g53
(dp2732
sg62
g2726
sg55
(lp2733
g48
(g69
g50
NtRp2734
(dp2735
g53
(dp2736
g73
g74
ssg62
g2730
sg55
(lp2737
S'session_id_201056161'
p2738
asbag48
(g69
g50
NtRp2739
(dp2740
g53
(dp2741
g80
g81
ssg62
g2730
sg55
(lp2742
S':'
asbag48
(g69
g50
NtRp2743
(dp2744
g53
(dp2745
sg62
g2730
sg55
(lp2746
g48
(g49
g50
NtRp2747
(dp2748
g53
(dp2749
g61
I4
ssg62
g2743
sg55
(lp2750
g48
(g57
g50
NtRp2751
(dp2752
g53
(dp2753
g61
I3
ssg62
Nsg55
(lp2754
g48
(g64
g50
NtRp2755
(dp2756
g53
(dp2757
sg62
g2751
sg55
(lp2758
g48
(g69
g50
NtRp2759
(dp2760
g53
(dp2761
g73
g74
ssg62
g2755
sg55
(lp2762
g262
asbag48
(g69
g50
NtRp2763
(dp2764
g53
(dp2765
g80
g81
ssg62
g2755
sg55
(lp2766
S':'
asbag48
(g69
g50
NtRp2767
(dp2768
g53
(dp2769
sg62
g2755
sg55
(lp2770
g48
(g49
g50
NtRp2771
(dp2772
g53
(dp2773
g61
I3
ssg62
g2767
sg55
(lp2774
S''
asbasbasbag48
(g64
g50
NtRp2775
(dp2776
g53
(dp2777
sg62
g2751
sg55
(lp2778
g48
(g69
g50
NtRp2779
(dp2780
g53
(dp2781
g73
g74
ssg62
g2775
sg55
(lp2782
g283
asbag48
(g69
g50
NtRp2783
(dp2784
g53
(dp2785
g80
g81
ssg62
g2775
sg55
(lp2786
S':'
asbag48
(g69
g50
NtRp2787
(dp2788
g53
(dp2789
sg62
g2775
sg55
(lp2790
g48
(g49
g50
NtRp2791
(dp2792
g53
(dp2793
g61
I3
ssg62
g2787
sg55
(lp2794
S''
asbasbasbag48
(g64
g50
NtRp2795
(dp2796
g53
(dp2797
sg62
g2751
sg55
(lp2798
g48
(g69
g50
NtRp2799
(dp2800
g53
(dp2801
g73
g74
ssg62
g2795
sg55
(lp2802
g304
asbag48
(g69
g50
NtRp2803
(dp2804
g53
(dp2805
g80
g81
ssg62
g2795
sg55
(lp2806
S':'
asbag48
(g69
g50
NtRp2807
(dp2808
g53
(dp2809
sg62
g2795
sg55
(lp2810
g48
(g49
g50
NtRp2811
(dp2812
g53
(dp2813
g61
I3
ssg62
g2807
sg55
(lp2814
S''
asbasbasbag48
(g64
g50
NtRp2815
(dp2816
g53
(dp2817
sg62
g2751
sg55
(lp2818
g48
(g69
g50
NtRp2819
(dp2820
g53
(dp2821
g73
g74
ssg62
g2815
sg55
(lp2822
g325
asbag48
(g69
g50
NtRp2823
(dp2824
g53
(dp2825
g80
g81
ssg62
g2815
sg55
(lp2826
S':'
asbag48
(g69
g50
NtRp2827
(dp2828
g53
(dp2829
sg62
g2815
sg55
(lp2830
g48
(g49
g50
NtRp2831
(dp2832
g53
(dp2833
g61
I3
ssg62
g2827
sg55
(lp2834
S''
asbasbasbag48
(g64
g50
NtRp2835
(dp2836
g53
(dp2837
sg62
g2751
sg55
(lp2838
g48
(g69
g50
NtRp2839
(dp2840
g53
(dp2841
g73
g74
ssg62
g2835
sg55
(lp2842
g346
asbag48
(g69
g50
NtRp2843
(dp2844
g53
(dp2845
g80
g81
ssg62
g2835
sg55
(lp2846
S':'
asbag48
(g69
g50
NtRp2847
(dp2848
g53
(dp2849
sg62
g2835
sg55
(lp2850
g48
(g49
g50
NtRp2851
(dp2852
g53
(dp2853
g61
I3
ssg62
g2847
sg55
(lp2854
S'/'
asbasbasbag48
(g64
g50
NtRp2855
(dp2856
g53
(dp2857
sg62
g2751
sg55
(lp2858
g48
(g69
g50
NtRp2859
(dp2860
g53
(dp2861
g73
g74
ssg62
g2855
sg55
(lp2862
g367
asbag48
(g69
g50
NtRp2863
(dp2864
g53
(dp2865
g80
g81
ssg62
g2855
sg55
(lp2866
S':'
asbag48
(g69
g50
NtRp2867
(dp2868
g53
(dp2869
sg62
g2855
sg55
(lp2870
g48
(g49
g50
NtRp2871
(dp2872
g53
(dp2873
g61
I3
ssg62
g2867
sg55
(lp2874
S''
asbasbasbag48
(g64
g50
NtRp2875
(dp2876
g53
(dp2877
sg62
g2751
sg55
(lp2878
g48
(g69
g50
NtRp2879
(dp2880
g53
(dp2881
g73
g74
ssg62
g2875
sg55
(lp2882
g388
asbag48
(g69
g50
NtRp2883
(dp2884
g53
(dp2885
g80
g81
ssg62
g2875
sg55
(lp2886
S':'
asbag48
(g69
g50
NtRp2887
(dp2888
g53
(dp2889
sg62
g2875
sg55
(lp2890
g48
(g49
g50
NtRp2891
(dp2892
g53
(dp2893
g61
I3
ssg62
g2887
sg55
(lp2894
S''
asbasbasbasbasbasbasbasbasbasbasbag48
(g64
g50
NtRp2895
(dp2896
g53
(dp2897
sg62
g2681
sg55
(lp2898
g48
(g69
g50
NtRp2899
(dp2900
g53
(dp2901
g73
g74
ssg62
g2895
sg55
(lp2902
S'files'
p2903
asbag48
(g69
g50
NtRp2904
(dp2905
g53
(dp2906
g80
g81
ssg62
g2895
sg55
(lp2907
S':'
asbag48
(g69
g50
NtRp2908
(dp2909
g53
(dp2910
sg62
g2895
sg55
(lp2911
g48
(g49
g50
NtRp2912
(dp2913
g53
(dp2914
g61
I5
ssg62
g2908
sg55
(lp2915
g48
(g57
g50
NtRp2916
(dp2917
g53
(dp2918
g61
I4
ssg62
Nsg55
(lp2919
sbasbasbasbag48
(g64
g50
NtRp2920
(dp2921
g53
(dp2922
sg62
g2681
sg55
(lp2923
g48
(g69
g50
NtRp2924
(dp2925
g53
(dp2926
g73
g74
ssg62
g2920
sg55
(lp2927
S'flash'
p2928
asbag48
(g69
g50
NtRp2929
(dp2930
g53
(dp2931
g80
g81
ssg62
g2920
sg55
(lp2932
S':'
asbag48
(g69
g50
NtRp2933
(dp2934
g53
(dp2935
sg62
g2920
sg55
(lp2936
g48
(g49
g50
NtRp2937
(dp2938
g53
(dp2939
g61
I5
ssg62
g2933
sg55
(lp2940
S''
asbasbasbag48
(g64
g50
NtRp2941
(dp2942
g53
(dp2943
sg62
g2681
sg55
(lp2944
g48
(g69
g50
NtRp2945
(dp2946
g53
(dp2947
g73
g74
ssg62
g2941
sg55
(lp2948
S'generic_patterns'
p2949
asbag48
(g69
g50
NtRp2950
(dp2951
g53
(dp2952
g80
g81
ssg62
g2941
sg55
(lp2953
S':'
asbag48
(g69
g50
NtRp2954
(dp2955
g53
(dp2956
sg62
g2941
sg55
(lp2957
g48
(g49
g50
NtRp2958
(dp2959
g53
(dp2960
g61
I5
ssg62
g2954
sg55
(lp2961
g48
(g57
g50
NtRp2962
(dp2963
g53
(dp2964
g61
I4
ssg62
Nsg55
(lp2965
g48
(g64
g50
NtRp2966
(dp2967
g53
(dp2968
sg62
g2962
sg55
(lp2969
g48
(g69
g50
NtRp2970
(dp2971
g53
(dp2972
sg62
g2966
sg55
(lp2973
g48
(g49
g50
NtRp2974
(dp2975
g53
(dp2976
g61
I4
ssg62
g2970
sg55
(lp2977
S'*'
asbasbasbasbasbasbasbag48
(g64
g50
NtRp2978
(dp2979
g53
(dp2980
sg62
g2681
sg55
(lp2981
g48
(g69
g50
NtRp2982
(dp2983
g53
(dp2984
g73
g74
ssg62
g2978
sg55
(lp2985
S'headers'
p2986
asbag48
(g69
g50
NtRp2987
(dp2988
g53
(dp2989
g80
g81
ssg62
g2978
sg55
(lp2990
S':'
asbag48
(g69
g50
NtRp2991
(dp2992
g53
(dp2993
sg62
g2978
sg55
(lp2994
g48
(g49
g50
NtRp2995
(dp2996
g53
(dp2997
g61
I5
ssg62
g2991
sg55
(lp2998
g48
(g57
g50
NtRp2999
(dp3000
g53
(dp3001
g61
I4
ssg62
Nsg55
(lp3002
g48
(g64
g50
NtRp3003
(dp3004
g53
(dp3005
sg62
g2999
sg55
(lp3006
g48
(g69
g50
NtRp3007
(dp3008
g53
(dp3009
g73
g74
ssg62
g3003
sg55
(lp3010
S'Cache-Control'
p3011
asbag48
(g69
g50
NtRp3012
(dp3013
g53
(dp3014
g80
g81
ssg62
g3003
sg55
(lp3015
S':'
asbag48
(g69
g50
NtRp3016
(dp3017
g53
(dp3018
sg62
g3003
sg55
(lp3019
g48
(g49
g50
NtRp3020
(dp3021
g53
(dp3022
g61
I4
ssg62
g3016
sg55
(lp3023
S'no-store, no-cache, must-revalidate, post-check=0, pre-check=0'
p3024
asbasbasbag48
(g64
g50
NtRp3025
(dp3026
g53
(dp3027
sg62
g2999
sg55
(lp3028
g48
(g69
g50
NtRp3029
(dp3030
g53
(dp3031
g73
g74
ssg62
g3025
sg55
(lp3032
S'Content-Type'
p3033
asbag48
(g69
g50
NtRp3034
(dp3035
g53
(dp3036
g80
g81
ssg62
g3025
sg55
(lp3037
S':'
asbag48
(g69
g50
NtRp3038
(dp3039
g53
(dp3040
sg62
g3025
sg55
(lp3041
g48
(g49
g50
NtRp3042
(dp3043
g53
(dp3044
g61
I4
ssg62
g3038
sg55
(lp3045
S'text/html; charset=utf-8'
p3046
asbasbasbag48
(g64
g50
NtRp3047
(dp3048
g53
(dp3049
sg62
g2999
sg55
(lp3050
g48
(g69
g50
NtRp3051
(dp3052
g53
(dp3053
g73
g74
ssg62
g3047
sg55
(lp3054
S'Expires'
p3055
asbag48
(g69
g50
NtRp3056
(dp3057
g53
(dp3058
g80
g81
ssg62
g3047
sg55
(lp3059
S':'
asbag48
(g69
g50
NtRp3060
(dp3061
g53
(dp3062
sg62
g3047
sg55
(lp3063
g48
(g49
g50
NtRp3064
(dp3065
g53
(dp3066
g61
I4
ssg62
g3060
sg55
(lp3067
S'Tue, 06 Sep 2011 20:59:14 GMT'
p3068
asbasbasbag48
(g64
g50
NtRp3069
(dp3070
g53
(dp3071
sg62
g2999
sg55
(lp3072
g48
(g69
g50
NtRp3073
(dp3074
g53
(dp3075
g73
g74
ssg62
g3069
sg55
(lp3076
S'Pragma'
p3077
asbag48
(g69
g50
NtRp3078
(dp3079
g53
(dp3080
g80
g81
ssg62
g3069
sg55
(lp3081
S':'
asbag48
(g69
g50
NtRp3082
(dp3083
g53
(dp3084
sg62
g3069
sg55
(lp3085
g48
(g49
g50
NtRp3086
(dp3087
g53
(dp3088
g61
I4
ssg62
g3082
sg55
(lp3089
S'no-cache'
p3090
asbasbasbag48
(g64
g50
NtRp3091
(dp3092
g53
(dp3093
sg62
g2999
sg55
(lp3094
g48
(g69
g50
NtRp3095
(dp3096
g53
(dp3097
g73
g74
ssg62
g3091
sg55
(lp3098
S'X-Powered-By'
p3099
asbag48
(g69
g50
NtRp3100
(dp3101
g53
(dp3102
g80
g81
ssg62
g3091
sg55
(lp3103
S':'
asbag48
(g69
g50
NtRp3104
(dp3105
g53
(dp3106
sg62
g3091
sg55
(lp3107
g48
(g49
g50
NtRp3108
(dp3109
g53
(dp3110
g61
I4
ssg62
g3104
sg55
(lp3111
S'web2py'
p3112
asbasbasbasbasbasbasbag48
(g64
g50
NtRp3113
(dp3114
g53
(dp3115
sg62
g2681
sg55
(lp3116
g48
(g69
g50
NtRp3117
(dp3118
g53
(dp3119
g73
g74
ssg62
g3113
sg55
(lp3120
S'menu'
p3121
asbag48
(g69
g50
NtRp3122
(dp3123
g53
(dp3124
g80
g81
ssg62
g3113
sg55
(lp3125
S':'
asbag48
(g69
g50
NtRp3126
(dp3127
g53
(dp3128
sg62
g3113
sg55
(lp3129
g48
(g49
g50
NtRp3130
(dp3131
g53
(dp3132
g61
I5
ssg62
g3126
sg55
(lp3133
g48
(g57
g50
NtRp3134
(dp3135
g53
(dp3136
g61
I4
ssg62
Nsg55
(lp3137
g48
(g64
g50
NtRp3138
(dp3139
g53
(dp3140
sg62
g3134
sg55
(lp3141
g48
(g69
g50
NtRp3142
(dp3143
g53
(dp3144
sg62
g3138
sg55
(lp3145
g48
(g49
g50
NtRp3146
(dp3147
g53
(dp3148
g61
I4
ssg62
g3142
sg55
(lp3149
g48
(g57
g50
NtRp3150
(dp3151
g53
(dp3152
g61
I3
ssg62
Nsg55
(lp3153
g48
(g64
g50
NtRp3154
(dp3155
g53
(dp3156
sg62
g3150
sg55
(lp3157
g48
(g69
g50
NtRp3158
(dp3159
g53
(dp3160
sg62
g3154
sg55
(lp3161
g48
(g49
g50
NtRp3162
(dp3163
g53
(dp3164
g61
I3
ssg62
g3158
sg55
(lp3165
cgluon.languages
lazyT_unpickle
p3166
(S's\x04\x00\x00\x00Home'
tRp3167
asbasbasbag48
(g64
g50
NtRp3168
(dp3169
g53
(dp3170
sg62
g3150
sg55
(lp3171
g48
(g69
g50
NtRp3172
(dp3173
g53
(dp3174
sg62
g3168
sg55
(lp3175
g48
(g49
g50
NtRp3176
(dp3177
g53
(dp3178
g61
I3
ssg62
g3172
sg55
(lp3179
g91
asbasbasbag48
(g64
g50
NtRp3180
(dp3181
g53
(dp3182
sg62
g3150
sg55
(lp3183
g48
(g69
g50
NtRp3184
(dp3185
g53
(dp3186
sg62
g3180
sg55
(lp3187
g48
(g49
g50
NtRp3188
(dp3189
g53
(dp3190
g61
I3
ssg62
g3184
sg55
(lp3191
S'/201056161/default/index'
p3192
asbasbasbag48
(g64
g50
NtRp3193
(dp3194
g53
(dp3195
sg62
g3150
sg55
(lp3196
g48
(g69
g50
NtRp3197
(dp3198
g53
(dp3199
sg62
g3193
sg55
(lp3200
g48
(g49
g50
NtRp3201
(dp3202
g53
(dp3203
g61
I3
ssg62
g3197
sg55
(lp3204
g48
(g57
g50
NtRp3205
(dp3206
g53
(dp3207
g61
I2
ssg62
Nsg55
(lp3208
sbasbasbasbasbasbasbasbag48
(g64
g50
NtRp3209
(dp3210
g53
(dp3211
sg62
g3134
sg55
(lp3212
g48
(g69
g50
NtRp3213
(dp3214
g53
(dp3215
sg62
g3209
sg55
(lp3216
g48
(g49
g50
NtRp3217
(dp3218
g53
(dp3219
g61
I4
ssg62
g3213
sg55
(lp3220
g48
(g57
g50
NtRp3221
(dp3222
g53
(dp3223
g61
I3
ssg62
Nsg55
(lp3224
g48
(g64
g50
NtRp3225
(dp3226
g53
(dp3227
sg62
g3221
sg55
(lp3228
g48
(g69
g50
NtRp3229
(dp3230
g53
(dp3231
sg62
g3225
sg55
(lp3232
g48
(g49
g50
NtRp3233
(dp3234
g53
(dp3235
g61
I3
ssg62
g3229
sg55
(lp3236
g3166
(S's\x08\x00\x00\x00This App'
tRp3237
asbasbasbag48
(g64
g50
NtRp3238
(dp3239
g53
(dp3240
sg62
g3221
sg55
(lp3241
g48
(g69
g50
NtRp3242
(dp3243
g53
(dp3244
sg62
g3238
sg55
(lp3245
g48
(g49
g50
NtRp3246
(dp3247
g53
(dp3248
g61
I3
ssg62
g3242
sg55
(lp3249
g91
asbasbasbag48
(g64
g50
NtRp3250
(dp3251
g53
(dp3252
sg62
g3221
sg55
(lp3253
g48
(g69
g50
NtRp3254
(dp3255
g53
(dp3256
sg62
g3250
sg55
(lp3257
g48
(g49
g50
NtRp3258
(dp3259
g53
(dp3260
g61
I3
ssg62
g3254
sg55
(lp3261
S'/admin/default/design/201056161'
p3262
asbasbasbag48
(g64
g50
NtRp3263
(dp3264
g53
(dp3265
sg62
g3221
sg55
(lp3266
g48
(g69
g50
NtRp3267
(dp3268
g53
(dp3269
sg62
g3263
sg55
(lp3270
g48
(g49
g50
NtRp3271
(dp3272
g53
(dp3273
g61
I3
ssg62
g3267
sg55
(lp3274
g48
(g57
g50
NtRp3275
(dp3276
g53
(dp3277
g61
I2
ssg62
Nsg55
(lp3278
g48
(g64
g50
NtRp3279
(dp3280
g53
(dp3281
sg62
g3275
sg55
(lp3282
g48
(g69
g50
NtRp3283
(dp3284
g53
(dp3285
sg62
g3279
sg55
(lp3286
g48
(g49
g50
NtRp3287
(dp3288
g53
(dp3289
g61
I2
ssg62
g3283
sg55
(lp3290
g48
(g57
g50
NtRp3291
(dp3292
g53
(dp3293
g61
I1
ssg62
Nsg55
(lp3294
g48
(g64
g50
NtRp3295
(dp3296
g53
(dp3297
sg62
g3291
sg55
(lp3298
g48
(g69
g50
NtRp3299
(dp3300
g53
(dp3301
sg62
g3295
sg55
(lp3302
g48
(g49
g50
NtRp3303
(dp3304
g53
(dp3305
g61
I1
ssg62
g3299
sg55
(lp3306
g3166
(S's\n\x00\x00\x00Controller'
tRp3307
asbasbasbag48
(g64
g50
NtRp3308
(dp3309
g53
(dp3310
sg62
g3291
sg55
(lp3311
g48
(g69
g50
NtRp3312
(dp3313
g53
(dp3314
sg62
g3308
sg55
(lp3315
g48
(g49
g50
NtRp3316
(dp3317
g53
(dp3318
g61
I1
ssg62
g3312
sg55
(lp3319
I00
asbasbasbag48
(g64
g50
NtRp3320
(dp3321
g53
(dp3322
sg62
g3291
sg55
(lp3323
g48
(g69
g50
NtRp3324
(dp3325
g53
(dp3326
sg62
g3320
sg55
(lp3327
g48
(g49
g50
NtRp3328
(dp3329
g53
(dp3330
g61
I1
ssg62
g3324
sg55
(lp3331
S'/admin/default/edit/201056161/controllers/default.py'
p3332
asbasbasbasbasbasbasbag48
(g64
g50
NtRp3333
(dp3334
g53
(dp3335
sg62
g3275
sg55
(lp3336
g48
(g69
g50
NtRp3337
(dp3338
g53
(dp3339
sg62
g3333
sg55
(lp3340
g48
(g49
g50
NtRp3341
(dp3342
g53
(dp3343
g61
I2
ssg62
g3337
sg55
(lp3344
g48
(g57
g50
NtRp3345
(dp3346
g53
(dp3347
g61
I1
ssg62
Nsg55
(lp3348
g48
(g64
g50
NtRp3349
(dp3350
g53
(dp3351
sg62
g3345
sg55
(lp3352
g48
(g69
g50
NtRp3353
(dp3354
g53
(dp3355
sg62
g3349
sg55
(lp3356
g48
(g49
g50
NtRp3357
(dp3358
g53
(dp3359
g61
I1
ssg62
g3353
sg55
(lp3360
g3166
(S's\x04\x00\x00\x00View'
tRp3361
asbasbasbag48
(g64
g50
NtRp3362
(dp3363
g53
(dp3364
sg62
g3345
sg55
(lp3365
g48
(g69
g50
NtRp3366
(dp3367
g53
(dp3368
sg62
g3362
sg55
(lp3369
g48
(g49
g50
NtRp3370
(dp3371
g53
(dp3372
g61
I1
ssg62
g3366
sg55
(lp3373
I00
asbasbasbag48
(g64
g50
NtRp3374
(dp3375
g53
(dp3376
sg62
g3345
sg55
(lp3377
g48
(g69
g50
NtRp3378
(dp3379
g53
(dp3380
sg62
g3374
sg55
(lp3381
g48
(g49
g50
NtRp3382
(dp3383
g53
(dp3384
g61
I1
ssg62
g3378
sg55
(lp3385
S'/admin/default/edit/201056161/views/default/new2.html'
p3386
asbasbasbasbasbasbasbag48
(g64
g50
NtRp3387
(dp3388
g53
(dp3389
sg62
g3275
sg55
(lp3390
g48
(g69
g50
NtRp3391
(dp3392
g53
(dp3393
sg62
g3387
sg55
(lp3394
g48
(g49
g50
NtRp3395
(dp3396
g53
(dp3397
g61
I2
ssg62
g3391
sg55
(lp3398
g48
(g57
g50
NtRp3399
(dp3400
g53
(dp3401
g61
I1
ssg62
Nsg55
(lp3402
g48
(g64
g50
NtRp3403
(dp3404
g53
(dp3405
sg62
g3399
sg55
(lp3406
g48
(g69
g50
NtRp3407
(dp3408
g53
(dp3409
sg62
g3403
sg55
(lp3410
g48
(g49
g50
NtRp3411
(dp3412
g53
(dp3413
g61
I1
ssg62
g3407
sg55
(lp3414
g3166
(S's\x06\x00\x00\x00Layout'
tRp3415
asbasbasbag48
(g64
g50
NtRp3416
(dp3417
g53
(dp3418
sg62
g3399
sg55
(lp3419
g48
(g69
g50
NtRp3420
(dp3421
g53
(dp3422
sg62
g3416
sg55
(lp3423
g48
(g49
g50
NtRp3424
(dp3425
g53
(dp3426
g61
I1
ssg62
g3420
sg55
(lp3427
I00
asbasbasbag48
(g64
g50
NtRp3428
(dp3429
g53
(dp3430
sg62
g3399
sg55
(lp3431
g48
(g69
g50
NtRp3432
(dp3433
g53
(dp3434
sg62
g3428
sg55
(lp3435
g48
(g49
g50
NtRp3436
(dp3437
g53
(dp3438
g61
I1
ssg62
g3432
sg55
(lp3439
S'/admin/default/edit/201056161/views/layout.html'
p3440
asbasbasbasbasbasbasbag48
(g64
g50
NtRp3441
(dp3442
g53
(dp3443
sg62
g3275
sg55
(lp3444
g48
(g69
g50
NtRp3445
(dp3446
g53
(dp3447
sg62
g3441
sg55
(lp3448
g48
(g49
g50
NtRp3449
(dp3450
g53
(dp3451
g61
I2
ssg62
g3445
sg55
(lp3452
g48
(g57
g50
NtRp3453
(dp3454
g53
(dp3455
g61
I1
ssg62
Nsg55
(lp3456
g48
(g64
g50
NtRp3457
(dp3458
g53
(dp3459
sg62
g3453
sg55
(lp3460
g48
(g69
g50
NtRp3461
(dp3462
g53
(dp3463
sg62
g3457
sg55
(lp3464
g48
(g49
g50
NtRp3465
(dp3466
g53
(dp3467
g61
I1
ssg62
g3461
sg55
(lp3468
g3166
(S's\n\x00\x00\x00Stylesheet'
tRp3469
asbasbasbag48
(g64
g50
NtRp3470
(dp3471
g53
(dp3472
sg62
g3453
sg55
(lp3473
g48
(g69
g50
NtRp3474
(dp3475
g53
(dp3476
sg62
g3470
sg55
(lp3477
g48
(g49
g50
NtRp3478
(dp3479
g53
(dp3480
g61
I1
ssg62
g3474
sg55
(lp3481
I00
asbasbasbag48
(g64
g50
NtRp3482
(dp3483
g53
(dp3484
sg62
g3453
sg55
(lp3485
g48
(g69
g50
NtRp3486
(dp3487
g53
(dp3488
sg62
g3482
sg55
(lp3489
g48
(g49
g50
NtRp3490
(dp3491
g53
(dp3492
g61
I1
ssg62
g3486
sg55
(lp3493
S'/admin/default/edit/201056161/static/base.css'
p3494
asbasbasbasbasbasbasbag48
(g64
g50
NtRp3495
(dp3496
g53
(dp3497
sg62
g3275
sg55
(lp3498
g48
(g69
g50
NtRp3499
(dp3500
g53
(dp3501
sg62
g3495
sg55
(lp3502
g48
(g49
g50
NtRp3503
(dp3504
g53
(dp3505
g61
I2
ssg62
g3499
sg55
(lp3506
g48
(g57
g50
NtRp3507
(dp3508
g53
(dp3509
g61
I1
ssg62
Nsg55
(lp3510
g48
(g64
g50
NtRp3511
(dp3512
g53
(dp3513
sg62
g3507
sg55
(lp3514
g48
(g69
g50
NtRp3515
(dp3516
g53
(dp3517
sg62
g3511
sg55
(lp3518
g48
(g49
g50
NtRp3519
(dp3520
g53
(dp3521
g61
I1
ssg62
g3515
sg55
(lp3522
g3166
(S's\x08\x00\x00\x00DB Model'
tRp3523
asbasbasbag48
(g64
g50
NtRp3524
(dp3525
g53
(dp3526
sg62
g3507
sg55
(lp3527
g48
(g69
g50
NtRp3528
(dp3529
g53
(dp3530
sg62
g3524
sg55
(lp3531
g48
(g49
g50
NtRp3532
(dp3533
g53
(dp3534
g61
I1
ssg62
g3528
sg55
(lp3535
I00
asbasbasbag48
(g64
g50
NtRp3536
(dp3537
g53
(dp3538
sg62
g3507
sg55
(lp3539
g48
(g69
g50
NtRp3540
(dp3541
g53
(dp3542
sg62
g3536
sg55
(lp3543
g48
(g49
g50
NtRp3544
(dp3545
g53
(dp3546
g61
I1
ssg62
g3540
sg55
(lp3547
S'/admin/default/edit/201056161/models/db.py'
p3548
asbasbasbasbasbasbasbag48
(g64
g50
NtRp3549
(dp3550
g53
(dp3551
sg62
g3275
sg55
(lp3552
g48
(g69
g50
NtRp3553
(dp3554
g53
(dp3555
sg62
g3549
sg55
(lp3556
g48
(g49
g50
NtRp3557
(dp3558
g53
(dp3559
g61
I2
ssg62
g3553
sg55
(lp3560
g48
(g57
g50
NtRp3561
(dp3562
g53
(dp3563
g61
I1
ssg62
Nsg55
(lp3564
g48
(g64
g50
NtRp3565
(dp3566
g53
(dp3567
sg62
g3561
sg55
(lp3568
g48
(g69
g50
NtRp3569
(dp3570
g53
(dp3571
sg62
g3565
sg55
(lp3572
g48
(g49
g50
NtRp3573
(dp3574
g53
(dp3575
g61
I1
ssg62
g3569
sg55
(lp3576
g3166
(S's\n\x00\x00\x00Menu Model'
tRp3577
asbasbasbag48
(g64
g50
NtRp3578
(dp3579
g53
(dp3580
sg62
g3561
sg55
(lp3581
g48
(g69
g50
NtRp3582
(dp3583
g53
(dp3584
sg62
g3578
sg55
(lp3585
g48
(g49
g50
NtRp3586
(dp3587
g53
(dp3588
g61
I1
ssg62
g3582
sg55
(lp3589
I00
asbasbasbag48
(g64
g50
NtRp3590
(dp3591
g53
(dp3592
sg62
g3561
sg55
(lp3593
g48
(g69
g50
NtRp3594
(dp3595
g53
(dp3596
sg62
g3590
sg55
(lp3597
g48
(g49
g50
NtRp3598
(dp3599
g53
(dp3600
g61
I1
ssg62
g3594
sg55
(lp3601
S'/admin/default/edit/201056161/models/menu.py'
p3602
asbasbasbasbasbasbasbag48
(g64
g50
NtRp3603
(dp3604
g53
(dp3605
sg62
g3275
sg55
(lp3606
g48
(g69
g50
NtRp3607
(dp3608
g53
(dp3609
sg62
g3603
sg55
(lp3610
g48
(g49
g50
NtRp3611
(dp3612
g53
(dp3613
g61
I2
ssg62
g3607
sg55
(lp3614
g48
(g57
g50
NtRp3615
(dp3616
g53
(dp3617
g61
I1
ssg62
Nsg55
(lp3618
g48
(g64
g50
NtRp3619
(dp3620
g53
(dp3621
sg62
g3615
sg55
(lp3622
g48
(g69
g50
NtRp3623
(dp3624
g53
(dp3625
sg62
g3619
sg55
(lp3626
g48
(g49
g50
NtRp3627
(dp3628
g53
(dp3629
g61
I1
ssg62
g3623
sg55
(lp3630
g3166
(S's\x08\x00\x00\x00Database'
tRp3631
asbasbasbag48
(g64
g50
NtRp3632
(dp3633
g53
(dp3634
sg62
g3615
sg55
(lp3635
g48
(g69
g50
NtRp3636
(dp3637
g53
(dp3638
sg62
g3632
sg55
(lp3639
g48
(g49
g50
NtRp3640
(dp3641
g53
(dp3642
g61
I1
ssg62
g3636
sg55
(lp3643
I00
asbasbasbag48
(g64
g50
NtRp3644
(dp3645
g53
(dp3646
sg62
g3615
sg55
(lp3647
g48
(g69
g50
NtRp3648
(dp3649
g53
(dp3650
sg62
g3644
sg55
(lp3651
g48
(g49
g50
NtRp3652
(dp3653
g53
(dp3654
g61
I1
ssg62
g3648
sg55
(lp3655
S'/201056161/appadmin/index'
p3656
asbasbasbasbasbasbasbag48
(g64
g50
NtRp3657
(dp3658
g53
(dp3659
sg62
g3275
sg55
(lp3660
g48
(g69
g50
NtRp3661
(dp3662
g53
(dp3663
sg62
g3657
sg55
(lp3664
g48
(g49
g50
NtRp3665
(dp3666
g53
(dp3667
g61
I2
ssg62
g3661
sg55
(lp3668
g48
(g57
g50
NtRp3669
(dp3670
g53
(dp3671
g61
I1
ssg62
Nsg55
(lp3672
g48
(g64
g50
NtRp3673
(dp3674
g53
(dp3675
sg62
g3669
sg55
(lp3676
g48
(g69
g50
NtRp3677
(dp3678
g53
(dp3679
sg62
g3673
sg55
(lp3680
g48
(g49
g50
NtRp3681
(dp3682
g53
(dp3683
g61
I1
ssg62
g3677
sg55
(lp3684
g3166
(S's\x06\x00\x00\x00Errors'
tRp3685
asbasbasbag48
(g64
g50
NtRp3686
(dp3687
g53
(dp3688
sg62
g3669
sg55
(lp3689
g48
(g69
g50
NtRp3690
(dp3691
g53
(dp3692
sg62
g3686
sg55
(lp3693
g48
(g49
g50
NtRp3694
(dp3695
g53
(dp3696
g61
I1
ssg62
g3690
sg55
(lp3697
I00
asbasbasbag48
(g64
g50
NtRp3698
(dp3699
g53
(dp3700
sg62
g3669
sg55
(lp3701
g48
(g69
g50
NtRp3702
(dp3703
g53
(dp3704
sg62
g3698
sg55
(lp3705
g48
(g49
g50
NtRp3706
(dp3707
g53
(dp3708
g61
I1
ssg62
g3702
sg55
(lp3709
S'/admin/default/errors/201056161'
p3710
asbasbasbasbasbasbasbag48
(g64
g50
NtRp3711
(dp3712
g53
(dp3713
sg62
g3275
sg55
(lp3714
g48
(g69
g50
NtRp3715
(dp3716
g53
(dp3717
sg62
g3711
sg55
(lp3718
g48
(g49
g50
NtRp3719
(dp3720
g53
(dp3721
g61
I2
ssg62
g3715
sg55
(lp3722
g48
(g57
g50
NtRp3723
(dp3724
g53
(dp3725
g61
I1
ssg62
Nsg55
(lp3726
g48
(g64
g50
NtRp3727
(dp3728
g53
(dp3729
sg62
g3723
sg55
(lp3730
g48
(g69
g50
NtRp3731
(dp3732
g53
(dp3733
sg62
g3727
sg55
(lp3734
g48
(g49
g50
NtRp3735
(dp3736
g53
(dp3737
g61
I1
ssg62
g3731
sg55
(lp3738
g3166
(S's\x05\x00\x00\x00About'
tRp3739
asbasbasbag48
(g64
g50
NtRp3740
(dp3741
g53
(dp3742
sg62
g3723
sg55
(lp3743
g48
(g69
g50
NtRp3744
(dp3745
g53
(dp3746
sg62
g3740
sg55
(lp3747
g48
(g49
g50
NtRp3748
(dp3749
g53
(dp3750
g61
I1
ssg62
g3744
sg55
(lp3751
I00
asbasbasbag48
(g64
g50
NtRp3752
(dp3753
g53
(dp3754
sg62
g3723
sg55
(lp3755
g48
(g69
g50
NtRp3756
(dp3757
g53
(dp3758
sg62
g3752
sg55
(lp3759
g48
(g49
g50
NtRp3760
(dp3761
g53
(dp3762
g61
I1
ssg62
g3756
sg55
(lp3763
S'/admin/default/about/201056161'
p3764
asbasbasbasbasbasbasbasbasbasbasbasbasbasbasbag48
(g64
g50
NtRp3765
(dp3766
g53
(dp3767
sg62
g3134
sg55
(lp3768
g48
(g69
g50
NtRp3769
(dp3770
g53
(dp3771
sg62
g3765
sg55
(lp3772
g48
(g49
g50
NtRp3773
(dp3774
g53
(dp3775
g61
I4
ssg62
g3769
sg55
(lp3776
g48
(g57
g50
NtRp3777
(dp3778
g53
(dp3779
g61
I3
ssg62
Nsg55
(lp3780
g48
(g64
g50
NtRp3781
(dp3782
g53
(dp3783
sg62
g3777
sg55
(lp3784
g48
(g69
g50
NtRp3785
(dp3786
g53
(dp3787
sg62
g3781
sg55
(lp3788
g48
(g49
g50
NtRp3789
(dp3790
g53
(dp3791
g61
I3
ssg62
g3785
sg55
(lp3792
g3166
(S's\t\x00\x00\x00Resources'
tRp3793
asbasbasbag48
(g64
g50
NtRp3794
(dp3795
g53
(dp3796
sg62
g3777
sg55
(lp3797
g48
(g69
g50
NtRp3798
(dp3799
g53
(dp3800
sg62
g3794
sg55
(lp3801
g48
(g49
g50
NtRp3802
(dp3803
g53
(dp3804
g61
I3
ssg62
g3798
sg55
(lp3805
g91
asbasbasbag48
(g64
g50
NtRp3806
(dp3807
g53
(dp3808
sg62
g3777
sg55
(lp3809
g48
(g69
g50
NtRp3810
(dp3811
g53
(dp3812
sg62
g3806
sg55
(lp3813
g48
(g49
g50
NtRp3814
(dp3815
g53
(dp3816
g61
I3
ssg62
g3810
sg55
(lp3817
S'None'
p3818
asbasbasbag48
(g64
g50
NtRp3819
(dp3820
g53
(dp3821
sg62
g3777
sg55
(lp3822
g48
(g69
g50
NtRp3823
(dp3824
g53
(dp3825
sg62
g3819
sg55
(lp3826
g48
(g49
g50
NtRp3827
(dp3828
g53
(dp3829
g61
I3
ssg62
g3823
sg55
(lp3830
g48
(g57
g50
NtRp3831
(dp3832
g53
(dp3833
g61
I2
ssg62
Nsg55
(lp3834
g48
(g64
g50
NtRp3835
(dp3836
g53
(dp3837
sg62
g3831
sg55
(lp3838
g48
(g69
g50
NtRp3839
(dp3840
g53
(dp3841
sg62
g3835
sg55
(lp3842
g48
(g49
g50
NtRp3843
(dp3844
g53
(dp3845
g61
I2
ssg62
g3839
sg55
(lp3846
g48
(g57
g50
NtRp3847
(dp3848
g53
(dp3849
g61
I1
ssg62
Nsg55
(lp3850
g48
(g64
g50
NtRp3851
(dp3852
g53
(dp3853
sg62
g3847
sg55
(lp3854
g48
(g69
g50
NtRp3855
(dp3856
g53
(dp3857
sg62
g3851
sg55
(lp3858
g48
(g49
g50
NtRp3859
(dp3860
g53
(dp3861
g61
I1
ssg62
g3855
sg55
(lp3862
g3166
(S's\r\x00\x00\x00Documentation'
tRp3863
asbasbasbag48
(g64
g50
NtRp3864
(dp3865
g53
(dp3866
sg62
g3847
sg55
(lp3867
g48
(g69
g50
NtRp3868
(dp3869
g53
(dp3870
sg62
g3864
sg55
(lp3871
g48
(g49
g50
NtRp3872
(dp3873
g53
(dp3874
g61
I1
ssg62
g3868
sg55
(lp3875
I00
asbasbasbag48
(g64
g50
NtRp3876
(dp3877
g53
(dp3878
sg62
g3847
sg55
(lp3879
g48
(g69
g50
NtRp3880
(dp3881
g53
(dp3882
sg62
g3876
sg55
(lp3883
g48
(g49
g50
NtRp3884
(dp3885
g53
(dp3886
g61
I1
ssg62
g3880
sg55
(lp3887
S'http://www.web2py.com/book'
p3888
asbasbasbag48
(g64
g50
NtRp3889
(dp3890
g53
(dp3891
sg62
g3847
sg55
(lp3892
g48
(g69
g50
NtRp3893
(dp3894
g53
(dp3895
sg62
g3889
sg55
(lp3896
g48
(g49
g50
NtRp3897
(dp3898
g53
(dp3899
g61
I1
ssg62
g3893
sg55
(lp3900
(lp3901
(g3166
(S's\x07\x00\x00\x00Preface'
tRp3902
I00
S'http://www.web2py.com/book/default/chapter/00'
tp3903
a(g3166
(S's\x0c\x00\x00\x00Introduction'
tRp3904
I00
S'http://www.web2py.com/book/default/chapter/01'
tp3905
a(g3166
(S's\x06\x00\x00\x00Python'
tRp3906
I00
S'http://www.web2py.com/book/default/chapter/02'
tp3907
a(g3166
(S's\x08\x00\x00\x00Overview'
tRp3908
I00
S'http://www.web2py.com/book/default/chapter/03'
tp3909
a(g3166
(S's\x08\x00\x00\x00The Core'
tRp3910
I00
S'http://www.web2py.com/book/default/chapter/04'
tp3911
a(g3166
(S's\t\x00\x00\x00The Views'
tRp3912
I00
S'http://www.web2py.com/book/default/chapter/05'
tp3913
a(g3166
(S's\x08\x00\x00\x00Database'
tRp3914
I00
S'http://www.web2py.com/book/default/chapter/06'
tp3915
a(g3166
(S's\x14\x00\x00\x00Forms and Validators'
tRp3916
I00
S'http://www.web2py.com/book/default/chapter/07'
tp3917
a(g3166
(S's\x0e\x00\x00\x00Access Control'
tRp3918
I00
S'http://www.web2py.com/book/default/chapter/08'
tp3919
a(g3166
(S's\x08\x00\x00\x00Services'
tRp3920
I00
S'http://www.web2py.com/book/default/chapter/09'
tp3921
a(g3166
(S's\x0c\x00\x00\x00Ajax Recipes'
tRp3922
I00
S'http://www.web2py.com/book/default/chapter/10'
tp3923
a(g3166
(S's\x12\x00\x00\x00Deployment Recipes'
tRp3924
I00
S'http://www.web2py.com/book/default/chapter/11'
tp3925
a(g3166
(S's\r\x00\x00\x00Other Recipes'
tRp3926
I00
S'http://www.web2py.com/book/default/chapter/12'
tp3927
a(g3166
(S's\r\x00\x00\x00Buy this book'
tRp3928
I00
S'http://stores.lulu.com/web2py'
tp3929
aasbasbasbasbasbasbasbag48
(g64
g50
NtRp3930
(dp3931
g53
(dp3932
sg62
g3831
sg55
(lp3933
g48
(g69
g50
NtRp3934
(dp3935
g53
(dp3936
sg62
g3930
sg55
(lp3937
g48
(g49
g50
NtRp3938
(dp3939
g53
(dp3940
g61
I2
ssg62
g3934
sg55
(lp3941
g48
(g57
g50
NtRp3942
(dp3943
g53
(dp3944
g61
I1
ssg62
Nsg55
(lp3945
g48
(g64
g50
NtRp3946
(dp3947
g53
(dp3948
sg62
g3942
sg55
(lp3949
g48
(g69
g50
NtRp3950
(dp3951
g53
(dp3952
sg62
g3946
sg55
(lp3953
g48
(g49
g50
NtRp3954
(dp3955
g53
(dp3956
g61
I1
ssg62
g3950
sg55
(lp3957
g3166
(S's\t\x00\x00\x00Community'
tRp3958
asbasbasbag48
(g64
g50
NtRp3959
(dp3960
g53
(dp3961
sg62
g3942
sg55
(lp3962
g48
(g69
g50
NtRp3963
(dp3964
g53
(dp3965
sg62
g3959
sg55
(lp3966
g48
(g49
g50
NtRp3967
(dp3968
g53
(dp3969
g61
I1
ssg62
g3963
sg55
(lp3970
I00
asbasbasbag48
(g64
g50
NtRp3971
(dp3972
g53
(dp3973
sg62
g3942
sg55
(lp3974
g48
(g69
g50
NtRp3975
(dp3976
g53
(dp3977
sg62
g3971
sg55
(lp3978
g48
(g49
g50
NtRp3979
(dp3980
g53
(dp3981
g61
I1
ssg62
g3975
sg55
(lp3982
Nasbasbasbag48
(g64
g50
NtRp3983
(dp3984
g53
(dp3985
sg62
g3942
sg55
(lp3986
g48
(g69
g50
NtRp3987
(dp3988
g53
(dp3989
sg62
g3983
sg55
(lp3990
g48
(g49
g50
NtRp3991
(dp3992
g53
(dp3993
g61
I1
ssg62
g3987
sg55
(lp3994
(lp3995
(g3166
(S's\x06\x00\x00\x00Groups'
tRp3996
I00
S'http://www.web2py.com/examples/default/usergroups'
tp3997
a(g3166
(S's\x07\x00\x00\x00Twitter'
tRp3998
I00
S'http://twitter.com/web2py'
tp3999
a(g3166
(S's\t\x00\x00\x00Live chat'
tRp4000
I00
S'http://mibbit.com/?channel=%23web2py&server=irc.mibbit.net'
tp4001
a(g3166
(S's\n\x00\x00\x00User Voice'
tRp4002
I00
S'http://web2py.uservoice.com/'
tp4003
aasbasbasbasbasbasbasbag48
(g64
g50
NtRp4004
(dp4005
g53
(dp4006
sg62
g3831
sg55
(lp4007
g48
(g69
g50
NtRp4008
(dp4009
g53
(dp4010
sg62
g4004
sg55
(lp4011
g48
(g49
g50
NtRp4012
(dp4013
g53
(dp4014
g61
I2
ssg62
g4008
sg55
(lp4015
g48
(g57
g50
NtRp4016
(dp4017
g53
(dp4018
g61
I1
ssg62
Nsg55
(lp4019
g48
(g64
g50
NtRp4020
(dp4021
g53
(dp4022
sg62
g4016
sg55
(lp4023
g48
(g69
g50
NtRp4024
(dp4025
g53
(dp4026
sg62
g4020
sg55
(lp4027
g48
(g49
g50
NtRp4028
(dp4029
g53
(dp4030
g61
I1
ssg62
g4024
sg55
(lp4031
g3166
(S's\x06\x00\x00\x00Web2py'
tRp4032
asbasbasbag48
(g64
g50
NtRp4033
(dp4034
g53
(dp4035
sg62
g4016
sg55
(lp4036
g48
(g69
g50
NtRp4037
(dp4038
g53
(dp4039
sg62
g4033
sg55
(lp4040
g48
(g49
g50
NtRp4041
(dp4042
g53
(dp4043
g61
I1
ssg62
g4037
sg55
(lp4044
I00
asbasbasbag48
(g64
g50
NtRp4045
(dp4046
g53
(dp4047
sg62
g4016
sg55
(lp4048
g48
(g69
g50
NtRp4049
(dp4050
g53
(dp4051
sg62
g4045
sg55
(lp4052
g48
(g49
g50
NtRp4053
(dp4054
g53
(dp4055
g61
I1
ssg62
g4049
sg55
(lp4056
S'http://www.web2py.com'
p4057
asbasbasbag48
(g64
g50
NtRp4058
(dp4059
g53
(dp4060
sg62
g4016
sg55
(lp4061
g48
(g69
g50
NtRp4062
(dp4063
g53
(dp4064
sg62
g4058
sg55
(lp4065
g48
(g49
g50
NtRp4066
(dp4067
g53
(dp4068
g61
I1
ssg62
g4062
sg55
(lp4069
(lp4070
(g3166
(S's\x08\x00\x00\x00Download'
tRp4071
I00
S'http://www.web2py.com/examples/default/download'
tp4072
a(g3166
(S's\x07\x00\x00\x00Support'
tRp4073
I00
S'http://www.web2py.com/examples/default/support'
tp4074
a(g3166
(S's\x0e\x00\x00\x00Quick Examples'
tRp4075
I00
S'http://web2py.com/examples/default/examples'
tp4076
a(g3166
(S's\x03\x00\x00\x00FAQ'
tRp4077
I00
S'http://web2py.com/AlterEgo'
tp4078
a(g3166
(S's\x11\x00\x00\x00Free Applications'
tRp4079
I00
S'http://web2py.com/appliances'
tp4080
a(g3166
(S's\x07\x00\x00\x00Plugins'
tRp4081
I00
S'http://web2py.com/plugins'
tp4082
a(g3166
(S's\x07\x00\x00\x00Recipes'
tRp4083
I00
S'http://web2pyslices.com/'
tp4084
a(g3166
(S's\x04\x00\x00\x00Demo'
tRp4085
I00
S'http://web2py.com/demo_admin'
tp4086
a(g3166
(S's\x08\x00\x00\x00Semantic'
tRp4087
I00
S'http://web2py.com/semantic'
tp4088
a(g3166
(S's\x07\x00\x00\x00Layouts'
tRp4089
I00
S'http://web2py.com/layouts'
tp4090
a(g3166
(S's\x06\x00\x00\x00Videos'
tRp4091
I00
S'http://www.web2py.com/examples/default/videos/'
tp4092
aasbasbasbasbasbasbasbasbasbasbasbasbasbasbasbasbasbasbasbag48
(g64
g50
NtRp4093
(dp4094
g53
(dp4095
sg62
g2681
sg55
(lp4096
g48
(g69
g50
NtRp4097
(dp4098
g53
(dp4099
g73
g74
ssg62
g4093
sg55
(lp4100
S'meta'
p4101
asbag48
(g69
g50
NtRp4102
(dp4103
g53
(dp4104
g80
g81
ssg62
g4093
sg55
(lp4105
S':'
asbag48
(g69
g50
NtRp4106
(dp4107
g53
(dp4108
sg62
g4093
sg55
(lp4109
g48
(g49
g50
NtRp4110
(dp4111
g53
(dp4112
g61
I5
ssg62
g4106
sg55
(lp4113
g48
(g57
g50
NtRp4114
(dp4115
g53
(dp4116
g61
I4
ssg62
Nsg55
(lp4117
g48
(g64
g50
NtRp4118
(dp4119
g53
(dp4120
sg62
g4114
sg55
(lp4121
g48
(g69
g50
NtRp4122
(dp4123
g53
(dp4124
g73
g74
ssg62
g4118
sg55
(lp4125
S'author'
p4126
asbag48
(g69
g50
NtRp4127
(dp4128
g53
(dp4129
g80
g81
ssg62
g4118
sg55
(lp4130
S':'
asbag48
(g69
g50
NtRp4131
(dp4132
g53
(dp4133
sg62
g4118
sg55
(lp4134
g48
(g49
g50
NtRp4135
(dp4136
g53
(dp4137
g61
I4
ssg62
g4131
sg55
(lp4138
S'you'
p4139
asbasbasbag48
(g64
g50
NtRp4140
(dp4141
g53
(dp4142
sg62
g4114
sg55
(lp4143
g48
(g69
g50
NtRp4144
(dp4145
g53
(dp4146
g73
g74
ssg62
g4140
sg55
(lp4147
S'copyright'
p4148
asbag48
(g69
g50
NtRp4149
(dp4150
g53
(dp4151
g80
g81
ssg62
g4140
sg55
(lp4152
S':'
asbag48
(g69
g50
NtRp4153
(dp4154
g53
(dp4155
sg62
g4140
sg55
(lp4156
g48
(g49
g50
NtRp4157
(dp4158
g53
(dp4159
g61
I4
ssg62
g4153
sg55
(lp4160
S'Copyright 2007-2010'
p4161
asbasbasbag48
(g64
g50
NtRp4162
(dp4163
g53
(dp4164
sg62
g4114
sg55
(lp4165
g48
(g69
g50
NtRp4166
(dp4167
g53
(dp4168
g73
g74
ssg62
g4162
sg55
(lp4169
S'description'
p4170
asbag48
(g69
g50
NtRp4171
(dp4172
g53
(dp4173
g80
g81
ssg62
g4162
sg55
(lp4174
S':'
asbag48
(g69
g50
NtRp4175
(dp4176
g53
(dp4177
sg62
g4162
sg55
(lp4178
g48
(g49
g50
NtRp4179
(dp4180
g53
(dp4181
g61
I4
ssg62
g4175
sg55
(lp4182
S'Free and open source full-stack enterprise framework for agile development of fast, scalable, secure and portable database-driven web-based applications. Written and programmable in Python'
p4183
asbasbasbag48
(g64
g50
NtRp4184
(dp4185
g53
(dp4186
sg62
g4114
sg55
(lp4187
g48
(g69
g50
NtRp4188
(dp4189
g53
(dp4190
g73
g74
ssg62
g4184
sg55
(lp4191
S'generator'
p4192
asbag48
(g69
g50
NtRp4193
(dp4194
g53
(dp4195
g80
g81
ssg62
g4184
sg55
(lp4196
S':'
asbag48
(g69
g50
NtRp4197
(dp4198
g53
(dp4199
sg62
g4184
sg55
(lp4200
g48
(g49
g50
NtRp4201
(dp4202
g53
(dp4203
g61
I4
ssg62
g4197
sg55
(lp4204
S'Web2py Enterprise Framework'
p4205
asbasbasbag48
(g64
g50
NtRp4206
(dp4207
g53
(dp4208
sg62
g4114
sg55
(lp4209
g48
(g69
g50
NtRp4210
(dp4211
g53
(dp4212
g73
g74
ssg62
g4206
sg55
(lp4213
S'keywords'
p4214
asbag48
(g69
g50
NtRp4215
(dp4216
g53
(dp4217
g80
g81
ssg62
g4206
sg55
(lp4218
S':'
asbag48
(g69
g50
NtRp4219
(dp4220
g53
(dp4221
sg62
g4206
sg55
(lp4222
g48
(g49
g50
NtRp4223
(dp4224
g53
(dp4225
g61
I4
ssg62
g4219
sg55
(lp4226
S'web2py, python, framework'
p4227
asbasbasbasbasbasbasbag48
(g64
g50
NtRp4228
(dp4229
g53
(dp4230
sg62
g2681
sg55
(lp4231
g48
(g69
g50
NtRp4232
(dp4233
g53
(dp4234
g73
g74
ssg62
g4228
sg55
(lp4235
S'postprocessing'
p4236
asbag48
(g69
g50
NtRp4237
(dp4238
g53
(dp4239
g80
g81
ssg62
g4228
sg55
(lp4240
S':'
asbag48
(g69
g50
NtRp4241
(dp4242
g53
(dp4243
sg62
g4228
sg55
(lp4244
g48
(g49
g50
NtRp4245
(dp4246
g53
(dp4247
g61
I5
ssg62
g4241
sg55
(lp4248
g48
(g57
g50
NtRp4249
(dp4250
g53
(dp4251
g61
I4
ssg62
Nsg55
(lp4252
sbasbasbasbag48
(g64
g50
NtRp4253
(dp4254
g53
(dp4255
sg62
g2681
sg55
(lp4256
g48
(g69
g50
NtRp4257
(dp4258
g53
(dp4259
g73
g74
ssg62
g4253
sg55
(lp4260
S'session_file'
p4261
asbag48
(g69
g50
NtRp4262
(dp4263
g53
(dp4264
g80
g81
ssg62
g4253
sg55
(lp4265
S':'
asbag48
(g69
g50
NtRp4266
(dp4267
g53
(dp4268
sg62
g4253
sg55
(lp4269
g48
(g49
g50
NtRp4270
(dp4271
g53
(dp4272
g61
I5
ssg62
g4266
sg55
(lp4273
S"<open file 'C:\\Users\\AKSHAY\\Desktop\\web2py\\applications\\201056161\\sessions\\127.0.0.1-3bc821ac-4d59-41c6-8699-b3e43edfc478', mode 'rb+' at 0x033A0260>"
p4274
asbasbasbag48
(g64
g50
NtRp4275
(dp4276
g53
(dp4277
sg62
g2681
sg55
(lp4278
g48
(g69
g50
NtRp4279
(dp4280
g53
(dp4281
g73
g74
ssg62
g4275
sg55
(lp4282
S'session_filename'
p4283
asbag48
(g69
g50
NtRp4284
(dp4285
g53
(dp4286
g80
g81
ssg62
g4275
sg55
(lp4287
S':'
asbag48
(g69
g50
NtRp4288
(dp4289
g53
(dp4290
sg62
g4275
sg55
(lp4291
g48
(g49
g50
NtRp4292
(dp4293
g53
(dp4294
g61
I5
ssg62
g4288
sg55
(lp4295
S'C:\\Users\\AKSHAY\\Desktop\\web2py\\applications\\201056161\\sessions\\127.0.0.1-3bc821ac-4d59-41c6-8699-b3e43edfc478'
p4296
asbasbasbag48
(g64
g50
NtRp4297
(dp4298
g53
(dp4299
sg62
g2681
sg55
(lp4300
g48
(g69
g50
NtRp4301
(dp4302
g53
(dp4303
g73
g74
ssg62
g4297
sg55
(lp4304
S'session_id'
p4305
asbag48
(g69
g50
NtRp4306
(dp4307
g53
(dp4308
g80
g81
ssg62
g4297
sg55
(lp4309
S':'
asbag48
(g69
g50
NtRp4310
(dp4311
g53
(dp4312
sg62
g4297
sg55
(lp4313
g48
(g49
g50
NtRp4314
(dp4315
g53
(dp4316
g61
I5
ssg62
g4310
sg55
(lp4317
S'127.0.0.1-3bc821ac-4d59-41c6-8699-b3e43edfc478'
p4318
asbasbasbag48
(g64
g50
NtRp4319
(dp4320
g53
(dp4321
sg62
g2681
sg55
(lp4322
g48
(g69
g50
NtRp4323
(dp4324
g53
(dp4325
g73
g74
ssg62
g4319
sg55
(lp4326
S'session_id_name'
p4327
asbag48
(g69
g50
NtRp4328
(dp4329
g53
(dp4330
g80
g81
ssg62
g4319
sg55
(lp4331
S':'
asbag48
(g69
g50
NtRp4332
(dp4333
g53
(dp4334
sg62
g4319
sg55
(lp4335
g48
(g49
g50
NtRp4336
(dp4337
g53
(dp4338
g61
I5
ssg62
g4332
sg55
(lp4339
g2738
asbasbasbag48
(g64
g50
NtRp4340
(dp4341
g53
(dp4342
sg62
g2681
sg55
(lp4343
g48
(g69
g50
NtRp4344
(dp4345
g53
(dp4346
g73
g74
ssg62
g4340
sg55
(lp4347
S'session_locked'
p4348
asbag48
(g69
g50
NtRp4349
(dp4350
g53
(dp4351
g80
g81
ssg62
g4340
sg55
(lp4352
S':'
asbag48
(g69
g50
NtRp4353
(dp4354
g53
(dp4355
sg62
g4340
sg55
(lp4356
g48
(g49
g50
NtRp4357
(dp4358
g53
(dp4359
g61
I5
ssg62
g4353
sg55
(lp4360
g1523
asbasbasbag48
(g64
g50
NtRp4361
(dp4362
g53
(dp4363
sg62
g2681
sg55
(lp4364
g48
(g69
g50
NtRp4365
(dp4366
g53
(dp4367
g73
g74
ssg62
g4361
sg55
(lp4368
S'session_new'
p4369
asbag48
(g69
g50
NtRp4370
(dp4371
g53
(dp4372
g80
g81
ssg62
g4361
sg55
(lp4373
S':'
asbag48
(g69
g50
NtRp4374
(dp4375
g53
(dp4376
sg62
g4361
sg55
(lp4377
g48
(g49
g50
NtRp4378
(dp4379
g53
(dp4380
g61
I5
ssg62
g4374
sg55
(lp4381
g91
asbasbasbag48
(g64
g50
NtRp4382
(dp4383
g53
(dp4384
sg62
g2681
sg55
(lp4385
g48
(g69
g50
NtRp4386
(dp4387
g53
(dp4388
g73
g74
ssg62
g4382
sg55
(lp4389
S'status'
p4390
asbag48
(g69
g50
NtRp4391
(dp4392
g53
(dp4393
g80
g81
ssg62
g4382
sg55
(lp4394
S':'
asbag48
(g69
g50
NtRp4395
(dp4396
g53
(dp4397
sg62
g4382
sg55
(lp4398
g48
(g49
g50
NtRp4399
(dp4400
g53
(dp4401
g61
I5
ssg62
g4395
sg55
(lp4402
S'200'
p4403
asbasbasbag48
(g64
g50
NtRp4404
(dp4405
g53
(dp4406
sg62
g2681
sg55
(lp4407
g48
(g69
g50
NtRp4408
(dp4409
g53
(dp4410
g73
g74
ssg62
g4404
sg55
(lp4411
S'subtitle'
p4412
asbag48
(g69
g50
NtRp4413
(dp4414
g53
(dp4415
g80
g81
ssg62
g4404
sg55
(lp4416
S':'
asbag48
(g69
g50
NtRp4417
(dp4418
g53
(dp4419
sg62
g4404
sg55
(lp4420
g48
(g49
g50
NtRp4421
(dp4422
g53
(dp4423
g61
I5
ssg62
g4417
sg55
(lp4424
g3166
(S's\r\x00\x00\x00customize me!'
tRp4425
asbasbasbag48
(g64
g50
NtRp4426
(dp4427
g53
(dp4428
sg62
g2681
sg55
(lp4429
g48
(g69
g50
NtRp4430
(dp4431
g53
(dp4432
g73
g74
ssg62
g4426
sg55
(lp4433
S'title'
p4434
asbag48
(g69
g50
NtRp4435
(dp4436
g53
(dp4437
g80
g81
ssg62
g4426
sg55
(lp4438
S':'
asbag48
(g69
g50
NtRp4439
(dp4440
g53
(dp4441
sg62
g4426
sg55
(lp4442
g48
(g49
g50
NtRp4443
(dp4444
g53
(dp4445
g61
I5
ssg62
g4439
sg55
(lp4446
g113
asbasbasbag48
(g64
g50
NtRp4447
(dp4448
g53
(dp4449
sg62
g2681
sg55
(lp4450
g48
(g69
g50
NtRp4451
(dp4452
g53
(dp4453
g73
g74
ssg62
g4447
sg55
(lp4454
g1889
asbag48
(g69
g50
NtRp4455
(dp4456
g53
(dp4457
g80
g81
ssg62
g4447
sg55
(lp4458
S':'
asbag48
(g69
g50
NtRp4459
(dp4460
g53
(dp4461
sg62
g4447
sg55
(lp4462
g48
(g49
g50
NtRp4463
(dp4464
g53
(dp4465
g61
I5
ssg62
g4459
sg55
(lp4466
g1902
asbasbasbag48
(g64
g50
NtRp4467
(dp4468
g53
(dp4469
sg62
g2681
sg55
(lp4470
g48
(g69
g50
NtRp4471
(dp4472
g53
(dp4473
g73
g74
ssg62
g4467
sg55
(lp4474
S'view'
p4475
asbag48
(g69
g50
NtRp4476
(dp4477
g53
(dp4478
g80
g81
ssg62
g4467
sg55
(lp4479
S':'
asbag48
(g69
g50
NtRp4480
(dp4481
g53
(dp4482
sg62
g4467
sg55
(lp4483
g48
(g49
g50
NtRp4484
(dp4485
g53
(dp4486
g61
I5
ssg62
g4480
sg55
(lp4487
S'default/new2.html'
p4488
asbasbasbasbasbsS'locals'
p4489
(dp4490
ssS'traceback'
p4491
S'Traceback (most recent call last):\n  File "gluon/restricted.py", line 192, in restricted\n  File "C:\\Users\\AKSHAY\\Desktop\\web2py\\applications\\201056161\\controllers/default.py", line 169, in <module>\n  File "gluon/globals.py", line 137, in <lambda>\n  File "C:\\Users\\AKSHAY\\Desktop\\web2py\\applications\\201056161\\controllers/default.py", line 158, in new2\nNameError: global name \'NULL\' is not defined\n'
p4492
s.