(dp1
S'output'
p2
S''
sS'layer'
p3
S'C:\\Users\\AKSHAY\\Desktop\\web2py\\applications\\201056161\\controllers/default.py'
p4
sS'code'
p5
S'# -*- coding: utf-8 -*-\n# this file is released under public domain and you can use without limitations\n\n#########################################################################\n## This is a samples controller\n## - index is the default action of any application\n## - user is required for authentication and authorization\n## - download is for downloading files uploaded in the db (does streaming)\n## - call exposes all registered services (none by default)\n#########################################################################\n\ndef index():\n    return dict()\n\ndef user():\n    """\n    exposes:\n    http://..../[app]/default/user/login\n    http://..../[app]/default/user/logout\n    http://..../[app]/default/user/register\n    http://..../[app]/default/user/profile\n    http://..../[app]/default/user/retrieve_password\n    http://..../[app]/default/user/change_password\n    use @auth.requires_login()\n        @auth.requires_membership(\'group name\')\n        @auth.requires_permission(\'read\',\'table name\',record_id)\n    to decorate functions that need access control\n    """\n    return dict(form=auth())\n\n\ndef download():\n    """\n    allows downloading of uploaded files\n    http://..../[app]/default/download/[filename]\n    """\n    return response.download(request,db)\n\n\ndef call():\n    """\n    exposes services. for example:\n    http://..../[app]/default/call/jsonrpc\n    decorate with @services.jsonrpc the functions to expose\n    supports xml, json, xmlrpc, jsonrpc, amfrpc, rss, csv\n    """\n    return service()\n\n\n@auth.requires_signature()\ndef data():\n    """\n    http://..../[app]/default/data/tables\n    http://..../[app]/default/data/create/[table]\n    http://..../[app]/default/data/read/[table]/[id]\n    http://..../[app]/default/data/update/[table]/[id]\n    http://..../[app]/default/data/delete/[table]/[id[\n    http://..../[app]/default/data/select/[table]\n    http://..../[app]/default/data/search/[table]\n    but URLs bust be signed, i.e. linked with\n      A(\'table\',_href=URL(\'data/tables\',user_signature=True))\n    or with the signed load operator\n      LOAD(\'default\',\'data.load\',args=\'tables\',ajax=True,user_signature=True)\n    """\n    return dict(form=crud())\ndef q1f():\n#  form=SQLFORM.factory(db.Field(\'id\',db.artist,requires=IS_IN_DB(db,\'artist.id\'),required=True,label=\'Select Singer id\'))#  form=SQLFORM(db.query) #form=FORM(INPUT(_name=\'singer\',requires=IS_NOT_EMPTY()),INPUT(_type=\'submit\')) #\n  form = SQLFORM.factory(db.Field(\'idn\',db.artist,requires=IS_IN_DB(db,\'artist.id\',\'artist.id\'),label=\'Select id of Artist\'))\n  if form.accepts(request.vars,session):\n    redirect(URL(r=request, f=\'q1s?idn=\'+form.vars.idn))\n  elif form.errors:\n    response.flash=\'Errors in form Please re-enter\'\n  return dict(form=form)  \ndef q1s():\n  sname = int(request.vars.idn)\n  rows=db(db.song.singer==sname).select(db.song.name)\n  """count=1\n  for row in rows:\n    count+=1\n    if count==2:\n      snames=str(row.artist_name)\n  rows1=db(db.song.singer is snames).select(db.song.name)"""\n  return dict(rows=rows)\ndef q2f():\n  form = SQLFORM.factory(db.Field(\'namen\',db.artist,requires=IS_IN_DB(db,\'artist.id\',\'artist.id(artist.artist_name)\'),label=\'Select artist name\'))\n  if form.accepts(request.vars,session):\n    redirect(URL(r=request, f=\'q2s?namen=\'+form.vars.namen))\n  elif form.errors:\n    response.flash=\'Errors in form Please re-enter\'\n  return dict(form=form)  \ndef q2s():\n  sname=str(request.vars.namen)\n  #here whatever be always sname will be referred by id ! \n  rows=db(db.song.singer==sname).select(db.song.name)\n  return dict(rows=rows)\ndef q3f():\n  form = SQLFORM.factory(db.Field(\'namen\',db.artist,requires=IS_IN_DB(db,\'artist.id\',\'artist.artist_name\'),label=\'Select Artist\'),\n                         db.Field(\'movien\',db.movie,requires=IS_IN_DB(db,\'movie.id\',\'movie.name\'),label=\'Select movie\'))\n  if form.accepts(request.vars,session):\n    redirect(URL(r=request, f=\'q3s?namen=\'+form.vars.namen+\'&movien=\'+form.vars.movien))\n  elif form.errors:\n    response.flash=\'Errors in form Please re-enter\'\n  return dict(form=form)                         \ndef q3s():\n  sname=str(request.vars.namen)\n  movien=str(request.vars.movien)\n  rows=db((db.song.singer==sname) & (db.song.movie==movien)).select(db.song.name)\n  return dict(rows=rows)\ndef q4f():\n  form = SQLFORM.factory(db.Field(\'namen\',db.artist,requires=IS_IN_DB(db,\'artist.id\',\'artist.artist_name\'),label=\'Select Artist\'),\n                         db.Field(\'yearbe\',db.movie,label=\'Select year before\'))\n  if form.accepts(request.vars,session):\n    redirect(URL(r=request, f=\'q4s?namen=\'+form.vars.namen+\'&yearbe=\'+form.vars.yearbe))\n  elif form.errors:\n    response.flash=\'Errors in form Please re-enter\'\n  return dict(form=form)\ndef q4s():\n  import datetime\n  sname=str(request.vars.namen)\n  yearbe=int(request.vars.yearbe)\n  rows=db((db.song.singer==sname) & (db.movie.release_date<datetime.date(yearbe,1,1))).select(db.song.name,db.song.singing_actor)\n  return dict(rows=rows)\ndef q5f():\n  form = SQLFORM.factory(db.Field(\'namen\',db.rating,requires=IS_IN_DB(db,\'song.id\',\'song.name\'),label=\'Select song name to check if rating is more than 4\'))\n  if form.accepts(request.vars,session):\n    redirect(URL(r=request, f=\'q5s?namen=\'+form.vars.namen))\n  elif form.errors:\n    response.flash=\'Errors in form Please re-enter\'\n  return dict(form=form)\ndef q5s():\n  sname=int(request.vars.namen)\n  rows=db(db.rating.song_n==sname).select(db.rating.ratingn)\n  count=0\n  sum=0\n  for row in rows:\n    count+=1\n    sum+=int(row.ratingn)\n  if count:  \n    avg=sum/count\n  return dict(avg=avg)\ndef insong():\n  form = SQLFORM(db.song)\n  if form.accepts(request.vars,session):\n      #redirect(URL(r=request, f=\'student_details?rollno=%d\' % form.vars.rollno))\n      response.flash=\'New Song Record Inserted\'\n  elif form.errors:\n      response.flash=\'Errors in form\'\n  return dict(form=form)\ndef newq():\n  return dict()\n\nresponse._vars=response._caller(q2f)\n'
p6
sS'snapshot'
p7
(dp8
S'exception'
p9
(dp10
S'__hash__'
p11
S"<method-wrapper '__hash__' of exceptions.KeyError object at 0x06EF0C10>"
p12
sS'__setattr__'
p13
S"<method-wrapper '__setattr__' of exceptions.KeyError object at 0x06EF0C10>"
p14
sS'__reduce_ex__'
p15
S'<built-in method __reduce_ex__ of exceptions.KeyError object at 0x06EF0C10>'
p16
sS'__getslice__'
p17
S"<method-wrapper '__getslice__' of exceptions.KeyError object at 0x06EF0C10>"
p18
sS'__getitem__'
p19
S"<method-wrapper '__getitem__' of exceptions.KeyError object at 0x06EF0C10>"
p20
sS'__setstate__'
p21
S'<built-in method __setstate__ of exceptions.KeyError object at 0x06EF0C10>'
p22
sS'__reduce__'
p23
S'<built-in method __reduce__ of exceptions.KeyError object at 0x06EF0C10>'
p24
sS'__str__'
p25
S"<method-wrapper '__str__' of exceptions.KeyError object at 0x06EF0C10>"
p26
sS'args'
p27
S"('artist_name',)"
p28
sS'__getattribute__'
p29
S"<method-wrapper '__getattribute__' of exceptions.KeyError object at 0x06EF0C10>"
p30
sS'__class__'
p31
S"<type 'exceptions.KeyError'>"
p32
sS'__delattr__'
p33
S"<method-wrapper '__delattr__' of exceptions.KeyError object at 0x06EF0C10>"
p34
sS'__repr__'
p35
S"<method-wrapper '__repr__' of exceptions.KeyError object at 0x06EF0C10>"
p36
sS'__dict__'
p37
S'{}'
p38
sS'__doc__'
p39
S"'Mapping key not found.'"
p40
sS'__init__'
p41
S"<method-wrapper '__init__' of exceptions.KeyError object at 0x06EF0C10>"
p42
sS'__new__'
p43
S'<built-in method __new__ of type object at 0x1E1CDFB8>'
p44
ssS'evalue'
p45
S"'artist_name'"
p46
sS'request'
p47
ccopy_reg
_reconstructor
p48
(cgluon.html
BEAUTIFY
p49
c__builtin__
object
p50
NtRp51
(dp52
S'attributes'
p53
(dp54
sS'components'
p55
(lp56
g48
(cgluon.html
TABLE
p57
g50
NtRp58
(dp59
g53
(dp60
S'level'
p61
I5
ssS'parent'
p62
Nsg55
(lp63
g48
(cgluon.html
TR
p64
g50
NtRp65
(dp66
g53
(dp67
sg62
g58
sg55
(lp68
g48
(cgluon.html
TD
p69
g50
NtRp70
(dp71
g53
(dp72
S'_style'
p73
S'font-weight:bold;'
p74
ssg62
g65
sg55
(lp75
S'ajax'
p76
asbag48
(g69
g50
NtRp77
(dp78
g53
(dp79
S'_valign'
p80
S'top'
p81
ssg62
g65
sg55
(lp82
S':'
asbag48
(g69
g50
NtRp83
(dp84
g53
(dp85
sg62
g65
sg55
(lp86
g48
(g49
g50
NtRp87
(dp88
g53
(dp89
g61
I5
ssg62
g83
sg55
(lp90
S'False'
p91
asbasbasbag48
(g64
g50
NtRp92
(dp93
g53
(dp94
sg62
g58
sg55
(lp95
g48
(g69
g50
NtRp96
(dp97
g53
(dp98
g73
g74
ssg62
g92
sg55
(lp99
S'application'
p100
asbag48
(g69
g50
NtRp101
(dp102
g53
(dp103
g80
g81
ssg62
g92
sg55
(lp104
S':'
asbag48
(g69
g50
NtRp105
(dp106
g53
(dp107
sg62
g92
sg55
(lp108
g48
(g49
g50
NtRp109
(dp110
g53
(dp111
g61
I5
ssg62
g105
sg55
(lp112
S'201056161'
p113
asbasbasbag48
(g64
g50
NtRp114
(dp115
g53
(dp116
sg62
g58
sg55
(lp117
g48
(g69
g50
NtRp118
(dp119
g53
(dp120
g73
g74
ssg62
g114
sg55
(lp121
g27
asbag48
(g69
g50
NtRp122
(dp123
g53
(dp124
g80
g81
ssg62
g114
sg55
(lp125
S':'
asbag48
(g69
g50
NtRp126
(dp127
g53
(dp128
sg62
g114
sg55
(lp129
g48
(g49
g50
NtRp130
(dp131
g53
(dp132
g61
I5
ssg62
g126
sg55
(lp133
g48
(g57
g50
NtRp134
(dp135
g53
(dp136
g61
I4
ssg62
Nsg55
(lp137
sbasbasbasbag48
(g64
g50
NtRp138
(dp139
g53
(dp140
sg62
g58
sg55
(lp141
g48
(g69
g50
NtRp142
(dp143
g53
(dp144
g73
g74
ssg62
g138
sg55
(lp145
S'body'
p146
asbag48
(g69
g50
NtRp147
(dp148
g53
(dp149
g80
g81
ssg62
g138
sg55
(lp150
S':'
asbag48
(g69
g50
NtRp151
(dp152
g53
(dp153
sg62
g138
sg55
(lp154
g48
(g49
g50
NtRp155
(dp156
g53
(dp157
g61
I5
ssg62
g151
sg55
(lp158
S'<cStringIO.StringO object at 0x06BC4D00>'
p159
asbasbasbag48
(g64
g50
NtRp160
(dp161
g53
(dp162
sg62
g58
sg55
(lp163
g48
(g69
g50
NtRp164
(dp165
g53
(dp166
g73
g74
ssg62
g160
sg55
(lp167
S'client'
p168
asbag48
(g69
g50
NtRp169
(dp170
g53
(dp171
g80
g81
ssg62
g160
sg55
(lp172
S':'
asbag48
(g69
g50
NtRp173
(dp174
g53
(dp175
sg62
g160
sg55
(lp176
g48
(g49
g50
NtRp177
(dp178
g53
(dp179
g61
I5
ssg62
g173
sg55
(lp180
S'127.0.0.1'
p181
asbasbasbag48
(g64
g50
NtRp182
(dp183
g53
(dp184
sg62
g58
sg55
(lp185
g48
(g69
g50
NtRp186
(dp187
g53
(dp188
g73
g74
ssg62
g182
sg55
(lp189
S'controller'
p190
asbag48
(g69
g50
NtRp191
(dp192
g53
(dp193
g80
g81
ssg62
g182
sg55
(lp194
S':'
asbag48
(g69
g50
NtRp195
(dp196
g53
(dp197
sg62
g182
sg55
(lp198
g48
(g49
g50
NtRp199
(dp200
g53
(dp201
g61
I5
ssg62
g195
sg55
(lp202
S'default'
p203
asbasbasbag48
(g64
g50
NtRp204
(dp205
g53
(dp206
sg62
g58
sg55
(lp207
g48
(g69
g50
NtRp208
(dp209
g53
(dp210
g73
g74
ssg62
g204
sg55
(lp211
S'cookies'
p212
asbag48
(g69
g50
NtRp213
(dp214
g53
(dp215
g80
g81
ssg62
g204
sg55
(lp216
S':'
asbag48
(g69
g50
NtRp217
(dp218
g53
(dp219
sg62
g204
sg55
(lp220
g48
(g49
g50
NtRp221
(dp222
g53
(dp223
g61
I5
ssg62
g217
sg55
(lp224
g48
(g57
g50
NtRp225
(dp226
g53
(dp227
g61
I4
ssg62
Nsg55
(lp228
g48
(g64
g50
NtRp229
(dp230
g53
(dp231
sg62
g225
sg55
(lp232
g48
(g69
g50
NtRp233
(dp234
g53
(dp235
g73
g74
ssg62
g229
sg55
(lp236
S'session_id_201056161'
p237
asbag48
(g69
g50
NtRp238
(dp239
g53
(dp240
g80
g81
ssg62
g229
sg55
(lp241
S':'
asbag48
(g69
g50
NtRp242
(dp243
g53
(dp244
sg62
g229
sg55
(lp245
g48
(g49
g50
NtRp246
(dp247
g53
(dp248
g61
I4
ssg62
g242
sg55
(lp249
g48
(g57
g50
NtRp250
(dp251
g53
(dp252
g61
I3
ssg62
Nsg55
(lp253
g48
(g64
g50
NtRp254
(dp255
g53
(dp256
sg62
g250
sg55
(lp257
g48
(g69
g50
NtRp258
(dp259
g53
(dp260
g73
g74
ssg62
g254
sg55
(lp261
S'comment'
p262
asbag48
(g69
g50
NtRp263
(dp264
g53
(dp265
g80
g81
ssg62
g254
sg55
(lp266
S':'
asbag48
(g69
g50
NtRp267
(dp268
g53
(dp269
sg62
g254
sg55
(lp270
g48
(g49
g50
NtRp271
(dp272
g53
(dp273
g61
I3
ssg62
g267
sg55
(lp274
S''
asbasbasbag48
(g64
g50
NtRp275
(dp276
g53
(dp277
sg62
g250
sg55
(lp278
g48
(g69
g50
NtRp279
(dp280
g53
(dp281
g73
g74
ssg62
g275
sg55
(lp282
S'domain'
p283
asbag48
(g69
g50
NtRp284
(dp285
g53
(dp286
g80
g81
ssg62
g275
sg55
(lp287
S':'
asbag48
(g69
g50
NtRp288
(dp289
g53
(dp290
sg62
g275
sg55
(lp291
g48
(g49
g50
NtRp292
(dp293
g53
(dp294
g61
I3
ssg62
g288
sg55
(lp295
S''
asbasbasbag48
(g64
g50
NtRp296
(dp297
g53
(dp298
sg62
g250
sg55
(lp299
g48
(g69
g50
NtRp300
(dp301
g53
(dp302
g73
g74
ssg62
g296
sg55
(lp303
S'expires'
p304
asbag48
(g69
g50
NtRp305
(dp306
g53
(dp307
g80
g81
ssg62
g296
sg55
(lp308
S':'
asbag48
(g69
g50
NtRp309
(dp310
g53
(dp311
sg62
g296
sg55
(lp312
g48
(g49
g50
NtRp313
(dp314
g53
(dp315
g61
I3
ssg62
g309
sg55
(lp316
S''
asbasbasbag48
(g64
g50
NtRp317
(dp318
g53
(dp319
sg62
g250
sg55
(lp320
g48
(g69
g50
NtRp321
(dp322
g53
(dp323
g73
g74
ssg62
g317
sg55
(lp324
S'max-age'
p325
asbag48
(g69
g50
NtRp326
(dp327
g53
(dp328
g80
g81
ssg62
g317
sg55
(lp329
S':'
asbag48
(g69
g50
NtRp330
(dp331
g53
(dp332
sg62
g317
sg55
(lp333
g48
(g49
g50
NtRp334
(dp335
g53
(dp336
g61
I3
ssg62
g330
sg55
(lp337
S''
asbasbasbag48
(g64
g50
NtRp338
(dp339
g53
(dp340
sg62
g250
sg55
(lp341
g48
(g69
g50
NtRp342
(dp343
g53
(dp344
g73
g74
ssg62
g338
sg55
(lp345
S'path'
p346
asbag48
(g69
g50
NtRp347
(dp348
g53
(dp349
g80
g81
ssg62
g338
sg55
(lp350
S':'
asbag48
(g69
g50
NtRp351
(dp352
g53
(dp353
sg62
g338
sg55
(lp354
g48
(g49
g50
NtRp355
(dp356
g53
(dp357
g61
I3
ssg62
g351
sg55
(lp358
S''
asbasbasbag48
(g64
g50
NtRp359
(dp360
g53
(dp361
sg62
g250
sg55
(lp362
g48
(g69
g50
NtRp363
(dp364
g53
(dp365
g73
g74
ssg62
g359
sg55
(lp366
S'secure'
p367
asbag48
(g69
g50
NtRp368
(dp369
g53
(dp370
g80
g81
ssg62
g359
sg55
(lp371
S':'
asbag48
(g69
g50
NtRp372
(dp373
g53
(dp374
sg62
g359
sg55
(lp375
g48
(g49
g50
NtRp376
(dp377
g53
(dp378
g61
I3
ssg62
g372
sg55
(lp379
S''
asbasbasbag48
(g64
g50
NtRp380
(dp381
g53
(dp382
sg62
g250
sg55
(lp383
g48
(g69
g50
NtRp384
(dp385
g53
(dp386
g73
g74
ssg62
g380
sg55
(lp387
S'version'
p388
asbag48
(g69
g50
NtRp389
(dp390
g53
(dp391
g80
g81
ssg62
g380
sg55
(lp392
S':'
asbag48
(g69
g50
NtRp393
(dp394
g53
(dp395
sg62
g380
sg55
(lp396
g48
(g49
g50
NtRp397
(dp398
g53
(dp399
g61
I3
ssg62
g393
sg55
(lp400
S''
asbasbasbasbasbasbasbag48
(g64
g50
NtRp401
(dp402
g53
(dp403
sg62
g225
sg55
(lp404
g48
(g69
g50
NtRp405
(dp406
g53
(dp407
g73
g74
ssg62
g401
sg55
(lp408
S'session_id_admin'
p409
asbag48
(g69
g50
NtRp410
(dp411
g53
(dp412
g80
g81
ssg62
g401
sg55
(lp413
S':'
asbag48
(g69
g50
NtRp414
(dp415
g53
(dp416
sg62
g401
sg55
(lp417
g48
(g49
g50
NtRp418
(dp419
g53
(dp420
g61
I4
ssg62
g414
sg55
(lp421
g48
(g57
g50
NtRp422
(dp423
g53
(dp424
g61
I3
ssg62
Nsg55
(lp425
g48
(g64
g50
NtRp426
(dp427
g53
(dp428
sg62
g422
sg55
(lp429
g48
(g69
g50
NtRp430
(dp431
g53
(dp432
g73
g74
ssg62
g426
sg55
(lp433
g262
asbag48
(g69
g50
NtRp434
(dp435
g53
(dp436
g80
g81
ssg62
g426
sg55
(lp437
S':'
asbag48
(g69
g50
NtRp438
(dp439
g53
(dp440
sg62
g426
sg55
(lp441
g48
(g49
g50
NtRp442
(dp443
g53
(dp444
g61
I3
ssg62
g438
sg55
(lp445
S''
asbasbasbag48
(g64
g50
NtRp446
(dp447
g53
(dp448
sg62
g422
sg55
(lp449
g48
(g69
g50
NtRp450
(dp451
g53
(dp452
g73
g74
ssg62
g446
sg55
(lp453
g283
asbag48
(g69
g50
NtRp454
(dp455
g53
(dp456
g80
g81
ssg62
g446
sg55
(lp457
S':'
asbag48
(g69
g50
NtRp458
(dp459
g53
(dp460
sg62
g446
sg55
(lp461
g48
(g49
g50
NtRp462
(dp463
g53
(dp464
g61
I3
ssg62
g458
sg55
(lp465
S''
asbasbasbag48
(g64
g50
NtRp466
(dp467
g53
(dp468
sg62
g422
sg55
(lp469
g48
(g69
g50
NtRp470
(dp471
g53
(dp472
g73
g74
ssg62
g466
sg55
(lp473
g304
asbag48
(g69
g50
NtRp474
(dp475
g53
(dp476
g80
g81
ssg62
g466
sg55
(lp477
S':'
asbag48
(g69
g50
NtRp478
(dp479
g53
(dp480
sg62
g466
sg55
(lp481
g48
(g49
g50
NtRp482
(dp483
g53
(dp484
g61
I3
ssg62
g478
sg55
(lp485
S''
asbasbasbag48
(g64
g50
NtRp486
(dp487
g53
(dp488
sg62
g422
sg55
(lp489
g48
(g69
g50
NtRp490
(dp491
g53
(dp492
g73
g74
ssg62
g486
sg55
(lp493
g325
asbag48
(g69
g50
NtRp494
(dp495
g53
(dp496
g80
g81
ssg62
g486
sg55
(lp497
S':'
asbag48
(g69
g50
NtRp498
(dp499
g53
(dp500
sg62
g486
sg55
(lp501
g48
(g49
g50
NtRp502
(dp503
g53
(dp504
g61
I3
ssg62
g498
sg55
(lp505
S''
asbasbasbag48
(g64
g50
NtRp506
(dp507
g53
(dp508
sg62
g422
sg55
(lp509
g48
(g69
g50
NtRp510
(dp511
g53
(dp512
g73
g74
ssg62
g506
sg55
(lp513
g346
asbag48
(g69
g50
NtRp514
(dp515
g53
(dp516
g80
g81
ssg62
g506
sg55
(lp517
S':'
asbag48
(g69
g50
NtRp518
(dp519
g53
(dp520
sg62
g506
sg55
(lp521
g48
(g49
g50
NtRp522
(dp523
g53
(dp524
g61
I3
ssg62
g518
sg55
(lp525
S''
asbasbasbag48
(g64
g50
NtRp526
(dp527
g53
(dp528
sg62
g422
sg55
(lp529
g48
(g69
g50
NtRp530
(dp531
g53
(dp532
g73
g74
ssg62
g526
sg55
(lp533
g367
asbag48
(g69
g50
NtRp534
(dp535
g53
(dp536
g80
g81
ssg62
g526
sg55
(lp537
S':'
asbag48
(g69
g50
NtRp538
(dp539
g53
(dp540
sg62
g526
sg55
(lp541
g48
(g49
g50
NtRp542
(dp543
g53
(dp544
g61
I3
ssg62
g538
sg55
(lp545
S''
asbasbasbag48
(g64
g50
NtRp546
(dp547
g53
(dp548
sg62
g422
sg55
(lp549
g48
(g69
g50
NtRp550
(dp551
g53
(dp552
g73
g74
ssg62
g546
sg55
(lp553
g388
asbag48
(g69
g50
NtRp554
(dp555
g53
(dp556
g80
g81
ssg62
g546
sg55
(lp557
S':'
asbag48
(g69
g50
NtRp558
(dp559
g53
(dp560
sg62
g546
sg55
(lp561
g48
(g49
g50
NtRp562
(dp563
g53
(dp564
g61
I3
ssg62
g558
sg55
(lp565
S''
asbasbasbasbasbasbasbag48
(g64
g50
NtRp566
(dp567
g53
(dp568
sg62
g225
sg55
(lp569
g48
(g69
g50
NtRp570
(dp571
g53
(dp572
g73
g74
ssg62
g566
sg55
(lp573
S'session_id_welcome'
p574
asbag48
(g69
g50
NtRp575
(dp576
g53
(dp577
g80
g81
ssg62
g566
sg55
(lp578
S':'
asbag48
(g69
g50
NtRp579
(dp580
g53
(dp581
sg62
g566
sg55
(lp582
g48
(g49
g50
NtRp583
(dp584
g53
(dp585
g61
I4
ssg62
g579
sg55
(lp586
g48
(g57
g50
NtRp587
(dp588
g53
(dp589
g61
I3
ssg62
Nsg55
(lp590
g48
(g64
g50
NtRp591
(dp592
g53
(dp593
sg62
g587
sg55
(lp594
g48
(g69
g50
NtRp595
(dp596
g53
(dp597
g73
g74
ssg62
g591
sg55
(lp598
g262
asbag48
(g69
g50
NtRp599
(dp600
g53
(dp601
g80
g81
ssg62
g591
sg55
(lp602
S':'
asbag48
(g69
g50
NtRp603
(dp604
g53
(dp605
sg62
g591
sg55
(lp606
g48
(g49
g50
NtRp607
(dp608
g53
(dp609
g61
I3
ssg62
g603
sg55
(lp610
S''
asbasbasbag48
(g64
g50
NtRp611
(dp612
g53
(dp613
sg62
g587
sg55
(lp614
g48
(g69
g50
NtRp615
(dp616
g53
(dp617
g73
g74
ssg62
g611
sg55
(lp618
g283
asbag48
(g69
g50
NtRp619
(dp620
g53
(dp621
g80
g81
ssg62
g611
sg55
(lp622
S':'
asbag48
(g69
g50
NtRp623
(dp624
g53
(dp625
sg62
g611
sg55
(lp626
g48
(g49
g50
NtRp627
(dp628
g53
(dp629
g61
I3
ssg62
g623
sg55
(lp630
S''
asbasbasbag48
(g64
g50
NtRp631
(dp632
g53
(dp633
sg62
g587
sg55
(lp634
g48
(g69
g50
NtRp635
(dp636
g53
(dp637
g73
g74
ssg62
g631
sg55
(lp638
g304
asbag48
(g69
g50
NtRp639
(dp640
g53
(dp641
g80
g81
ssg62
g631
sg55
(lp642
S':'
asbag48
(g69
g50
NtRp643
(dp644
g53
(dp645
sg62
g631
sg55
(lp646
g48
(g49
g50
NtRp647
(dp648
g53
(dp649
g61
I3
ssg62
g643
sg55
(lp650
S''
asbasbasbag48
(g64
g50
NtRp651
(dp652
g53
(dp653
sg62
g587
sg55
(lp654
g48
(g69
g50
NtRp655
(dp656
g53
(dp657
g73
g74
ssg62
g651
sg55
(lp658
g325
asbag48
(g69
g50
NtRp659
(dp660
g53
(dp661
g80
g81
ssg62
g651
sg55
(lp662
S':'
asbag48
(g69
g50
NtRp663
(dp664
g53
(dp665
sg62
g651
sg55
(lp666
g48
(g49
g50
NtRp667
(dp668
g53
(dp669
g61
I3
ssg62
g663
sg55
(lp670
S''
asbasbasbag48
(g64
g50
NtRp671
(dp672
g53
(dp673
sg62
g587
sg55
(lp674
g48
(g69
g50
NtRp675
(dp676
g53
(dp677
g73
g74
ssg62
g671
sg55
(lp678
g346
asbag48
(g69
g50
NtRp679
(dp680
g53
(dp681
g80
g81
ssg62
g671
sg55
(lp682
S':'
asbag48
(g69
g50
NtRp683
(dp684
g53
(dp685
sg62
g671
sg55
(lp686
g48
(g49
g50
NtRp687
(dp688
g53
(dp689
g61
I3
ssg62
g683
sg55
(lp690
S''
asbasbasbag48
(g64
g50
NtRp691
(dp692
g53
(dp693
sg62
g587
sg55
(lp694
g48
(g69
g50
NtRp695
(dp696
g53
(dp697
g73
g74
ssg62
g691
sg55
(lp698
g367
asbag48
(g69
g50
NtRp699
(dp700
g53
(dp701
g80
g81
ssg62
g691
sg55
(lp702
S':'
asbag48
(g69
g50
NtRp703
(dp704
g53
(dp705
sg62
g691
sg55
(lp706
g48
(g49
g50
NtRp707
(dp708
g53
(dp709
g61
I3
ssg62
g703
sg55
(lp710
S''
asbasbasbag48
(g64
g50
NtRp711
(dp712
g53
(dp713
sg62
g587
sg55
(lp714
g48
(g69
g50
NtRp715
(dp716
g53
(dp717
g73
g74
ssg62
g711
sg55
(lp718
g388
asbag48
(g69
g50
NtRp719
(dp720
g53
(dp721
g80
g81
ssg62
g711
sg55
(lp722
S':'
asbag48
(g69
g50
NtRp723
(dp724
g53
(dp725
sg62
g711
sg55
(lp726
g48
(g49
g50
NtRp727
(dp728
g53
(dp729
g61
I3
ssg62
g723
sg55
(lp730
S''
asbasbasbasbasbasbasbasbasbasbasbag48
(g64
g50
NtRp731
(dp732
g53
(dp733
sg62
g58
sg55
(lp734
g48
(g69
g50
NtRp735
(dp736
g53
(dp737
g73
g74
ssg62
g731
sg55
(lp738
S'env'
p739
asbag48
(g69
g50
NtRp740
(dp741
g53
(dp742
g80
g81
ssg62
g731
sg55
(lp743
S':'
asbag48
(g69
g50
NtRp744
(dp745
g53
(dp746
sg62
g731
sg55
(lp747
g48
(g49
g50
NtRp748
(dp749
g53
(dp750
g61
I5
ssg62
g744
sg55
(lp751
g48
(g57
g50
NtRp752
(dp753
g53
(dp754
g61
I4
ssg62
Nsg55
(lp755
g48
(g64
g50
NtRp756
(dp757
g53
(dp758
sg62
g752
sg55
(lp759
g48
(g69
g50
NtRp760
(dp761
g53
(dp762
g73
g74
ssg62
g756
sg55
(lp763
S'app_folders'
p764
asbag48
(g69
g50
NtRp765
(dp766
g53
(dp767
g80
g81
ssg62
g756
sg55
(lp768
S':'
asbag48
(g69
g50
NtRp769
(dp770
g53
(dp771
sg62
g756
sg55
(lp772
g48
(g49
g50
NtRp773
(dp774
g53
(dp775
g61
I4
ssg62
g769
sg55
(lp776
S"set(['C:\\\\Users\\\\AKSHAY\\\\Desktop\\\\web2py\\\\applications\\\\welcome\\\\', 'C:\\\\Users\\\\AKSHAY\\\\Desktop\\\\web2py\\\\applications\\\\201056161\\\\', 'C:\\\\Users\\\\AKSHAY\\\\Desktop\\\\web2py\\\\applications\\\\examples\\\\', 'C:\\\\Users\\\\AKSHAY\\\\Desktop\\\\web2py\\\\applications\\\\admin\\\\', 'C:\\\\Users\\\\AKSHAY\\\\Desktop\\\\web2py\\\\applications\\\\MusicRepo\\\\'])"
p777
asbasbasbag48
(g64
g50
NtRp778
(dp779
g53
(dp780
sg62
g752
sg55
(lp781
g48
(g69
g50
NtRp782
(dp783
g53
(dp784
g73
g74
ssg62
g778
sg55
(lp785
S'applications_parent'
p786
asbag48
(g69
g50
NtRp787
(dp788
g53
(dp789
g80
g81
ssg62
g778
sg55
(lp790
S':'
asbag48
(g69
g50
NtRp791
(dp792
g53
(dp793
sg62
g778
sg55
(lp794
g48
(g49
g50
NtRp795
(dp796
g53
(dp797
g61
I4
ssg62
g791
sg55
(lp798
S'C:\\Users\\AKSHAY\\Desktop\\web2py'
p799
asbasbasbag48
(g64
g50
NtRp800
(dp801
g53
(dp802
sg62
g752
sg55
(lp803
g48
(g69
g50
NtRp804
(dp805
g53
(dp806
g73
g74
ssg62
g800
sg55
(lp807
S'cmd_args'
p808
asbag48
(g69
g50
NtRp809
(dp810
g53
(dp811
g80
g81
ssg62
g800
sg55
(lp812
S':'
asbag48
(g69
g50
NtRp813
(dp814
g53
(dp815
sg62
g800
sg55
(lp816
g48
(g49
g50
NtRp817
(dp818
g53
(dp819
g61
I4
ssg62
g813
sg55
(lp820
g48
(g57
g50
NtRp821
(dp822
g53
(dp823
g61
I3
ssg62
Nsg55
(lp824
sbasbasbasbag48
(g64
g50
NtRp825
(dp826
g53
(dp827
sg62
g752
sg55
(lp828
g48
(g69
g50
NtRp829
(dp830
g53
(dp831
g73
g74
ssg62
g825
sg55
(lp832
S'cmd_options'
p833
asbag48
(g69
g50
NtRp834
(dp835
g53
(dp836
g80
g81
ssg62
g825
sg55
(lp837
S':'
asbag48
(g69
g50
NtRp838
(dp839
g53
(dp840
sg62
g825
sg55
(lp841
g48
(g49
g50
NtRp842
(dp843
g53
(dp844
g61
I4
ssg62
g838
sg55
(lp845
S"<Values at 0x317dfd0: {'verbose': False, 'ip': '127.0.0.1', 'shutdown_timeout': 5, 'taskbar': False, 'port': 8000, 'maxthreads': None, 'softcron': False, 'server_name': 'AKSHAY-PC', 'bpython': False, 'nogui': False, 'nocron': False, 'extcron': False, 'debuglevel': 30, 'test': None, 'folder': 'C:\\\\Users\\\\AKSHAY\\\\Desktop\\\\web2py', 'config': '', 'import_models': False, 'winservice': '', 'shell': None, 'run': '', 'log_filename': 'httpserver.log', 'args': [''], 'profiler_filename': None, 'ssl_private_key': '', 'password': '<ask>', 'request_queue_size': 5, 'ssl_certificate': '', 'cronjob': False, 'plain': False, 'quiet': False, 'interfaces': None, 'minthreads': None, 'timeout': 10, 'numthreads': None, 'nobanner': False, 'pid_filename': 'httpserver.pid'}>"
p846
asbasbasbag48
(g64
g50
NtRp847
(dp848
g53
(dp849
sg62
g752
sg55
(lp850
g48
(g69
g50
NtRp851
(dp852
g53
(dp853
g73
g74
ssg62
g847
sg55
(lp854
S'db_sessions'
p855
asbag48
(g69
g50
NtRp856
(dp857
g53
(dp858
g80
g81
ssg62
g847
sg55
(lp859
S':'
asbag48
(g69
g50
NtRp860
(dp861
g53
(dp862
sg62
g847
sg55
(lp863
g48
(g49
g50
NtRp864
(dp865
g53
(dp866
g61
I4
ssg62
g860
sg55
(lp867
S'set([])'
p868
asbasbasbag48
(g64
g50
NtRp869
(dp870
g53
(dp871
sg62
g752
sg55
(lp872
g48
(g69
g50
NtRp873
(dp874
g53
(dp875
g73
g74
ssg62
g869
sg55
(lp876
S'debugging'
p877
asbag48
(g69
g50
NtRp878
(dp879
g53
(dp880
g80
g81
ssg62
g869
sg55
(lp881
S':'
asbag48
(g69
g50
NtRp882
(dp883
g53
(dp884
sg62
g869
sg55
(lp885
g48
(g49
g50
NtRp886
(dp887
g53
(dp888
g61
I4
ssg62
g882
sg55
(lp889
g91
asbasbasbag48
(g64
g50
NtRp890
(dp891
g53
(dp892
sg62
g752
sg55
(lp893
g48
(g69
g50
NtRp894
(dp895
g53
(dp896
g73
g74
ssg62
g890
sg55
(lp897
S'gluon_parent'
p898
asbag48
(g69
g50
NtRp899
(dp900
g53
(dp901
g80
g81
ssg62
g890
sg55
(lp902
S':'
asbag48
(g69
g50
NtRp903
(dp904
g53
(dp905
sg62
g890
sg55
(lp906
g48
(g49
g50
NtRp907
(dp908
g53
(dp909
g61
I4
ssg62
g903
sg55
(lp910
S'C:\\Users\\AKSHAY\\Desktop\\web2py'
p911
asbasbasbag48
(g64
g50
NtRp912
(dp913
g53
(dp914
sg62
g752
sg55
(lp915
g48
(g69
g50
NtRp916
(dp917
g53
(dp918
g73
g74
ssg62
g912
sg55
(lp919
S'http_accept'
p920
asbag48
(g69
g50
NtRp921
(dp922
g53
(dp923
g80
g81
ssg62
g912
sg55
(lp924
S':'
asbag48
(g69
g50
NtRp925
(dp926
g53
(dp927
sg62
g912
sg55
(lp928
g48
(g49
g50
NtRp929
(dp930
g53
(dp931
g61
I4
ssg62
g925
sg55
(lp932
S'text/html,application/xhtml+xml,application/xml;q=0.9,*/*;q=0.8'
p933
asbasbasbag48
(g64
g50
NtRp934
(dp935
g53
(dp936
sg62
g752
sg55
(lp937
g48
(g69
g50
NtRp938
(dp939
g53
(dp940
g73
g74
ssg62
g934
sg55
(lp941
S'http_accept_charset'
p942
asbag48
(g69
g50
NtRp943
(dp944
g53
(dp945
g80
g81
ssg62
g934
sg55
(lp946
S':'
asbag48
(g69
g50
NtRp947
(dp948
g53
(dp949
sg62
g934
sg55
(lp950
g48
(g49
g50
NtRp951
(dp952
g53
(dp953
g61
I4
ssg62
g947
sg55
(lp954
S'ISO-8859-1,utf-8;q=0.7,*;q=0.3'
p955
asbasbasbag48
(g64
g50
NtRp956
(dp957
g53
(dp958
sg62
g752
sg55
(lp959
g48
(g69
g50
NtRp960
(dp961
g53
(dp962
g73
g74
ssg62
g956
sg55
(lp963
S'http_accept_encoding'
p964
asbag48
(g69
g50
NtRp965
(dp966
g53
(dp967
g80
g81
ssg62
g956
sg55
(lp968
S':'
asbag48
(g69
g50
NtRp969
(dp970
g53
(dp971
sg62
g956
sg55
(lp972
g48
(g49
g50
NtRp973
(dp974
g53
(dp975
g61
I4
ssg62
g969
sg55
(lp976
S'gzip,deflate,sdch'
p977
asbasbasbag48
(g64
g50
NtRp978
(dp979
g53
(dp980
sg62
g752
sg55
(lp981
g48
(g69
g50
NtRp982
(dp983
g53
(dp984
g73
g74
ssg62
g978
sg55
(lp985
S'http_accept_language'
p986
asbag48
(g69
g50
NtRp987
(dp988
g53
(dp989
g80
g81
ssg62
g978
sg55
(lp990
S':'
asbag48
(g69
g50
NtRp991
(dp992
g53
(dp993
sg62
g978
sg55
(lp994
g48
(g49
g50
NtRp995
(dp996
g53
(dp997
g61
I4
ssg62
g991
sg55
(lp998
S'en-US,en;q=0.8'
p999
asbasbasbag48
(g64
g50
NtRp1000
(dp1001
g53
(dp1002
sg62
g752
sg55
(lp1003
g48
(g69
g50
NtRp1004
(dp1005
g53
(dp1006
g73
g74
ssg62
g1000
sg55
(lp1007
S'http_connection'
p1008
asbag48
(g69
g50
NtRp1009
(dp1010
g53
(dp1011
g80
g81
ssg62
g1000
sg55
(lp1012
S':'
asbag48
(g69
g50
NtRp1013
(dp1014
g53
(dp1015
sg62
g1000
sg55
(lp1016
g48
(g49
g50
NtRp1017
(dp1018
g53
(dp1019
g61
I4
ssg62
g1013
sg55
(lp1020
S'keep-alive'
p1021
asbasbasbag48
(g64
g50
NtRp1022
(dp1023
g53
(dp1024
sg62
g752
sg55
(lp1025
g48
(g69
g50
NtRp1026
(dp1027
g53
(dp1028
g73
g74
ssg62
g1022
sg55
(lp1029
S'http_cookie'
p1030
asbag48
(g69
g50
NtRp1031
(dp1032
g53
(dp1033
g80
g81
ssg62
g1022
sg55
(lp1034
S':'
asbag48
(g69
g50
NtRp1035
(dp1036
g53
(dp1037
sg62
g1022
sg55
(lp1038
g48
(g49
g50
NtRp1039
(dp1040
g53
(dp1041
g61
I4
ssg62
g1035
sg55
(lp1042
S'session_id_welcome=127.0.0.1-59771078-5064-4769-bad5-36c10b98c15f; session_id_admin=127.0.0.1-0f74329a-39f0-47c2-95cf-7f42bb528a7b; session_id_201056161=127.0.0.1-3bc821ac-4d59-41c6-8699-b3e43edfc478'
p1043
asbasbasbag48
(g64
g50
NtRp1044
(dp1045
g53
(dp1046
sg62
g752
sg55
(lp1047
g48
(g69
g50
NtRp1048
(dp1049
g53
(dp1050
g73
g74
ssg62
g1044
sg55
(lp1051
S'http_host'
p1052
asbag48
(g69
g50
NtRp1053
(dp1054
g53
(dp1055
g80
g81
ssg62
g1044
sg55
(lp1056
S':'
asbag48
(g69
g50
NtRp1057
(dp1058
g53
(dp1059
sg62
g1044
sg55
(lp1060
g48
(g49
g50
NtRp1061
(dp1062
g53
(dp1063
g61
I4
ssg62
g1057
sg55
(lp1064
S'127.0.0.1:8000'
p1065
asbasbasbag48
(g64
g50
NtRp1066
(dp1067
g53
(dp1068
sg62
g752
sg55
(lp1069
g48
(g69
g50
NtRp1070
(dp1071
g53
(dp1072
g73
g74
ssg62
g1066
sg55
(lp1073
S'http_referer'
p1074
asbag48
(g69
g50
NtRp1075
(dp1076
g53
(dp1077
g80
g81
ssg62
g1066
sg55
(lp1078
S':'
asbag48
(g69
g50
NtRp1079
(dp1080
g53
(dp1081
sg62
g1066
sg55
(lp1082
g48
(g49
g50
NtRp1083
(dp1084
g53
(dp1085
g61
I4
ssg62
g1079
sg55
(lp1086
S'http://127.0.0.1:8000/201056161/default/newq'
p1087
asbasbasbag48
(g64
g50
NtRp1088
(dp1089
g53
(dp1090
sg62
g752
sg55
(lp1091
g48
(g69
g50
NtRp1092
(dp1093
g53
(dp1094
g73
g74
ssg62
g1088
sg55
(lp1095
S'http_user_agent'
p1096
asbag48
(g69
g50
NtRp1097
(dp1098
g53
(dp1099
g80
g81
ssg62
g1088
sg55
(lp1100
S':'
asbag48
(g69
g50
NtRp1101
(dp1102
g53
(dp1103
sg62
g1088
sg55
(lp1104
g48
(g49
g50
NtRp1105
(dp1106
g53
(dp1107
g61
I4
ssg62
g1101
sg55
(lp1108
S'Mozilla/5.0 (Windows NT 6.1; WOW64) AppleWebKit/535.1 (KHTML, like Gecko) Chrome/13.0.782.218 Safari/535.1'
p1109
asbasbasbag48
(g64
g50
NtRp1110
(dp1111
g53
(dp1112
sg62
g752
sg55
(lp1113
g48
(g69
g50
NtRp1114
(dp1115
g53
(dp1116
g73
g74
ssg62
g1110
sg55
(lp1117
S'path_info'
p1118
asbag48
(g69
g50
NtRp1119
(dp1120
g53
(dp1121
g80
g81
ssg62
g1110
sg55
(lp1122
S':'
asbag48
(g69
g50
NtRp1123
(dp1124
g53
(dp1125
sg62
g1110
sg55
(lp1126
g48
(g49
g50
NtRp1127
(dp1128
g53
(dp1129
g61
I4
ssg62
g1123
sg55
(lp1130
S'/201056161/default/q2f'
p1131
asbasbasbag48
(g64
g50
NtRp1132
(dp1133
g53
(dp1134
sg62
g752
sg55
(lp1135
g48
(g69
g50
NtRp1136
(dp1137
g53
(dp1138
g73
g74
ssg62
g1132
sg55
(lp1139
S'query_string'
p1140
asbag48
(g69
g50
NtRp1141
(dp1142
g53
(dp1143
g80
g81
ssg62
g1132
sg55
(lp1144
S':'
asbag48
(g69
g50
NtRp1145
(dp1146
g53
(dp1147
sg62
g1132
sg55
(lp1148
g48
(g49
g50
NtRp1149
(dp1150
g53
(dp1151
g61
I4
ssg62
g1145
sg55
(lp1152
S''
asbasbasbag48
(g64
g50
NtRp1153
(dp1154
g53
(dp1155
sg62
g752
sg55
(lp1156
g48
(g69
g50
NtRp1157
(dp1158
g53
(dp1159
g73
g74
ssg62
g1153
sg55
(lp1160
S'remote_addr'
p1161
asbag48
(g69
g50
NtRp1162
(dp1163
g53
(dp1164
g80
g81
ssg62
g1153
sg55
(lp1165
S':'
asbag48
(g69
g50
NtRp1166
(dp1167
g53
(dp1168
sg62
g1153
sg55
(lp1169
g48
(g49
g50
NtRp1170
(dp1171
g53
(dp1172
g61
I4
ssg62
g1166
sg55
(lp1173
g181
asbasbasbag48
(g64
g50
NtRp1174
(dp1175
g53
(dp1176
sg62
g752
sg55
(lp1177
g48
(g69
g50
NtRp1178
(dp1179
g53
(dp1180
g73
g74
ssg62
g1174
sg55
(lp1181
S'remote_port'
p1182
asbag48
(g69
g50
NtRp1183
(dp1184
g53
(dp1185
g80
g81
ssg62
g1174
sg55
(lp1186
S':'
asbag48
(g69
g50
NtRp1187
(dp1188
g53
(dp1189
sg62
g1174
sg55
(lp1190
g48
(g49
g50
NtRp1191
(dp1192
g53
(dp1193
g61
I4
ssg62
g1187
sg55
(lp1194
S'51713'
p1195
asbasbasbag48
(g64
g50
NtRp1196
(dp1197
g53
(dp1198
sg62
g752
sg55
(lp1199
g48
(g69
g50
NtRp1200
(dp1201
g53
(dp1202
g73
g74
ssg62
g1196
sg55
(lp1203
S'request_method'
p1204
asbag48
(g69
g50
NtRp1205
(dp1206
g53
(dp1207
g80
g81
ssg62
g1196
sg55
(lp1208
S':'
asbag48
(g69
g50
NtRp1209
(dp1210
g53
(dp1211
sg62
g1196
sg55
(lp1212
g48
(g49
g50
NtRp1213
(dp1214
g53
(dp1215
g61
I4
ssg62
g1209
sg55
(lp1216
S'GET'
p1217
asbasbasbag48
(g64
g50
NtRp1218
(dp1219
g53
(dp1220
sg62
g752
sg55
(lp1221
g48
(g69
g50
NtRp1222
(dp1223
g53
(dp1224
g73
g74
ssg62
g1218
sg55
(lp1225
S'script_name'
p1226
asbag48
(g69
g50
NtRp1227
(dp1228
g53
(dp1229
g80
g81
ssg62
g1218
sg55
(lp1230
S':'
asbag48
(g69
g50
NtRp1231
(dp1232
g53
(dp1233
sg62
g1218
sg55
(lp1234
g48
(g49
g50
NtRp1235
(dp1236
g53
(dp1237
g61
I4
ssg62
g1231
sg55
(lp1238
S''
asbasbasbag48
(g64
g50
NtRp1239
(dp1240
g53
(dp1241
sg62
g752
sg55
(lp1242
g48
(g69
g50
NtRp1243
(dp1244
g53
(dp1245
g73
g74
ssg62
g1239
sg55
(lp1246
S'server_name'
p1247
asbag48
(g69
g50
NtRp1248
(dp1249
g53
(dp1250
g80
g81
ssg62
g1239
sg55
(lp1251
S':'
asbag48
(g69
g50
NtRp1252
(dp1253
g53
(dp1254
sg62
g1239
sg55
(lp1255
g48
(g49
g50
NtRp1256
(dp1257
g53
(dp1258
g61
I4
ssg62
g1252
sg55
(lp1259
S'AKSHAY-PC'
p1260
asbasbasbag48
(g64
g50
NtRp1261
(dp1262
g53
(dp1263
sg62
g752
sg55
(lp1264
g48
(g69
g50
NtRp1265
(dp1266
g53
(dp1267
g73
g74
ssg62
g1261
sg55
(lp1268
S'server_port'
p1269
asbag48
(g69
g50
NtRp1270
(dp1271
g53
(dp1272
g80
g81
ssg62
g1261
sg55
(lp1273
S':'
asbag48
(g69
g50
NtRp1274
(dp1275
g53
(dp1276
sg62
g1261
sg55
(lp1277
g48
(g49
g50
NtRp1278
(dp1279
g53
(dp1280
g61
I4
ssg62
g1274
sg55
(lp1281
S'8000'
p1282
asbasbasbag48
(g64
g50
NtRp1283
(dp1284
g53
(dp1285
sg62
g752
sg55
(lp1286
g48
(g69
g50
NtRp1287
(dp1288
g53
(dp1289
g73
g74
ssg62
g1283
sg55
(lp1290
S'server_protocol'
p1291
asbag48
(g69
g50
NtRp1292
(dp1293
g53
(dp1294
g80
g81
ssg62
g1283
sg55
(lp1295
S':'
asbag48
(g69
g50
NtRp1296
(dp1297
g53
(dp1298
sg62
g1283
sg55
(lp1299
g48
(g49
g50
NtRp1300
(dp1301
g53
(dp1302
g61
I4
ssg62
g1296
sg55
(lp1303
S'HTTP/1.1'
p1304
asbasbasbag48
(g64
g50
NtRp1305
(dp1306
g53
(dp1307
sg62
g752
sg55
(lp1308
g48
(g69
g50
NtRp1309
(dp1310
g53
(dp1311
g73
g74
ssg62
g1305
sg55
(lp1312
S'server_software'
p1313
asbag48
(g69
g50
NtRp1314
(dp1315
g53
(dp1316
g80
g81
ssg62
g1305
sg55
(lp1317
S':'
asbag48
(g69
g50
NtRp1318
(dp1319
g53
(dp1320
sg62
g1305
sg55
(lp1321
g48
(g49
g50
NtRp1322
(dp1323
g53
(dp1324
g61
I4
ssg62
g1318
sg55
(lp1325
S'Rocket 1.2.2'
p1326
asbasbasbag48
(g64
g50
NtRp1327
(dp1328
g53
(dp1329
sg62
g752
sg55
(lp1330
g48
(g69
g50
NtRp1331
(dp1332
g53
(dp1333
g73
g74
ssg62
g1327
sg55
(lp1334
S'web2py_crontype'
p1335
asbag48
(g69
g50
NtRp1336
(dp1337
g53
(dp1338
g80
g81
ssg62
g1327
sg55
(lp1339
S':'
asbag48
(g69
g50
NtRp1340
(dp1341
g53
(dp1342
sg62
g1327
sg55
(lp1343
g48
(g49
g50
NtRp1344
(dp1345
g53
(dp1346
g61
I4
ssg62
g1340
sg55
(lp1347
S'hard'
p1348
asbasbasbag48
(g64
g50
NtRp1349
(dp1350
g53
(dp1351
sg62
g752
sg55
(lp1352
g48
(g69
g50
NtRp1353
(dp1354
g53
(dp1355
g73
g74
ssg62
g1349
sg55
(lp1356
S'web2py_path'
p1357
asbag48
(g69
g50
NtRp1358
(dp1359
g53
(dp1360
g80
g81
ssg62
g1349
sg55
(lp1361
S':'
asbag48
(g69
g50
NtRp1362
(dp1363
g53
(dp1364
sg62
g1349
sg55
(lp1365
g48
(g49
g50
NtRp1366
(dp1367
g53
(dp1368
g61
I4
ssg62
g1362
sg55
(lp1369
g799
asbasbasbag48
(g64
g50
NtRp1370
(dp1371
g53
(dp1372
sg62
g752
sg55
(lp1373
g48
(g69
g50
NtRp1374
(dp1375
g53
(dp1376
g73
g74
ssg62
g1370
sg55
(lp1377
S'web2py_version'
p1378
asbag48
(g69
g50
NtRp1379
(dp1380
g53
(dp1381
g80
g81
ssg62
g1370
sg55
(lp1382
S':'
asbag48
(g69
g50
NtRp1383
(dp1384
g53
(dp1385
sg62
g1370
sg55
(lp1386
g48
(g49
g50
NtRp1387
(dp1388
g53
(dp1389
g61
I4
ssg62
g1383
sg55
(lp1390
S'Version 1.97.1 (2011-06-26 19:25:44)\n'
p1391
asbasbasbag48
(g64
g50
NtRp1392
(dp1393
g53
(dp1394
sg62
g752
sg55
(lp1395
g48
(g69
g50
NtRp1396
(dp1397
g53
(dp1398
g73
g74
ssg62
g1392
sg55
(lp1399
S'wsgi_errors'
p1400
asbag48
(g69
g50
NtRp1401
(dp1402
g53
(dp1403
g80
g81
ssg62
g1392
sg55
(lp1404
S':'
asbag48
(g69
g50
NtRp1405
(dp1406
g53
(dp1407
sg62
g1392
sg55
(lp1408
g48
(g49
g50
NtRp1409
(dp1410
g53
(dp1411
g61
I4
ssg62
g1405
sg55
(lp1412
S"<open file '<stderr>', mode 'w' at 0x002500B0>"
p1413
asbasbasbag48
(g64
g50
NtRp1414
(dp1415
g53
(dp1416
sg62
g752
sg55
(lp1417
g48
(g69
g50
NtRp1418
(dp1419
g53
(dp1420
g73
g74
ssg62
g1414
sg55
(lp1421
S'wsgi_file_wrapper'
p1422
asbag48
(g69
g50
NtRp1423
(dp1424
g53
(dp1425
g80
g81
ssg62
g1414
sg55
(lp1426
S':'
asbag48
(g69
g50
NtRp1427
(dp1428
g53
(dp1429
sg62
g1414
sg55
(lp1430
g48
(g49
g50
NtRp1431
(dp1432
g53
(dp1433
g61
I4
ssg62
g1427
sg55
(lp1434
S'<class gluon.rocket.FileWrapper at 0x03132BA0>'
p1435
asbasbasbag48
(g64
g50
NtRp1436
(dp1437
g53
(dp1438
sg62
g752
sg55
(lp1439
g48
(g69
g50
NtRp1440
(dp1441
g53
(dp1442
g73
g74
ssg62
g1436
sg55
(lp1443
S'wsgi_input'
p1444
asbag48
(g69
g50
NtRp1445
(dp1446
g53
(dp1447
g80
g81
ssg62
g1436
sg55
(lp1448
S':'
asbag48
(g69
g50
NtRp1449
(dp1450
g53
(dp1451
sg62
g1436
sg55
(lp1452
g48
(g49
g50
NtRp1453
(dp1454
g53
(dp1455
g61
I4
ssg62
g1449
sg55
(lp1456
S'<socket._fileobject object at 0x06BD6430>'
p1457
asbasbasbag48
(g64
g50
NtRp1458
(dp1459
g53
(dp1460
sg62
g752
sg55
(lp1461
g48
(g69
g50
NtRp1462
(dp1463
g53
(dp1464
g73
g74
ssg62
g1458
sg55
(lp1465
S'wsgi_multiprocess'
p1466
asbag48
(g69
g50
NtRp1467
(dp1468
g53
(dp1469
g80
g81
ssg62
g1458
sg55
(lp1470
S':'
asbag48
(g69
g50
NtRp1471
(dp1472
g53
(dp1473
sg62
g1458
sg55
(lp1474
g48
(g49
g50
NtRp1475
(dp1476
g53
(dp1477
g61
I4
ssg62
g1471
sg55
(lp1478
g91
asbasbasbag48
(g64
g50
NtRp1479
(dp1480
g53
(dp1481
sg62
g752
sg55
(lp1482
g48
(g69
g50
NtRp1483
(dp1484
g53
(dp1485
g73
g74
ssg62
g1479
sg55
(lp1486
S'wsgi_multithread'
p1487
asbag48
(g69
g50
NtRp1488
(dp1489
g53
(dp1490
g80
g81
ssg62
g1479
sg55
(lp1491
S':'
asbag48
(g69
g50
NtRp1492
(dp1493
g53
(dp1494
sg62
g1479
sg55
(lp1495
g48
(g49
g50
NtRp1496
(dp1497
g53
(dp1498
g61
I4
ssg62
g1492
sg55
(lp1499
S'True'
p1500
asbasbasbag48
(g64
g50
NtRp1501
(dp1502
g53
(dp1503
sg62
g752
sg55
(lp1504
g48
(g69
g50
NtRp1505
(dp1506
g53
(dp1507
g73
g74
ssg62
g1501
sg55
(lp1508
S'wsgi_run_once'
p1509
asbag48
(g69
g50
NtRp1510
(dp1511
g53
(dp1512
g80
g81
ssg62
g1501
sg55
(lp1513
S':'
asbag48
(g69
g50
NtRp1514
(dp1515
g53
(dp1516
sg62
g1501
sg55
(lp1517
g48
(g49
g50
NtRp1518
(dp1519
g53
(dp1520
g61
I4
ssg62
g1514
sg55
(lp1521
g91
asbasbasbag48
(g64
g50
NtRp1522
(dp1523
g53
(dp1524
sg62
g752
sg55
(lp1525
g48
(g69
g50
NtRp1526
(dp1527
g53
(dp1528
g73
g74
ssg62
g1522
sg55
(lp1529
S'wsgi_url_scheme'
p1530
asbag48
(g69
g50
NtRp1531
(dp1532
g53
(dp1533
g80
g81
ssg62
g1522
sg55
(lp1534
S':'
asbag48
(g69
g50
NtRp1535
(dp1536
g53
(dp1537
sg62
g1522
sg55
(lp1538
g48
(g49
g50
NtRp1539
(dp1540
g53
(dp1541
g61
I4
ssg62
g1535
sg55
(lp1542
S'http'
p1543
asbasbasbag48
(g64
g50
NtRp1544
(dp1545
g53
(dp1546
sg62
g752
sg55
(lp1547
g48
(g69
g50
NtRp1548
(dp1549
g53
(dp1550
g73
g74
ssg62
g1544
sg55
(lp1551
S'wsgi_version'
p1552
asbag48
(g69
g50
NtRp1553
(dp1554
g53
(dp1555
g80
g81
ssg62
g1544
sg55
(lp1556
S':'
asbag48
(g69
g50
NtRp1557
(dp1558
g53
(dp1559
sg62
g1544
sg55
(lp1560
g48
(g49
g50
NtRp1561
(dp1562
g53
(dp1563
g61
I4
ssg62
g1557
sg55
(lp1564
g48
(g57
g50
NtRp1565
(dp1566
g53
(dp1567
g61
I3
ssg62
Nsg55
(lp1568
g48
(g64
g50
NtRp1569
(dp1570
g53
(dp1571
sg62
g1565
sg55
(lp1572
g48
(g69
g50
NtRp1573
(dp1574
g53
(dp1575
sg62
g1569
sg55
(lp1576
g48
(g49
g50
NtRp1577
(dp1578
g53
(dp1579
g61
I3
ssg62
g1573
sg55
(lp1580
S'1'
asbasbasbag48
(g64
g50
NtRp1581
(dp1582
g53
(dp1583
sg62
g1565
sg55
(lp1584
g48
(g69
g50
NtRp1585
(dp1586
g53
(dp1587
sg62
g1581
sg55
(lp1588
g48
(g49
g50
NtRp1589
(dp1590
g53
(dp1591
g61
I3
ssg62
g1585
sg55
(lp1592
S'0'
asbasbasbasbasbasbasbasbasbasbasbag48
(g64
g50
NtRp1593
(dp1594
g53
(dp1595
sg62
g58
sg55
(lp1596
g48
(g69
g50
NtRp1597
(dp1598
g53
(dp1599
g73
g74
ssg62
g1593
sg55
(lp1600
S'extension'
p1601
asbag48
(g69
g50
NtRp1602
(dp1603
g53
(dp1604
g80
g81
ssg62
g1593
sg55
(lp1605
S':'
asbag48
(g69
g50
NtRp1606
(dp1607
g53
(dp1608
sg62
g1593
sg55
(lp1609
g48
(g49
g50
NtRp1610
(dp1611
g53
(dp1612
g61
I5
ssg62
g1606
sg55
(lp1613
S'html'
p1614
asbasbasbag48
(g64
g50
NtRp1615
(dp1616
g53
(dp1617
sg62
g58
sg55
(lp1618
g48
(g69
g50
NtRp1619
(dp1620
g53
(dp1621
g73
g74
ssg62
g1615
sg55
(lp1622
S'folder'
p1623
asbag48
(g69
g50
NtRp1624
(dp1625
g53
(dp1626
g80
g81
ssg62
g1615
sg55
(lp1627
S':'
asbag48
(g69
g50
NtRp1628
(dp1629
g53
(dp1630
sg62
g1615
sg55
(lp1631
g48
(g49
g50
NtRp1632
(dp1633
g53
(dp1634
g61
I5
ssg62
g1628
sg55
(lp1635
S'C:\\Users\\AKSHAY\\Desktop\\web2py\\applications\\201056161\\'
p1636
asbasbasbag48
(g64
g50
NtRp1637
(dp1638
g53
(dp1639
sg62
g58
sg55
(lp1640
g48
(g69
g50
NtRp1641
(dp1642
g53
(dp1643
g73
g74
ssg62
g1637
sg55
(lp1644
S'function'
p1645
asbag48
(g69
g50
NtRp1646
(dp1647
g53
(dp1648
g80
g81
ssg62
g1637
sg55
(lp1649
S':'
asbag48
(g69
g50
NtRp1650
(dp1651
g53
(dp1652
sg62
g1637
sg55
(lp1653
g48
(g49
g50
NtRp1654
(dp1655
g53
(dp1656
g61
I5
ssg62
g1650
sg55
(lp1657
S'q2f'
p1658
asbasbasbag48
(g64
g50
NtRp1659
(dp1660
g53
(dp1661
sg62
g58
sg55
(lp1662
g48
(g69
g50
NtRp1663
(dp1664
g53
(dp1665
g73
g74
ssg62
g1659
sg55
(lp1666
S'get_vars'
p1667
asbag48
(g69
g50
NtRp1668
(dp1669
g53
(dp1670
g80
g81
ssg62
g1659
sg55
(lp1671
S':'
asbag48
(g69
g50
NtRp1672
(dp1673
g53
(dp1674
sg62
g1659
sg55
(lp1675
g48
(g49
g50
NtRp1676
(dp1677
g53
(dp1678
g61
I5
ssg62
g1672
sg55
(lp1679
g48
(g57
g50
NtRp1680
(dp1681
g53
(dp1682
g61
I4
ssg62
Nsg55
(lp1683
sbasbasbasbag48
(g64
g50
NtRp1684
(dp1685
g53
(dp1686
sg62
g58
sg55
(lp1687
g48
(g69
g50
NtRp1688
(dp1689
g53
(dp1690
g73
g74
ssg62
g1684
sg55
(lp1691
S'is_https'
p1692
asbag48
(g69
g50
NtRp1693
(dp1694
g53
(dp1695
g80
g81
ssg62
g1684
sg55
(lp1696
S':'
asbag48
(g69
g50
NtRp1697
(dp1698
g53
(dp1699
sg62
g1684
sg55
(lp1700
g48
(g49
g50
NtRp1701
(dp1702
g53
(dp1703
g61
I5
ssg62
g1697
sg55
(lp1704
g91
asbasbasbag48
(g64
g50
NtRp1705
(dp1706
g53
(dp1707
sg62
g58
sg55
(lp1708
g48
(g69
g50
NtRp1709
(dp1710
g53
(dp1711
g73
g74
ssg62
g1705
sg55
(lp1712
S'is_local'
p1713
asbag48
(g69
g50
NtRp1714
(dp1715
g53
(dp1716
g80
g81
ssg62
g1705
sg55
(lp1717
S':'
asbag48
(g69
g50
NtRp1718
(dp1719
g53
(dp1720
sg62
g1705
sg55
(lp1721
g48
(g49
g50
NtRp1722
(dp1723
g53
(dp1724
g61
I5
ssg62
g1718
sg55
(lp1725
g1500
asbasbasbag48
(g64
g50
NtRp1726
(dp1727
g53
(dp1728
sg62
g58
sg55
(lp1729
g48
(g69
g50
NtRp1730
(dp1731
g53
(dp1732
g73
g74
ssg62
g1726
sg55
(lp1733
S'is_restful'
p1734
asbag48
(g69
g50
NtRp1735
(dp1736
g53
(dp1737
g80
g81
ssg62
g1726
sg55
(lp1738
S':'
asbag48
(g69
g50
NtRp1739
(dp1740
g53
(dp1741
sg62
g1726
sg55
(lp1742
g48
(g49
g50
NtRp1743
(dp1744
g53
(dp1745
g61
I5
ssg62
g1739
sg55
(lp1746
g91
asbasbasbag48
(g64
g50
NtRp1747
(dp1748
g53
(dp1749
sg62
g58
sg55
(lp1750
g48
(g69
g50
NtRp1751
(dp1752
g53
(dp1753
g73
g74
ssg62
g1747
sg55
(lp1754
S'now'
p1755
asbag48
(g69
g50
NtRp1756
(dp1757
g53
(dp1758
g80
g81
ssg62
g1747
sg55
(lp1759
S':'
asbag48
(g69
g50
NtRp1760
(dp1761
g53
(dp1762
sg62
g1747
sg55
(lp1763
g48
(g49
g50
NtRp1764
(dp1765
g53
(dp1766
g61
I5
ssg62
g1760
sg55
(lp1767
S'datetime.datetime(2011, 9, 7, 3, 10, 40, 827000)'
p1768
asbasbasbag48
(g64
g50
NtRp1769
(dp1770
g53
(dp1771
sg62
g58
sg55
(lp1772
g48
(g69
g50
NtRp1773
(dp1774
g53
(dp1775
g73
g74
ssg62
g1769
sg55
(lp1776
S'post_vars'
p1777
asbag48
(g69
g50
NtRp1778
(dp1779
g53
(dp1780
g80
g81
ssg62
g1769
sg55
(lp1781
S':'
asbag48
(g69
g50
NtRp1782
(dp1783
g53
(dp1784
sg62
g1769
sg55
(lp1785
g48
(g49
g50
NtRp1786
(dp1787
g53
(dp1788
g61
I5
ssg62
g1782
sg55
(lp1789
g48
(g57
g50
NtRp1790
(dp1791
g53
(dp1792
g61
I4
ssg62
Nsg55
(lp1793
sbasbasbasbag48
(g64
g50
NtRp1794
(dp1795
g53
(dp1796
sg62
g58
sg55
(lp1797
g48
(g69
g50
NtRp1798
(dp1799
g53
(dp1800
g73
g74
ssg62
g1794
sg55
(lp1801
S'url'
p1802
asbag48
(g69
g50
NtRp1803
(dp1804
g53
(dp1805
g80
g81
ssg62
g1794
sg55
(lp1806
S':'
asbag48
(g69
g50
NtRp1807
(dp1808
g53
(dp1809
sg62
g1794
sg55
(lp1810
g48
(g49
g50
NtRp1811
(dp1812
g53
(dp1813
g61
I5
ssg62
g1807
sg55
(lp1814
S'/201056161/default/q2f'
p1815
asbasbasbag48
(g64
g50
NtRp1816
(dp1817
g53
(dp1818
sg62
g58
sg55
(lp1819
g48
(g69
g50
NtRp1820
(dp1821
g53
(dp1822
g73
g74
ssg62
g1816
sg55
(lp1823
S'uuid'
p1824
asbag48
(g69
g50
NtRp1825
(dp1826
g53
(dp1827
g80
g81
ssg62
g1816
sg55
(lp1828
S':'
asbag48
(g69
g50
NtRp1829
(dp1830
g53
(dp1831
sg62
g1816
sg55
(lp1832
g48
(g49
g50
NtRp1833
(dp1834
g53
(dp1835
g61
I5
ssg62
g1829
sg55
(lp1836
S'201056161/127.0.0.1.2011-09-07.03-10-40.38cbe3a8-7572-4cc0-8d05-24f86f1bcc60'
p1837
asbasbasbag48
(g64
g50
NtRp1838
(dp1839
g53
(dp1840
sg62
g58
sg55
(lp1841
g48
(g69
g50
NtRp1842
(dp1843
g53
(dp1844
g73
g74
ssg62
g1838
sg55
(lp1845
S'vars'
p1846
asbag48
(g69
g50
NtRp1847
(dp1848
g53
(dp1849
g80
g81
ssg62
g1838
sg55
(lp1850
S':'
asbag48
(g69
g50
NtRp1851
(dp1852
g53
(dp1853
sg62
g1838
sg55
(lp1854
g48
(g49
g50
NtRp1855
(dp1856
g53
(dp1857
g61
I5
ssg62
g1851
sg55
(lp1858
g48
(g57
g50
NtRp1859
(dp1860
g53
(dp1861
g61
I4
ssg62
Nsg55
(lp1862
sbasbasbasbag48
(g64
g50
NtRp1863
(dp1864
g53
(dp1865
sg62
g58
sg55
(lp1866
g48
(g69
g50
NtRp1867
(dp1868
g53
(dp1869
g73
g74
ssg62
g1863
sg55
(lp1870
S'wsgi'
p1871
asbag48
(g69
g50
NtRp1872
(dp1873
g53
(dp1874
g80
g81
ssg62
g1863
sg55
(lp1875
S':'
asbag48
(g69
g50
NtRp1876
(dp1877
g53
(dp1878
sg62
g1863
sg55
(lp1879
g48
(g49
g50
NtRp1880
(dp1881
g53
(dp1882
g61
I5
ssg62
g1876
sg55
(lp1883
g48
(g57
g50
NtRp1884
(dp1885
g53
(dp1886
g61
I4
ssg62
Nsg55
(lp1887
g48
(g64
g50
NtRp1888
(dp1889
g53
(dp1890
sg62
g1884
sg55
(lp1891
g48
(g69
g50
NtRp1892
(dp1893
g53
(dp1894
g73
g74
ssg62
g1888
sg55
(lp1895
S'environ'
p1896
asbag48
(g69
g50
NtRp1897
(dp1898
g53
(dp1899
g80
g81
ssg62
g1888
sg55
(lp1900
S':'
asbag48
(g69
g50
NtRp1901
(dp1902
g53
(dp1903
sg62
g1888
sg55
(lp1904
g48
(g49
g50
NtRp1905
(dp1906
g53
(dp1907
g61
I4
ssg62
g1901
sg55
(lp1908
g48
(g57
g50
NtRp1909
(dp1910
g53
(dp1911
g61
I3
ssg62
Nsg55
(lp1912
g48
(g64
g50
NtRp1913
(dp1914
g53
(dp1915
sg62
g1909
sg55
(lp1916
g48
(g69
g50
NtRp1917
(dp1918
g53
(dp1919
g73
g74
ssg62
g1913
sg55
(lp1920
S'HTTP_ACCEPT'
p1921
asbag48
(g69
g50
NtRp1922
(dp1923
g53
(dp1924
g80
g81
ssg62
g1913
sg55
(lp1925
S':'
asbag48
(g69
g50
NtRp1926
(dp1927
g53
(dp1928
sg62
g1913
sg55
(lp1929
g48
(g49
g50
NtRp1930
(dp1931
g53
(dp1932
g61
I3
ssg62
g1926
sg55
(lp1933
g933
asbasbasbag48
(g64
g50
NtRp1934
(dp1935
g53
(dp1936
sg62
g1909
sg55
(lp1937
g48
(g69
g50
NtRp1938
(dp1939
g53
(dp1940
g73
g74
ssg62
g1934
sg55
(lp1941
S'HTTP_ACCEPT_CHARSET'
p1942
asbag48
(g69
g50
NtRp1943
(dp1944
g53
(dp1945
g80
g81
ssg62
g1934
sg55
(lp1946
S':'
asbag48
(g69
g50
NtRp1947
(dp1948
g53
(dp1949
sg62
g1934
sg55
(lp1950
g48
(g49
g50
NtRp1951
(dp1952
g53
(dp1953
g61
I3
ssg62
g1947
sg55
(lp1954
g955
asbasbasbag48
(g64
g50
NtRp1955
(dp1956
g53
(dp1957
sg62
g1909
sg55
(lp1958
g48
(g69
g50
NtRp1959
(dp1960
g53
(dp1961
g73
g74
ssg62
g1955
sg55
(lp1962
S'HTTP_ACCEPT_ENCODING'
p1963
asbag48
(g69
g50
NtRp1964
(dp1965
g53
(dp1966
g80
g81
ssg62
g1955
sg55
(lp1967
S':'
asbag48
(g69
g50
NtRp1968
(dp1969
g53
(dp1970
sg62
g1955
sg55
(lp1971
g48
(g49
g50
NtRp1972
(dp1973
g53
(dp1974
g61
I3
ssg62
g1968
sg55
(lp1975
g977
asbasbasbag48
(g64
g50
NtRp1976
(dp1977
g53
(dp1978
sg62
g1909
sg55
(lp1979
g48
(g69
g50
NtRp1980
(dp1981
g53
(dp1982
g73
g74
ssg62
g1976
sg55
(lp1983
S'HTTP_ACCEPT_LANGUAGE'
p1984
asbag48
(g69
g50
NtRp1985
(dp1986
g53
(dp1987
g80
g81
ssg62
g1976
sg55
(lp1988
S':'
asbag48
(g69
g50
NtRp1989
(dp1990
g53
(dp1991
sg62
g1976
sg55
(lp1992
g48
(g49
g50
NtRp1993
(dp1994
g53
(dp1995
g61
I3
ssg62
g1989
sg55
(lp1996
g999
asbasbasbag48
(g64
g50
NtRp1997
(dp1998
g53
(dp1999
sg62
g1909
sg55
(lp2000
g48
(g69
g50
NtRp2001
(dp2002
g53
(dp2003
g73
g74
ssg62
g1997
sg55
(lp2004
S'HTTP_CONNECTION'
p2005
asbag48
(g69
g50
NtRp2006
(dp2007
g53
(dp2008
g80
g81
ssg62
g1997
sg55
(lp2009
S':'
asbag48
(g69
g50
NtRp2010
(dp2011
g53
(dp2012
sg62
g1997
sg55
(lp2013
g48
(g49
g50
NtRp2014
(dp2015
g53
(dp2016
g61
I3
ssg62
g2010
sg55
(lp2017
g1021
asbasbasbag48
(g64
g50
NtRp2018
(dp2019
g53
(dp2020
sg62
g1909
sg55
(lp2021
g48
(g69
g50
NtRp2022
(dp2023
g53
(dp2024
g73
g74
ssg62
g2018
sg55
(lp2025
S'HTTP_COOKIE'
p2026
asbag48
(g69
g50
NtRp2027
(dp2028
g53
(dp2029
g80
g81
ssg62
g2018
sg55
(lp2030
S':'
asbag48
(g69
g50
NtRp2031
(dp2032
g53
(dp2033
sg62
g2018
sg55
(lp2034
g48
(g49
g50
NtRp2035
(dp2036
g53
(dp2037
g61
I3
ssg62
g2031
sg55
(lp2038
g1043
asbasbasbag48
(g64
g50
NtRp2039
(dp2040
g53
(dp2041
sg62
g1909
sg55
(lp2042
g48
(g69
g50
NtRp2043
(dp2044
g53
(dp2045
g73
g74
ssg62
g2039
sg55
(lp2046
S'HTTP_HOST'
p2047
asbag48
(g69
g50
NtRp2048
(dp2049
g53
(dp2050
g80
g81
ssg62
g2039
sg55
(lp2051
S':'
asbag48
(g69
g50
NtRp2052
(dp2053
g53
(dp2054
sg62
g2039
sg55
(lp2055
g48
(g49
g50
NtRp2056
(dp2057
g53
(dp2058
g61
I3
ssg62
g2052
sg55
(lp2059
g1065
asbasbasbag48
(g64
g50
NtRp2060
(dp2061
g53
(dp2062
sg62
g1909
sg55
(lp2063
g48
(g69
g50
NtRp2064
(dp2065
g53
(dp2066
g73
g74
ssg62
g2060
sg55
(lp2067
S'HTTP_REFERER'
p2068
asbag48
(g69
g50
NtRp2069
(dp2070
g53
(dp2071
g80
g81
ssg62
g2060
sg55
(lp2072
S':'
asbag48
(g69
g50
NtRp2073
(dp2074
g53
(dp2075
sg62
g2060
sg55
(lp2076
g48
(g49
g50
NtRp2077
(dp2078
g53
(dp2079
g61
I3
ssg62
g2073
sg55
(lp2080
g1087
asbasbasbag48
(g64
g50
NtRp2081
(dp2082
g53
(dp2083
sg62
g1909
sg55
(lp2084
g48
(g69
g50
NtRp2085
(dp2086
g53
(dp2087
g73
g74
ssg62
g2081
sg55
(lp2088
S'HTTP_USER_AGENT'
p2089
asbag48
(g69
g50
NtRp2090
(dp2091
g53
(dp2092
g80
g81
ssg62
g2081
sg55
(lp2093
S':'
asbag48
(g69
g50
NtRp2094
(dp2095
g53
(dp2096
sg62
g2081
sg55
(lp2097
g48
(g49
g50
NtRp2098
(dp2099
g53
(dp2100
g61
I3
ssg62
g2094
sg55
(lp2101
g1109
asbasbasbag48
(g64
g50
NtRp2102
(dp2103
g53
(dp2104
sg62
g1909
sg55
(lp2105
g48
(g69
g50
NtRp2106
(dp2107
g53
(dp2108
g73
g74
ssg62
g2102
sg55
(lp2109
S'PATH_INFO'
p2110
asbag48
(g69
g50
NtRp2111
(dp2112
g53
(dp2113
g80
g81
ssg62
g2102
sg55
(lp2114
S':'
asbag48
(g69
g50
NtRp2115
(dp2116
g53
(dp2117
sg62
g2102
sg55
(lp2118
g48
(g49
g50
NtRp2119
(dp2120
g53
(dp2121
g61
I3
ssg62
g2115
sg55
(lp2122
g1131
asbasbasbag48
(g64
g50
NtRp2123
(dp2124
g53
(dp2125
sg62
g1909
sg55
(lp2126
g48
(g69
g50
NtRp2127
(dp2128
g53
(dp2129
g73
g74
ssg62
g2123
sg55
(lp2130
S'QUERY_STRING'
p2131
asbag48
(g69
g50
NtRp2132
(dp2133
g53
(dp2134
g80
g81
ssg62
g2123
sg55
(lp2135
S':'
asbag48
(g69
g50
NtRp2136
(dp2137
g53
(dp2138
sg62
g2123
sg55
(lp2139
g48
(g49
g50
NtRp2140
(dp2141
g53
(dp2142
g61
I3
ssg62
g2136
sg55
(lp2143
S''
asbasbasbag48
(g64
g50
NtRp2144
(dp2145
g53
(dp2146
sg62
g1909
sg55
(lp2147
g48
(g69
g50
NtRp2148
(dp2149
g53
(dp2150
g73
g74
ssg62
g2144
sg55
(lp2151
S'REMOTE_ADDR'
p2152
asbag48
(g69
g50
NtRp2153
(dp2154
g53
(dp2155
g80
g81
ssg62
g2144
sg55
(lp2156
S':'
asbag48
(g69
g50
NtRp2157
(dp2158
g53
(dp2159
sg62
g2144
sg55
(lp2160
g48
(g49
g50
NtRp2161
(dp2162
g53
(dp2163
g61
I3
ssg62
g2157
sg55
(lp2164
g181
asbasbasbag48
(g64
g50
NtRp2165
(dp2166
g53
(dp2167
sg62
g1909
sg55
(lp2168
g48
(g69
g50
NtRp2169
(dp2170
g53
(dp2171
g73
g74
ssg62
g2165
sg55
(lp2172
S'REMOTE_PORT'
p2173
asbag48
(g69
g50
NtRp2174
(dp2175
g53
(dp2176
g80
g81
ssg62
g2165
sg55
(lp2177
S':'
asbag48
(g69
g50
NtRp2178
(dp2179
g53
(dp2180
sg62
g2165
sg55
(lp2181
g48
(g49
g50
NtRp2182
(dp2183
g53
(dp2184
g61
I3
ssg62
g2178
sg55
(lp2185
g1195
asbasbasbag48
(g64
g50
NtRp2186
(dp2187
g53
(dp2188
sg62
g1909
sg55
(lp2189
g48
(g69
g50
NtRp2190
(dp2191
g53
(dp2192
g73
g74
ssg62
g2186
sg55
(lp2193
S'REQUEST_METHOD'
p2194
asbag48
(g69
g50
NtRp2195
(dp2196
g53
(dp2197
g80
g81
ssg62
g2186
sg55
(lp2198
S':'
asbag48
(g69
g50
NtRp2199
(dp2200
g53
(dp2201
sg62
g2186
sg55
(lp2202
g48
(g49
g50
NtRp2203
(dp2204
g53
(dp2205
g61
I3
ssg62
g2199
sg55
(lp2206
g1217
asbasbasbag48
(g64
g50
NtRp2207
(dp2208
g53
(dp2209
sg62
g1909
sg55
(lp2210
g48
(g69
g50
NtRp2211
(dp2212
g53
(dp2213
g73
g74
ssg62
g2207
sg55
(lp2214
S'SCRIPT_NAME'
p2215
asbag48
(g69
g50
NtRp2216
(dp2217
g53
(dp2218
g80
g81
ssg62
g2207
sg55
(lp2219
S':'
asbag48
(g69
g50
NtRp2220
(dp2221
g53
(dp2222
sg62
g2207
sg55
(lp2223
g48
(g49
g50
NtRp2224
(dp2225
g53
(dp2226
g61
I3
ssg62
g2220
sg55
(lp2227
S''
asbasbasbag48
(g64
g50
NtRp2228
(dp2229
g53
(dp2230
sg62
g1909
sg55
(lp2231
g48
(g69
g50
NtRp2232
(dp2233
g53
(dp2234
g73
g74
ssg62
g2228
sg55
(lp2235
S'SERVER_NAME'
p2236
asbag48
(g69
g50
NtRp2237
(dp2238
g53
(dp2239
g80
g81
ssg62
g2228
sg55
(lp2240
S':'
asbag48
(g69
g50
NtRp2241
(dp2242
g53
(dp2243
sg62
g2228
sg55
(lp2244
g48
(g49
g50
NtRp2245
(dp2246
g53
(dp2247
g61
I3
ssg62
g2241
sg55
(lp2248
g1260
asbasbasbag48
(g64
g50
NtRp2249
(dp2250
g53
(dp2251
sg62
g1909
sg55
(lp2252
g48
(g69
g50
NtRp2253
(dp2254
g53
(dp2255
g73
g74
ssg62
g2249
sg55
(lp2256
S'SERVER_PORT'
p2257
asbag48
(g69
g50
NtRp2258
(dp2259
g53
(dp2260
g80
g81
ssg62
g2249
sg55
(lp2261
S':'
asbag48
(g69
g50
NtRp2262
(dp2263
g53
(dp2264
sg62
g2249
sg55
(lp2265
g48
(g49
g50
NtRp2266
(dp2267
g53
(dp2268
g61
I3
ssg62
g2262
sg55
(lp2269
g1282
asbasbasbag48
(g64
g50
NtRp2270
(dp2271
g53
(dp2272
sg62
g1909
sg55
(lp2273
g48
(g69
g50
NtRp2274
(dp2275
g53
(dp2276
g73
g74
ssg62
g2270
sg55
(lp2277
S'SERVER_PROTOCOL'
p2278
asbag48
(g69
g50
NtRp2279
(dp2280
g53
(dp2281
g80
g81
ssg62
g2270
sg55
(lp2282
S':'
asbag48
(g69
g50
NtRp2283
(dp2284
g53
(dp2285
sg62
g2270
sg55
(lp2286
g48
(g49
g50
NtRp2287
(dp2288
g53
(dp2289
g61
I3
ssg62
g2283
sg55
(lp2290
g1304
asbasbasbag48
(g64
g50
NtRp2291
(dp2292
g53
(dp2293
sg62
g1909
sg55
(lp2294
g48
(g69
g50
NtRp2295
(dp2296
g53
(dp2297
g73
g74
ssg62
g2291
sg55
(lp2298
S'SERVER_SOFTWARE'
p2299
asbag48
(g69
g50
NtRp2300
(dp2301
g53
(dp2302
g80
g81
ssg62
g2291
sg55
(lp2303
S':'
asbag48
(g69
g50
NtRp2304
(dp2305
g53
(dp2306
sg62
g2291
sg55
(lp2307
g48
(g49
g50
NtRp2308
(dp2309
g53
(dp2310
g61
I3
ssg62
g2304
sg55
(lp2311
g1326
asbasbasbag48
(g64
g50
NtRp2312
(dp2313
g53
(dp2314
sg62
g1909
sg55
(lp2315
g48
(g69
g50
NtRp2316
(dp2317
g53
(dp2318
g73
g74
ssg62
g2312
sg55
(lp2319
S'wsgi.errors'
p2320
asbag48
(g69
g50
NtRp2321
(dp2322
g53
(dp2323
g80
g81
ssg62
g2312
sg55
(lp2324
S':'
asbag48
(g69
g50
NtRp2325
(dp2326
g53
(dp2327
sg62
g2312
sg55
(lp2328
g48
(g49
g50
NtRp2329
(dp2330
g53
(dp2331
g61
I3
ssg62
g2325
sg55
(lp2332
S"<open file '<stderr>', mode 'w' at 0x002500B0>"
p2333
asbasbasbag48
(g64
g50
NtRp2334
(dp2335
g53
(dp2336
sg62
g1909
sg55
(lp2337
g48
(g69
g50
NtRp2338
(dp2339
g53
(dp2340
g73
g74
ssg62
g2334
sg55
(lp2341
S'wsgi.file_wrapper'
p2342
asbag48
(g69
g50
NtRp2343
(dp2344
g53
(dp2345
g80
g81
ssg62
g2334
sg55
(lp2346
S':'
asbag48
(g69
g50
NtRp2347
(dp2348
g53
(dp2349
sg62
g2334
sg55
(lp2350
g48
(g49
g50
NtRp2351
(dp2352
g53
(dp2353
g61
I3
ssg62
g2347
sg55
(lp2354
S'<class gluon.rocket.FileWrapper at 0x03132BA0>'
p2355
asbasbasbag48
(g64
g50
NtRp2356
(dp2357
g53
(dp2358
sg62
g1909
sg55
(lp2359
g48
(g69
g50
NtRp2360
(dp2361
g53
(dp2362
g73
g74
ssg62
g2356
sg55
(lp2363
S'wsgi.input'
p2364
asbag48
(g69
g50
NtRp2365
(dp2366
g53
(dp2367
g80
g81
ssg62
g2356
sg55
(lp2368
S':'
asbag48
(g69
g50
NtRp2369
(dp2370
g53
(dp2371
sg62
g2356
sg55
(lp2372
g48
(g49
g50
NtRp2373
(dp2374
g53
(dp2375
g61
I3
ssg62
g2369
sg55
(lp2376
S'<cStringIO.StringO object at 0x06BC4D00>'
p2377
asbasbasbag48
(g64
g50
NtRp2378
(dp2379
g53
(dp2380
sg62
g1909
sg55
(lp2381
g48
(g69
g50
NtRp2382
(dp2383
g53
(dp2384
g73
g74
ssg62
g2378
sg55
(lp2385
S'wsgi.multiprocess'
p2386
asbag48
(g69
g50
NtRp2387
(dp2388
g53
(dp2389
g80
g81
ssg62
g2378
sg55
(lp2390
S':'
asbag48
(g69
g50
NtRp2391
(dp2392
g53
(dp2393
sg62
g2378
sg55
(lp2394
g48
(g49
g50
NtRp2395
(dp2396
g53
(dp2397
g61
I3
ssg62
g2391
sg55
(lp2398
g91
asbasbasbag48
(g64
g50
NtRp2399
(dp2400
g53
(dp2401
sg62
g1909
sg55
(lp2402
g48
(g69
g50
NtRp2403
(dp2404
g53
(dp2405
g73
g74
ssg62
g2399
sg55
(lp2406
S'wsgi.multithread'
p2407
asbag48
(g69
g50
NtRp2408
(dp2409
g53
(dp2410
g80
g81
ssg62
g2399
sg55
(lp2411
S':'
asbag48
(g69
g50
NtRp2412
(dp2413
g53
(dp2414
sg62
g2399
sg55
(lp2415
g48
(g49
g50
NtRp2416
(dp2417
g53
(dp2418
g61
I3
ssg62
g2412
sg55
(lp2419
g1500
asbasbasbag48
(g64
g50
NtRp2420
(dp2421
g53
(dp2422
sg62
g1909
sg55
(lp2423
g48
(g69
g50
NtRp2424
(dp2425
g53
(dp2426
g73
g74
ssg62
g2420
sg55
(lp2427
S'wsgi.run_once'
p2428
asbag48
(g69
g50
NtRp2429
(dp2430
g53
(dp2431
g80
g81
ssg62
g2420
sg55
(lp2432
S':'
asbag48
(g69
g50
NtRp2433
(dp2434
g53
(dp2435
sg62
g2420
sg55
(lp2436
g48
(g49
g50
NtRp2437
(dp2438
g53
(dp2439
g61
I3
ssg62
g2433
sg55
(lp2440
g91
asbasbasbag48
(g64
g50
NtRp2441
(dp2442
g53
(dp2443
sg62
g1909
sg55
(lp2444
g48
(g69
g50
NtRp2445
(dp2446
g53
(dp2447
g73
g74
ssg62
g2441
sg55
(lp2448
S'wsgi.url_scheme'
p2449
asbag48
(g69
g50
NtRp2450
(dp2451
g53
(dp2452
g80
g81
ssg62
g2441
sg55
(lp2453
S':'
asbag48
(g69
g50
NtRp2454
(dp2455
g53
(dp2456
sg62
g2441
sg55
(lp2457
g48
(g49
g50
NtRp2458
(dp2459
g53
(dp2460
g61
I3
ssg62
g2454
sg55
(lp2461
g1543
asbasbasbag48
(g64
g50
NtRp2462
(dp2463
g53
(dp2464
sg62
g1909
sg55
(lp2465
g48
(g69
g50
NtRp2466
(dp2467
g53
(dp2468
g73
g74
ssg62
g2462
sg55
(lp2469
S'wsgi.version'
p2470
asbag48
(g69
g50
NtRp2471
(dp2472
g53
(dp2473
g80
g81
ssg62
g2462
sg55
(lp2474
S':'
asbag48
(g69
g50
NtRp2475
(dp2476
g53
(dp2477
sg62
g2462
sg55
(lp2478
g48
(g49
g50
NtRp2479
(dp2480
g53
(dp2481
g61
I3
ssg62
g2475
sg55
(lp2482
S'1'
asbasbasbasbasbasbasbasbasbasbasbasbasbsS'frames'
p2483
(lp2484
(dp2485
S'file'
p2486
S'C:\\Users\\AKSHAY\\Desktop\\web2py\\gluon\\restricted.py'
p2487
sS'dump'
p2488
(dp2489
sS'lnum'
p2490
I192
sS'lines'
p2491
(dp2492
sS'call'
p2493
S"(code='# -*- coding: utf-8 -*-\\n# this file is released ...urn dict()\\n\\nresponse._vars=response._caller(q2f)\\n', environment={'A': <class 'gluon.html.A'>, 'Auth': <class 'gluon.tools.Auth'>, 'B': <class 'gluon.html.B'>, 'BEAUTIFY': <class 'gluon.html.BEAUTIFY'>, 'BODY': <class 'gluon.html.BODY'>, 'BR': <class 'gluon.html.BR'>, 'BUTTON': <class 'gluon.html.BUTTON'>, 'CENTER': <class 'gluon.html.CENTER'>, 'CLEANUP': <class 'gluon.validators.CLEANUP'>, 'CODE': <class 'gluon.html.CODE'>, ...}, layer=r'C:\\Users\\AKSHAY\\Desktop\\web2py\\applications\\201056161\\controllers/default.py')"
p2494
sS'func'
p2495
S'restricted'
p2496
sa(dp2497
g2486
S'C:\\Users\\AKSHAY\\Desktop\\web2py\\applications\\201056161\\controllers\\default.py'
p2498
sg2488
(dp2499
sg2490
I152
sg2491
(dp2500
I141
S'def insong():'
p2501
sI142
S'  form = SQLFORM(db.song)'
p2502
sI143
S'  if form.accepts(request.vars,session):'
p2503
sI144
S"      #redirect(URL(r=request, f='student_details?rollno=%d' % form.vars.rollno))"
p2504
sI145
S"      response.flash='New Song Record Inserted'"
p2505
sI146
S'  elif form.errors:'
p2506
sI147
S"      response.flash='Errors in form'"
p2507
sI148
S'  return dict(form=form)'
p2508
sI149
S'def newq():'
p2509
sI150
S'  return dict()'
p2510
ssg2493
S'()'
p2511
sg2495
S'<module>'
p2512
sa(dp2513
g2486
S'C:\\Users\\AKSHAY\\Desktop\\web2py\\gluon\\globals.py'
p2514
sg2488
(dp2515
sg2490
I137
sg2491
(dp2516
sg2493
S'(f=<function q2f at 0x06C2CA30>)'
p2517
sg2495
S'<lambda>'
p2518
sa(dp2519
g2486
S'C:\\Users\\AKSHAY\\Desktop\\web2py\\applications\\201056161\\controllers\\default.py'
p2520
sg2488
(dp2521
sg2490
I85
sg2491
(dp2522
I80
S'    if count==2:'
p2523
sI81
S'      snames=str(row.artist_name)'
p2524
sI82
S'  rows1=db(db.song.singer is snames).select(db.song.name)"""'
p2525
sI83
S'  return dict(rows=rows)'
p2526
sI84
S'def q2f():'
p2527
sI85
S"  form = SQLFORM.factory(db.Field('namen',db.artist,requires=IS_IN_DB(db,'artist.id','artist.id(artist.artist_name)'),label='Select artist name'))"
p2528
sI86
S'  if form.accepts(request.vars,session):'
p2529
sI87
S"    redirect(URL(r=request, f='q2s?namen='+form.vars.namen))"
p2530
sI88
S'  elif form.errors:'
p2531
sI89
S"    response.flash='Errors in form Please re-enter'"
p2532
ssg2493
S'()'
p2533
sg2495
S'q2f'
p2534
sa(dp2535
g2486
S'C:\\Users\\AKSHAY\\Desktop\\web2py\\gluon\\sqlhtml.py'
p2536
sg2488
(dp2537
sg2490
I1226
sg2491
(dp2538
sg2493
S'(*fields=(<gluon.dal.Field object at 0x06C25150>,), **attributes={})'
p2539
sg2495
S'factory'
p2540
sa(dp2541
g2486
S'C:\\Users\\AKSHAY\\Desktop\\web2py\\gluon\\sqlhtml.py'
p2542
sg2488
(dp2543
sg2490
I817
sg2491
(dp2544
sg2493
S"(self=<gluon.sqlhtml.SQLFORM object at 0x06C25A10>, table=<Table {'ALL': <gluon.dal.SQLALL object at 0x06C...>, 'id': <gluon.dal.Field object at 0x06C25990>}>, record=None, deletable=False, linkto=None, upload=None, fields=['id', 'namen'], labels=None, col3={}, submit_button='Submit', delete_label='Check to delete:', showid=True, readonly=False, comments=True, keepopts=[], ignore_rw=False, record_id=None, formstyle='table3cols', buttons=['submit'], **attributes={})"
p2545
sg2495
g41
sa(dp2546
g2486
S'C:\\Users\\AKSHAY\\Desktop\\web2py\\gluon\\sqlhtml.py'
p2547
sg2488
(dp2548
sg2490
I206
sg2491
(dp2549
sg2493
S'(field=<gluon.dal.Field object at 0x06C25150>, value=None, **attributes={})'
p2550
sg2495
S'widget'
p2551
sa(dp2552
g2486
S'C:\\Users\\AKSHAY\\Desktop\\web2py\\gluon\\validators.py'
p2553
sg2488
(dp2554
sg2490
I438
sg2491
(dp2555
sg2493
S'(self=<gluon.validators.IS_IN_DB object at 0x06C25310>)'
p2556
sg2495
S'options'
p2557
sa(dp2558
g2486
S'C:\\Users\\AKSHAY\\Desktop\\web2py\\gluon\\validators.py'
p2559
sg2488
(dp2560
sg2490
I433
sg2491
(dp2561
sg2493
S'(self=<gluon.validators.IS_IN_DB object at 0x06C25310>)'
p2562
sg2495
S'build_set'
p2563
sasS'pyver'
p2564
S'Python 2.5.4: C:\\Users\\AKSHAY\\Desktop\\web2py\\web2py.exe'
p2565
sS'session'
p2566
g48
(g49
g50
NtRp2567
(dp2568
g53
(dp2569
sg55
(lp2570
g48
(g57
g50
NtRp2571
(dp2572
g53
(dp2573
g61
I5
ssg62
Nsg55
(lp2574
g48
(g64
g50
NtRp2575
(dp2576
g53
(dp2577
sg62
g2571
sg55
(lp2578
g48
(g69
g50
NtRp2579
(dp2580
g53
(dp2581
g73
g74
ssg62
g2575
sg55
(lp2582
S'last_query'
p2583
asbag48
(g69
g50
NtRp2584
(dp2585
g53
(dp2586
g80
g81
ssg62
g2575
sg55
(lp2587
S':'
asbag48
(g69
g50
NtRp2588
(dp2589
g53
(dp2590
sg62
g2575
sg55
(lp2591
g48
(g49
g50
NtRp2592
(dp2593
g53
(dp2594
g61
I5
ssg62
g2588
sg55
(lp2595
S'db.song.id>0'
p2596
asbasbasbasbasbsS'etype'
p2597
S"<type 'exceptions.KeyError'>"
p2598
sS'date'
p2599
S'Wed Sep 07 03:10:40 2011'
p2600
sS'response'
p2601
g48
(g49
g50
NtRp2602
(dp2603
g53
(dp2604
sg55
(lp2605
g48
(g57
g50
NtRp2606
(dp2607
g53
(dp2608
g61
I5
ssg62
Nsg55
(lp2609
g48
(g64
g50
NtRp2610
(dp2611
g53
(dp2612
sg62
g2606
sg55
(lp2613
g48
(g69
g50
NtRp2614
(dp2615
g53
(dp2616
g73
g74
ssg62
g2610
sg55
(lp2617
g146
asbag48
(g69
g50
NtRp2618
(dp2619
g53
(dp2620
g80
g81
ssg62
g2610
sg55
(lp2621
S':'
asbag48
(g69
g50
NtRp2622
(dp2623
g53
(dp2624
sg62
g2610
sg55
(lp2625
g48
(g49
g50
NtRp2626
(dp2627
g53
(dp2628
g61
I5
ssg62
g2622
sg55
(lp2629
S'<cStringIO.StringO object at 0x06CE7720>'
p2630
asbasbasbag48
(g64
g50
NtRp2631
(dp2632
g53
(dp2633
sg62
g2606
sg55
(lp2634
g48
(g69
g50
NtRp2635
(dp2636
g53
(dp2637
g73
g74
ssg62
g2631
sg55
(lp2638
g212
asbag48
(g69
g50
NtRp2639
(dp2640
g53
(dp2641
g80
g81
ssg62
g2631
sg55
(lp2642
S':'
asbag48
(g69
g50
NtRp2643
(dp2644
g53
(dp2645
sg62
g2631
sg55
(lp2646
g48
(g49
g50
NtRp2647
(dp2648
g53
(dp2649
g61
I5
ssg62
g2643
sg55
(lp2650
g48
(g57
g50
NtRp2651
(dp2652
g53
(dp2653
g61
I4
ssg62
Nsg55
(lp2654
g48
(g64
g50
NtRp2655
(dp2656
g53
(dp2657
sg62
g2651
sg55
(lp2658
g48
(g69
g50
NtRp2659
(dp2660
g53
(dp2661
g73
g74
ssg62
g2655
sg55
(lp2662
S'session_id_201056161'
p2663
asbag48
(g69
g50
NtRp2664
(dp2665
g53
(dp2666
g80
g81
ssg62
g2655
sg55
(lp2667
S':'
asbag48
(g69
g50
NtRp2668
(dp2669
g53
(dp2670
sg62
g2655
sg55
(lp2671
g48
(g49
g50
NtRp2672
(dp2673
g53
(dp2674
g61
I4
ssg62
g2668
sg55
(lp2675
g48
(g57
g50
NtRp2676
(dp2677
g53
(dp2678
g61
I3
ssg62
Nsg55
(lp2679
g48
(g64
g50
NtRp2680
(dp2681
g53
(dp2682
sg62
g2676
sg55
(lp2683
g48
(g69
g50
NtRp2684
(dp2685
g53
(dp2686
g73
g74
ssg62
g2680
sg55
(lp2687
g262
asbag48
(g69
g50
NtRp2688
(dp2689
g53
(dp2690
g80
g81
ssg62
g2680
sg55
(lp2691
S':'
asbag48
(g69
g50
NtRp2692
(dp2693
g53
(dp2694
sg62
g2680
sg55
(lp2695
g48
(g49
g50
NtRp2696
(dp2697
g53
(dp2698
g61
I3
ssg62
g2692
sg55
(lp2699
S''
asbasbasbag48
(g64
g50
NtRp2700
(dp2701
g53
(dp2702
sg62
g2676
sg55
(lp2703
g48
(g69
g50
NtRp2704
(dp2705
g53
(dp2706
g73
g74
ssg62
g2700
sg55
(lp2707
g283
asbag48
(g69
g50
NtRp2708
(dp2709
g53
(dp2710
g80
g81
ssg62
g2700
sg55
(lp2711
S':'
asbag48
(g69
g50
NtRp2712
(dp2713
g53
(dp2714
sg62
g2700
sg55
(lp2715
g48
(g49
g50
NtRp2716
(dp2717
g53
(dp2718
g61
I3
ssg62
g2712
sg55
(lp2719
S''
asbasbasbag48
(g64
g50
NtRp2720
(dp2721
g53
(dp2722
sg62
g2676
sg55
(lp2723
g48
(g69
g50
NtRp2724
(dp2725
g53
(dp2726
g73
g74
ssg62
g2720
sg55
(lp2727
g304
asbag48
(g69
g50
NtRp2728
(dp2729
g53
(dp2730
g80
g81
ssg62
g2720
sg55
(lp2731
S':'
asbag48
(g69
g50
NtRp2732
(dp2733
g53
(dp2734
sg62
g2720
sg55
(lp2735
g48
(g49
g50
NtRp2736
(dp2737
g53
(dp2738
g61
I3
ssg62
g2732
sg55
(lp2739
S''
asbasbasbag48
(g64
g50
NtRp2740
(dp2741
g53
(dp2742
sg62
g2676
sg55
(lp2743
g48
(g69
g50
NtRp2744
(dp2745
g53
(dp2746
g73
g74
ssg62
g2740
sg55
(lp2747
g325
asbag48
(g69
g50
NtRp2748
(dp2749
g53
(dp2750
g80
g81
ssg62
g2740
sg55
(lp2751
S':'
asbag48
(g69
g50
NtRp2752
(dp2753
g53
(dp2754
sg62
g2740
sg55
(lp2755
g48
(g49
g50
NtRp2756
(dp2757
g53
(dp2758
g61
I3
ssg62
g2752
sg55
(lp2759
S''
asbasbasbag48
(g64
g50
NtRp2760
(dp2761
g53
(dp2762
sg62
g2676
sg55
(lp2763
g48
(g69
g50
NtRp2764
(dp2765
g53
(dp2766
g73
g74
ssg62
g2760
sg55
(lp2767
g346
asbag48
(g69
g50
NtRp2768
(dp2769
g53
(dp2770
g80
g81
ssg62
g2760
sg55
(lp2771
S':'
asbag48
(g69
g50
NtRp2772
(dp2773
g53
(dp2774
sg62
g2760
sg55
(lp2775
g48
(g49
g50
NtRp2776
(dp2777
g53
(dp2778
g61
I3
ssg62
g2772
sg55
(lp2779
S'/'
asbasbasbag48
(g64
g50
NtRp2780
(dp2781
g53
(dp2782
sg62
g2676
sg55
(lp2783
g48
(g69
g50
NtRp2784
(dp2785
g53
(dp2786
g73
g74
ssg62
g2780
sg55
(lp2787
g367
asbag48
(g69
g50
NtRp2788
(dp2789
g53
(dp2790
g80
g81
ssg62
g2780
sg55
(lp2791
S':'
asbag48
(g69
g50
NtRp2792
(dp2793
g53
(dp2794
sg62
g2780
sg55
(lp2795
g48
(g49
g50
NtRp2796
(dp2797
g53
(dp2798
g61
I3
ssg62
g2792
sg55
(lp2799
S''
asbasbasbag48
(g64
g50
NtRp2800
(dp2801
g53
(dp2802
sg62
g2676
sg55
(lp2803
g48
(g69
g50
NtRp2804
(dp2805
g53
(dp2806
g73
g74
ssg62
g2800
sg55
(lp2807
g388
asbag48
(g69
g50
NtRp2808
(dp2809
g53
(dp2810
g80
g81
ssg62
g2800
sg55
(lp2811
S':'
asbag48
(g69
g50
NtRp2812
(dp2813
g53
(dp2814
sg62
g2800
sg55
(lp2815
g48
(g49
g50
NtRp2816
(dp2817
g53
(dp2818
g61
I3
ssg62
g2812
sg55
(lp2819
S''
asbasbasbasbasbasbasbasbasbasbasbag48
(g64
g50
NtRp2820
(dp2821
g53
(dp2822
sg62
g2606
sg55
(lp2823
g48
(g69
g50
NtRp2824
(dp2825
g53
(dp2826
g73
g74
ssg62
g2820
sg55
(lp2827
S'files'
p2828
asbag48
(g69
g50
NtRp2829
(dp2830
g53
(dp2831
g80
g81
ssg62
g2820
sg55
(lp2832
S':'
asbag48
(g69
g50
NtRp2833
(dp2834
g53
(dp2835
sg62
g2820
sg55
(lp2836
g48
(g49
g50
NtRp2837
(dp2838
g53
(dp2839
g61
I5
ssg62
g2833
sg55
(lp2840
g48
(g57
g50
NtRp2841
(dp2842
g53
(dp2843
g61
I4
ssg62
Nsg55
(lp2844
sbasbasbasbag48
(g64
g50
NtRp2845
(dp2846
g53
(dp2847
sg62
g2606
sg55
(lp2848
g48
(g69
g50
NtRp2849
(dp2850
g53
(dp2851
g73
g74
ssg62
g2845
sg55
(lp2852
S'flash'
p2853
asbag48
(g69
g50
NtRp2854
(dp2855
g53
(dp2856
g80
g81
ssg62
g2845
sg55
(lp2857
S':'
asbag48
(g69
g50
NtRp2858
(dp2859
g53
(dp2860
sg62
g2845
sg55
(lp2861
g48
(g49
g50
NtRp2862
(dp2863
g53
(dp2864
g61
I5
ssg62
g2858
sg55
(lp2865
S''
asbasbasbag48
(g64
g50
NtRp2866
(dp2867
g53
(dp2868
sg62
g2606
sg55
(lp2869
g48
(g69
g50
NtRp2870
(dp2871
g53
(dp2872
g73
g74
ssg62
g2866
sg55
(lp2873
S'generic_patterns'
p2874
asbag48
(g69
g50
NtRp2875
(dp2876
g53
(dp2877
g80
g81
ssg62
g2866
sg55
(lp2878
S':'
asbag48
(g69
g50
NtRp2879
(dp2880
g53
(dp2881
sg62
g2866
sg55
(lp2882
g48
(g49
g50
NtRp2883
(dp2884
g53
(dp2885
g61
I5
ssg62
g2879
sg55
(lp2886
g48
(g57
g50
NtRp2887
(dp2888
g53
(dp2889
g61
I4
ssg62
Nsg55
(lp2890
g48
(g64
g50
NtRp2891
(dp2892
g53
(dp2893
sg62
g2887
sg55
(lp2894
g48
(g69
g50
NtRp2895
(dp2896
g53
(dp2897
sg62
g2891
sg55
(lp2898
g48
(g49
g50
NtRp2899
(dp2900
g53
(dp2901
g61
I4
ssg62
g2895
sg55
(lp2902
S'*'
asbasbasbasbasbasbasbag48
(g64
g50
NtRp2903
(dp2904
g53
(dp2905
sg62
g2606
sg55
(lp2906
g48
(g69
g50
NtRp2907
(dp2908
g53
(dp2909
g73
g74
ssg62
g2903
sg55
(lp2910
S'headers'
p2911
asbag48
(g69
g50
NtRp2912
(dp2913
g53
(dp2914
g80
g81
ssg62
g2903
sg55
(lp2915
S':'
asbag48
(g69
g50
NtRp2916
(dp2917
g53
(dp2918
sg62
g2903
sg55
(lp2919
g48
(g49
g50
NtRp2920
(dp2921
g53
(dp2922
g61
I5
ssg62
g2916
sg55
(lp2923
g48
(g57
g50
NtRp2924
(dp2925
g53
(dp2926
g61
I4
ssg62
Nsg55
(lp2927
g48
(g64
g50
NtRp2928
(dp2929
g53
(dp2930
sg62
g2924
sg55
(lp2931
g48
(g69
g50
NtRp2932
(dp2933
g53
(dp2934
g73
g74
ssg62
g2928
sg55
(lp2935
S'Cache-Control'
p2936
asbag48
(g69
g50
NtRp2937
(dp2938
g53
(dp2939
g80
g81
ssg62
g2928
sg55
(lp2940
S':'
asbag48
(g69
g50
NtRp2941
(dp2942
g53
(dp2943
sg62
g2928
sg55
(lp2944
g48
(g49
g50
NtRp2945
(dp2946
g53
(dp2947
g61
I4
ssg62
g2941
sg55
(lp2948
S'no-store, no-cache, must-revalidate, post-check=0, pre-check=0'
p2949
asbasbasbag48
(g64
g50
NtRp2950
(dp2951
g53
(dp2952
sg62
g2924
sg55
(lp2953
g48
(g69
g50
NtRp2954
(dp2955
g53
(dp2956
g73
g74
ssg62
g2950
sg55
(lp2957
S'Content-Type'
p2958
asbag48
(g69
g50
NtRp2959
(dp2960
g53
(dp2961
g80
g81
ssg62
g2950
sg55
(lp2962
S':'
asbag48
(g69
g50
NtRp2963
(dp2964
g53
(dp2965
sg62
g2950
sg55
(lp2966
g48
(g49
g50
NtRp2967
(dp2968
g53
(dp2969
g61
I4
ssg62
g2963
sg55
(lp2970
S'text/html; charset=utf-8'
p2971
asbasbasbag48
(g64
g50
NtRp2972
(dp2973
g53
(dp2974
sg62
g2924
sg55
(lp2975
g48
(g69
g50
NtRp2976
(dp2977
g53
(dp2978
g73
g74
ssg62
g2972
sg55
(lp2979
S'Expires'
p2980
asbag48
(g69
g50
NtRp2981
(dp2982
g53
(dp2983
g80
g81
ssg62
g2972
sg55
(lp2984
S':'
asbag48
(g69
g50
NtRp2985
(dp2986
g53
(dp2987
sg62
g2972
sg55
(lp2988
g48
(g49
g50
NtRp2989
(dp2990
g53
(dp2991
g61
I4
ssg62
g2985
sg55
(lp2992
S'Tue, 06 Sep 2011 21:40:40 GMT'
p2993
asbasbasbag48
(g64
g50
NtRp2994
(dp2995
g53
(dp2996
sg62
g2924
sg55
(lp2997
g48
(g69
g50
NtRp2998
(dp2999
g53
(dp3000
g73
g74
ssg62
g2994
sg55
(lp3001
S'Pragma'
p3002
asbag48
(g69
g50
NtRp3003
(dp3004
g53
(dp3005
g80
g81
ssg62
g2994
sg55
(lp3006
S':'
asbag48
(g69
g50
NtRp3007
(dp3008
g53
(dp3009
sg62
g2994
sg55
(lp3010
g48
(g49
g50
NtRp3011
(dp3012
g53
(dp3013
g61
I4
ssg62
g3007
sg55
(lp3014
S'no-cache'
p3015
asbasbasbag48
(g64
g50
NtRp3016
(dp3017
g53
(dp3018
sg62
g2924
sg55
(lp3019
g48
(g69
g50
NtRp3020
(dp3021
g53
(dp3022
g73
g74
ssg62
g3016
sg55
(lp3023
S'X-Powered-By'
p3024
asbag48
(g69
g50
NtRp3025
(dp3026
g53
(dp3027
g80
g81
ssg62
g3016
sg55
(lp3028
S':'
asbag48
(g69
g50
NtRp3029
(dp3030
g53
(dp3031
sg62
g3016
sg55
(lp3032
g48
(g49
g50
NtRp3033
(dp3034
g53
(dp3035
g61
I4
ssg62
g3029
sg55
(lp3036
S'web2py'
p3037
asbasbasbasbasbasbasbag48
(g64
g50
NtRp3038
(dp3039
g53
(dp3040
sg62
g2606
sg55
(lp3041
g48
(g69
g50
NtRp3042
(dp3043
g53
(dp3044
g73
g74
ssg62
g3038
sg55
(lp3045
S'menu'
p3046
asbag48
(g69
g50
NtRp3047
(dp3048
g53
(dp3049
g80
g81
ssg62
g3038
sg55
(lp3050
S':'
asbag48
(g69
g50
NtRp3051
(dp3052
g53
(dp3053
sg62
g3038
sg55
(lp3054
g48
(g49
g50
NtRp3055
(dp3056
g53
(dp3057
g61
I5
ssg62
g3051
sg55
(lp3058
g48
(g57
g50
NtRp3059
(dp3060
g53
(dp3061
g61
I4
ssg62
Nsg55
(lp3062
g48
(g64
g50
NtRp3063
(dp3064
g53
(dp3065
sg62
g3059
sg55
(lp3066
g48
(g69
g50
NtRp3067
(dp3068
g53
(dp3069
sg62
g3063
sg55
(lp3070
g48
(g49
g50
NtRp3071
(dp3072
g53
(dp3073
g61
I4
ssg62
g3067
sg55
(lp3074
g48
(g57
g50
NtRp3075
(dp3076
g53
(dp3077
g61
I3
ssg62
Nsg55
(lp3078
g48
(g64
g50
NtRp3079
(dp3080
g53
(dp3081
sg62
g3075
sg55
(lp3082
g48
(g69
g50
NtRp3083
(dp3084
g53
(dp3085
sg62
g3079
sg55
(lp3086
g48
(g49
g50
NtRp3087
(dp3088
g53
(dp3089
g61
I3
ssg62
g3083
sg55
(lp3090
cgluon.languages
lazyT_unpickle
p3091
(S's\x04\x00\x00\x00Home'
tRp3092
asbasbasbag48
(g64
g50
NtRp3093
(dp3094
g53
(dp3095
sg62
g3075
sg55
(lp3096
g48
(g69
g50
NtRp3097
(dp3098
g53
(dp3099
sg62
g3093
sg55
(lp3100
g48
(g49
g50
NtRp3101
(dp3102
g53
(dp3103
g61
I3
ssg62
g3097
sg55
(lp3104
g91
asbasbasbag48
(g64
g50
NtRp3105
(dp3106
g53
(dp3107
sg62
g3075
sg55
(lp3108
g48
(g69
g50
NtRp3109
(dp3110
g53
(dp3111
sg62
g3105
sg55
(lp3112
g48
(g49
g50
NtRp3113
(dp3114
g53
(dp3115
g61
I3
ssg62
g3109
sg55
(lp3116
S'/201056161/default/index'
p3117
asbasbasbag48
(g64
g50
NtRp3118
(dp3119
g53
(dp3120
sg62
g3075
sg55
(lp3121
g48
(g69
g50
NtRp3122
(dp3123
g53
(dp3124
sg62
g3118
sg55
(lp3125
g48
(g49
g50
NtRp3126
(dp3127
g53
(dp3128
g61
I3
ssg62
g3122
sg55
(lp3129
g48
(g57
g50
NtRp3130
(dp3131
g53
(dp3132
g61
I2
ssg62
Nsg55
(lp3133
sbasbasbasbasbasbasbasbag48
(g64
g50
NtRp3134
(dp3135
g53
(dp3136
sg62
g3059
sg55
(lp3137
g48
(g69
g50
NtRp3138
(dp3139
g53
(dp3140
sg62
g3134
sg55
(lp3141
g48
(g49
g50
NtRp3142
(dp3143
g53
(dp3144
g61
I4
ssg62
g3138
sg55
(lp3145
g48
(g57
g50
NtRp3146
(dp3147
g53
(dp3148
g61
I3
ssg62
Nsg55
(lp3149
g48
(g64
g50
NtRp3150
(dp3151
g53
(dp3152
sg62
g3146
sg55
(lp3153
g48
(g69
g50
NtRp3154
(dp3155
g53
(dp3156
sg62
g3150
sg55
(lp3157
g48
(g49
g50
NtRp3158
(dp3159
g53
(dp3160
g61
I3
ssg62
g3154
sg55
(lp3161
g3091
(S's\x08\x00\x00\x00This App'
tRp3162
asbasbasbag48
(g64
g50
NtRp3163
(dp3164
g53
(dp3165
sg62
g3146
sg55
(lp3166
g48
(g69
g50
NtRp3167
(dp3168
g53
(dp3169
sg62
g3163
sg55
(lp3170
g48
(g49
g50
NtRp3171
(dp3172
g53
(dp3173
g61
I3
ssg62
g3167
sg55
(lp3174
g91
asbasbasbag48
(g64
g50
NtRp3175
(dp3176
g53
(dp3177
sg62
g3146
sg55
(lp3178
g48
(g69
g50
NtRp3179
(dp3180
g53
(dp3181
sg62
g3175
sg55
(lp3182
g48
(g49
g50
NtRp3183
(dp3184
g53
(dp3185
g61
I3
ssg62
g3179
sg55
(lp3186
S'/admin/default/design/201056161'
p3187
asbasbasbag48
(g64
g50
NtRp3188
(dp3189
g53
(dp3190
sg62
g3146
sg55
(lp3191
g48
(g69
g50
NtRp3192
(dp3193
g53
(dp3194
sg62
g3188
sg55
(lp3195
g48
(g49
g50
NtRp3196
(dp3197
g53
(dp3198
g61
I3
ssg62
g3192
sg55
(lp3199
g48
(g57
g50
NtRp3200
(dp3201
g53
(dp3202
g61
I2
ssg62
Nsg55
(lp3203
g48
(g64
g50
NtRp3204
(dp3205
g53
(dp3206
sg62
g3200
sg55
(lp3207
g48
(g69
g50
NtRp3208
(dp3209
g53
(dp3210
sg62
g3204
sg55
(lp3211
g48
(g49
g50
NtRp3212
(dp3213
g53
(dp3214
g61
I2
ssg62
g3208
sg55
(lp3215
g48
(g57
g50
NtRp3216
(dp3217
g53
(dp3218
g61
I1
ssg62
Nsg55
(lp3219
g48
(g64
g50
NtRp3220
(dp3221
g53
(dp3222
sg62
g3216
sg55
(lp3223
g48
(g69
g50
NtRp3224
(dp3225
g53
(dp3226
sg62
g3220
sg55
(lp3227
g48
(g49
g50
NtRp3228
(dp3229
g53
(dp3230
g61
I1
ssg62
g3224
sg55
(lp3231
g3091
(S's\n\x00\x00\x00Controller'
tRp3232
asbasbasbag48
(g64
g50
NtRp3233
(dp3234
g53
(dp3235
sg62
g3216
sg55
(lp3236
g48
(g69
g50
NtRp3237
(dp3238
g53
(dp3239
sg62
g3233
sg55
(lp3240
g48
(g49
g50
NtRp3241
(dp3242
g53
(dp3243
g61
I1
ssg62
g3237
sg55
(lp3244
I00
asbasbasbag48
(g64
g50
NtRp3245
(dp3246
g53
(dp3247
sg62
g3216
sg55
(lp3248
g48
(g69
g50
NtRp3249
(dp3250
g53
(dp3251
sg62
g3245
sg55
(lp3252
g48
(g49
g50
NtRp3253
(dp3254
g53
(dp3255
g61
I1
ssg62
g3249
sg55
(lp3256
S'/admin/default/edit/201056161/controllers/default.py'
p3257
asbasbasbasbasbasbasbag48
(g64
g50
NtRp3258
(dp3259
g53
(dp3260
sg62
g3200
sg55
(lp3261
g48
(g69
g50
NtRp3262
(dp3263
g53
(dp3264
sg62
g3258
sg55
(lp3265
g48
(g49
g50
NtRp3266
(dp3267
g53
(dp3268
g61
I2
ssg62
g3262
sg55
(lp3269
g48
(g57
g50
NtRp3270
(dp3271
g53
(dp3272
g61
I1
ssg62
Nsg55
(lp3273
g48
(g64
g50
NtRp3274
(dp3275
g53
(dp3276
sg62
g3270
sg55
(lp3277
g48
(g69
g50
NtRp3278
(dp3279
g53
(dp3280
sg62
g3274
sg55
(lp3281
g48
(g49
g50
NtRp3282
(dp3283
g53
(dp3284
g61
I1
ssg62
g3278
sg55
(lp3285
g3091
(S's\x04\x00\x00\x00View'
tRp3286
asbasbasbag48
(g64
g50
NtRp3287
(dp3288
g53
(dp3289
sg62
g3270
sg55
(lp3290
g48
(g69
g50
NtRp3291
(dp3292
g53
(dp3293
sg62
g3287
sg55
(lp3294
g48
(g49
g50
NtRp3295
(dp3296
g53
(dp3297
g61
I1
ssg62
g3291
sg55
(lp3298
I00
asbasbasbag48
(g64
g50
NtRp3299
(dp3300
g53
(dp3301
sg62
g3270
sg55
(lp3302
g48
(g69
g50
NtRp3303
(dp3304
g53
(dp3305
sg62
g3299
sg55
(lp3306
g48
(g49
g50
NtRp3307
(dp3308
g53
(dp3309
g61
I1
ssg62
g3303
sg55
(lp3310
S'/admin/default/edit/201056161/views/default/q2f.html'
p3311
asbasbasbasbasbasbasbag48
(g64
g50
NtRp3312
(dp3313
g53
(dp3314
sg62
g3200
sg55
(lp3315
g48
(g69
g50
NtRp3316
(dp3317
g53
(dp3318
sg62
g3312
sg55
(lp3319
g48
(g49
g50
NtRp3320
(dp3321
g53
(dp3322
g61
I2
ssg62
g3316
sg55
(lp3323
g48
(g57
g50
NtRp3324
(dp3325
g53
(dp3326
g61
I1
ssg62
Nsg55
(lp3327
g48
(g64
g50
NtRp3328
(dp3329
g53
(dp3330
sg62
g3324
sg55
(lp3331
g48
(g69
g50
NtRp3332
(dp3333
g53
(dp3334
sg62
g3328
sg55
(lp3335
g48
(g49
g50
NtRp3336
(dp3337
g53
(dp3338
g61
I1
ssg62
g3332
sg55
(lp3339
g3091
(S's\x06\x00\x00\x00Layout'
tRp3340
asbasbasbag48
(g64
g50
NtRp3341
(dp3342
g53
(dp3343
sg62
g3324
sg55
(lp3344
g48
(g69
g50
NtRp3345
(dp3346
g53
(dp3347
sg62
g3341
sg55
(lp3348
g48
(g49
g50
NtRp3349
(dp3350
g53
(dp3351
g61
I1
ssg62
g3345
sg55
(lp3352
I00
asbasbasbag48
(g64
g50
NtRp3353
(dp3354
g53
(dp3355
sg62
g3324
sg55
(lp3356
g48
(g69
g50
NtRp3357
(dp3358
g53
(dp3359
sg62
g3353
sg55
(lp3360
g48
(g49
g50
NtRp3361
(dp3362
g53
(dp3363
g61
I1
ssg62
g3357
sg55
(lp3364
S'/admin/default/edit/201056161/views/layout.html'
p3365
asbasbasbasbasbasbasbag48
(g64
g50
NtRp3366
(dp3367
g53
(dp3368
sg62
g3200
sg55
(lp3369
g48
(g69
g50
NtRp3370
(dp3371
g53
(dp3372
sg62
g3366
sg55
(lp3373
g48
(g49
g50
NtRp3374
(dp3375
g53
(dp3376
g61
I2
ssg62
g3370
sg55
(lp3377
g48
(g57
g50
NtRp3378
(dp3379
g53
(dp3380
g61
I1
ssg62
Nsg55
(lp3381
g48
(g64
g50
NtRp3382
(dp3383
g53
(dp3384
sg62
g3378
sg55
(lp3385
g48
(g69
g50
NtRp3386
(dp3387
g53
(dp3388
sg62
g3382
sg55
(lp3389
g48
(g49
g50
NtRp3390
(dp3391
g53
(dp3392
g61
I1
ssg62
g3386
sg55
(lp3393
g3091
(S's\n\x00\x00\x00Stylesheet'
tRp3394
asbasbasbag48
(g64
g50
NtRp3395
(dp3396
g53
(dp3397
sg62
g3378
sg55
(lp3398
g48
(g69
g50
NtRp3399
(dp3400
g53
(dp3401
sg62
g3395
sg55
(lp3402
g48
(g49
g50
NtRp3403
(dp3404
g53
(dp3405
g61
I1
ssg62
g3399
sg55
(lp3406
I00
asbasbasbag48
(g64
g50
NtRp3407
(dp3408
g53
(dp3409
sg62
g3378
sg55
(lp3410
g48
(g69
g50
NtRp3411
(dp3412
g53
(dp3413
sg62
g3407
sg55
(lp3414
g48
(g49
g50
NtRp3415
(dp3416
g53
(dp3417
g61
I1
ssg62
g3411
sg55
(lp3418
S'/admin/default/edit/201056161/static/base.css'
p3419
asbasbasbasbasbasbasbag48
(g64
g50
NtRp3420
(dp3421
g53
(dp3422
sg62
g3200
sg55
(lp3423
g48
(g69
g50
NtRp3424
(dp3425
g53
(dp3426
sg62
g3420
sg55
(lp3427
g48
(g49
g50
NtRp3428
(dp3429
g53
(dp3430
g61
I2
ssg62
g3424
sg55
(lp3431
g48
(g57
g50
NtRp3432
(dp3433
g53
(dp3434
g61
I1
ssg62
Nsg55
(lp3435
g48
(g64
g50
NtRp3436
(dp3437
g53
(dp3438
sg62
g3432
sg55
(lp3439
g48
(g69
g50
NtRp3440
(dp3441
g53
(dp3442
sg62
g3436
sg55
(lp3443
g48
(g49
g50
NtRp3444
(dp3445
g53
(dp3446
g61
I1
ssg62
g3440
sg55
(lp3447
g3091
(S's\x08\x00\x00\x00DB Model'
tRp3448
asbasbasbag48
(g64
g50
NtRp3449
(dp3450
g53
(dp3451
sg62
g3432
sg55
(lp3452
g48
(g69
g50
NtRp3453
(dp3454
g53
(dp3455
sg62
g3449
sg55
(lp3456
g48
(g49
g50
NtRp3457
(dp3458
g53
(dp3459
g61
I1
ssg62
g3453
sg55
(lp3460
I00
asbasbasbag48
(g64
g50
NtRp3461
(dp3462
g53
(dp3463
sg62
g3432
sg55
(lp3464
g48
(g69
g50
NtRp3465
(dp3466
g53
(dp3467
sg62
g3461
sg55
(lp3468
g48
(g49
g50
NtRp3469
(dp3470
g53
(dp3471
g61
I1
ssg62
g3465
sg55
(lp3472
S'/admin/default/edit/201056161/models/db.py'
p3473
asbasbasbasbasbasbasbag48
(g64
g50
NtRp3474
(dp3475
g53
(dp3476
sg62
g3200
sg55
(lp3477
g48
(g69
g50
NtRp3478
(dp3479
g53
(dp3480
sg62
g3474
sg55
(lp3481
g48
(g49
g50
NtRp3482
(dp3483
g53
(dp3484
g61
I2
ssg62
g3478
sg55
(lp3485
g48
(g57
g50
NtRp3486
(dp3487
g53
(dp3488
g61
I1
ssg62
Nsg55
(lp3489
g48
(g64
g50
NtRp3490
(dp3491
g53
(dp3492
sg62
g3486
sg55
(lp3493
g48
(g69
g50
NtRp3494
(dp3495
g53
(dp3496
sg62
g3490
sg55
(lp3497
g48
(g49
g50
NtRp3498
(dp3499
g53
(dp3500
g61
I1
ssg62
g3494
sg55
(lp3501
g3091
(S's\n\x00\x00\x00Menu Model'
tRp3502
asbasbasbag48
(g64
g50
NtRp3503
(dp3504
g53
(dp3505
sg62
g3486
sg55
(lp3506
g48
(g69
g50
NtRp3507
(dp3508
g53
(dp3509
sg62
g3503
sg55
(lp3510
g48
(g49
g50
NtRp3511
(dp3512
g53
(dp3513
g61
I1
ssg62
g3507
sg55
(lp3514
I00
asbasbasbag48
(g64
g50
NtRp3515
(dp3516
g53
(dp3517
sg62
g3486
sg55
(lp3518
g48
(g69
g50
NtRp3519
(dp3520
g53
(dp3521
sg62
g3515
sg55
(lp3522
g48
(g49
g50
NtRp3523
(dp3524
g53
(dp3525
g61
I1
ssg62
g3519
sg55
(lp3526
S'/admin/default/edit/201056161/models/menu.py'
p3527
asbasbasbasbasbasbasbag48
(g64
g50
NtRp3528
(dp3529
g53
(dp3530
sg62
g3200
sg55
(lp3531
g48
(g69
g50
NtRp3532
(dp3533
g53
(dp3534
sg62
g3528
sg55
(lp3535
g48
(g49
g50
NtRp3536
(dp3537
g53
(dp3538
g61
I2
ssg62
g3532
sg55
(lp3539
g48
(g57
g50
NtRp3540
(dp3541
g53
(dp3542
g61
I1
ssg62
Nsg55
(lp3543
g48
(g64
g50
NtRp3544
(dp3545
g53
(dp3546
sg62
g3540
sg55
(lp3547
g48
(g69
g50
NtRp3548
(dp3549
g53
(dp3550
sg62
g3544
sg55
(lp3551
g48
(g49
g50
NtRp3552
(dp3553
g53
(dp3554
g61
I1
ssg62
g3548
sg55
(lp3555
g3091
(S's\x08\x00\x00\x00Database'
tRp3556
asbasbasbag48
(g64
g50
NtRp3557
(dp3558
g53
(dp3559
sg62
g3540
sg55
(lp3560
g48
(g69
g50
NtRp3561
(dp3562
g53
(dp3563
sg62
g3557
sg55
(lp3564
g48
(g49
g50
NtRp3565
(dp3566
g53
(dp3567
g61
I1
ssg62
g3561
sg55
(lp3568
I00
asbasbasbag48
(g64
g50
NtRp3569
(dp3570
g53
(dp3571
sg62
g3540
sg55
(lp3572
g48
(g69
g50
NtRp3573
(dp3574
g53
(dp3575
sg62
g3569
sg55
(lp3576
g48
(g49
g50
NtRp3577
(dp3578
g53
(dp3579
g61
I1
ssg62
g3573
sg55
(lp3580
S'/201056161/appadmin/index'
p3581
asbasbasbasbasbasbasbag48
(g64
g50
NtRp3582
(dp3583
g53
(dp3584
sg62
g3200
sg55
(lp3585
g48
(g69
g50
NtRp3586
(dp3587
g53
(dp3588
sg62
g3582
sg55
(lp3589
g48
(g49
g50
NtRp3590
(dp3591
g53
(dp3592
g61
I2
ssg62
g3586
sg55
(lp3593
g48
(g57
g50
NtRp3594
(dp3595
g53
(dp3596
g61
I1
ssg62
Nsg55
(lp3597
g48
(g64
g50
NtRp3598
(dp3599
g53
(dp3600
sg62
g3594
sg55
(lp3601
g48
(g69
g50
NtRp3602
(dp3603
g53
(dp3604
sg62
g3598
sg55
(lp3605
g48
(g49
g50
NtRp3606
(dp3607
g53
(dp3608
g61
I1
ssg62
g3602
sg55
(lp3609
g3091
(S's\x06\x00\x00\x00Errors'
tRp3610
asbasbasbag48
(g64
g50
NtRp3611
(dp3612
g53
(dp3613
sg62
g3594
sg55
(lp3614
g48
(g69
g50
NtRp3615
(dp3616
g53
(dp3617
sg62
g3611
sg55
(lp3618
g48
(g49
g50
NtRp3619
(dp3620
g53
(dp3621
g61
I1
ssg62
g3615
sg55
(lp3622
I00
asbasbasbag48
(g64
g50
NtRp3623
(dp3624
g53
(dp3625
sg62
g3594
sg55
(lp3626
g48
(g69
g50
NtRp3627
(dp3628
g53
(dp3629
sg62
g3623
sg55
(lp3630
g48
(g49
g50
NtRp3631
(dp3632
g53
(dp3633
g61
I1
ssg62
g3627
sg55
(lp3634
S'/admin/default/errors/201056161'
p3635
asbasbasbasbasbasbasbag48
(g64
g50
NtRp3636
(dp3637
g53
(dp3638
sg62
g3200
sg55
(lp3639
g48
(g69
g50
NtRp3640
(dp3641
g53
(dp3642
sg62
g3636
sg55
(lp3643
g48
(g49
g50
NtRp3644
(dp3645
g53
(dp3646
g61
I2
ssg62
g3640
sg55
(lp3647
g48
(g57
g50
NtRp3648
(dp3649
g53
(dp3650
g61
I1
ssg62
Nsg55
(lp3651
g48
(g64
g50
NtRp3652
(dp3653
g53
(dp3654
sg62
g3648
sg55
(lp3655
g48
(g69
g50
NtRp3656
(dp3657
g53
(dp3658
sg62
g3652
sg55
(lp3659
g48
(g49
g50
NtRp3660
(dp3661
g53
(dp3662
g61
I1
ssg62
g3656
sg55
(lp3663
g3091
(S's\x05\x00\x00\x00About'
tRp3664
asbasbasbag48
(g64
g50
NtRp3665
(dp3666
g53
(dp3667
sg62
g3648
sg55
(lp3668
g48
(g69
g50
NtRp3669
(dp3670
g53
(dp3671
sg62
g3665
sg55
(lp3672
g48
(g49
g50
NtRp3673
(dp3674
g53
(dp3675
g61
I1
ssg62
g3669
sg55
(lp3676
I00
asbasbasbag48
(g64
g50
NtRp3677
(dp3678
g53
(dp3679
sg62
g3648
sg55
(lp3680
g48
(g69
g50
NtRp3681
(dp3682
g53
(dp3683
sg62
g3677
sg55
(lp3684
g48
(g49
g50
NtRp3685
(dp3686
g53
(dp3687
g61
I1
ssg62
g3681
sg55
(lp3688
S'/admin/default/about/201056161'
p3689
asbasbasbasbasbasbasbasbasbasbasbasbasbasbasbag48
(g64
g50
NtRp3690
(dp3691
g53
(dp3692
sg62
g3059
sg55
(lp3693
g48
(g69
g50
NtRp3694
(dp3695
g53
(dp3696
sg62
g3690
sg55
(lp3697
g48
(g49
g50
NtRp3698
(dp3699
g53
(dp3700
g61
I4
ssg62
g3694
sg55
(lp3701
g48
(g57
g50
NtRp3702
(dp3703
g53
(dp3704
g61
I3
ssg62
Nsg55
(lp3705
g48
(g64
g50
NtRp3706
(dp3707
g53
(dp3708
sg62
g3702
sg55
(lp3709
g48
(g69
g50
NtRp3710
(dp3711
g53
(dp3712
sg62
g3706
sg55
(lp3713
g48
(g49
g50
NtRp3714
(dp3715
g53
(dp3716
g61
I3
ssg62
g3710
sg55
(lp3717
g3091
(S's\t\x00\x00\x00Resources'
tRp3718
asbasbasbag48
(g64
g50
NtRp3719
(dp3720
g53
(dp3721
sg62
g3702
sg55
(lp3722
g48
(g69
g50
NtRp3723
(dp3724
g53
(dp3725
sg62
g3719
sg55
(lp3726
g48
(g49
g50
NtRp3727
(dp3728
g53
(dp3729
g61
I3
ssg62
g3723
sg55
(lp3730
g91
asbasbasbag48
(g64
g50
NtRp3731
(dp3732
g53
(dp3733
sg62
g3702
sg55
(lp3734
g48
(g69
g50
NtRp3735
(dp3736
g53
(dp3737
sg62
g3731
sg55
(lp3738
g48
(g49
g50
NtRp3739
(dp3740
g53
(dp3741
g61
I3
ssg62
g3735
sg55
(lp3742
S'None'
p3743
asbasbasbag48
(g64
g50
NtRp3744
(dp3745
g53
(dp3746
sg62
g3702
sg55
(lp3747
g48
(g69
g50
NtRp3748
(dp3749
g53
(dp3750
sg62
g3744
sg55
(lp3751
g48
(g49
g50
NtRp3752
(dp3753
g53
(dp3754
g61
I3
ssg62
g3748
sg55
(lp3755
g48
(g57
g50
NtRp3756
(dp3757
g53
(dp3758
g61
I2
ssg62
Nsg55
(lp3759
g48
(g64
g50
NtRp3760
(dp3761
g53
(dp3762
sg62
g3756
sg55
(lp3763
g48
(g69
g50
NtRp3764
(dp3765
g53
(dp3766
sg62
g3760
sg55
(lp3767
g48
(g49
g50
NtRp3768
(dp3769
g53
(dp3770
g61
I2
ssg62
g3764
sg55
(lp3771
g48
(g57
g50
NtRp3772
(dp3773
g53
(dp3774
g61
I1
ssg62
Nsg55
(lp3775
g48
(g64
g50
NtRp3776
(dp3777
g53
(dp3778
sg62
g3772
sg55
(lp3779
g48
(g69
g50
NtRp3780
(dp3781
g53
(dp3782
sg62
g3776
sg55
(lp3783
g48
(g49
g50
NtRp3784
(dp3785
g53
(dp3786
g61
I1
ssg62
g3780
sg55
(lp3787
g3091
(S's\r\x00\x00\x00Documentation'
tRp3788
asbasbasbag48
(g64
g50
NtRp3789
(dp3790
g53
(dp3791
sg62
g3772
sg55
(lp3792
g48
(g69
g50
NtRp3793
(dp3794
g53
(dp3795
sg62
g3789
sg55
(lp3796
g48
(g49
g50
NtRp3797
(dp3798
g53
(dp3799
g61
I1
ssg62
g3793
sg55
(lp3800
I00
asbasbasbag48
(g64
g50
NtRp3801
(dp3802
g53
(dp3803
sg62
g3772
sg55
(lp3804
g48
(g69
g50
NtRp3805
(dp3806
g53
(dp3807
sg62
g3801
sg55
(lp3808
g48
(g49
g50
NtRp3809
(dp3810
g53
(dp3811
g61
I1
ssg62
g3805
sg55
(lp3812
S'http://www.web2py.com/book'
p3813
asbasbasbag48
(g64
g50
NtRp3814
(dp3815
g53
(dp3816
sg62
g3772
sg55
(lp3817
g48
(g69
g50
NtRp3818
(dp3819
g53
(dp3820
sg62
g3814
sg55
(lp3821
g48
(g49
g50
NtRp3822
(dp3823
g53
(dp3824
g61
I1
ssg62
g3818
sg55
(lp3825
(lp3826
(g3091
(S's\x07\x00\x00\x00Preface'
tRp3827
I00
S'http://www.web2py.com/book/default/chapter/00'
tp3828
a(g3091
(S's\x0c\x00\x00\x00Introduction'
tRp3829
I00
S'http://www.web2py.com/book/default/chapter/01'
tp3830
a(g3091
(S's\x06\x00\x00\x00Python'
tRp3831
I00
S'http://www.web2py.com/book/default/chapter/02'
tp3832
a(g3091
(S's\x08\x00\x00\x00Overview'
tRp3833
I00
S'http://www.web2py.com/book/default/chapter/03'
tp3834
a(g3091
(S's\x08\x00\x00\x00The Core'
tRp3835
I00
S'http://www.web2py.com/book/default/chapter/04'
tp3836
a(g3091
(S's\t\x00\x00\x00The Views'
tRp3837
I00
S'http://www.web2py.com/book/default/chapter/05'
tp3838
a(g3091
(S's\x08\x00\x00\x00Database'
tRp3839
I00
S'http://www.web2py.com/book/default/chapter/06'
tp3840
a(g3091
(S's\x14\x00\x00\x00Forms and Validators'
tRp3841
I00
S'http://www.web2py.com/book/default/chapter/07'
tp3842
a(g3091
(S's\x0e\x00\x00\x00Access Control'
tRp3843
I00
S'http://www.web2py.com/book/default/chapter/08'
tp3844
a(g3091
(S's\x08\x00\x00\x00Services'
tRp3845
I00
S'http://www.web2py.com/book/default/chapter/09'
tp3846
a(g3091
(S's\x0c\x00\x00\x00Ajax Recipes'
tRp3847
I00
S'http://www.web2py.com/book/default/chapter/10'
tp3848
a(g3091
(S's\x12\x00\x00\x00Deployment Recipes'
tRp3849
I00
S'http://www.web2py.com/book/default/chapter/11'
tp3850
a(g3091
(S's\r\x00\x00\x00Other Recipes'
tRp3851
I00
S'http://www.web2py.com/book/default/chapter/12'
tp3852
a(g3091
(S's\r\x00\x00\x00Buy this book'
tRp3853
I00
S'http://stores.lulu.com/web2py'
tp3854
aasbasbasbasbasbasbasbag48
(g64
g50
NtRp3855
(dp3856
g53
(dp3857
sg62
g3756
sg55
(lp3858
g48
(g69
g50
NtRp3859
(dp3860
g53
(dp3861
sg62
g3855
sg55
(lp3862
g48
(g49
g50
NtRp3863
(dp3864
g53
(dp3865
g61
I2
ssg62
g3859
sg55
(lp3866
g48
(g57
g50
NtRp3867
(dp3868
g53
(dp3869
g61
I1
ssg62
Nsg55
(lp3870
g48
(g64
g50
NtRp3871
(dp3872
g53
(dp3873
sg62
g3867
sg55
(lp3874
g48
(g69
g50
NtRp3875
(dp3876
g53
(dp3877
sg62
g3871
sg55
(lp3878
g48
(g49
g50
NtRp3879
(dp3880
g53
(dp3881
g61
I1
ssg62
g3875
sg55
(lp3882
g3091
(S's\t\x00\x00\x00Community'
tRp3883
asbasbasbag48
(g64
g50
NtRp3884
(dp3885
g53
(dp3886
sg62
g3867
sg55
(lp3887
g48
(g69
g50
NtRp3888
(dp3889
g53
(dp3890
sg62
g3884
sg55
(lp3891
g48
(g49
g50
NtRp3892
(dp3893
g53
(dp3894
g61
I1
ssg62
g3888
sg55
(lp3895
I00
asbasbasbag48
(g64
g50
NtRp3896
(dp3897
g53
(dp3898
sg62
g3867
sg55
(lp3899
g48
(g69
g50
NtRp3900
(dp3901
g53
(dp3902
sg62
g3896
sg55
(lp3903
g48
(g49
g50
NtRp3904
(dp3905
g53
(dp3906
g61
I1
ssg62
g3900
sg55
(lp3907
Nasbasbasbag48
(g64
g50
NtRp3908
(dp3909
g53
(dp3910
sg62
g3867
sg55
(lp3911
g48
(g69
g50
NtRp3912
(dp3913
g53
(dp3914
sg62
g3908
sg55
(lp3915
g48
(g49
g50
NtRp3916
(dp3917
g53
(dp3918
g61
I1
ssg62
g3912
sg55
(lp3919
(lp3920
(g3091
(S's\x06\x00\x00\x00Groups'
tRp3921
I00
S'http://www.web2py.com/examples/default/usergroups'
tp3922
a(g3091
(S's\x07\x00\x00\x00Twitter'
tRp3923
I00
S'http://twitter.com/web2py'
tp3924
a(g3091
(S's\t\x00\x00\x00Live chat'
tRp3925
I00
S'http://mibbit.com/?channel=%23web2py&server=irc.mibbit.net'
tp3926
a(g3091
(S's\n\x00\x00\x00User Voice'
tRp3927
I00
S'http://web2py.uservoice.com/'
tp3928
aasbasbasbasbasbasbasbag48
(g64
g50
NtRp3929
(dp3930
g53
(dp3931
sg62
g3756
sg55
(lp3932
g48
(g69
g50
NtRp3933
(dp3934
g53
(dp3935
sg62
g3929
sg55
(lp3936
g48
(g49
g50
NtRp3937
(dp3938
g53
(dp3939
g61
I2
ssg62
g3933
sg55
(lp3940
g48
(g57
g50
NtRp3941
(dp3942
g53
(dp3943
g61
I1
ssg62
Nsg55
(lp3944
g48
(g64
g50
NtRp3945
(dp3946
g53
(dp3947
sg62
g3941
sg55
(lp3948
g48
(g69
g50
NtRp3949
(dp3950
g53
(dp3951
sg62
g3945
sg55
(lp3952
g48
(g49
g50
NtRp3953
(dp3954
g53
(dp3955
g61
I1
ssg62
g3949
sg55
(lp3956
g3091
(S's\x06\x00\x00\x00Web2py'
tRp3957
asbasbasbag48
(g64
g50
NtRp3958
(dp3959
g53
(dp3960
sg62
g3941
sg55
(lp3961
g48
(g69
g50
NtRp3962
(dp3963
g53
(dp3964
sg62
g3958
sg55
(lp3965
g48
(g49
g50
NtRp3966
(dp3967
g53
(dp3968
g61
I1
ssg62
g3962
sg55
(lp3969
I00
asbasbasbag48
(g64
g50
NtRp3970
(dp3971
g53
(dp3972
sg62
g3941
sg55
(lp3973
g48
(g69
g50
NtRp3974
(dp3975
g53
(dp3976
sg62
g3970
sg55
(lp3977
g48
(g49
g50
NtRp3978
(dp3979
g53
(dp3980
g61
I1
ssg62
g3974
sg55
(lp3981
S'http://www.web2py.com'
p3982
asbasbasbag48
(g64
g50
NtRp3983
(dp3984
g53
(dp3985
sg62
g3941
sg55
(lp3986
g48
(g69
g50
NtRp3987
(dp3988
g53
(dp3989
sg62
g3983
sg55
(lp3990
g48
(g49
g50
NtRp3991
(dp3992
g53
(dp3993
g61
I1
ssg62
g3987
sg55
(lp3994
(lp3995
(g3091
(S's\x08\x00\x00\x00Download'
tRp3996
I00
S'http://www.web2py.com/examples/default/download'
tp3997
a(g3091
(S's\x07\x00\x00\x00Support'
tRp3998
I00
S'http://www.web2py.com/examples/default/support'
tp3999
a(g3091
(S's\x0e\x00\x00\x00Quick Examples'
tRp4000
I00
S'http://web2py.com/examples/default/examples'
tp4001
a(g3091
(S's\x03\x00\x00\x00FAQ'
tRp4002
I00
S'http://web2py.com/AlterEgo'
tp4003
a(g3091
(S's\x11\x00\x00\x00Free Applications'
tRp4004
I00
S'http://web2py.com/appliances'
tp4005
a(g3091
(S's\x07\x00\x00\x00Plugins'
tRp4006
I00
S'http://web2py.com/plugins'
tp4007
a(g3091
(S's\x07\x00\x00\x00Recipes'
tRp4008
I00
S'http://web2pyslices.com/'
tp4009
a(g3091
(S's\x04\x00\x00\x00Demo'
tRp4010
I00
S'http://web2py.com/demo_admin'
tp4011
a(g3091
(S's\x08\x00\x00\x00Semantic'
tRp4012
I00
S'http://web2py.com/semantic'
tp4013
a(g3091
(S's\x07\x00\x00\x00Layouts'
tRp4014
I00
S'http://web2py.com/layouts'
tp4015
a(g3091
(S's\x06\x00\x00\x00Videos'
tRp4016
I00
S'http://www.web2py.com/examples/default/videos/'
tp4017
aasbasbasbasbasbasbasbasbasbasbasbasbasbasbasbasbasbasbasbag48
(g64
g50
NtRp4018
(dp4019
g53
(dp4020
sg62
g2606
sg55
(lp4021
g48
(g69
g50
NtRp4022
(dp4023
g53
(dp4024
g73
g74
ssg62
g4018
sg55
(lp4025
S'meta'
p4026
asbag48
(g69
g50
NtRp4027
(dp4028
g53
(dp4029
g80
g81
ssg62
g4018
sg55
(lp4030
S':'
asbag48
(g69
g50
NtRp4031
(dp4032
g53
(dp4033
sg62
g4018
sg55
(lp4034
g48
(g49
g50
NtRp4035
(dp4036
g53
(dp4037
g61
I5
ssg62
g4031
sg55
(lp4038
g48
(g57
g50
NtRp4039
(dp4040
g53
(dp4041
g61
I4
ssg62
Nsg55
(lp4042
g48
(g64
g50
NtRp4043
(dp4044
g53
(dp4045
sg62
g4039
sg55
(lp4046
g48
(g69
g50
NtRp4047
(dp4048
g53
(dp4049
g73
g74
ssg62
g4043
sg55
(lp4050
S'author'
p4051
asbag48
(g69
g50
NtRp4052
(dp4053
g53
(dp4054
g80
g81
ssg62
g4043
sg55
(lp4055
S':'
asbag48
(g69
g50
NtRp4056
(dp4057
g53
(dp4058
sg62
g4043
sg55
(lp4059
g48
(g49
g50
NtRp4060
(dp4061
g53
(dp4062
g61
I4
ssg62
g4056
sg55
(lp4063
S'you'
p4064
asbasbasbag48
(g64
g50
NtRp4065
(dp4066
g53
(dp4067
sg62
g4039
sg55
(lp4068
g48
(g69
g50
NtRp4069
(dp4070
g53
(dp4071
g73
g74
ssg62
g4065
sg55
(lp4072
S'copyright'
p4073
asbag48
(g69
g50
NtRp4074
(dp4075
g53
(dp4076
g80
g81
ssg62
g4065
sg55
(lp4077
S':'
asbag48
(g69
g50
NtRp4078
(dp4079
g53
(dp4080
sg62
g4065
sg55
(lp4081
g48
(g49
g50
NtRp4082
(dp4083
g53
(dp4084
g61
I4
ssg62
g4078
sg55
(lp4085
S'Copyright 2007-2010'
p4086
asbasbasbag48
(g64
g50
NtRp4087
(dp4088
g53
(dp4089
sg62
g4039
sg55
(lp4090
g48
(g69
g50
NtRp4091
(dp4092
g53
(dp4093
g73
g74
ssg62
g4087
sg55
(lp4094
S'description'
p4095
asbag48
(g69
g50
NtRp4096
(dp4097
g53
(dp4098
g80
g81
ssg62
g4087
sg55
(lp4099
S':'
asbag48
(g69
g50
NtRp4100
(dp4101
g53
(dp4102
sg62
g4087
sg55
(lp4103
g48
(g49
g50
NtRp4104
(dp4105
g53
(dp4106
g61
I4
ssg62
g4100
sg55
(lp4107
S'Free and open source full-stack enterprise framework for agile development of fast, scalable, secure and portable database-driven web-based applications. Written and programmable in Python'
p4108
asbasbasbag48
(g64
g50
NtRp4109
(dp4110
g53
(dp4111
sg62
g4039
sg55
(lp4112
g48
(g69
g50
NtRp4113
(dp4114
g53
(dp4115
g73
g74
ssg62
g4109
sg55
(lp4116
S'generator'
p4117
asbag48
(g69
g50
NtRp4118
(dp4119
g53
(dp4120
g80
g81
ssg62
g4109
sg55
(lp4121
S':'
asbag48
(g69
g50
NtRp4122
(dp4123
g53
(dp4124
sg62
g4109
sg55
(lp4125
g48
(g49
g50
NtRp4126
(dp4127
g53
(dp4128
g61
I4
ssg62
g4122
sg55
(lp4129
S'Web2py Enterprise Framework'
p4130
asbasbasbag48
(g64
g50
NtRp4131
(dp4132
g53
(dp4133
sg62
g4039
sg55
(lp4134
g48
(g69
g50
NtRp4135
(dp4136
g53
(dp4137
g73
g74
ssg62
g4131
sg55
(lp4138
S'keywords'
p4139
asbag48
(g69
g50
NtRp4140
(dp4141
g53
(dp4142
g80
g81
ssg62
g4131
sg55
(lp4143
S':'
asbag48
(g69
g50
NtRp4144
(dp4145
g53
(dp4146
sg62
g4131
sg55
(lp4147
g48
(g49
g50
NtRp4148
(dp4149
g53
(dp4150
g61
I4
ssg62
g4144
sg55
(lp4151
S'web2py, python, framework'
p4152
asbasbasbasbasbasbasbag48
(g64
g50
NtRp4153
(dp4154
g53
(dp4155
sg62
g2606
sg55
(lp4156
g48
(g69
g50
NtRp4157
(dp4158
g53
(dp4159
g73
g74
ssg62
g4153
sg55
(lp4160
S'postprocessing'
p4161
asbag48
(g69
g50
NtRp4162
(dp4163
g53
(dp4164
g80
g81
ssg62
g4153
sg55
(lp4165
S':'
asbag48
(g69
g50
NtRp4166
(dp4167
g53
(dp4168
sg62
g4153
sg55
(lp4169
g48
(g49
g50
NtRp4170
(dp4171
g53
(dp4172
g61
I5
ssg62
g4166
sg55
(lp4173
g48
(g57
g50
NtRp4174
(dp4175
g53
(dp4176
g61
I4
ssg62
Nsg55
(lp4177
sbasbasbasbag48
(g64
g50
NtRp4178
(dp4179
g53
(dp4180
sg62
g2606
sg55
(lp4181
g48
(g69
g50
NtRp4182
(dp4183
g53
(dp4184
g73
g74
ssg62
g4178
sg55
(lp4185
S'session_file'
p4186
asbag48
(g69
g50
NtRp4187
(dp4188
g53
(dp4189
g80
g81
ssg62
g4178
sg55
(lp4190
S':'
asbag48
(g69
g50
NtRp4191
(dp4192
g53
(dp4193
sg62
g4178
sg55
(lp4194
g48
(g49
g50
NtRp4195
(dp4196
g53
(dp4197
g61
I5
ssg62
g4191
sg55
(lp4198
S"<open file 'C:\\Users\\AKSHAY\\Desktop\\web2py\\applications\\201056161\\sessions\\127.0.0.1-3bc821ac-4d59-41c6-8699-b3e43edfc478', mode 'rb+' at 0x0699FB18>"
p4199
asbasbasbag48
(g64
g50
NtRp4200
(dp4201
g53
(dp4202
sg62
g2606
sg55
(lp4203
g48
(g69
g50
NtRp4204
(dp4205
g53
(dp4206
g73
g74
ssg62
g4200
sg55
(lp4207
S'session_filename'
p4208
asbag48
(g69
g50
NtRp4209
(dp4210
g53
(dp4211
g80
g81
ssg62
g4200
sg55
(lp4212
S':'
asbag48
(g69
g50
NtRp4213
(dp4214
g53
(dp4215
sg62
g4200
sg55
(lp4216
g48
(g49
g50
NtRp4217
(dp4218
g53
(dp4219
g61
I5
ssg62
g4213
sg55
(lp4220
S'C:\\Users\\AKSHAY\\Desktop\\web2py\\applications\\201056161\\sessions\\127.0.0.1-3bc821ac-4d59-41c6-8699-b3e43edfc478'
p4221
asbasbasbag48
(g64
g50
NtRp4222
(dp4223
g53
(dp4224
sg62
g2606
sg55
(lp4225
g48
(g69
g50
NtRp4226
(dp4227
g53
(dp4228
g73
g74
ssg62
g4222
sg55
(lp4229
S'session_id'
p4230
asbag48
(g69
g50
NtRp4231
(dp4232
g53
(dp4233
g80
g81
ssg62
g4222
sg55
(lp4234
S':'
asbag48
(g69
g50
NtRp4235
(dp4236
g53
(dp4237
sg62
g4222
sg55
(lp4238
g48
(g49
g50
NtRp4239
(dp4240
g53
(dp4241
g61
I5
ssg62
g4235
sg55
(lp4242
S'127.0.0.1-3bc821ac-4d59-41c6-8699-b3e43edfc478'
p4243
asbasbasbag48
(g64
g50
NtRp4244
(dp4245
g53
(dp4246
sg62
g2606
sg55
(lp4247
g48
(g69
g50
NtRp4248
(dp4249
g53
(dp4250
g73
g74
ssg62
g4244
sg55
(lp4251
S'session_id_name'
p4252
asbag48
(g69
g50
NtRp4253
(dp4254
g53
(dp4255
g80
g81
ssg62
g4244
sg55
(lp4256
S':'
asbag48
(g69
g50
NtRp4257
(dp4258
g53
(dp4259
sg62
g4244
sg55
(lp4260
g48
(g49
g50
NtRp4261
(dp4262
g53
(dp4263
g61
I5
ssg62
g4257
sg55
(lp4264
g2663
asbasbasbag48
(g64
g50
NtRp4265
(dp4266
g53
(dp4267
sg62
g2606
sg55
(lp4268
g48
(g69
g50
NtRp4269
(dp4270
g53
(dp4271
g73
g74
ssg62
g4265
sg55
(lp4272
S'session_locked'
p4273
asbag48
(g69
g50
NtRp4274
(dp4275
g53
(dp4276
g80
g81
ssg62
g4265
sg55
(lp4277
S':'
asbag48
(g69
g50
NtRp4278
(dp4279
g53
(dp4280
sg62
g4265
sg55
(lp4281
g48
(g49
g50
NtRp4282
(dp4283
g53
(dp4284
g61
I5
ssg62
g4278
sg55
(lp4285
g1500
asbasbasbag48
(g64
g50
NtRp4286
(dp4287
g53
(dp4288
sg62
g2606
sg55
(lp4289
g48
(g69
g50
NtRp4290
(dp4291
g53
(dp4292
g73
g74
ssg62
g4286
sg55
(lp4293
S'session_new'
p4294
asbag48
(g69
g50
NtRp4295
(dp4296
g53
(dp4297
g80
g81
ssg62
g4286
sg55
(lp4298
S':'
asbag48
(g69
g50
NtRp4299
(dp4300
g53
(dp4301
sg62
g4286
sg55
(lp4302
g48
(g49
g50
NtRp4303
(dp4304
g53
(dp4305
g61
I5
ssg62
g4299
sg55
(lp4306
g91
asbasbasbag48
(g64
g50
NtRp4307
(dp4308
g53
(dp4309
sg62
g2606
sg55
(lp4310
g48
(g69
g50
NtRp4311
(dp4312
g53
(dp4313
g73
g74
ssg62
g4307
sg55
(lp4314
S'status'
p4315
asbag48
(g69
g50
NtRp4316
(dp4317
g53
(dp4318
g80
g81
ssg62
g4307
sg55
(lp4319
S':'
asbag48
(g69
g50
NtRp4320
(dp4321
g53
(dp4322
sg62
g4307
sg55
(lp4323
g48
(g49
g50
NtRp4324
(dp4325
g53
(dp4326
g61
I5
ssg62
g4320
sg55
(lp4327
S'200'
p4328
asbasbasbag48
(g64
g50
NtRp4329
(dp4330
g53
(dp4331
sg62
g2606
sg55
(lp4332
g48
(g69
g50
NtRp4333
(dp4334
g53
(dp4335
g73
g74
ssg62
g4329
sg55
(lp4336
S'subtitle'
p4337
asbag48
(g69
g50
NtRp4338
(dp4339
g53
(dp4340
g80
g81
ssg62
g4329
sg55
(lp4341
S':'
asbag48
(g69
g50
NtRp4342
(dp4343
g53
(dp4344
sg62
g4329
sg55
(lp4345
g48
(g49
g50
NtRp4346
(dp4347
g53
(dp4348
g61
I5
ssg62
g4342
sg55
(lp4349
g3091
(S's\r\x00\x00\x00customize me!'
tRp4350
asbasbasbag48
(g64
g50
NtRp4351
(dp4352
g53
(dp4353
sg62
g2606
sg55
(lp4354
g48
(g69
g50
NtRp4355
(dp4356
g53
(dp4357
g73
g74
ssg62
g4351
sg55
(lp4358
S'title'
p4359
asbag48
(g69
g50
NtRp4360
(dp4361
g53
(dp4362
g80
g81
ssg62
g4351
sg55
(lp4363
S':'
asbag48
(g69
g50
NtRp4364
(dp4365
g53
(dp4366
sg62
g4351
sg55
(lp4367
g48
(g49
g50
NtRp4368
(dp4369
g53
(dp4370
g61
I5
ssg62
g4364
sg55
(lp4371
g113
asbasbasbag48
(g64
g50
NtRp4372
(dp4373
g53
(dp4374
sg62
g2606
sg55
(lp4375
g48
(g69
g50
NtRp4376
(dp4377
g53
(dp4378
g73
g74
ssg62
g4372
sg55
(lp4379
g1824
asbag48
(g69
g50
NtRp4380
(dp4381
g53
(dp4382
g80
g81
ssg62
g4372
sg55
(lp4383
S':'
asbag48
(g69
g50
NtRp4384
(dp4385
g53
(dp4386
sg62
g4372
sg55
(lp4387
g48
(g49
g50
NtRp4388
(dp4389
g53
(dp4390
g61
I5
ssg62
g4384
sg55
(lp4391
g1837
asbasbasbag48
(g64
g50
NtRp4392
(dp4393
g53
(dp4394
sg62
g2606
sg55
(lp4395
g48
(g69
g50
NtRp4396
(dp4397
g53
(dp4398
g73
g74
ssg62
g4392
sg55
(lp4399
S'view'
p4400
asbag48
(g69
g50
NtRp4401
(dp4402
g53
(dp4403
g80
g81
ssg62
g4392
sg55
(lp4404
S':'
asbag48
(g69
g50
NtRp4405
(dp4406
g53
(dp4407
sg62
g4392
sg55
(lp4408
g48
(g49
g50
NtRp4409
(dp4410
g53
(dp4411
g61
I5
ssg62
g4405
sg55
(lp4412
S'default/q2f.html'
p4413
asbasbasbasbasbsS'locals'
p4414
(dp4415
S'orderby'
p4416
S'<gluon.dal.Field object at 0x074F4B70>'
p4417
sS'fields'
p4418
S'[<gluon.dal.Field object at 0x074F4B70>]'
p4419
sS'dd'
p4420
S"{'cache': None, 'groupby': None, 'orderby': <gluon.dal.Field object at 0x074F4B70>}"
p4421
sS'_[4]'
p4422
S'[]'
p4423
sS'groupby'
p4424
S'None'
p4425
sS'records'
p4426
S'<gluon.dal.Rows object at 0x06C25530>'
p4427
sS'r'
S"<Row {'update_record': <function <lambda> at 0x0...>, 'song': <gluon.dal.Set object at 0x06C25710>}>"
p4428
sS'k'
S"'id'"
p4429
sS'self'
p4430
S'<gluon.validators.IS_IN_DB object at 0x06C25310>'
p4431
sssS'traceback'
p4432
S'Traceback (most recent call last):\n  File "gluon/restricted.py", line 192, in restricted\n  File "C:\\Users\\AKSHAY\\Desktop\\web2py\\applications\\201056161\\controllers/default.py", line 152, in <module>\n  File "gluon/globals.py", line 137, in <lambda>\n  File "C:\\Users\\AKSHAY\\Desktop\\web2py\\applications\\201056161\\controllers/default.py", line 85, in q2f\n  File "gluon/sqlhtml.py", line 1226, in factory\n  File "gluon/sqlhtml.py", line 817, in __init__\n  File "gluon/sqlhtml.py", line 206, in widget\n  File "gluon/validators.py", line 438, in options\n  File "gluon/validators.py", line 433, in build_set\nKeyError: \'artist_name\'\n'
p4433
s.